   1              	 .syntax unified
   2              	 .cpu cortex-m4
   3              	 .eabi_attribute 27,3
   4              	 .fpu fpv4-sp-d16
   5              	 .eabi_attribute 20,1
   6              	 .eabi_attribute 21,1
   7              	 .eabi_attribute 23,3
   8              	 .eabi_attribute 24,1
   9              	 .eabi_attribute 25,1
  10              	 .eabi_attribute 26,1
  11              	 .eabi_attribute 30,6
  12              	 .eabi_attribute 34,1
  13              	 .eabi_attribute 18,4
  14              	 .thumb
  15              	 .file "main.c"
  16              	 .text
  17              	.Ltext0:
  18              	 .cfi_sections .debug_frame
  19              	 .section .text.XMC_GPIO_SetOutputHigh,"ax",%progbits
  20              	 .align 2
  21              	 .thumb
  22              	 .thumb_func
  24              	XMC_GPIO_SetOutputHigh:
  25              	.LFB137:
  26              	 .file 1 "C:/GitHub/MobRob_Rover_NEW/Inverter/Mobrob_Inverter/Libraries/XMCLib/inc/xmc_gpio.h"
   1:C:/GitHub/MobRob_Rover_NEW/Inverter/Mobrob_Inverter/Libraries/XMCLib/inc\xmc_gpio.h **** /**
   2:C:/GitHub/MobRob_Rover_NEW/Inverter/Mobrob_Inverter/Libraries/XMCLib/inc\xmc_gpio.h ****  * @file xmc_gpio.h
   3:C:/GitHub/MobRob_Rover_NEW/Inverter/Mobrob_Inverter/Libraries/XMCLib/inc\xmc_gpio.h ****  * @date 2015-06-20
   4:C:/GitHub/MobRob_Rover_NEW/Inverter/Mobrob_Inverter/Libraries/XMCLib/inc\xmc_gpio.h ****  *
   5:C:/GitHub/MobRob_Rover_NEW/Inverter/Mobrob_Inverter/Libraries/XMCLib/inc\xmc_gpio.h ****  * @cond
   6:C:/GitHub/MobRob_Rover_NEW/Inverter/Mobrob_Inverter/Libraries/XMCLib/inc\xmc_gpio.h ****  **************************************************************************************************
   7:C:/GitHub/MobRob_Rover_NEW/Inverter/Mobrob_Inverter/Libraries/XMCLib/inc\xmc_gpio.h ****  * XMClib v2.1.20 - XMC Peripheral Driver Library 
   8:C:/GitHub/MobRob_Rover_NEW/Inverter/Mobrob_Inverter/Libraries/XMCLib/inc\xmc_gpio.h ****  *
   9:C:/GitHub/MobRob_Rover_NEW/Inverter/Mobrob_Inverter/Libraries/XMCLib/inc\xmc_gpio.h ****  * Copyright (c) 2015-2018, Infineon Technologies AG
  10:C:/GitHub/MobRob_Rover_NEW/Inverter/Mobrob_Inverter/Libraries/XMCLib/inc\xmc_gpio.h ****  * All rights reserved.                        
  11:C:/GitHub/MobRob_Rover_NEW/Inverter/Mobrob_Inverter/Libraries/XMCLib/inc\xmc_gpio.h ****  *                                             
  12:C:/GitHub/MobRob_Rover_NEW/Inverter/Mobrob_Inverter/Libraries/XMCLib/inc\xmc_gpio.h ****  * Redistribution and use in source and binary forms, with or without modification,are permitted pr
  13:C:/GitHub/MobRob_Rover_NEW/Inverter/Mobrob_Inverter/Libraries/XMCLib/inc\xmc_gpio.h ****  * following conditions are met:   
  14:C:/GitHub/MobRob_Rover_NEW/Inverter/Mobrob_Inverter/Libraries/XMCLib/inc\xmc_gpio.h ****  *                                                                              
  15:C:/GitHub/MobRob_Rover_NEW/Inverter/Mobrob_Inverter/Libraries/XMCLib/inc\xmc_gpio.h ****  * Redistributions of source code must retain the above copyright notice, this list of conditions a
  16:C:/GitHub/MobRob_Rover_NEW/Inverter/Mobrob_Inverter/Libraries/XMCLib/inc\xmc_gpio.h ****  * disclaimer.                        
  17:C:/GitHub/MobRob_Rover_NEW/Inverter/Mobrob_Inverter/Libraries/XMCLib/inc\xmc_gpio.h ****  * 
  18:C:/GitHub/MobRob_Rover_NEW/Inverter/Mobrob_Inverter/Libraries/XMCLib/inc\xmc_gpio.h ****  * Redistributions in binary form must reproduce the above copyright notice, this list of condition
  19:C:/GitHub/MobRob_Rover_NEW/Inverter/Mobrob_Inverter/Libraries/XMCLib/inc\xmc_gpio.h ****  * disclaimer in the documentation and/or other materials provided with the distribution.          
  20:C:/GitHub/MobRob_Rover_NEW/Inverter/Mobrob_Inverter/Libraries/XMCLib/inc\xmc_gpio.h ****  * 
  21:C:/GitHub/MobRob_Rover_NEW/Inverter/Mobrob_Inverter/Libraries/XMCLib/inc\xmc_gpio.h ****  * Neither the name of the copyright holders nor the names of its contributors may be used to endor
  22:C:/GitHub/MobRob_Rover_NEW/Inverter/Mobrob_Inverter/Libraries/XMCLib/inc\xmc_gpio.h ****  * products derived from this software without specific prior written permission.                  
  23:C:/GitHub/MobRob_Rover_NEW/Inverter/Mobrob_Inverter/Libraries/XMCLib/inc\xmc_gpio.h ****  *                                                                              
  24:C:/GitHub/MobRob_Rover_NEW/Inverter/Mobrob_Inverter/Libraries/XMCLib/inc\xmc_gpio.h ****  * THIS SOFTWARE IS PROVIDED BY THE COPYRIGHT HOLDERS AND CONTRIBUTORS "AS IS" AND ANY EXPRESS OR I
  25:C:/GitHub/MobRob_Rover_NEW/Inverter/Mobrob_Inverter/Libraries/XMCLib/inc\xmc_gpio.h ****  * INCLUDING, BUT NOT LIMITED TO, THE IMPLIED WARRANTIES OF MERCHANTABILITY AND FITNESS FOR A PARTI
  26:C:/GitHub/MobRob_Rover_NEW/Inverter/Mobrob_Inverter/Libraries/XMCLib/inc\xmc_gpio.h ****  * DISCLAIMED. IN NO EVENT SHALL THE COPYRIGHT HOLDER OR CONTRIBUTORS BE LIABLE  FOR ANY DIRECT, IN
  27:C:/GitHub/MobRob_Rover_NEW/Inverter/Mobrob_Inverter/Libraries/XMCLib/inc\xmc_gpio.h ****  * SPECIAL, EXEMPLARY, OR CONSEQUENTIAL DAMAGES (INCLUDING, BUT NOT LIMITED TO, PROCUREMENT OF SUBS
  28:C:/GitHub/MobRob_Rover_NEW/Inverter/Mobrob_Inverter/Libraries/XMCLib/inc\xmc_gpio.h ****  * SERVICES; LOSS OF USE, DATA, OR PROFITS; OR BUSINESS INTERRUPTION) HOWEVER CAUSED AND ON ANY THE
  29:C:/GitHub/MobRob_Rover_NEW/Inverter/Mobrob_Inverter/Libraries/XMCLib/inc\xmc_gpio.h ****  * WHETHER IN CONTRACT, STRICT LIABILITY,OR TORT (INCLUDING NEGLIGENCE OR OTHERWISE) ARISING IN ANY
  30:C:/GitHub/MobRob_Rover_NEW/Inverter/Mobrob_Inverter/Libraries/XMCLib/inc\xmc_gpio.h ****  * OF THIS SOFTWARE, EVEN IF ADVISED OF THE POSSIBILITY OF SUCH DAMAGE.                            
  31:C:/GitHub/MobRob_Rover_NEW/Inverter/Mobrob_Inverter/Libraries/XMCLib/inc\xmc_gpio.h ****  *                                                                              
  32:C:/GitHub/MobRob_Rover_NEW/Inverter/Mobrob_Inverter/Libraries/XMCLib/inc\xmc_gpio.h ****  * To improve the quality of the software, users are encouraged to share modifications, enhancement
  33:C:/GitHub/MobRob_Rover_NEW/Inverter/Mobrob_Inverter/Libraries/XMCLib/inc\xmc_gpio.h ****  * Infineon Technologies AG dave@infineon.com).                                                    
  34:C:/GitHub/MobRob_Rover_NEW/Inverter/Mobrob_Inverter/Libraries/XMCLib/inc\xmc_gpio.h ****  **************************************************************************************************
  35:C:/GitHub/MobRob_Rover_NEW/Inverter/Mobrob_Inverter/Libraries/XMCLib/inc\xmc_gpio.h ****  *
  36:C:/GitHub/MobRob_Rover_NEW/Inverter/Mobrob_Inverter/Libraries/XMCLib/inc\xmc_gpio.h ****  * Change History
  37:C:/GitHub/MobRob_Rover_NEW/Inverter/Mobrob_Inverter/Libraries/XMCLib/inc\xmc_gpio.h ****  * --------------
  38:C:/GitHub/MobRob_Rover_NEW/Inverter/Mobrob_Inverter/Libraries/XMCLib/inc\xmc_gpio.h ****  *
  39:C:/GitHub/MobRob_Rover_NEW/Inverter/Mobrob_Inverter/Libraries/XMCLib/inc\xmc_gpio.h ****  * 2015-02-20:
  40:C:/GitHub/MobRob_Rover_NEW/Inverter/Mobrob_Inverter/Libraries/XMCLib/inc\xmc_gpio.h ****  *     - Initial draft<br>
  41:C:/GitHub/MobRob_Rover_NEW/Inverter/Mobrob_Inverter/Libraries/XMCLib/inc\xmc_gpio.h ****  *     - Documentation improved <br>
  42:C:/GitHub/MobRob_Rover_NEW/Inverter/Mobrob_Inverter/Libraries/XMCLib/inc\xmc_gpio.h ****  *      
  43:C:/GitHub/MobRob_Rover_NEW/Inverter/Mobrob_Inverter/Libraries/XMCLib/inc\xmc_gpio.h ****  * 2015-06-20:
  44:C:/GitHub/MobRob_Rover_NEW/Inverter/Mobrob_Inverter/Libraries/XMCLib/inc\xmc_gpio.h ****  *     - Removed version macros and declaration of GetDriverVersion API
  45:C:/GitHub/MobRob_Rover_NEW/Inverter/Mobrob_Inverter/Libraries/XMCLib/inc\xmc_gpio.h ****  *
  46:C:/GitHub/MobRob_Rover_NEW/Inverter/Mobrob_Inverter/Libraries/XMCLib/inc\xmc_gpio.h ****  * @endcond
  47:C:/GitHub/MobRob_Rover_NEW/Inverter/Mobrob_Inverter/Libraries/XMCLib/inc\xmc_gpio.h ****  *
  48:C:/GitHub/MobRob_Rover_NEW/Inverter/Mobrob_Inverter/Libraries/XMCLib/inc\xmc_gpio.h ****  */
  49:C:/GitHub/MobRob_Rover_NEW/Inverter/Mobrob_Inverter/Libraries/XMCLib/inc\xmc_gpio.h **** 
  50:C:/GitHub/MobRob_Rover_NEW/Inverter/Mobrob_Inverter/Libraries/XMCLib/inc\xmc_gpio.h **** #ifndef XMC_GPIO_H
  51:C:/GitHub/MobRob_Rover_NEW/Inverter/Mobrob_Inverter/Libraries/XMCLib/inc\xmc_gpio.h **** #define XMC_GPIO_H
  52:C:/GitHub/MobRob_Rover_NEW/Inverter/Mobrob_Inverter/Libraries/XMCLib/inc\xmc_gpio.h **** 
  53:C:/GitHub/MobRob_Rover_NEW/Inverter/Mobrob_Inverter/Libraries/XMCLib/inc\xmc_gpio.h **** /**************************************************************************************************
  54:C:/GitHub/MobRob_Rover_NEW/Inverter/Mobrob_Inverter/Libraries/XMCLib/inc\xmc_gpio.h ****  * HEADER FILES
  55:C:/GitHub/MobRob_Rover_NEW/Inverter/Mobrob_Inverter/Libraries/XMCLib/inc\xmc_gpio.h ****  **************************************************************************************************
  56:C:/GitHub/MobRob_Rover_NEW/Inverter/Mobrob_Inverter/Libraries/XMCLib/inc\xmc_gpio.h **** 
  57:C:/GitHub/MobRob_Rover_NEW/Inverter/Mobrob_Inverter/Libraries/XMCLib/inc\xmc_gpio.h **** #include "xmc_common.h"
  58:C:/GitHub/MobRob_Rover_NEW/Inverter/Mobrob_Inverter/Libraries/XMCLib/inc\xmc_gpio.h **** 
  59:C:/GitHub/MobRob_Rover_NEW/Inverter/Mobrob_Inverter/Libraries/XMCLib/inc\xmc_gpio.h **** /**
  60:C:/GitHub/MobRob_Rover_NEW/Inverter/Mobrob_Inverter/Libraries/XMCLib/inc\xmc_gpio.h ****  * @addtogroup XMClib XMC Peripheral Library
  61:C:/GitHub/MobRob_Rover_NEW/Inverter/Mobrob_Inverter/Libraries/XMCLib/inc\xmc_gpio.h ****  * @{
  62:C:/GitHub/MobRob_Rover_NEW/Inverter/Mobrob_Inverter/Libraries/XMCLib/inc\xmc_gpio.h ****  */
  63:C:/GitHub/MobRob_Rover_NEW/Inverter/Mobrob_Inverter/Libraries/XMCLib/inc\xmc_gpio.h **** 
  64:C:/GitHub/MobRob_Rover_NEW/Inverter/Mobrob_Inverter/Libraries/XMCLib/inc\xmc_gpio.h **** /**
  65:C:/GitHub/MobRob_Rover_NEW/Inverter/Mobrob_Inverter/Libraries/XMCLib/inc\xmc_gpio.h ****  * @addtogroup GPIO
  66:C:/GitHub/MobRob_Rover_NEW/Inverter/Mobrob_Inverter/Libraries/XMCLib/inc\xmc_gpio.h ****  * @brief General Purpose Input Output (GPIO) driver for the XMC microcontroller family.
  67:C:/GitHub/MobRob_Rover_NEW/Inverter/Mobrob_Inverter/Libraries/XMCLib/inc\xmc_gpio.h ****  *
  68:C:/GitHub/MobRob_Rover_NEW/Inverter/Mobrob_Inverter/Libraries/XMCLib/inc\xmc_gpio.h ****  * GPIO driver provide a generic and very flexible software interface for all standard digital I/O 
  69:C:/GitHub/MobRob_Rover_NEW/Inverter/Mobrob_Inverter/Libraries/XMCLib/inc\xmc_gpio.h ****  * Each port slice has individual interfaces for the operation as General Purpose I/O and it furthe
  70:C:/GitHub/MobRob_Rover_NEW/Inverter/Mobrob_Inverter/Libraries/XMCLib/inc\xmc_gpio.h ****  * connectivity to the on-chip periphery and the control for the pad characteristics. 
  71:C:/GitHub/MobRob_Rover_NEW/Inverter/Mobrob_Inverter/Libraries/XMCLib/inc\xmc_gpio.h ****  *
  72:C:/GitHub/MobRob_Rover_NEW/Inverter/Mobrob_Inverter/Libraries/XMCLib/inc\xmc_gpio.h ****  * The driver is divided into Input and Output mode.
  73:C:/GitHub/MobRob_Rover_NEW/Inverter/Mobrob_Inverter/Libraries/XMCLib/inc\xmc_gpio.h ****  *
  74:C:/GitHub/MobRob_Rover_NEW/Inverter/Mobrob_Inverter/Libraries/XMCLib/inc\xmc_gpio.h ****  * Input mode features:
  75:C:/GitHub/MobRob_Rover_NEW/Inverter/Mobrob_Inverter/Libraries/XMCLib/inc\xmc_gpio.h ****  * -# Configuration structure XMC_GPIO_CONFIG_t and initialization function XMC_GPIO_Init()
  76:C:/GitHub/MobRob_Rover_NEW/Inverter/Mobrob_Inverter/Libraries/XMCLib/inc\xmc_gpio.h ****  * -# Allows the selection of weak pull-up or pull-down device. Configuration structure XMC_GPIO_MO
  77:C:/GitHub/MobRob_Rover_NEW/Inverter/Mobrob_Inverter/Libraries/XMCLib/inc\xmc_gpio.h ****  * \if XMC1
  78:C:/GitHub/MobRob_Rover_NEW/Inverter/Mobrob_Inverter/Libraries/XMCLib/inc\xmc_gpio.h ****  * -# Allows the selection of input hysteresis. XMC_GPIO_SetInputHysteresis()
  79:C:/GitHub/MobRob_Rover_NEW/Inverter/Mobrob_Inverter/Libraries/XMCLib/inc\xmc_gpio.h ****  * \endif
  80:C:/GitHub/MobRob_Rover_NEW/Inverter/Mobrob_Inverter/Libraries/XMCLib/inc\xmc_gpio.h ****  *
  81:C:/GitHub/MobRob_Rover_NEW/Inverter/Mobrob_Inverter/Libraries/XMCLib/inc\xmc_gpio.h ****  * 
  82:C:/GitHub/MobRob_Rover_NEW/Inverter/Mobrob_Inverter/Libraries/XMCLib/inc\xmc_gpio.h ****  * Output mode features:
  83:C:/GitHub/MobRob_Rover_NEW/Inverter/Mobrob_Inverter/Libraries/XMCLib/inc\xmc_gpio.h ****  * -# Allows the selection of push pull/open drain and Alternate output. Configuration structure XM
  84:C:/GitHub/MobRob_Rover_NEW/Inverter/Mobrob_Inverter/Libraries/XMCLib/inc\xmc_gpio.h ****  * \if XMC4
  85:C:/GitHub/MobRob_Rover_NEW/Inverter/Mobrob_Inverter/Libraries/XMCLib/inc\xmc_gpio.h ****  * -# Allows the selection of pad driver strength. Configuration structure XMC_GPIO_OUTPUT_STRENGTH
  86:C:/GitHub/MobRob_Rover_NEW/Inverter/Mobrob_Inverter/Libraries/XMCLib/inc\xmc_gpio.h ****  * \endif
  87:C:/GitHub/MobRob_Rover_NEW/Inverter/Mobrob_Inverter/Libraries/XMCLib/inc\xmc_gpio.h ****  *
  88:C:/GitHub/MobRob_Rover_NEW/Inverter/Mobrob_Inverter/Libraries/XMCLib/inc\xmc_gpio.h ****  * -# Allows the selection of initial output level. Configuration structure XMC_GPIO_OUTPUT_LEVEL_t
  89:C:/GitHub/MobRob_Rover_NEW/Inverter/Mobrob_Inverter/Libraries/XMCLib/inc\xmc_gpio.h ****  *
  90:C:/GitHub/MobRob_Rover_NEW/Inverter/Mobrob_Inverter/Libraries/XMCLib/inc\xmc_gpio.h ****  *@{
  91:C:/GitHub/MobRob_Rover_NEW/Inverter/Mobrob_Inverter/Libraries/XMCLib/inc\xmc_gpio.h ****  */
  92:C:/GitHub/MobRob_Rover_NEW/Inverter/Mobrob_Inverter/Libraries/XMCLib/inc\xmc_gpio.h ****  
  93:C:/GitHub/MobRob_Rover_NEW/Inverter/Mobrob_Inverter/Libraries/XMCLib/inc\xmc_gpio.h **** /**************************************************************************************************
  94:C:/GitHub/MobRob_Rover_NEW/Inverter/Mobrob_Inverter/Libraries/XMCLib/inc\xmc_gpio.h ****  * MACROS
  95:C:/GitHub/MobRob_Rover_NEW/Inverter/Mobrob_Inverter/Libraries/XMCLib/inc\xmc_gpio.h ****  **************************************************************************************************
  96:C:/GitHub/MobRob_Rover_NEW/Inverter/Mobrob_Inverter/Libraries/XMCLib/inc\xmc_gpio.h **** 
  97:C:/GitHub/MobRob_Rover_NEW/Inverter/Mobrob_Inverter/Libraries/XMCLib/inc\xmc_gpio.h **** #define PORT_IOCR_PC_Pos PORT0_IOCR0_PC0_Pos
  98:C:/GitHub/MobRob_Rover_NEW/Inverter/Mobrob_Inverter/Libraries/XMCLib/inc\xmc_gpio.h **** #define PORT_IOCR_PC_Msk PORT0_IOCR0_PC0_Msk
  99:C:/GitHub/MobRob_Rover_NEW/Inverter/Mobrob_Inverter/Libraries/XMCLib/inc\xmc_gpio.h **** 
 100:C:/GitHub/MobRob_Rover_NEW/Inverter/Mobrob_Inverter/Libraries/XMCLib/inc\xmc_gpio.h **** #define PORT_IOCR_PC_Size 				(8U)
 101:C:/GitHub/MobRob_Rover_NEW/Inverter/Mobrob_Inverter/Libraries/XMCLib/inc\xmc_gpio.h **** 											
 102:C:/GitHub/MobRob_Rover_NEW/Inverter/Mobrob_Inverter/Libraries/XMCLib/inc\xmc_gpio.h **** 
 103:C:/GitHub/MobRob_Rover_NEW/Inverter/Mobrob_Inverter/Libraries/XMCLib/inc\xmc_gpio.h **** #define XMC_GPIO_CHECK_OUTPUT_LEVEL(level) ((level == XMC_GPIO_OUTPUT_LEVEL_LOW) || \
 104:C:/GitHub/MobRob_Rover_NEW/Inverter/Mobrob_Inverter/Libraries/XMCLib/inc\xmc_gpio.h ****                                             (level == XMC_GPIO_OUTPUT_LEVEL_HIGH))
 105:C:/GitHub/MobRob_Rover_NEW/Inverter/Mobrob_Inverter/Libraries/XMCLib/inc\xmc_gpio.h ****                                             
 106:C:/GitHub/MobRob_Rover_NEW/Inverter/Mobrob_Inverter/Libraries/XMCLib/inc\xmc_gpio.h **** #define XMC_GPIO_CHECK_HWCTRL(hwctrl) ((hwctrl == XMC_GPIO_HWCTRL_DISABLED) || \
 107:C:/GitHub/MobRob_Rover_NEW/Inverter/Mobrob_Inverter/Libraries/XMCLib/inc\xmc_gpio.h ****                                        (hwctrl == XMC_GPIO_HWCTRL_PERIPHERAL1) || \
 108:C:/GitHub/MobRob_Rover_NEW/Inverter/Mobrob_Inverter/Libraries/XMCLib/inc\xmc_gpio.h ****                                        (hwctrl == XMC_GPIO_HWCTRL_PERIPHERAL2))                    
 109:C:/GitHub/MobRob_Rover_NEW/Inverter/Mobrob_Inverter/Libraries/XMCLib/inc\xmc_gpio.h ****                                             
 110:C:/GitHub/MobRob_Rover_NEW/Inverter/Mobrob_Inverter/Libraries/XMCLib/inc\xmc_gpio.h **** /**************************************************************************************************
 111:C:/GitHub/MobRob_Rover_NEW/Inverter/Mobrob_Inverter/Libraries/XMCLib/inc\xmc_gpio.h ****  * ENUMS
 112:C:/GitHub/MobRob_Rover_NEW/Inverter/Mobrob_Inverter/Libraries/XMCLib/inc\xmc_gpio.h ****  **************************************************************************************************
 113:C:/GitHub/MobRob_Rover_NEW/Inverter/Mobrob_Inverter/Libraries/XMCLib/inc\xmc_gpio.h **** 
 114:C:/GitHub/MobRob_Rover_NEW/Inverter/Mobrob_Inverter/Libraries/XMCLib/inc\xmc_gpio.h **** 
 115:C:/GitHub/MobRob_Rover_NEW/Inverter/Mobrob_Inverter/Libraries/XMCLib/inc\xmc_gpio.h **** /**
 116:C:/GitHub/MobRob_Rover_NEW/Inverter/Mobrob_Inverter/Libraries/XMCLib/inc\xmc_gpio.h ****  * Defines output level of a pin. Use type \a XMC_GPIO_OUTPUT_LEVEL_t for this enum.
 117:C:/GitHub/MobRob_Rover_NEW/Inverter/Mobrob_Inverter/Libraries/XMCLib/inc\xmc_gpio.h ****  */
 118:C:/GitHub/MobRob_Rover_NEW/Inverter/Mobrob_Inverter/Libraries/XMCLib/inc\xmc_gpio.h **** typedef enum XMC_GPIO_OUTPUT_LEVEL
 119:C:/GitHub/MobRob_Rover_NEW/Inverter/Mobrob_Inverter/Libraries/XMCLib/inc\xmc_gpio.h **** {
 120:C:/GitHub/MobRob_Rover_NEW/Inverter/Mobrob_Inverter/Libraries/XMCLib/inc\xmc_gpio.h ****   XMC_GPIO_OUTPUT_LEVEL_LOW  = 0x10000U, /**<  Reset bit */
 121:C:/GitHub/MobRob_Rover_NEW/Inverter/Mobrob_Inverter/Libraries/XMCLib/inc\xmc_gpio.h ****   XMC_GPIO_OUTPUT_LEVEL_HIGH = 0x1U, 	/**< Set bit  */
 122:C:/GitHub/MobRob_Rover_NEW/Inverter/Mobrob_Inverter/Libraries/XMCLib/inc\xmc_gpio.h **** } XMC_GPIO_OUTPUT_LEVEL_t;
 123:C:/GitHub/MobRob_Rover_NEW/Inverter/Mobrob_Inverter/Libraries/XMCLib/inc\xmc_gpio.h **** 
 124:C:/GitHub/MobRob_Rover_NEW/Inverter/Mobrob_Inverter/Libraries/XMCLib/inc\xmc_gpio.h **** /**
 125:C:/GitHub/MobRob_Rover_NEW/Inverter/Mobrob_Inverter/Libraries/XMCLib/inc\xmc_gpio.h ****  * Defines direct hardware control characteristics of the pin . Use type \a XMC_GPIO_HWCTRL_t for t
 126:C:/GitHub/MobRob_Rover_NEW/Inverter/Mobrob_Inverter/Libraries/XMCLib/inc\xmc_gpio.h ****  */
 127:C:/GitHub/MobRob_Rover_NEW/Inverter/Mobrob_Inverter/Libraries/XMCLib/inc\xmc_gpio.h **** typedef enum XMC_GPIO_HWCTRL
 128:C:/GitHub/MobRob_Rover_NEW/Inverter/Mobrob_Inverter/Libraries/XMCLib/inc\xmc_gpio.h **** {
 129:C:/GitHub/MobRob_Rover_NEW/Inverter/Mobrob_Inverter/Libraries/XMCLib/inc\xmc_gpio.h ****   XMC_GPIO_HWCTRL_DISABLED     = 0x0U, /**<  Software control only */
 130:C:/GitHub/MobRob_Rover_NEW/Inverter/Mobrob_Inverter/Libraries/XMCLib/inc\xmc_gpio.h ****   XMC_GPIO_HWCTRL_PERIPHERAL1  = 0x1U, /**<  HWI0/HWO0 control path can override the software confi
 131:C:/GitHub/MobRob_Rover_NEW/Inverter/Mobrob_Inverter/Libraries/XMCLib/inc\xmc_gpio.h ****   XMC_GPIO_HWCTRL_PERIPHERAL2  = 0x2U  /**<  HWI1/HWO1 control path can override the software confi
 132:C:/GitHub/MobRob_Rover_NEW/Inverter/Mobrob_Inverter/Libraries/XMCLib/inc\xmc_gpio.h **** } XMC_GPIO_HWCTRL_t;
 133:C:/GitHub/MobRob_Rover_NEW/Inverter/Mobrob_Inverter/Libraries/XMCLib/inc\xmc_gpio.h **** 
 134:C:/GitHub/MobRob_Rover_NEW/Inverter/Mobrob_Inverter/Libraries/XMCLib/inc\xmc_gpio.h **** /**************************************************************************************************
 135:C:/GitHub/MobRob_Rover_NEW/Inverter/Mobrob_Inverter/Libraries/XMCLib/inc\xmc_gpio.h ****  * DEVICE FAMILY EXTENSIONS
 136:C:/GitHub/MobRob_Rover_NEW/Inverter/Mobrob_Inverter/Libraries/XMCLib/inc\xmc_gpio.h ****  **************************************************************************************************
 137:C:/GitHub/MobRob_Rover_NEW/Inverter/Mobrob_Inverter/Libraries/XMCLib/inc\xmc_gpio.h **** 
 138:C:/GitHub/MobRob_Rover_NEW/Inverter/Mobrob_Inverter/Libraries/XMCLib/inc\xmc_gpio.h ****  #if UC_FAMILY == XMC1
 139:C:/GitHub/MobRob_Rover_NEW/Inverter/Mobrob_Inverter/Libraries/XMCLib/inc\xmc_gpio.h **** #include "xmc1_gpio.h"
 140:C:/GitHub/MobRob_Rover_NEW/Inverter/Mobrob_Inverter/Libraries/XMCLib/inc\xmc_gpio.h **** #elif UC_FAMILY == XMC4
 141:C:/GitHub/MobRob_Rover_NEW/Inverter/Mobrob_Inverter/Libraries/XMCLib/inc\xmc_gpio.h **** #include "xmc4_gpio.h"
 142:C:/GitHub/MobRob_Rover_NEW/Inverter/Mobrob_Inverter/Libraries/XMCLib/inc\xmc_gpio.h **** #else
 143:C:/GitHub/MobRob_Rover_NEW/Inverter/Mobrob_Inverter/Libraries/XMCLib/inc\xmc_gpio.h **** #error "xmc_gpio.h: family device not supported"
 144:C:/GitHub/MobRob_Rover_NEW/Inverter/Mobrob_Inverter/Libraries/XMCLib/inc\xmc_gpio.h **** #endif
 145:C:/GitHub/MobRob_Rover_NEW/Inverter/Mobrob_Inverter/Libraries/XMCLib/inc\xmc_gpio.h **** 
 146:C:/GitHub/MobRob_Rover_NEW/Inverter/Mobrob_Inverter/Libraries/XMCLib/inc\xmc_gpio.h **** /**************************************************************************************************
 147:C:/GitHub/MobRob_Rover_NEW/Inverter/Mobrob_Inverter/Libraries/XMCLib/inc\xmc_gpio.h ****  * API PROTOTYPES
 148:C:/GitHub/MobRob_Rover_NEW/Inverter/Mobrob_Inverter/Libraries/XMCLib/inc\xmc_gpio.h ****  **************************************************************************************************
 149:C:/GitHub/MobRob_Rover_NEW/Inverter/Mobrob_Inverter/Libraries/XMCLib/inc\xmc_gpio.h **** 
 150:C:/GitHub/MobRob_Rover_NEW/Inverter/Mobrob_Inverter/Libraries/XMCLib/inc\xmc_gpio.h **** #ifdef __cplusplus
 151:C:/GitHub/MobRob_Rover_NEW/Inverter/Mobrob_Inverter/Libraries/XMCLib/inc\xmc_gpio.h **** extern "C" {
 152:C:/GitHub/MobRob_Rover_NEW/Inverter/Mobrob_Inverter/Libraries/XMCLib/inc\xmc_gpio.h **** #endif
 153:C:/GitHub/MobRob_Rover_NEW/Inverter/Mobrob_Inverter/Libraries/XMCLib/inc\xmc_gpio.h **** 
 154:C:/GitHub/MobRob_Rover_NEW/Inverter/Mobrob_Inverter/Libraries/XMCLib/inc\xmc_gpio.h **** 
 155:C:/GitHub/MobRob_Rover_NEW/Inverter/Mobrob_Inverter/Libraries/XMCLib/inc\xmc_gpio.h **** /**
 156:C:/GitHub/MobRob_Rover_NEW/Inverter/Mobrob_Inverter/Libraries/XMCLib/inc\xmc_gpio.h ****  * @param  port	  Constant pointer pointing to GPIO port, to access port registers like Pn_OUT,Pn_O
 157:C:/GitHub/MobRob_Rover_NEW/Inverter/Mobrob_Inverter/Libraries/XMCLib/inc\xmc_gpio.h ****  * @param  pin	  Port pin number.
 158:C:/GitHub/MobRob_Rover_NEW/Inverter/Mobrob_Inverter/Libraries/XMCLib/inc\xmc_gpio.h ****  * @param  config GPIO configuration data structure. Refer data structure @ref XMC_GPIO_CONFIG_t fo
 159:C:/GitHub/MobRob_Rover_NEW/Inverter/Mobrob_Inverter/Libraries/XMCLib/inc\xmc_gpio.h ****  *
 160:C:/GitHub/MobRob_Rover_NEW/Inverter/Mobrob_Inverter/Libraries/XMCLib/inc\xmc_gpio.h ****  * @return None
 161:C:/GitHub/MobRob_Rover_NEW/Inverter/Mobrob_Inverter/Libraries/XMCLib/inc\xmc_gpio.h ****  *
 162:C:/GitHub/MobRob_Rover_NEW/Inverter/Mobrob_Inverter/Libraries/XMCLib/inc\xmc_gpio.h ****  * \par<b>Description:</b><br>
 163:C:/GitHub/MobRob_Rover_NEW/Inverter/Mobrob_Inverter/Libraries/XMCLib/inc\xmc_gpio.h ****  * \if XMC1
 164:C:/GitHub/MobRob_Rover_NEW/Inverter/Mobrob_Inverter/Libraries/XMCLib/inc\xmc_gpio.h ****  * Initializes input / output mode settings like, pull up / pull down devices,hysteresis, push pull
 165:C:/GitHub/MobRob_Rover_NEW/Inverter/Mobrob_Inverter/Libraries/XMCLib/inc\xmc_gpio.h ****  * Also configures alternate function outputs and clears hardware port control for a selected \a po
 166:C:/GitHub/MobRob_Rover_NEW/Inverter/Mobrob_Inverter/Libraries/XMCLib/inc\xmc_gpio.h ****  * \a config provides selected I/O settings. It configures hardware registers Pn_IOCR,Pn_OUT, Pn_OM
 167:C:/GitHub/MobRob_Rover_NEW/Inverter/Mobrob_Inverter/Libraries/XMCLib/inc\xmc_gpio.h ****  * \endif
 168:C:/GitHub/MobRob_Rover_NEW/Inverter/Mobrob_Inverter/Libraries/XMCLib/inc\xmc_gpio.h ****  * \if XMC4
 169:C:/GitHub/MobRob_Rover_NEW/Inverter/Mobrob_Inverter/Libraries/XMCLib/inc\xmc_gpio.h ****  * Initializes input / output mode settings like, pull up / pull down devices,push pull /open drain
 170:C:/GitHub/MobRob_Rover_NEW/Inverter/Mobrob_Inverter/Libraries/XMCLib/inc\xmc_gpio.h ****  * Also configures alternate function outputs and clears hardware port control for selected \a port
 171:C:/GitHub/MobRob_Rover_NEW/Inverter/Mobrob_Inverter/Libraries/XMCLib/inc\xmc_gpio.h ****  * It configures hardware registers Pn_IOCR,Pn_OUT,Pn_OMR,Pn_PDISC and Pn_PDR.\n
 172:C:/GitHub/MobRob_Rover_NEW/Inverter/Mobrob_Inverter/Libraries/XMCLib/inc\xmc_gpio.h ****  * \endif
 173:C:/GitHub/MobRob_Rover_NEW/Inverter/Mobrob_Inverter/Libraries/XMCLib/inc\xmc_gpio.h ****  *
 174:C:/GitHub/MobRob_Rover_NEW/Inverter/Mobrob_Inverter/Libraries/XMCLib/inc\xmc_gpio.h ****  * \par<b>Related APIs:</b><BR>
 175:C:/GitHub/MobRob_Rover_NEW/Inverter/Mobrob_Inverter/Libraries/XMCLib/inc\xmc_gpio.h ****  *  None
 176:C:/GitHub/MobRob_Rover_NEW/Inverter/Mobrob_Inverter/Libraries/XMCLib/inc\xmc_gpio.h ****  *
 177:C:/GitHub/MobRob_Rover_NEW/Inverter/Mobrob_Inverter/Libraries/XMCLib/inc\xmc_gpio.h ****  * \par<b>Note:</b><br>
 178:C:/GitHub/MobRob_Rover_NEW/Inverter/Mobrob_Inverter/Libraries/XMCLib/inc\xmc_gpio.h ****  * This API is called in definition of DAVE_init by code generation and therefore should not be exp
 179:C:/GitHub/MobRob_Rover_NEW/Inverter/Mobrob_Inverter/Libraries/XMCLib/inc\xmc_gpio.h ****  * for the normal operation. Use other APIs only after DAVE_init is called successfully (returns DA
 180:C:/GitHub/MobRob_Rover_NEW/Inverter/Mobrob_Inverter/Libraries/XMCLib/inc\xmc_gpio.h ****  *
 181:C:/GitHub/MobRob_Rover_NEW/Inverter/Mobrob_Inverter/Libraries/XMCLib/inc\xmc_gpio.h ****  *
 182:C:/GitHub/MobRob_Rover_NEW/Inverter/Mobrob_Inverter/Libraries/XMCLib/inc\xmc_gpio.h ****  */
 183:C:/GitHub/MobRob_Rover_NEW/Inverter/Mobrob_Inverter/Libraries/XMCLib/inc\xmc_gpio.h **** 
 184:C:/GitHub/MobRob_Rover_NEW/Inverter/Mobrob_Inverter/Libraries/XMCLib/inc\xmc_gpio.h ****  
 185:C:/GitHub/MobRob_Rover_NEW/Inverter/Mobrob_Inverter/Libraries/XMCLib/inc\xmc_gpio.h **** void XMC_GPIO_Init(XMC_GPIO_PORT_t *const port, const uint8_t pin, const XMC_GPIO_CONFIG_t *const c
 186:C:/GitHub/MobRob_Rover_NEW/Inverter/Mobrob_Inverter/Libraries/XMCLib/inc\xmc_gpio.h ****  
 187:C:/GitHub/MobRob_Rover_NEW/Inverter/Mobrob_Inverter/Libraries/XMCLib/inc\xmc_gpio.h **** /**
 188:C:/GitHub/MobRob_Rover_NEW/Inverter/Mobrob_Inverter/Libraries/XMCLib/inc\xmc_gpio.h ****  *
 189:C:/GitHub/MobRob_Rover_NEW/Inverter/Mobrob_Inverter/Libraries/XMCLib/inc\xmc_gpio.h ****  * @param  port	Constant pointer pointing to GPIO port, to access hardware register Pn_IOCR.
 190:C:/GitHub/MobRob_Rover_NEW/Inverter/Mobrob_Inverter/Libraries/XMCLib/inc\xmc_gpio.h ****  * @param  pin	Port pin number.
 191:C:/GitHub/MobRob_Rover_NEW/Inverter/Mobrob_Inverter/Libraries/XMCLib/inc\xmc_gpio.h ****  * @param  mode input / output functionality selection. Refer @ref XMC_GPIO_MODE_t for valid values
 192:C:/GitHub/MobRob_Rover_NEW/Inverter/Mobrob_Inverter/Libraries/XMCLib/inc\xmc_gpio.h ****  *
 193:C:/GitHub/MobRob_Rover_NEW/Inverter/Mobrob_Inverter/Libraries/XMCLib/inc\xmc_gpio.h ****  * @return None
 194:C:/GitHub/MobRob_Rover_NEW/Inverter/Mobrob_Inverter/Libraries/XMCLib/inc\xmc_gpio.h ****  *
 195:C:/GitHub/MobRob_Rover_NEW/Inverter/Mobrob_Inverter/Libraries/XMCLib/inc\xmc_gpio.h ****  * \par<b>Description:</b><br>
 196:C:/GitHub/MobRob_Rover_NEW/Inverter/Mobrob_Inverter/Libraries/XMCLib/inc\xmc_gpio.h ****  * Sets digital input and output driver functionality and characteristics of a GPIO port pin. It co
 197:C:/GitHub/MobRob_Rover_NEW/Inverter/Mobrob_Inverter/Libraries/XMCLib/inc\xmc_gpio.h ****  * registers Pn_IOCR. \a mode is initially configured during initialization in XMC_GPIO_Init(). Cal
 198:C:/GitHub/MobRob_Rover_NEW/Inverter/Mobrob_Inverter/Libraries/XMCLib/inc\xmc_gpio.h ****  * the port direction functionality as needed later in the program.
 199:C:/GitHub/MobRob_Rover_NEW/Inverter/Mobrob_Inverter/Libraries/XMCLib/inc\xmc_gpio.h ****  *
 200:C:/GitHub/MobRob_Rover_NEW/Inverter/Mobrob_Inverter/Libraries/XMCLib/inc\xmc_gpio.h ****  * \par<b>Related APIs:</b><BR>
 201:C:/GitHub/MobRob_Rover_NEW/Inverter/Mobrob_Inverter/Libraries/XMCLib/inc\xmc_gpio.h ****  *  None
 202:C:/GitHub/MobRob_Rover_NEW/Inverter/Mobrob_Inverter/Libraries/XMCLib/inc\xmc_gpio.h ****  *
 203:C:/GitHub/MobRob_Rover_NEW/Inverter/Mobrob_Inverter/Libraries/XMCLib/inc\xmc_gpio.h ****  */
 204:C:/GitHub/MobRob_Rover_NEW/Inverter/Mobrob_Inverter/Libraries/XMCLib/inc\xmc_gpio.h **** 
 205:C:/GitHub/MobRob_Rover_NEW/Inverter/Mobrob_Inverter/Libraries/XMCLib/inc\xmc_gpio.h **** void XMC_GPIO_SetMode(XMC_GPIO_PORT_t *const port, const uint8_t pin, const XMC_GPIO_MODE_t mode);
 206:C:/GitHub/MobRob_Rover_NEW/Inverter/Mobrob_Inverter/Libraries/XMCLib/inc\xmc_gpio.h **** 
 207:C:/GitHub/MobRob_Rover_NEW/Inverter/Mobrob_Inverter/Libraries/XMCLib/inc\xmc_gpio.h **** 
 208:C:/GitHub/MobRob_Rover_NEW/Inverter/Mobrob_Inverter/Libraries/XMCLib/inc\xmc_gpio.h **** /**
 209:C:/GitHub/MobRob_Rover_NEW/Inverter/Mobrob_Inverter/Libraries/XMCLib/inc\xmc_gpio.h ****  *
 210:C:/GitHub/MobRob_Rover_NEW/Inverter/Mobrob_Inverter/Libraries/XMCLib/inc\xmc_gpio.h ****  * @param  port	 Constant pointer pointing to GPIO port, to access hardware register Pn_OMR.
 211:C:/GitHub/MobRob_Rover_NEW/Inverter/Mobrob_Inverter/Libraries/XMCLib/inc\xmc_gpio.h ****  * @param  pin	 Port pin number.
 212:C:/GitHub/MobRob_Rover_NEW/Inverter/Mobrob_Inverter/Libraries/XMCLib/inc\xmc_gpio.h ****  * @param  level output level selection. Refer @ref XMC_GPIO_OUTPUT_LEVEL_t for valid values.
 213:C:/GitHub/MobRob_Rover_NEW/Inverter/Mobrob_Inverter/Libraries/XMCLib/inc\xmc_gpio.h ****  *
 214:C:/GitHub/MobRob_Rover_NEW/Inverter/Mobrob_Inverter/Libraries/XMCLib/inc\xmc_gpio.h ****  * @return None
 215:C:/GitHub/MobRob_Rover_NEW/Inverter/Mobrob_Inverter/Libraries/XMCLib/inc\xmc_gpio.h ****  *
 216:C:/GitHub/MobRob_Rover_NEW/Inverter/Mobrob_Inverter/Libraries/XMCLib/inc\xmc_gpio.h ****  * \par<b>Description:</b><br>
 217:C:/GitHub/MobRob_Rover_NEW/Inverter/Mobrob_Inverter/Libraries/XMCLib/inc\xmc_gpio.h ****  * Set port pin output level to high or low.It configures hardware registers Pn_OMR.\a level is ini
 218:C:/GitHub/MobRob_Rover_NEW/Inverter/Mobrob_Inverter/Libraries/XMCLib/inc\xmc_gpio.h ****  * configured during initialization in XMC_GPIO_Init(). Call this API to alter output level as need
 219:C:/GitHub/MobRob_Rover_NEW/Inverter/Mobrob_Inverter/Libraries/XMCLib/inc\xmc_gpio.h ****  *
 220:C:/GitHub/MobRob_Rover_NEW/Inverter/Mobrob_Inverter/Libraries/XMCLib/inc\xmc_gpio.h ****  * \par<b>Related APIs:</b><BR>
 221:C:/GitHub/MobRob_Rover_NEW/Inverter/Mobrob_Inverter/Libraries/XMCLib/inc\xmc_gpio.h ****  *  XMC_GPIO_SetOutputHigh(), XMC_GPIO_SetOutputLow().
 222:C:/GitHub/MobRob_Rover_NEW/Inverter/Mobrob_Inverter/Libraries/XMCLib/inc\xmc_gpio.h ****  *
 223:C:/GitHub/MobRob_Rover_NEW/Inverter/Mobrob_Inverter/Libraries/XMCLib/inc\xmc_gpio.h ****  * \par<b>Note:</b><br>
 224:C:/GitHub/MobRob_Rover_NEW/Inverter/Mobrob_Inverter/Libraries/XMCLib/inc\xmc_gpio.h ****  * Prior to this api, user has to configure port pin to output mode using XMC_GPIO_SetMode().
 225:C:/GitHub/MobRob_Rover_NEW/Inverter/Mobrob_Inverter/Libraries/XMCLib/inc\xmc_gpio.h ****  *
 226:C:/GitHub/MobRob_Rover_NEW/Inverter/Mobrob_Inverter/Libraries/XMCLib/inc\xmc_gpio.h ****  */
 227:C:/GitHub/MobRob_Rover_NEW/Inverter/Mobrob_Inverter/Libraries/XMCLib/inc\xmc_gpio.h **** 
 228:C:/GitHub/MobRob_Rover_NEW/Inverter/Mobrob_Inverter/Libraries/XMCLib/inc\xmc_gpio.h **** 
 229:C:/GitHub/MobRob_Rover_NEW/Inverter/Mobrob_Inverter/Libraries/XMCLib/inc\xmc_gpio.h **** __STATIC_INLINE void XMC_GPIO_SetOutputLevel(XMC_GPIO_PORT_t *const port, const uint8_t pin, const 
 230:C:/GitHub/MobRob_Rover_NEW/Inverter/Mobrob_Inverter/Libraries/XMCLib/inc\xmc_gpio.h **** {
 231:C:/GitHub/MobRob_Rover_NEW/Inverter/Mobrob_Inverter/Libraries/XMCLib/inc\xmc_gpio.h ****   XMC_ASSERT("XMC_GPIO_SetOutputLevel: Invalid port", XMC_GPIO_CHECK_OUTPUT_PORT(port));
 232:C:/GitHub/MobRob_Rover_NEW/Inverter/Mobrob_Inverter/Libraries/XMCLib/inc\xmc_gpio.h ****   XMC_ASSERT("XMC_GPIO_SetOutputLevel: Invalid output level", XMC_GPIO_CHECK_OUTPUT_LEVEL(level));
 233:C:/GitHub/MobRob_Rover_NEW/Inverter/Mobrob_Inverter/Libraries/XMCLib/inc\xmc_gpio.h ****   
 234:C:/GitHub/MobRob_Rover_NEW/Inverter/Mobrob_Inverter/Libraries/XMCLib/inc\xmc_gpio.h ****   port->OMR = (uint32_t)level << pin;
 235:C:/GitHub/MobRob_Rover_NEW/Inverter/Mobrob_Inverter/Libraries/XMCLib/inc\xmc_gpio.h **** }
 236:C:/GitHub/MobRob_Rover_NEW/Inverter/Mobrob_Inverter/Libraries/XMCLib/inc\xmc_gpio.h **** 
 237:C:/GitHub/MobRob_Rover_NEW/Inverter/Mobrob_Inverter/Libraries/XMCLib/inc\xmc_gpio.h **** 
 238:C:/GitHub/MobRob_Rover_NEW/Inverter/Mobrob_Inverter/Libraries/XMCLib/inc\xmc_gpio.h **** /**
 239:C:/GitHub/MobRob_Rover_NEW/Inverter/Mobrob_Inverter/Libraries/XMCLib/inc\xmc_gpio.h ****  * @param  port constant pointer pointing to GPIO port, to access hardware register Pn_OMR.
 240:C:/GitHub/MobRob_Rover_NEW/Inverter/Mobrob_Inverter/Libraries/XMCLib/inc\xmc_gpio.h ****  * @param  pin	Port pin number.
 241:C:/GitHub/MobRob_Rover_NEW/Inverter/Mobrob_Inverter/Libraries/XMCLib/inc\xmc_gpio.h ****  *
 242:C:/GitHub/MobRob_Rover_NEW/Inverter/Mobrob_Inverter/Libraries/XMCLib/inc\xmc_gpio.h ****  * @return None
 243:C:/GitHub/MobRob_Rover_NEW/Inverter/Mobrob_Inverter/Libraries/XMCLib/inc\xmc_gpio.h ****  *
 244:C:/GitHub/MobRob_Rover_NEW/Inverter/Mobrob_Inverter/Libraries/XMCLib/inc\xmc_gpio.h ****  * \par<b>Description:</b><br>
 245:C:/GitHub/MobRob_Rover_NEW/Inverter/Mobrob_Inverter/Libraries/XMCLib/inc\xmc_gpio.h ****  *  Sets port pin output to high. It configures hardware registers Pn_OMR.
 246:C:/GitHub/MobRob_Rover_NEW/Inverter/Mobrob_Inverter/Libraries/XMCLib/inc\xmc_gpio.h ****  *
 247:C:/GitHub/MobRob_Rover_NEW/Inverter/Mobrob_Inverter/Libraries/XMCLib/inc\xmc_gpio.h ****  *  \par<b>Related APIs:</b><BR>
 248:C:/GitHub/MobRob_Rover_NEW/Inverter/Mobrob_Inverter/Libraries/XMCLib/inc\xmc_gpio.h ****  *  XMC_GPIO_SetOutputLow()
 249:C:/GitHub/MobRob_Rover_NEW/Inverter/Mobrob_Inverter/Libraries/XMCLib/inc\xmc_gpio.h ****  *
 250:C:/GitHub/MobRob_Rover_NEW/Inverter/Mobrob_Inverter/Libraries/XMCLib/inc\xmc_gpio.h ****  * \par<b>Note:</b><br>
 251:C:/GitHub/MobRob_Rover_NEW/Inverter/Mobrob_Inverter/Libraries/XMCLib/inc\xmc_gpio.h ****  * Prior to this api, user has to configure port pin to output mode using XMC_GPIO_SetMode().\n
 252:C:/GitHub/MobRob_Rover_NEW/Inverter/Mobrob_Inverter/Libraries/XMCLib/inc\xmc_gpio.h ****  * Register Pn_OMR is virtual and does not contain any flip-flop. A read action delivers the value 
 253:C:/GitHub/MobRob_Rover_NEW/Inverter/Mobrob_Inverter/Libraries/XMCLib/inc\xmc_gpio.h ****  *
 254:C:/GitHub/MobRob_Rover_NEW/Inverter/Mobrob_Inverter/Libraries/XMCLib/inc\xmc_gpio.h ****  */
 255:C:/GitHub/MobRob_Rover_NEW/Inverter/Mobrob_Inverter/Libraries/XMCLib/inc\xmc_gpio.h **** 
 256:C:/GitHub/MobRob_Rover_NEW/Inverter/Mobrob_Inverter/Libraries/XMCLib/inc\xmc_gpio.h **** __STATIC_INLINE void XMC_GPIO_SetOutputHigh(XMC_GPIO_PORT_t *const port, const uint8_t pin)
 257:C:/GitHub/MobRob_Rover_NEW/Inverter/Mobrob_Inverter/Libraries/XMCLib/inc\xmc_gpio.h **** {
  27              	 .loc 1 257 0
  28              	 .cfi_startproc
  29              	 
  30              	 
  31              	 
  32 0000 80B4     	 push {r7}
  33              	.LCFI0:
  34              	 .cfi_def_cfa_offset 4
  35              	 .cfi_offset 7,-4
  36 0002 83B0     	 sub sp,sp,#12
  37              	.LCFI1:
  38              	 .cfi_def_cfa_offset 16
  39 0004 00AF     	 add r7,sp,#0
  40              	.LCFI2:
  41              	 .cfi_def_cfa_register 7
  42 0006 7860     	 str r0,[r7,#4]
  43 0008 0B46     	 mov r3,r1
  44 000a FB70     	 strb r3,[r7,#3]
 258:C:/GitHub/MobRob_Rover_NEW/Inverter/Mobrob_Inverter/Libraries/XMCLib/inc\xmc_gpio.h ****   XMC_ASSERT("XMC_GPIO_SetOutputHigh: Invalid port", XMC_GPIO_CHECK_OUTPUT_PORT(port));
 259:C:/GitHub/MobRob_Rover_NEW/Inverter/Mobrob_Inverter/Libraries/XMCLib/inc\xmc_gpio.h **** 
 260:C:/GitHub/MobRob_Rover_NEW/Inverter/Mobrob_Inverter/Libraries/XMCLib/inc\xmc_gpio.h ****   port->OMR = (uint32_t)0x1U << pin;
  45              	 .loc 1 260 0
  46 000c FB78     	 ldrb r3,[r7,#3]
  47 000e 0122     	 movs r2,#1
  48 0010 9A40     	 lsls r2,r2,r3
  49 0012 7B68     	 ldr r3,[r7,#4]
  50 0014 5A60     	 str r2,[r3,#4]
 261:C:/GitHub/MobRob_Rover_NEW/Inverter/Mobrob_Inverter/Libraries/XMCLib/inc\xmc_gpio.h **** }
  51              	 .loc 1 261 0
  52 0016 0C37     	 adds r7,r7,#12
  53              	.LCFI3:
  54              	 .cfi_def_cfa_offset 4
  55 0018 BD46     	 mov sp,r7
  56              	.LCFI4:
  57              	 .cfi_def_cfa_register 13
  58              	 
  59 001a 5DF8047B 	 ldr r7,[sp],#4
  60              	.LCFI5:
  61              	 .cfi_restore 7
  62              	 .cfi_def_cfa_offset 0
  63 001e 7047     	 bx lr
  64              	 .cfi_endproc
  65              	.LFE137:
  67              	 .section .text.XMC_GPIO_SetOutputLow,"ax",%progbits
  68              	 .align 2
  69              	 .thumb
  70              	 .thumb_func
  72              	XMC_GPIO_SetOutputLow:
  73              	.LFB138:
 262:C:/GitHub/MobRob_Rover_NEW/Inverter/Mobrob_Inverter/Libraries/XMCLib/inc\xmc_gpio.h **** 
 263:C:/GitHub/MobRob_Rover_NEW/Inverter/Mobrob_Inverter/Libraries/XMCLib/inc\xmc_gpio.h **** /**
 264:C:/GitHub/MobRob_Rover_NEW/Inverter/Mobrob_Inverter/Libraries/XMCLib/inc\xmc_gpio.h ****  *
 265:C:/GitHub/MobRob_Rover_NEW/Inverter/Mobrob_Inverter/Libraries/XMCLib/inc\xmc_gpio.h ****  * @param  port	constant pointer pointing to GPIO port, to access hardware register Pn_OMR.
 266:C:/GitHub/MobRob_Rover_NEW/Inverter/Mobrob_Inverter/Libraries/XMCLib/inc\xmc_gpio.h ****  * @param  pin	port pin number.
 267:C:/GitHub/MobRob_Rover_NEW/Inverter/Mobrob_Inverter/Libraries/XMCLib/inc\xmc_gpio.h ****  *
 268:C:/GitHub/MobRob_Rover_NEW/Inverter/Mobrob_Inverter/Libraries/XMCLib/inc\xmc_gpio.h ****  * @return  None
 269:C:/GitHub/MobRob_Rover_NEW/Inverter/Mobrob_Inverter/Libraries/XMCLib/inc\xmc_gpio.h ****  *
 270:C:/GitHub/MobRob_Rover_NEW/Inverter/Mobrob_Inverter/Libraries/XMCLib/inc\xmc_gpio.h ****  *\par<b>Description:</b><br>
 271:C:/GitHub/MobRob_Rover_NEW/Inverter/Mobrob_Inverter/Libraries/XMCLib/inc\xmc_gpio.h ****  * Sets port pin output to low. It configures hardware registers Pn_OMR.\n
 272:C:/GitHub/MobRob_Rover_NEW/Inverter/Mobrob_Inverter/Libraries/XMCLib/inc\xmc_gpio.h ****  *
 273:C:/GitHub/MobRob_Rover_NEW/Inverter/Mobrob_Inverter/Libraries/XMCLib/inc\xmc_gpio.h ****  * \par<b>Related APIs:</b><BR>>
 274:C:/GitHub/MobRob_Rover_NEW/Inverter/Mobrob_Inverter/Libraries/XMCLib/inc\xmc_gpio.h ****  * XMC_GPIO_SetOutputHigh()
 275:C:/GitHub/MobRob_Rover_NEW/Inverter/Mobrob_Inverter/Libraries/XMCLib/inc\xmc_gpio.h ****  *
 276:C:/GitHub/MobRob_Rover_NEW/Inverter/Mobrob_Inverter/Libraries/XMCLib/inc\xmc_gpio.h ****  *\par<b>Note:</b><br>
 277:C:/GitHub/MobRob_Rover_NEW/Inverter/Mobrob_Inverter/Libraries/XMCLib/inc\xmc_gpio.h ****  * Prior to this api, user has to configure port pin to output mode using XMC_GPIO_SetMode().
 278:C:/GitHub/MobRob_Rover_NEW/Inverter/Mobrob_Inverter/Libraries/XMCLib/inc\xmc_gpio.h ****  * Register Pn_OMR is virtual and does not contain any flip-flop. A read action delivers the value 
 279:C:/GitHub/MobRob_Rover_NEW/Inverter/Mobrob_Inverter/Libraries/XMCLib/inc\xmc_gpio.h ****  *
 280:C:/GitHub/MobRob_Rover_NEW/Inverter/Mobrob_Inverter/Libraries/XMCLib/inc\xmc_gpio.h ****  */
 281:C:/GitHub/MobRob_Rover_NEW/Inverter/Mobrob_Inverter/Libraries/XMCLib/inc\xmc_gpio.h **** 
 282:C:/GitHub/MobRob_Rover_NEW/Inverter/Mobrob_Inverter/Libraries/XMCLib/inc\xmc_gpio.h **** __STATIC_INLINE void XMC_GPIO_SetOutputLow(XMC_GPIO_PORT_t *const port, const uint8_t pin)
 283:C:/GitHub/MobRob_Rover_NEW/Inverter/Mobrob_Inverter/Libraries/XMCLib/inc\xmc_gpio.h **** {
  74              	 .loc 1 283 0
  75              	 .cfi_startproc
  76              	 
  77              	 
  78              	 
  79 0000 80B4     	 push {r7}
  80              	.LCFI6:
  81              	 .cfi_def_cfa_offset 4
  82              	 .cfi_offset 7,-4
  83 0002 83B0     	 sub sp,sp,#12
  84              	.LCFI7:
  85              	 .cfi_def_cfa_offset 16
  86 0004 00AF     	 add r7,sp,#0
  87              	.LCFI8:
  88              	 .cfi_def_cfa_register 7
  89 0006 7860     	 str r0,[r7,#4]
  90 0008 0B46     	 mov r3,r1
  91 000a FB70     	 strb r3,[r7,#3]
 284:C:/GitHub/MobRob_Rover_NEW/Inverter/Mobrob_Inverter/Libraries/XMCLib/inc\xmc_gpio.h ****   XMC_ASSERT("XMC_GPIO_SetOutputLow: Invalid port", XMC_GPIO_CHECK_OUTPUT_PORT(port));
 285:C:/GitHub/MobRob_Rover_NEW/Inverter/Mobrob_Inverter/Libraries/XMCLib/inc\xmc_gpio.h **** 
 286:C:/GitHub/MobRob_Rover_NEW/Inverter/Mobrob_Inverter/Libraries/XMCLib/inc\xmc_gpio.h ****   port->OMR = 0x10000U << pin;
  92              	 .loc 1 286 0
  93 000c FB78     	 ldrb r3,[r7,#3]
  94 000e 4FF48032 	 mov r2,#65536
  95 0012 9A40     	 lsls r2,r2,r3
  96 0014 7B68     	 ldr r3,[r7,#4]
  97 0016 5A60     	 str r2,[r3,#4]
 287:C:/GitHub/MobRob_Rover_NEW/Inverter/Mobrob_Inverter/Libraries/XMCLib/inc\xmc_gpio.h **** }
  98              	 .loc 1 287 0
  99 0018 0C37     	 adds r7,r7,#12
 100              	.LCFI9:
 101              	 .cfi_def_cfa_offset 4
 102 001a BD46     	 mov sp,r7
 103              	.LCFI10:
 104              	 .cfi_def_cfa_register 13
 105              	 
 106 001c 5DF8047B 	 ldr r7,[sp],#4
 107              	.LCFI11:
 108              	 .cfi_restore 7
 109              	 .cfi_def_cfa_offset 0
 110 0020 7047     	 bx lr
 111              	 .cfi_endproc
 112              	.LFE138:
 114 0022 00BF     	 .section .text.DIGITAL_IO_SetOutputHigh,"ax",%progbits
 115              	 .align 2
 116              	 .thumb
 117              	 .thumb_func
 119              	DIGITAL_IO_SetOutputHigh:
 120              	.LFB145:
 121              	 .file 2 "C:/GitHub/MobRob_Rover_NEW/Inverter/Mobrob_Inverter/Dave/Generated/DIGITAL_IO/digital_io.h"
   1:C:/GitHub/MobRob_Rover_NEW/Inverter/Mobrob_Inverter/Dave/Generated/DIGITAL_IO\digital_io.h **** /*
   2:C:/GitHub/MobRob_Rover_NEW/Inverter/Mobrob_Inverter/Dave/Generated/DIGITAL_IO\digital_io.h ****  *
   3:C:/GitHub/MobRob_Rover_NEW/Inverter/Mobrob_Inverter/Dave/Generated/DIGITAL_IO\digital_io.h ****  * @file digital_io.h
   4:C:/GitHub/MobRob_Rover_NEW/Inverter/Mobrob_Inverter/Dave/Generated/DIGITAL_IO\digital_io.h ****  * @date 2016-07-08
   5:C:/GitHub/MobRob_Rover_NEW/Inverter/Mobrob_Inverter/Dave/Generated/DIGITAL_IO\digital_io.h ****  *
   6:C:/GitHub/MobRob_Rover_NEW/Inverter/Mobrob_Inverter/Dave/Generated/DIGITAL_IO\digital_io.h ****  * NOTE:
   7:C:/GitHub/MobRob_Rover_NEW/Inverter/Mobrob_Inverter/Dave/Generated/DIGITAL_IO\digital_io.h ****  * This file is generated by DAVE. Any manual modification done to this file will be lost when the 
   8:C:/GitHub/MobRob_Rover_NEW/Inverter/Mobrob_Inverter/Dave/Generated/DIGITAL_IO\digital_io.h ****  *
   9:C:/GitHub/MobRob_Rover_NEW/Inverter/Mobrob_Inverter/Dave/Generated/DIGITAL_IO\digital_io.h ****  * @cond
  10:C:/GitHub/MobRob_Rover_NEW/Inverter/Mobrob_Inverter/Dave/Generated/DIGITAL_IO\digital_io.h ****  **************************************************************************************************
  11:C:/GitHub/MobRob_Rover_NEW/Inverter/Mobrob_Inverter/Dave/Generated/DIGITAL_IO\digital_io.h ****  * DIGITAL_IO v4.0.16 - The DIGITAL_IO APP is used to configure a port pin as digital Input/Output.
  12:C:/GitHub/MobRob_Rover_NEW/Inverter/Mobrob_Inverter/Dave/Generated/DIGITAL_IO\digital_io.h ****  *
  13:C:/GitHub/MobRob_Rover_NEW/Inverter/Mobrob_Inverter/Dave/Generated/DIGITAL_IO\digital_io.h ****  * Copyright (c) 2015-2016, Infineon Technologies AG
  14:C:/GitHub/MobRob_Rover_NEW/Inverter/Mobrob_Inverter/Dave/Generated/DIGITAL_IO\digital_io.h ****  * All rights reserved.
  15:C:/GitHub/MobRob_Rover_NEW/Inverter/Mobrob_Inverter/Dave/Generated/DIGITAL_IO\digital_io.h ****  *
  16:C:/GitHub/MobRob_Rover_NEW/Inverter/Mobrob_Inverter/Dave/Generated/DIGITAL_IO\digital_io.h ****  * Redistribution and use in source and binary forms, with or without modification,are permitted pr
  17:C:/GitHub/MobRob_Rover_NEW/Inverter/Mobrob_Inverter/Dave/Generated/DIGITAL_IO\digital_io.h ****  * following conditions are met:
  18:C:/GitHub/MobRob_Rover_NEW/Inverter/Mobrob_Inverter/Dave/Generated/DIGITAL_IO\digital_io.h ****  *
  19:C:/GitHub/MobRob_Rover_NEW/Inverter/Mobrob_Inverter/Dave/Generated/DIGITAL_IO\digital_io.h ****  *   Redistributions of source code must retain the above copyright notice, this list of conditions
  20:C:/GitHub/MobRob_Rover_NEW/Inverter/Mobrob_Inverter/Dave/Generated/DIGITAL_IO\digital_io.h ****  *   disclaimer.
  21:C:/GitHub/MobRob_Rover_NEW/Inverter/Mobrob_Inverter/Dave/Generated/DIGITAL_IO\digital_io.h ****  *
  22:C:/GitHub/MobRob_Rover_NEW/Inverter/Mobrob_Inverter/Dave/Generated/DIGITAL_IO\digital_io.h ****  *   Redistributions in binary form must reproduce the above copyright notice, this list of conditi
  23:C:/GitHub/MobRob_Rover_NEW/Inverter/Mobrob_Inverter/Dave/Generated/DIGITAL_IO\digital_io.h ****  *   following disclaimer in the documentation and/or other materials provided with the distributio
  24:C:/GitHub/MobRob_Rover_NEW/Inverter/Mobrob_Inverter/Dave/Generated/DIGITAL_IO\digital_io.h ****  *
  25:C:/GitHub/MobRob_Rover_NEW/Inverter/Mobrob_Inverter/Dave/Generated/DIGITAL_IO\digital_io.h ****  *   Neither the name of the copyright holders nor the names of its contributors may be used to end
  26:C:/GitHub/MobRob_Rover_NEW/Inverter/Mobrob_Inverter/Dave/Generated/DIGITAL_IO\digital_io.h ****  *   products derived from this software without specific prior written permission.
  27:C:/GitHub/MobRob_Rover_NEW/Inverter/Mobrob_Inverter/Dave/Generated/DIGITAL_IO\digital_io.h ****  *
  28:C:/GitHub/MobRob_Rover_NEW/Inverter/Mobrob_Inverter/Dave/Generated/DIGITAL_IO\digital_io.h ****  * THIS SOFTWARE IS PROVIDED BY THE COPYRIGHT HOLDERS AND CONTRIBUTORS "AS IS" AND ANY EXPRESS OR I
  29:C:/GitHub/MobRob_Rover_NEW/Inverter/Mobrob_Inverter/Dave/Generated/DIGITAL_IO\digital_io.h ****  * INCLUDING, BUT NOT LIMITED TO, THE IMPLIED WARRANTIES OF MERCHANTABILITY AND FITNESS FOR A PARTI
  30:C:/GitHub/MobRob_Rover_NEW/Inverter/Mobrob_Inverter/Dave/Generated/DIGITAL_IO\digital_io.h ****  * DISCLAIMED. IN NO EVENT SHALL THE COPYRIGHT HOLDER OR CONTRIBUTORS BE LIABLE  FOR ANY DIRECT, IN
  31:C:/GitHub/MobRob_Rover_NEW/Inverter/Mobrob_Inverter/Dave/Generated/DIGITAL_IO\digital_io.h ****  * SPECIAL, EXEMPLARY, OR CONSEQUENTIAL DAMAGES (INCLUDING, BUT NOT LIMITED TO, PROCUREMENT OF SUBS
  32:C:/GitHub/MobRob_Rover_NEW/Inverter/Mobrob_Inverter/Dave/Generated/DIGITAL_IO\digital_io.h ****  * SERVICES; LOSS OF USE, DATA, OR PROFITS; OR BUSINESS INTERRUPTION) HOWEVER CAUSED AND ON ANY THE
  33:C:/GitHub/MobRob_Rover_NEW/Inverter/Mobrob_Inverter/Dave/Generated/DIGITAL_IO\digital_io.h ****  * WHETHER IN CONTRACT, STRICT LIABILITY,OR TORT (INCLUDING NEGLIGENCE OR OTHERWISE) ARISING IN ANY
  34:C:/GitHub/MobRob_Rover_NEW/Inverter/Mobrob_Inverter/Dave/Generated/DIGITAL_IO\digital_io.h ****  * USE OF THIS SOFTWARE, EVEN IF ADVISED OF THE POSSIBILITY OF SUCH DAMAGE.
  35:C:/GitHub/MobRob_Rover_NEW/Inverter/Mobrob_Inverter/Dave/Generated/DIGITAL_IO\digital_io.h ****  *
  36:C:/GitHub/MobRob_Rover_NEW/Inverter/Mobrob_Inverter/Dave/Generated/DIGITAL_IO\digital_io.h ****  * To improve the quality of the software, users are encouraged to share modifications, enhancement
  37:C:/GitHub/MobRob_Rover_NEW/Inverter/Mobrob_Inverter/Dave/Generated/DIGITAL_IO\digital_io.h ****  * with Infineon Technologies AG (dave@infineon.com).
  38:C:/GitHub/MobRob_Rover_NEW/Inverter/Mobrob_Inverter/Dave/Generated/DIGITAL_IO\digital_io.h ****  **************************************************************************************************
  39:C:/GitHub/MobRob_Rover_NEW/Inverter/Mobrob_Inverter/Dave/Generated/DIGITAL_IO\digital_io.h ****  *
  40:C:/GitHub/MobRob_Rover_NEW/Inverter/Mobrob_Inverter/Dave/Generated/DIGITAL_IO\digital_io.h ****  * Change History
  41:C:/GitHub/MobRob_Rover_NEW/Inverter/Mobrob_Inverter/Dave/Generated/DIGITAL_IO\digital_io.h ****  * --------------
  42:C:/GitHub/MobRob_Rover_NEW/Inverter/Mobrob_Inverter/Dave/Generated/DIGITAL_IO\digital_io.h ****  *
  43:C:/GitHub/MobRob_Rover_NEW/Inverter/Mobrob_Inverter/Dave/Generated/DIGITAL_IO\digital_io.h ****  * 2015-02-16
  44:C:/GitHub/MobRob_Rover_NEW/Inverter/Mobrob_Inverter/Dave/Generated/DIGITAL_IO\digital_io.h ****  *     - Initial version
  45:C:/GitHub/MobRob_Rover_NEW/Inverter/Mobrob_Inverter/Dave/Generated/DIGITAL_IO\digital_io.h ****  *
  46:C:/GitHub/MobRob_Rover_NEW/Inverter/Mobrob_Inverter/Dave/Generated/DIGITAL_IO\digital_io.h ****  * 2015-04-22
  47:C:/GitHub/MobRob_Rover_NEW/Inverter/Mobrob_Inverter/Dave/Generated/DIGITAL_IO\digital_io.h ****  *     - XMC_ASSERT is added in static inline functions.<br>
  48:C:/GitHub/MobRob_Rover_NEW/Inverter/Mobrob_Inverter/Dave/Generated/DIGITAL_IO\digital_io.h ****  *
  49:C:/GitHub/MobRob_Rover_NEW/Inverter/Mobrob_Inverter/Dave/Generated/DIGITAL_IO\digital_io.h ****  * 2015-06-20
  50:C:/GitHub/MobRob_Rover_NEW/Inverter/Mobrob_Inverter/Dave/Generated/DIGITAL_IO\digital_io.h ****  *     - Version check added for XMCLib dependency.<br>
  51:C:/GitHub/MobRob_Rover_NEW/Inverter/Mobrob_Inverter/Dave/Generated/DIGITAL_IO\digital_io.h ****  *
  52:C:/GitHub/MobRob_Rover_NEW/Inverter/Mobrob_Inverter/Dave/Generated/DIGITAL_IO\digital_io.h ****  * 2015-12-22
  53:C:/GitHub/MobRob_Rover_NEW/Inverter/Mobrob_Inverter/Dave/Generated/DIGITAL_IO\digital_io.h ****  *     - Added hardware controlled IO feature.
  54:C:/GitHub/MobRob_Rover_NEW/Inverter/Mobrob_Inverter/Dave/Generated/DIGITAL_IO\digital_io.h ****  * 2016-07-08:
  55:C:/GitHub/MobRob_Rover_NEW/Inverter/Mobrob_Inverter/Dave/Generated/DIGITAL_IO\digital_io.h ****  *     - Fixed incorrect case for an included header.<br>
  56:C:/GitHub/MobRob_Rover_NEW/Inverter/Mobrob_Inverter/Dave/Generated/DIGITAL_IO\digital_io.h ****  *
  57:C:/GitHub/MobRob_Rover_NEW/Inverter/Mobrob_Inverter/Dave/Generated/DIGITAL_IO\digital_io.h ****  * @endcond
  58:C:/GitHub/MobRob_Rover_NEW/Inverter/Mobrob_Inverter/Dave/Generated/DIGITAL_IO\digital_io.h ****  *
  59:C:/GitHub/MobRob_Rover_NEW/Inverter/Mobrob_Inverter/Dave/Generated/DIGITAL_IO\digital_io.h ****  */
  60:C:/GitHub/MobRob_Rover_NEW/Inverter/Mobrob_Inverter/Dave/Generated/DIGITAL_IO\digital_io.h **** 
  61:C:/GitHub/MobRob_Rover_NEW/Inverter/Mobrob_Inverter/Dave/Generated/DIGITAL_IO\digital_io.h **** /**************************************************************************************************
  62:C:/GitHub/MobRob_Rover_NEW/Inverter/Mobrob_Inverter/Dave/Generated/DIGITAL_IO\digital_io.h ****  * HEADER FILES
  63:C:/GitHub/MobRob_Rover_NEW/Inverter/Mobrob_Inverter/Dave/Generated/DIGITAL_IO\digital_io.h ****  **************************************************************************************************
  64:C:/GitHub/MobRob_Rover_NEW/Inverter/Mobrob_Inverter/Dave/Generated/DIGITAL_IO\digital_io.h **** 
  65:C:/GitHub/MobRob_Rover_NEW/Inverter/Mobrob_Inverter/Dave/Generated/DIGITAL_IO\digital_io.h **** #ifndef DIGITAL_IO_H
  66:C:/GitHub/MobRob_Rover_NEW/Inverter/Mobrob_Inverter/Dave/Generated/DIGITAL_IO\digital_io.h **** #define DIGITAL_IO_H
  67:C:/GitHub/MobRob_Rover_NEW/Inverter/Mobrob_Inverter/Dave/Generated/DIGITAL_IO\digital_io.h **** 
  68:C:/GitHub/MobRob_Rover_NEW/Inverter/Mobrob_Inverter/Dave/Generated/DIGITAL_IO\digital_io.h **** #include <xmc_gpio.h>
  69:C:/GitHub/MobRob_Rover_NEW/Inverter/Mobrob_Inverter/Dave/Generated/DIGITAL_IO\digital_io.h **** #include <DAVE_Common.h>
  70:C:/GitHub/MobRob_Rover_NEW/Inverter/Mobrob_Inverter/Dave/Generated/DIGITAL_IO\digital_io.h **** #include "digital_io_conf.h"
  71:C:/GitHub/MobRob_Rover_NEW/Inverter/Mobrob_Inverter/Dave/Generated/DIGITAL_IO\digital_io.h **** 
  72:C:/GitHub/MobRob_Rover_NEW/Inverter/Mobrob_Inverter/Dave/Generated/DIGITAL_IO\digital_io.h **** /**************************************************************************************************
  73:C:/GitHub/MobRob_Rover_NEW/Inverter/Mobrob_Inverter/Dave/Generated/DIGITAL_IO\digital_io.h ****  * MACROS
  74:C:/GitHub/MobRob_Rover_NEW/Inverter/Mobrob_Inverter/Dave/Generated/DIGITAL_IO\digital_io.h ****  **************************************************************************************************
  75:C:/GitHub/MobRob_Rover_NEW/Inverter/Mobrob_Inverter/Dave/Generated/DIGITAL_IO\digital_io.h **** #if (!((XMC_LIB_MAJOR_VERSION == 2U) && \
  76:C:/GitHub/MobRob_Rover_NEW/Inverter/Mobrob_Inverter/Dave/Generated/DIGITAL_IO\digital_io.h ****        (XMC_LIB_MINOR_VERSION >= 0U) && \
  77:C:/GitHub/MobRob_Rover_NEW/Inverter/Mobrob_Inverter/Dave/Generated/DIGITAL_IO\digital_io.h ****        (XMC_LIB_PATCH_VERSION >= 0U)))
  78:C:/GitHub/MobRob_Rover_NEW/Inverter/Mobrob_Inverter/Dave/Generated/DIGITAL_IO\digital_io.h **** #error "DIGITAL_IO requires XMC Peripheral Library v2.0.0 or higher"
  79:C:/GitHub/MobRob_Rover_NEW/Inverter/Mobrob_Inverter/Dave/Generated/DIGITAL_IO\digital_io.h **** #endif
  80:C:/GitHub/MobRob_Rover_NEW/Inverter/Mobrob_Inverter/Dave/Generated/DIGITAL_IO\digital_io.h **** 
  81:C:/GitHub/MobRob_Rover_NEW/Inverter/Mobrob_Inverter/Dave/Generated/DIGITAL_IO\digital_io.h ****  /*************************************************************************************************
  82:C:/GitHub/MobRob_Rover_NEW/Inverter/Mobrob_Inverter/Dave/Generated/DIGITAL_IO\digital_io.h ****  * ENUMS
  83:C:/GitHub/MobRob_Rover_NEW/Inverter/Mobrob_Inverter/Dave/Generated/DIGITAL_IO\digital_io.h ****  **************************************************************************************************
  84:C:/GitHub/MobRob_Rover_NEW/Inverter/Mobrob_Inverter/Dave/Generated/DIGITAL_IO\digital_io.h **** 
  85:C:/GitHub/MobRob_Rover_NEW/Inverter/Mobrob_Inverter/Dave/Generated/DIGITAL_IO\digital_io.h **** /**
  86:C:/GitHub/MobRob_Rover_NEW/Inverter/Mobrob_Inverter/Dave/Generated/DIGITAL_IO\digital_io.h **** * @ingroup DIGITAL_IO_enumerations
  87:C:/GitHub/MobRob_Rover_NEW/Inverter/Mobrob_Inverter/Dave/Generated/DIGITAL_IO\digital_io.h **** * @{
  88:C:/GitHub/MobRob_Rover_NEW/Inverter/Mobrob_Inverter/Dave/Generated/DIGITAL_IO\digital_io.h **** */
  89:C:/GitHub/MobRob_Rover_NEW/Inverter/Mobrob_Inverter/Dave/Generated/DIGITAL_IO\digital_io.h **** 
  90:C:/GitHub/MobRob_Rover_NEW/Inverter/Mobrob_Inverter/Dave/Generated/DIGITAL_IO\digital_io.h **** /**
  91:C:/GitHub/MobRob_Rover_NEW/Inverter/Mobrob_Inverter/Dave/Generated/DIGITAL_IO\digital_io.h **** * @brief Initialization status of DIGITAL_IO APP.
  92:C:/GitHub/MobRob_Rover_NEW/Inverter/Mobrob_Inverter/Dave/Generated/DIGITAL_IO\digital_io.h **** */
  93:C:/GitHub/MobRob_Rover_NEW/Inverter/Mobrob_Inverter/Dave/Generated/DIGITAL_IO\digital_io.h **** typedef enum DIGITAL_IO_STATUS
  94:C:/GitHub/MobRob_Rover_NEW/Inverter/Mobrob_Inverter/Dave/Generated/DIGITAL_IO\digital_io.h **** {
  95:C:/GitHub/MobRob_Rover_NEW/Inverter/Mobrob_Inverter/Dave/Generated/DIGITAL_IO\digital_io.h ****   DIGITAL_IO_STATUS_OK = 0U,/**< 0=Status OK */
  96:C:/GitHub/MobRob_Rover_NEW/Inverter/Mobrob_Inverter/Dave/Generated/DIGITAL_IO\digital_io.h ****   DIGITAL_IO_STATUS_FAILURE = 1U/**< 1=Status Failed */
  97:C:/GitHub/MobRob_Rover_NEW/Inverter/Mobrob_Inverter/Dave/Generated/DIGITAL_IO\digital_io.h **** } DIGITAL_IO_STATUS_t;
  98:C:/GitHub/MobRob_Rover_NEW/Inverter/Mobrob_Inverter/Dave/Generated/DIGITAL_IO\digital_io.h **** 
  99:C:/GitHub/MobRob_Rover_NEW/Inverter/Mobrob_Inverter/Dave/Generated/DIGITAL_IO\digital_io.h **** /**
 100:C:/GitHub/MobRob_Rover_NEW/Inverter/Mobrob_Inverter/Dave/Generated/DIGITAL_IO\digital_io.h **** * @}
 101:C:/GitHub/MobRob_Rover_NEW/Inverter/Mobrob_Inverter/Dave/Generated/DIGITAL_IO\digital_io.h **** */
 102:C:/GitHub/MobRob_Rover_NEW/Inverter/Mobrob_Inverter/Dave/Generated/DIGITAL_IO\digital_io.h **** 
 103:C:/GitHub/MobRob_Rover_NEW/Inverter/Mobrob_Inverter/Dave/Generated/DIGITAL_IO\digital_io.h **** /**************************************************************************************************
 104:C:/GitHub/MobRob_Rover_NEW/Inverter/Mobrob_Inverter/Dave/Generated/DIGITAL_IO\digital_io.h ****  * DATA STRUCTURES
 105:C:/GitHub/MobRob_Rover_NEW/Inverter/Mobrob_Inverter/Dave/Generated/DIGITAL_IO\digital_io.h ****  **************************************************************************************************
 106:C:/GitHub/MobRob_Rover_NEW/Inverter/Mobrob_Inverter/Dave/Generated/DIGITAL_IO\digital_io.h **** /**
 107:C:/GitHub/MobRob_Rover_NEW/Inverter/Mobrob_Inverter/Dave/Generated/DIGITAL_IO\digital_io.h **** * @ingroup DIGITAL_IO_datastructures
 108:C:/GitHub/MobRob_Rover_NEW/Inverter/Mobrob_Inverter/Dave/Generated/DIGITAL_IO\digital_io.h **** * @{
 109:C:/GitHub/MobRob_Rover_NEW/Inverter/Mobrob_Inverter/Dave/Generated/DIGITAL_IO\digital_io.h **** */
 110:C:/GitHub/MobRob_Rover_NEW/Inverter/Mobrob_Inverter/Dave/Generated/DIGITAL_IO\digital_io.h **** 
 111:C:/GitHub/MobRob_Rover_NEW/Inverter/Mobrob_Inverter/Dave/Generated/DIGITAL_IO\digital_io.h **** /**
 112:C:/GitHub/MobRob_Rover_NEW/Inverter/Mobrob_Inverter/Dave/Generated/DIGITAL_IO\digital_io.h **** * @brief Initialization data structure of DIGITAL_IO APP
 113:C:/GitHub/MobRob_Rover_NEW/Inverter/Mobrob_Inverter/Dave/Generated/DIGITAL_IO\digital_io.h **** */
 114:C:/GitHub/MobRob_Rover_NEW/Inverter/Mobrob_Inverter/Dave/Generated/DIGITAL_IO\digital_io.h **** typedef struct DIGITAL_IO
 115:C:/GitHub/MobRob_Rover_NEW/Inverter/Mobrob_Inverter/Dave/Generated/DIGITAL_IO\digital_io.h **** {
 116:C:/GitHub/MobRob_Rover_NEW/Inverter/Mobrob_Inverter/Dave/Generated/DIGITAL_IO\digital_io.h ****   XMC_GPIO_PORT_t *const gpio_port;             /**< port number */
 117:C:/GitHub/MobRob_Rover_NEW/Inverter/Mobrob_Inverter/Dave/Generated/DIGITAL_IO\digital_io.h ****   const XMC_GPIO_CONFIG_t gpio_config;          /**< mode, initial output level and pad driver stre
 118:C:/GitHub/MobRob_Rover_NEW/Inverter/Mobrob_Inverter/Dave/Generated/DIGITAL_IO\digital_io.h ****   const uint8_t gpio_pin;                       /**< pin number */
 119:C:/GitHub/MobRob_Rover_NEW/Inverter/Mobrob_Inverter/Dave/Generated/DIGITAL_IO\digital_io.h ****   const XMC_GPIO_HWCTRL_t hwctrl;               /**< Hardware port control */
 120:C:/GitHub/MobRob_Rover_NEW/Inverter/Mobrob_Inverter/Dave/Generated/DIGITAL_IO\digital_io.h **** } DIGITAL_IO_t;
 121:C:/GitHub/MobRob_Rover_NEW/Inverter/Mobrob_Inverter/Dave/Generated/DIGITAL_IO\digital_io.h **** 
 122:C:/GitHub/MobRob_Rover_NEW/Inverter/Mobrob_Inverter/Dave/Generated/DIGITAL_IO\digital_io.h **** 
 123:C:/GitHub/MobRob_Rover_NEW/Inverter/Mobrob_Inverter/Dave/Generated/DIGITAL_IO\digital_io.h **** /**
 124:C:/GitHub/MobRob_Rover_NEW/Inverter/Mobrob_Inverter/Dave/Generated/DIGITAL_IO\digital_io.h **** * @}
 125:C:/GitHub/MobRob_Rover_NEW/Inverter/Mobrob_Inverter/Dave/Generated/DIGITAL_IO\digital_io.h **** */
 126:C:/GitHub/MobRob_Rover_NEW/Inverter/Mobrob_Inverter/Dave/Generated/DIGITAL_IO\digital_io.h **** 
 127:C:/GitHub/MobRob_Rover_NEW/Inverter/Mobrob_Inverter/Dave/Generated/DIGITAL_IO\digital_io.h **** 
 128:C:/GitHub/MobRob_Rover_NEW/Inverter/Mobrob_Inverter/Dave/Generated/DIGITAL_IO\digital_io.h **** /**************************************************************************************************
 129:C:/GitHub/MobRob_Rover_NEW/Inverter/Mobrob_Inverter/Dave/Generated/DIGITAL_IO\digital_io.h ****  * API Prototypes
 130:C:/GitHub/MobRob_Rover_NEW/Inverter/Mobrob_Inverter/Dave/Generated/DIGITAL_IO\digital_io.h ****  **************************************************************************************************
 131:C:/GitHub/MobRob_Rover_NEW/Inverter/Mobrob_Inverter/Dave/Generated/DIGITAL_IO\digital_io.h **** 
 132:C:/GitHub/MobRob_Rover_NEW/Inverter/Mobrob_Inverter/Dave/Generated/DIGITAL_IO\digital_io.h **** 
 133:C:/GitHub/MobRob_Rover_NEW/Inverter/Mobrob_Inverter/Dave/Generated/DIGITAL_IO\digital_io.h **** #ifdef __cplusplus
 134:C:/GitHub/MobRob_Rover_NEW/Inverter/Mobrob_Inverter/Dave/Generated/DIGITAL_IO\digital_io.h **** extern "C" {
 135:C:/GitHub/MobRob_Rover_NEW/Inverter/Mobrob_Inverter/Dave/Generated/DIGITAL_IO\digital_io.h **** #endif
 136:C:/GitHub/MobRob_Rover_NEW/Inverter/Mobrob_Inverter/Dave/Generated/DIGITAL_IO\digital_io.h **** 
 137:C:/GitHub/MobRob_Rover_NEW/Inverter/Mobrob_Inverter/Dave/Generated/DIGITAL_IO\digital_io.h **** /**
 138:C:/GitHub/MobRob_Rover_NEW/Inverter/Mobrob_Inverter/Dave/Generated/DIGITAL_IO\digital_io.h **** * @ingroup DIGITAL_IO_apidoc
 139:C:/GitHub/MobRob_Rover_NEW/Inverter/Mobrob_Inverter/Dave/Generated/DIGITAL_IO\digital_io.h **** * @{
 140:C:/GitHub/MobRob_Rover_NEW/Inverter/Mobrob_Inverter/Dave/Generated/DIGITAL_IO\digital_io.h **** */
 141:C:/GitHub/MobRob_Rover_NEW/Inverter/Mobrob_Inverter/Dave/Generated/DIGITAL_IO\digital_io.h **** 
 142:C:/GitHub/MobRob_Rover_NEW/Inverter/Mobrob_Inverter/Dave/Generated/DIGITAL_IO\digital_io.h **** 
 143:C:/GitHub/MobRob_Rover_NEW/Inverter/Mobrob_Inverter/Dave/Generated/DIGITAL_IO\digital_io.h **** 
 144:C:/GitHub/MobRob_Rover_NEW/Inverter/Mobrob_Inverter/Dave/Generated/DIGITAL_IO\digital_io.h **** /**
 145:C:/GitHub/MobRob_Rover_NEW/Inverter/Mobrob_Inverter/Dave/Generated/DIGITAL_IO\digital_io.h **** * @brief Get DIGITAL_IO APP version
 146:C:/GitHub/MobRob_Rover_NEW/Inverter/Mobrob_Inverter/Dave/Generated/DIGITAL_IO\digital_io.h **** * @return DAVE_APP_VERSION_t APP version information (major, minor and patch number)
 147:C:/GitHub/MobRob_Rover_NEW/Inverter/Mobrob_Inverter/Dave/Generated/DIGITAL_IO\digital_io.h **** *
 148:C:/GitHub/MobRob_Rover_NEW/Inverter/Mobrob_Inverter/Dave/Generated/DIGITAL_IO\digital_io.h **** * \par<b>Description: </b><br>
 149:C:/GitHub/MobRob_Rover_NEW/Inverter/Mobrob_Inverter/Dave/Generated/DIGITAL_IO\digital_io.h **** * The function can be used to check application software compatibility with a
 150:C:/GitHub/MobRob_Rover_NEW/Inverter/Mobrob_Inverter/Dave/Generated/DIGITAL_IO\digital_io.h **** * specific version of the APP.
 151:C:/GitHub/MobRob_Rover_NEW/Inverter/Mobrob_Inverter/Dave/Generated/DIGITAL_IO\digital_io.h **** *
 152:C:/GitHub/MobRob_Rover_NEW/Inverter/Mobrob_Inverter/Dave/Generated/DIGITAL_IO\digital_io.h **** * Example Usage:
 153:C:/GitHub/MobRob_Rover_NEW/Inverter/Mobrob_Inverter/Dave/Generated/DIGITAL_IO\digital_io.h **** *
 154:C:/GitHub/MobRob_Rover_NEW/Inverter/Mobrob_Inverter/Dave/Generated/DIGITAL_IO\digital_io.h **** * @code
 155:C:/GitHub/MobRob_Rover_NEW/Inverter/Mobrob_Inverter/Dave/Generated/DIGITAL_IO\digital_io.h **** * #include <DAVE.h>
 156:C:/GitHub/MobRob_Rover_NEW/Inverter/Mobrob_Inverter/Dave/Generated/DIGITAL_IO\digital_io.h **** *
 157:C:/GitHub/MobRob_Rover_NEW/Inverter/Mobrob_Inverter/Dave/Generated/DIGITAL_IO\digital_io.h **** * int main(void)
 158:C:/GitHub/MobRob_Rover_NEW/Inverter/Mobrob_Inverter/Dave/Generated/DIGITAL_IO\digital_io.h **** * {
 159:C:/GitHub/MobRob_Rover_NEW/Inverter/Mobrob_Inverter/Dave/Generated/DIGITAL_IO\digital_io.h **** *   DAVE_STATUS_t init_status;
 160:C:/GitHub/MobRob_Rover_NEW/Inverter/Mobrob_Inverter/Dave/Generated/DIGITAL_IO\digital_io.h **** *   DAVE_APP_VERSION_t version;
 161:C:/GitHub/MobRob_Rover_NEW/Inverter/Mobrob_Inverter/Dave/Generated/DIGITAL_IO\digital_io.h **** *
 162:C:/GitHub/MobRob_Rover_NEW/Inverter/Mobrob_Inverter/Dave/Generated/DIGITAL_IO\digital_io.h **** *   // Initialize DIGITAL_IO APP:
 163:C:/GitHub/MobRob_Rover_NEW/Inverter/Mobrob_Inverter/Dave/Generated/DIGITAL_IO\digital_io.h **** *   // DIGITAL_IO_Init() is called from within DAVE_Init().
 164:C:/GitHub/MobRob_Rover_NEW/Inverter/Mobrob_Inverter/Dave/Generated/DIGITAL_IO\digital_io.h **** *   init_status = DAVE_Init();
 165:C:/GitHub/MobRob_Rover_NEW/Inverter/Mobrob_Inverter/Dave/Generated/DIGITAL_IO\digital_io.h **** *   if(init_status == DAVE_STATUS_SUCCESS)
 166:C:/GitHub/MobRob_Rover_NEW/Inverter/Mobrob_Inverter/Dave/Generated/DIGITAL_IO\digital_io.h **** *   {
 167:C:/GitHub/MobRob_Rover_NEW/Inverter/Mobrob_Inverter/Dave/Generated/DIGITAL_IO\digital_io.h **** *     version = DIGITAL_IO_GetAppVersion();
 168:C:/GitHub/MobRob_Rover_NEW/Inverter/Mobrob_Inverter/Dave/Generated/DIGITAL_IO\digital_io.h **** *     if (version.major != 4U) {
 169:C:/GitHub/MobRob_Rover_NEW/Inverter/Mobrob_Inverter/Dave/Generated/DIGITAL_IO\digital_io.h **** *     // Probably, not the right version.
 170:C:/GitHub/MobRob_Rover_NEW/Inverter/Mobrob_Inverter/Dave/Generated/DIGITAL_IO\digital_io.h **** *     }
 171:C:/GitHub/MobRob_Rover_NEW/Inverter/Mobrob_Inverter/Dave/Generated/DIGITAL_IO\digital_io.h **** *   }
 172:C:/GitHub/MobRob_Rover_NEW/Inverter/Mobrob_Inverter/Dave/Generated/DIGITAL_IO\digital_io.h **** *
 173:C:/GitHub/MobRob_Rover_NEW/Inverter/Mobrob_Inverter/Dave/Generated/DIGITAL_IO\digital_io.h **** *     // More code here
 174:C:/GitHub/MobRob_Rover_NEW/Inverter/Mobrob_Inverter/Dave/Generated/DIGITAL_IO\digital_io.h **** *     while(1) {
 175:C:/GitHub/MobRob_Rover_NEW/Inverter/Mobrob_Inverter/Dave/Generated/DIGITAL_IO\digital_io.h **** *
 176:C:/GitHub/MobRob_Rover_NEW/Inverter/Mobrob_Inverter/Dave/Generated/DIGITAL_IO\digital_io.h **** *     }
 177:C:/GitHub/MobRob_Rover_NEW/Inverter/Mobrob_Inverter/Dave/Generated/DIGITAL_IO\digital_io.h **** *     return (1);
 178:C:/GitHub/MobRob_Rover_NEW/Inverter/Mobrob_Inverter/Dave/Generated/DIGITAL_IO\digital_io.h **** *  }
 179:C:/GitHub/MobRob_Rover_NEW/Inverter/Mobrob_Inverter/Dave/Generated/DIGITAL_IO\digital_io.h **** * @endcode<BR>
 180:C:/GitHub/MobRob_Rover_NEW/Inverter/Mobrob_Inverter/Dave/Generated/DIGITAL_IO\digital_io.h **** */
 181:C:/GitHub/MobRob_Rover_NEW/Inverter/Mobrob_Inverter/Dave/Generated/DIGITAL_IO\digital_io.h **** 
 182:C:/GitHub/MobRob_Rover_NEW/Inverter/Mobrob_Inverter/Dave/Generated/DIGITAL_IO\digital_io.h **** DAVE_APP_VERSION_t DIGITAL_IO_GetAppVersion(void);
 183:C:/GitHub/MobRob_Rover_NEW/Inverter/Mobrob_Inverter/Dave/Generated/DIGITAL_IO\digital_io.h **** 
 184:C:/GitHub/MobRob_Rover_NEW/Inverter/Mobrob_Inverter/Dave/Generated/DIGITAL_IO\digital_io.h **** /**
 185:C:/GitHub/MobRob_Rover_NEW/Inverter/Mobrob_Inverter/Dave/Generated/DIGITAL_IO\digital_io.h **** *
 186:C:/GitHub/MobRob_Rover_NEW/Inverter/Mobrob_Inverter/Dave/Generated/DIGITAL_IO\digital_io.h **** * @brief Function to initialize the port pin as per UI settings.
 187:C:/GitHub/MobRob_Rover_NEW/Inverter/Mobrob_Inverter/Dave/Generated/DIGITAL_IO\digital_io.h **** * @param handler Pointer pointing to APP data structure. Refer @ref DIGITAL_IO_t for details.
 188:C:/GitHub/MobRob_Rover_NEW/Inverter/Mobrob_Inverter/Dave/Generated/DIGITAL_IO\digital_io.h **** * @return DIGITAL_IO_STATUS_t DIGITAL_IO APP status. Refer @ref DIGITAL_IO_STATUS_t structure for d
 189:C:/GitHub/MobRob_Rover_NEW/Inverter/Mobrob_Inverter/Dave/Generated/DIGITAL_IO\digital_io.h **** *
 190:C:/GitHub/MobRob_Rover_NEW/Inverter/Mobrob_Inverter/Dave/Generated/DIGITAL_IO\digital_io.h **** * \par<b>Description:</b><br>
 191:C:/GitHub/MobRob_Rover_NEW/Inverter/Mobrob_Inverter/Dave/Generated/DIGITAL_IO\digital_io.h **** * This function initializes GPIO port registers IOCR,PDISC,OMR,PDR/PHCR to configure pin direction,
 192:C:/GitHub/MobRob_Rover_NEW/Inverter/Mobrob_Inverter/Dave/Generated/DIGITAL_IO\digital_io.h **** * and pad driver strength/hysteresis.
 193:C:/GitHub/MobRob_Rover_NEW/Inverter/Mobrob_Inverter/Dave/Generated/DIGITAL_IO\digital_io.h **** *
 194:C:/GitHub/MobRob_Rover_NEW/Inverter/Mobrob_Inverter/Dave/Generated/DIGITAL_IO\digital_io.h **** * \par<b>Related APIs:</b><BR>
 195:C:/GitHub/MobRob_Rover_NEW/Inverter/Mobrob_Inverter/Dave/Generated/DIGITAL_IO\digital_io.h **** * None
 196:C:/GitHub/MobRob_Rover_NEW/Inverter/Mobrob_Inverter/Dave/Generated/DIGITAL_IO\digital_io.h **** *
 197:C:/GitHub/MobRob_Rover_NEW/Inverter/Mobrob_Inverter/Dave/Generated/DIGITAL_IO\digital_io.h **** * Example Usage:
 198:C:/GitHub/MobRob_Rover_NEW/Inverter/Mobrob_Inverter/Dave/Generated/DIGITAL_IO\digital_io.h **** * @code
 199:C:/GitHub/MobRob_Rover_NEW/Inverter/Mobrob_Inverter/Dave/Generated/DIGITAL_IO\digital_io.h **** * #include <DAVE.h>//Declarations from DAVE Code Generation (includes SFR declaration)
 200:C:/GitHub/MobRob_Rover_NEW/Inverter/Mobrob_Inverter/Dave/Generated/DIGITAL_IO\digital_io.h **** * int main(void)
 201:C:/GitHub/MobRob_Rover_NEW/Inverter/Mobrob_Inverter/Dave/Generated/DIGITAL_IO\digital_io.h **** * {
 202:C:/GitHub/MobRob_Rover_NEW/Inverter/Mobrob_Inverter/Dave/Generated/DIGITAL_IO\digital_io.h **** *   DAVE_STATUS_t status;
 203:C:/GitHub/MobRob_Rover_NEW/Inverter/Mobrob_Inverter/Dave/Generated/DIGITAL_IO\digital_io.h **** *   status = DAVE_Init();  //(DAVE_STATUS_t)DIGITAL_IO_Init(&DIGITAL_IO_0) is called within DAVE_In
 204:C:/GitHub/MobRob_Rover_NEW/Inverter/Mobrob_Inverter/Dave/Generated/DIGITAL_IO\digital_io.h **** *   if(status == DAVE_STATUS_SUCCESS)
 205:C:/GitHub/MobRob_Rover_NEW/Inverter/Mobrob_Inverter/Dave/Generated/DIGITAL_IO\digital_io.h **** *   {
 206:C:/GitHub/MobRob_Rover_NEW/Inverter/Mobrob_Inverter/Dave/Generated/DIGITAL_IO\digital_io.h **** *     XMC_DEBUG("DAVE Apps initialization success\n");
 207:C:/GitHub/MobRob_Rover_NEW/Inverter/Mobrob_Inverter/Dave/Generated/DIGITAL_IO\digital_io.h **** *   }
 208:C:/GitHub/MobRob_Rover_NEW/Inverter/Mobrob_Inverter/Dave/Generated/DIGITAL_IO\digital_io.h **** *   else
 209:C:/GitHub/MobRob_Rover_NEW/Inverter/Mobrob_Inverter/Dave/Generated/DIGITAL_IO\digital_io.h **** *   {
 210:C:/GitHub/MobRob_Rover_NEW/Inverter/Mobrob_Inverter/Dave/Generated/DIGITAL_IO\digital_io.h **** *     XMC_DEBUG(("DAVE Apps initialization failed with status %d\n", status));
 211:C:/GitHub/MobRob_Rover_NEW/Inverter/Mobrob_Inverter/Dave/Generated/DIGITAL_IO\digital_io.h **** *     while(1U)
 212:C:/GitHub/MobRob_Rover_NEW/Inverter/Mobrob_Inverter/Dave/Generated/DIGITAL_IO\digital_io.h **** *     {
 213:C:/GitHub/MobRob_Rover_NEW/Inverter/Mobrob_Inverter/Dave/Generated/DIGITAL_IO\digital_io.h **** *     }
 214:C:/GitHub/MobRob_Rover_NEW/Inverter/Mobrob_Inverter/Dave/Generated/DIGITAL_IO\digital_io.h **** *   }
 215:C:/GitHub/MobRob_Rover_NEW/Inverter/Mobrob_Inverter/Dave/Generated/DIGITAL_IO\digital_io.h **** *   //Placeholder for user application code. The while loop below can be replaced with user applica
 216:C:/GitHub/MobRob_Rover_NEW/Inverter/Mobrob_Inverter/Dave/Generated/DIGITAL_IO\digital_io.h **** *   while(1U)
 217:C:/GitHub/MobRob_Rover_NEW/Inverter/Mobrob_Inverter/Dave/Generated/DIGITAL_IO\digital_io.h **** *   {
 218:C:/GitHub/MobRob_Rover_NEW/Inverter/Mobrob_Inverter/Dave/Generated/DIGITAL_IO\digital_io.h **** *   }
 219:C:/GitHub/MobRob_Rover_NEW/Inverter/Mobrob_Inverter/Dave/Generated/DIGITAL_IO\digital_io.h **** *   return 1U;
 220:C:/GitHub/MobRob_Rover_NEW/Inverter/Mobrob_Inverter/Dave/Generated/DIGITAL_IO\digital_io.h **** *  }
 221:C:/GitHub/MobRob_Rover_NEW/Inverter/Mobrob_Inverter/Dave/Generated/DIGITAL_IO\digital_io.h **** *  @endcode
 222:C:/GitHub/MobRob_Rover_NEW/Inverter/Mobrob_Inverter/Dave/Generated/DIGITAL_IO\digital_io.h **** */
 223:C:/GitHub/MobRob_Rover_NEW/Inverter/Mobrob_Inverter/Dave/Generated/DIGITAL_IO\digital_io.h **** 
 224:C:/GitHub/MobRob_Rover_NEW/Inverter/Mobrob_Inverter/Dave/Generated/DIGITAL_IO\digital_io.h **** DIGITAL_IO_STATUS_t DIGITAL_IO_Init(const DIGITAL_IO_t *const handler);
 225:C:/GitHub/MobRob_Rover_NEW/Inverter/Mobrob_Inverter/Dave/Generated/DIGITAL_IO\digital_io.h **** 
 226:C:/GitHub/MobRob_Rover_NEW/Inverter/Mobrob_Inverter/Dave/Generated/DIGITAL_IO\digital_io.h **** /**
 227:C:/GitHub/MobRob_Rover_NEW/Inverter/Mobrob_Inverter/Dave/Generated/DIGITAL_IO\digital_io.h **** *
 228:C:/GitHub/MobRob_Rover_NEW/Inverter/Mobrob_Inverter/Dave/Generated/DIGITAL_IO\digital_io.h **** * @brief Function to set port pin high.
 229:C:/GitHub/MobRob_Rover_NEW/Inverter/Mobrob_Inverter/Dave/Generated/DIGITAL_IO\digital_io.h **** * @param handler Pointer pointing to APP data structure. Refer @ref DIGITAL_IO_t for details.
 230:C:/GitHub/MobRob_Rover_NEW/Inverter/Mobrob_Inverter/Dave/Generated/DIGITAL_IO\digital_io.h **** * @return None
 231:C:/GitHub/MobRob_Rover_NEW/Inverter/Mobrob_Inverter/Dave/Generated/DIGITAL_IO\digital_io.h **** *
 232:C:/GitHub/MobRob_Rover_NEW/Inverter/Mobrob_Inverter/Dave/Generated/DIGITAL_IO\digital_io.h **** * \par<b>Description:</b><br>
 233:C:/GitHub/MobRob_Rover_NEW/Inverter/Mobrob_Inverter/Dave/Generated/DIGITAL_IO\digital_io.h **** * This function configures port output modification register Pn_OMR, to make port pin to high level
 234:C:/GitHub/MobRob_Rover_NEW/Inverter/Mobrob_Inverter/Dave/Generated/DIGITAL_IO\digital_io.h **** *
 235:C:/GitHub/MobRob_Rover_NEW/Inverter/Mobrob_Inverter/Dave/Generated/DIGITAL_IO\digital_io.h **** * \par<b>Related APIs:</b><BR>
 236:C:/GitHub/MobRob_Rover_NEW/Inverter/Mobrob_Inverter/Dave/Generated/DIGITAL_IO\digital_io.h **** *  DIGITAL_IO_SetOutputLow()
 237:C:/GitHub/MobRob_Rover_NEW/Inverter/Mobrob_Inverter/Dave/Generated/DIGITAL_IO\digital_io.h **** *
 238:C:/GitHub/MobRob_Rover_NEW/Inverter/Mobrob_Inverter/Dave/Generated/DIGITAL_IO\digital_io.h **** * Example Usage:
 239:C:/GitHub/MobRob_Rover_NEW/Inverter/Mobrob_Inverter/Dave/Generated/DIGITAL_IO\digital_io.h **** * @code
 240:C:/GitHub/MobRob_Rover_NEW/Inverter/Mobrob_Inverter/Dave/Generated/DIGITAL_IO\digital_io.h **** * #include <DAVE.h>//Declarations from DAVE Code Generation (includes SFR declaration)
 241:C:/GitHub/MobRob_Rover_NEW/Inverter/Mobrob_Inverter/Dave/Generated/DIGITAL_IO\digital_io.h **** * int main(void)
 242:C:/GitHub/MobRob_Rover_NEW/Inverter/Mobrob_Inverter/Dave/Generated/DIGITAL_IO\digital_io.h **** * {
 243:C:/GitHub/MobRob_Rover_NEW/Inverter/Mobrob_Inverter/Dave/Generated/DIGITAL_IO\digital_io.h **** *   DAVE_STATUS_t status;
 244:C:/GitHub/MobRob_Rover_NEW/Inverter/Mobrob_Inverter/Dave/Generated/DIGITAL_IO\digital_io.h **** *   status = DAVE_Init();  //(DAVE_STATUS_t)DIGITAL_IO_Init(&DIGITAL_IO_0) is called within DAVE_In
 245:C:/GitHub/MobRob_Rover_NEW/Inverter/Mobrob_Inverter/Dave/Generated/DIGITAL_IO\digital_io.h **** *   if(status == DAVE_STATUS_SUCCESS)
 246:C:/GitHub/MobRob_Rover_NEW/Inverter/Mobrob_Inverter/Dave/Generated/DIGITAL_IO\digital_io.h **** *   {
 247:C:/GitHub/MobRob_Rover_NEW/Inverter/Mobrob_Inverter/Dave/Generated/DIGITAL_IO\digital_io.h **** *     XMC_DEBUG("DAVE Apps initialization success\n");
 248:C:/GitHub/MobRob_Rover_NEW/Inverter/Mobrob_Inverter/Dave/Generated/DIGITAL_IO\digital_io.h **** *   }
 249:C:/GitHub/MobRob_Rover_NEW/Inverter/Mobrob_Inverter/Dave/Generated/DIGITAL_IO\digital_io.h **** *   else
 250:C:/GitHub/MobRob_Rover_NEW/Inverter/Mobrob_Inverter/Dave/Generated/DIGITAL_IO\digital_io.h **** *   {
 251:C:/GitHub/MobRob_Rover_NEW/Inverter/Mobrob_Inverter/Dave/Generated/DIGITAL_IO\digital_io.h **** *     XMC_DEBUG(("DAVE Apps initialization failed with status %d\n", status));
 252:C:/GitHub/MobRob_Rover_NEW/Inverter/Mobrob_Inverter/Dave/Generated/DIGITAL_IO\digital_io.h **** *     while(1U)
 253:C:/GitHub/MobRob_Rover_NEW/Inverter/Mobrob_Inverter/Dave/Generated/DIGITAL_IO\digital_io.h **** *     {
 254:C:/GitHub/MobRob_Rover_NEW/Inverter/Mobrob_Inverter/Dave/Generated/DIGITAL_IO\digital_io.h **** *     }
 255:C:/GitHub/MobRob_Rover_NEW/Inverter/Mobrob_Inverter/Dave/Generated/DIGITAL_IO\digital_io.h **** *   }
 256:C:/GitHub/MobRob_Rover_NEW/Inverter/Mobrob_Inverter/Dave/Generated/DIGITAL_IO\digital_io.h **** *   //Placeholder for user application code. The while loop below can be replaced with user applica
 257:C:/GitHub/MobRob_Rover_NEW/Inverter/Mobrob_Inverter/Dave/Generated/DIGITAL_IO\digital_io.h **** *   DIGITAL_IO_SetOutputHigh(&DIGITAL_IO_0);
 258:C:/GitHub/MobRob_Rover_NEW/Inverter/Mobrob_Inverter/Dave/Generated/DIGITAL_IO\digital_io.h **** *   while(1U)
 259:C:/GitHub/MobRob_Rover_NEW/Inverter/Mobrob_Inverter/Dave/Generated/DIGITAL_IO\digital_io.h **** *   {
 260:C:/GitHub/MobRob_Rover_NEW/Inverter/Mobrob_Inverter/Dave/Generated/DIGITAL_IO\digital_io.h **** *     // Add application code here
 261:C:/GitHub/MobRob_Rover_NEW/Inverter/Mobrob_Inverter/Dave/Generated/DIGITAL_IO\digital_io.h **** *   }
 262:C:/GitHub/MobRob_Rover_NEW/Inverter/Mobrob_Inverter/Dave/Generated/DIGITAL_IO\digital_io.h **** *
 263:C:/GitHub/MobRob_Rover_NEW/Inverter/Mobrob_Inverter/Dave/Generated/DIGITAL_IO\digital_io.h **** *   return (1);
 264:C:/GitHub/MobRob_Rover_NEW/Inverter/Mobrob_Inverter/Dave/Generated/DIGITAL_IO\digital_io.h **** * }
 265:C:/GitHub/MobRob_Rover_NEW/Inverter/Mobrob_Inverter/Dave/Generated/DIGITAL_IO\digital_io.h **** *  @endcode
 266:C:/GitHub/MobRob_Rover_NEW/Inverter/Mobrob_Inverter/Dave/Generated/DIGITAL_IO\digital_io.h **** */
 267:C:/GitHub/MobRob_Rover_NEW/Inverter/Mobrob_Inverter/Dave/Generated/DIGITAL_IO\digital_io.h **** 
 268:C:/GitHub/MobRob_Rover_NEW/Inverter/Mobrob_Inverter/Dave/Generated/DIGITAL_IO\digital_io.h **** __STATIC_INLINE void DIGITAL_IO_SetOutputHigh(const DIGITAL_IO_t *const handler)
 269:C:/GitHub/MobRob_Rover_NEW/Inverter/Mobrob_Inverter/Dave/Generated/DIGITAL_IO\digital_io.h **** {
 122              	 .loc 2 269 0
 123              	 .cfi_startproc
 124              	 
 125              	 
 126 0000 80B5     	 push {r7,lr}
 127              	.LCFI12:
 128              	 .cfi_def_cfa_offset 8
 129              	 .cfi_offset 7,-8
 130              	 .cfi_offset 14,-4
 131 0002 82B0     	 sub sp,sp,#8
 132              	.LCFI13:
 133              	 .cfi_def_cfa_offset 16
 134 0004 00AF     	 add r7,sp,#0
 135              	.LCFI14:
 136              	 .cfi_def_cfa_register 7
 137 0006 7860     	 str r0,[r7,#4]
 270:C:/GitHub/MobRob_Rover_NEW/Inverter/Mobrob_Inverter/Dave/Generated/DIGITAL_IO\digital_io.h ****   XMC_ASSERT("DIGITAL_IO_SetOutputHigh: handler null pointer", handler != NULL);
 271:C:/GitHub/MobRob_Rover_NEW/Inverter/Mobrob_Inverter/Dave/Generated/DIGITAL_IO\digital_io.h ****   XMC_GPIO_SetOutputHigh(handler->gpio_port, handler->gpio_pin);
 138              	 .loc 2 271 0
 139 0008 7B68     	 ldr r3,[r7,#4]
 140 000a 1A68     	 ldr r2,[r3]
 141 000c 7B68     	 ldr r3,[r7,#4]
 142 000e 1B7C     	 ldrb r3,[r3,#16]
 143 0010 1046     	 mov r0,r2
 144 0012 1946     	 mov r1,r3
 145 0014 FFF7FEFF 	 bl XMC_GPIO_SetOutputHigh
 272:C:/GitHub/MobRob_Rover_NEW/Inverter/Mobrob_Inverter/Dave/Generated/DIGITAL_IO\digital_io.h **** }
 146              	 .loc 2 272 0
 147 0018 0837     	 adds r7,r7,#8
 148              	.LCFI15:
 149              	 .cfi_def_cfa_offset 8
 150 001a BD46     	 mov sp,r7
 151              	.LCFI16:
 152              	 .cfi_def_cfa_register 13
 153              	 
 154 001c 80BD     	 pop {r7,pc}
 155              	 .cfi_endproc
 156              	.LFE145:
 158 001e 00BF     	 .section .text.DIGITAL_IO_SetOutputLow,"ax",%progbits
 159              	 .align 2
 160              	 .thumb
 161              	 .thumb_func
 163              	DIGITAL_IO_SetOutputLow:
 164              	.LFB146:
 273:C:/GitHub/MobRob_Rover_NEW/Inverter/Mobrob_Inverter/Dave/Generated/DIGITAL_IO\digital_io.h **** 
 274:C:/GitHub/MobRob_Rover_NEW/Inverter/Mobrob_Inverter/Dave/Generated/DIGITAL_IO\digital_io.h **** /**
 275:C:/GitHub/MobRob_Rover_NEW/Inverter/Mobrob_Inverter/Dave/Generated/DIGITAL_IO\digital_io.h **** * @brief Function to reset port pin.
 276:C:/GitHub/MobRob_Rover_NEW/Inverter/Mobrob_Inverter/Dave/Generated/DIGITAL_IO\digital_io.h **** * @param handler Pointer pointing to APP data structure. Refer @ref DIGITAL_IO_t for details.
 277:C:/GitHub/MobRob_Rover_NEW/Inverter/Mobrob_Inverter/Dave/Generated/DIGITAL_IO\digital_io.h **** * @return None
 278:C:/GitHub/MobRob_Rover_NEW/Inverter/Mobrob_Inverter/Dave/Generated/DIGITAL_IO\digital_io.h **** *
 279:C:/GitHub/MobRob_Rover_NEW/Inverter/Mobrob_Inverter/Dave/Generated/DIGITAL_IO\digital_io.h **** * \par<b>Description:</b><br>
 280:C:/GitHub/MobRob_Rover_NEW/Inverter/Mobrob_Inverter/Dave/Generated/DIGITAL_IO\digital_io.h **** * This function configures port output modification register Pn_OMR, to make port pin to low level.
 281:C:/GitHub/MobRob_Rover_NEW/Inverter/Mobrob_Inverter/Dave/Generated/DIGITAL_IO\digital_io.h **** *
 282:C:/GitHub/MobRob_Rover_NEW/Inverter/Mobrob_Inverter/Dave/Generated/DIGITAL_IO\digital_io.h **** * \par<b>Related APIs:</b><BR>
 283:C:/GitHub/MobRob_Rover_NEW/Inverter/Mobrob_Inverter/Dave/Generated/DIGITAL_IO\digital_io.h **** * DIGITAL_IO_SetOutputHigh()
 284:C:/GitHub/MobRob_Rover_NEW/Inverter/Mobrob_Inverter/Dave/Generated/DIGITAL_IO\digital_io.h **** *
 285:C:/GitHub/MobRob_Rover_NEW/Inverter/Mobrob_Inverter/Dave/Generated/DIGITAL_IO\digital_io.h **** * Example Usage:
 286:C:/GitHub/MobRob_Rover_NEW/Inverter/Mobrob_Inverter/Dave/Generated/DIGITAL_IO\digital_io.h **** * @code
 287:C:/GitHub/MobRob_Rover_NEW/Inverter/Mobrob_Inverter/Dave/Generated/DIGITAL_IO\digital_io.h **** *  #include <DAVE.h>//Declarations from DAVE Code Generation (includes SFR declaration)
 288:C:/GitHub/MobRob_Rover_NEW/Inverter/Mobrob_Inverter/Dave/Generated/DIGITAL_IO\digital_io.h **** *  int main(void)
 289:C:/GitHub/MobRob_Rover_NEW/Inverter/Mobrob_Inverter/Dave/Generated/DIGITAL_IO\digital_io.h **** *  {
 290:C:/GitHub/MobRob_Rover_NEW/Inverter/Mobrob_Inverter/Dave/Generated/DIGITAL_IO\digital_io.h **** *    DAVE_STATUS_t status;
 291:C:/GitHub/MobRob_Rover_NEW/Inverter/Mobrob_Inverter/Dave/Generated/DIGITAL_IO\digital_io.h **** *    status = DAVE_Init();  //(DAVE_STATUS_t)DIGITAL_IO_Init(&DIGITAL_IO_0) is called within DAVE_I
 292:C:/GitHub/MobRob_Rover_NEW/Inverter/Mobrob_Inverter/Dave/Generated/DIGITAL_IO\digital_io.h **** *    if(status == DAVE_STATUS_SUCCESS)
 293:C:/GitHub/MobRob_Rover_NEW/Inverter/Mobrob_Inverter/Dave/Generated/DIGITAL_IO\digital_io.h **** *    {
 294:C:/GitHub/MobRob_Rover_NEW/Inverter/Mobrob_Inverter/Dave/Generated/DIGITAL_IO\digital_io.h **** *      XMC_DEBUG("DAVE Apps initialization success\n");
 295:C:/GitHub/MobRob_Rover_NEW/Inverter/Mobrob_Inverter/Dave/Generated/DIGITAL_IO\digital_io.h **** *    }
 296:C:/GitHub/MobRob_Rover_NEW/Inverter/Mobrob_Inverter/Dave/Generated/DIGITAL_IO\digital_io.h **** *    else
 297:C:/GitHub/MobRob_Rover_NEW/Inverter/Mobrob_Inverter/Dave/Generated/DIGITAL_IO\digital_io.h **** *    {
 298:C:/GitHub/MobRob_Rover_NEW/Inverter/Mobrob_Inverter/Dave/Generated/DIGITAL_IO\digital_io.h **** *      XMC_DEBUG(("DAVE Apps initialization failed with status %d\n", status));
 299:C:/GitHub/MobRob_Rover_NEW/Inverter/Mobrob_Inverter/Dave/Generated/DIGITAL_IO\digital_io.h **** *      while(1U)
 300:C:/GitHub/MobRob_Rover_NEW/Inverter/Mobrob_Inverter/Dave/Generated/DIGITAL_IO\digital_io.h **** *      {
 301:C:/GitHub/MobRob_Rover_NEW/Inverter/Mobrob_Inverter/Dave/Generated/DIGITAL_IO\digital_io.h **** *      }
 302:C:/GitHub/MobRob_Rover_NEW/Inverter/Mobrob_Inverter/Dave/Generated/DIGITAL_IO\digital_io.h **** *    }
 303:C:/GitHub/MobRob_Rover_NEW/Inverter/Mobrob_Inverter/Dave/Generated/DIGITAL_IO\digital_io.h **** *    //Placeholder for user application code. The while loop below can be replaced with user applic
 304:C:/GitHub/MobRob_Rover_NEW/Inverter/Mobrob_Inverter/Dave/Generated/DIGITAL_IO\digital_io.h **** *    DIGITAL_IO_SetOutputLow(&DIGITAL_IO_0);
 305:C:/GitHub/MobRob_Rover_NEW/Inverter/Mobrob_Inverter/Dave/Generated/DIGITAL_IO\digital_io.h **** *    while(1U)
 306:C:/GitHub/MobRob_Rover_NEW/Inverter/Mobrob_Inverter/Dave/Generated/DIGITAL_IO\digital_io.h **** *    {
 307:C:/GitHub/MobRob_Rover_NEW/Inverter/Mobrob_Inverter/Dave/Generated/DIGITAL_IO\digital_io.h **** *      // Add application code here
 308:C:/GitHub/MobRob_Rover_NEW/Inverter/Mobrob_Inverter/Dave/Generated/DIGITAL_IO\digital_io.h **** *    }
 309:C:/GitHub/MobRob_Rover_NEW/Inverter/Mobrob_Inverter/Dave/Generated/DIGITAL_IO\digital_io.h **** *
 310:C:/GitHub/MobRob_Rover_NEW/Inverter/Mobrob_Inverter/Dave/Generated/DIGITAL_IO\digital_io.h **** *   return (1);
 311:C:/GitHub/MobRob_Rover_NEW/Inverter/Mobrob_Inverter/Dave/Generated/DIGITAL_IO\digital_io.h **** * }
 312:C:/GitHub/MobRob_Rover_NEW/Inverter/Mobrob_Inverter/Dave/Generated/DIGITAL_IO\digital_io.h **** *  @endcode
 313:C:/GitHub/MobRob_Rover_NEW/Inverter/Mobrob_Inverter/Dave/Generated/DIGITAL_IO\digital_io.h **** */
 314:C:/GitHub/MobRob_Rover_NEW/Inverter/Mobrob_Inverter/Dave/Generated/DIGITAL_IO\digital_io.h **** 
 315:C:/GitHub/MobRob_Rover_NEW/Inverter/Mobrob_Inverter/Dave/Generated/DIGITAL_IO\digital_io.h **** __STATIC_INLINE void DIGITAL_IO_SetOutputLow(const DIGITAL_IO_t *const handler)
 316:C:/GitHub/MobRob_Rover_NEW/Inverter/Mobrob_Inverter/Dave/Generated/DIGITAL_IO\digital_io.h **** {
 165              	 .loc 2 316 0
 166              	 .cfi_startproc
 167              	 
 168              	 
 169 0000 80B5     	 push {r7,lr}
 170              	.LCFI17:
 171              	 .cfi_def_cfa_offset 8
 172              	 .cfi_offset 7,-8
 173              	 .cfi_offset 14,-4
 174 0002 82B0     	 sub sp,sp,#8
 175              	.LCFI18:
 176              	 .cfi_def_cfa_offset 16
 177 0004 00AF     	 add r7,sp,#0
 178              	.LCFI19:
 179              	 .cfi_def_cfa_register 7
 180 0006 7860     	 str r0,[r7,#4]
 317:C:/GitHub/MobRob_Rover_NEW/Inverter/Mobrob_Inverter/Dave/Generated/DIGITAL_IO\digital_io.h ****   XMC_ASSERT("DIGITAL_IO_SetOutputLow: handler null pointer", handler != NULL);
 318:C:/GitHub/MobRob_Rover_NEW/Inverter/Mobrob_Inverter/Dave/Generated/DIGITAL_IO\digital_io.h ****   XMC_GPIO_SetOutputLow(handler->gpio_port,handler->gpio_pin);
 181              	 .loc 2 318 0
 182 0008 7B68     	 ldr r3,[r7,#4]
 183 000a 1A68     	 ldr r2,[r3]
 184 000c 7B68     	 ldr r3,[r7,#4]
 185 000e 1B7C     	 ldrb r3,[r3,#16]
 186 0010 1046     	 mov r0,r2
 187 0012 1946     	 mov r1,r3
 188 0014 FFF7FEFF 	 bl XMC_GPIO_SetOutputLow
 319:C:/GitHub/MobRob_Rover_NEW/Inverter/Mobrob_Inverter/Dave/Generated/DIGITAL_IO\digital_io.h **** }
 189              	 .loc 2 319 0
 190 0018 0837     	 adds r7,r7,#8
 191              	.LCFI20:
 192              	 .cfi_def_cfa_offset 8
 193 001a BD46     	 mov sp,r7
 194              	.LCFI21:
 195              	 .cfi_def_cfa_register 13
 196              	 
 197 001c 80BD     	 pop {r7,pc}
 198              	 .cfi_endproc
 199              	.LFE146:
 201              	 .global Torque_control
 202 001e 00BF     	 .section .data.Torque_control,"aw",%progbits
 205              	Torque_control:
 206 0000 01       	 .byte 1
 207              	 .global Speed_control
 208              	 .section .data.Speed_control,"aw",%progbits
 211              	Speed_control:
 212 0000 01       	 .byte 1
 213              	 .global CAN_control
 214              	 .section .bss.CAN_control,"aw",%nobits
 217              	CAN_control:
 218 0000 00       	 .space 1
 219              	 .comm Current_U,4,4
 220              	 .comm Current_V,4,4
 221              	 .comm Current_W,4,4
 222              	 .global time_180deg_cal
 223              	 .section .data.time_180deg_cal,"aw",%progbits
 224              	 .align 2
 227              	time_180deg_cal:
 228 0000 E8030000 	 .word 1000
 229              	 .global angle_in_sector
 230              	 .section .data.angle_in_sector,"aw",%progbits
 231              	 .align 2
 234              	angle_in_sector:
 235 0000 0000F041 	 .word 1106247680
 236              	 .global angle_phi
 237              	 .section .bss.angle_phi,"aw",%nobits
 238              	 .align 2
 241              	angle_phi:
 242 0000 00000000 	 .space 4
 243              	 .comm ialpha,4,4
 244              	 .comm ibeta,4,4
 245              	 .comm iq,4,4
 246              	 .comm id,4,4
 247              	 .comm Valpha,4,4
 248              	 .comm Vbeta,4,4
 249              	 .global omega_mech_rps
 250              	 .section .bss.omega_mech_rps,"aw",%nobits
 251              	 .align 2
 254              	omega_mech_rps:
 255 0000 00000000 	 .space 4
 256              	 .global omega_mech_rps_temp
 257              	 .section .bss.omega_mech_rps_temp,"aw",%nobits
 258              	 .align 2
 261              	omega_mech_rps_temp:
 262 0000 00000000 	 .space 4
 263              	 .global speed_ref
 264              	 .section .bss.speed_ref,"aw",%nobits
 265              	 .align 2
 268              	speed_ref:
 269 0000 00000000 	 .space 4
 270              	 .global omega_ele_rads_ref
 271              	 .section .bss.omega_ele_rads_ref,"aw",%nobits
 272              	 .align 2
 275              	omega_ele_rads_ref:
 276 0000 00000000 	 .space 4
 277              	 .global iq_ref
 278              	 .section .bss.iq_ref,"aw",%nobits
 279              	 .align 2
 282              	iq_ref:
 283 0000 00000000 	 .space 4
 284              	 .global T_ref
 285              	 .section .bss.T_ref,"aw",%nobits
 286              	 .align 2
 289              	T_ref:
 290 0000 00000000 	 .space 4
 291              	 .global omega_mech_rps_ref
 292              	 .section .bss.omega_mech_rps_ref,"aw",%nobits
 293              	 .align 2
 296              	omega_mech_rps_ref:
 297 0000 00000000 	 .space 4
 298              	 .global Vd
 299              	 .section .bss.Vd,"aw",%nobits
 300              	 .align 2
 303              	Vd:
 304 0000 00000000 	 .space 4
 305              	 .global Vq
 306              	 .section .bss.Vq,"aw",%nobits
 307              	 .align 2
 310              	Vq:
 311 0000 00000000 	 .space 4
 312              	 .comm modulation_index,4,4
 313              	 .comm modulation_index_scaled,4,4
 314              	 .comm angle_ab,4,4
 315              	 .comm angle_ab_rad,4,4
 316              	 .comm amplitude_ab,4,4
 317              	 .global Ts
 318              	 .section .data.Ts,"aw",%progbits
 319              	 .align 2
 322              	Ts:
 323 0000 17B75138 	 .word 944879383
 324              	 .global Tcyc
 325              	 .section .data.Tcyc,"aw",%progbits
 326              	 .align 2
 329              	Tcyc:
 330 0000 17B75139 	 .word 961656599
 331              	 .global scaling_factor
 332              	 .section .data.scaling_factor,"aw",%progbits
 333              	 .align 2
 336              	scaling_factor:
 337 0000 00000743 	 .word 1124532224
 338              	 .comm amplitude_corrected,4,4
 339              	 .global count
 340              	 .section .bss.count,"aw",%nobits
 343              	count:
 344 0000 00       	 .space 1
 345              	 .global offset_pos
 346              	 .section .data.offset_pos,"aw",%progbits
 347              	 .align 2
 350              	offset_pos:
 351 0000 0000D8C1 	 .word -1042808832
 352              	 .global offset_neg
 353              	 .section .data.offset_neg,"aw",%progbits
 354              	 .align 2
 357              	offset_neg:
 358 0000 0000A0C1 	 .word -1046478848
 359              	 .global Speed_detection_OK
 360              	 .section .bss.Speed_detection_OK,"aw",%nobits
 363              	Speed_detection_OK:
 364 0000 00       	 .space 1
 365              	 .global setting_time_scalar
 366              	 .section .data.setting_time_scalar,"aw",%progbits
 367              	 .align 2
 370              	setting_time_scalar:
 371 0000 9A99193F 	 .word 1058642330
 372              	 .global step_start
 373              	 .section .bss.step_start,"aw",%nobits
 374              	 .align 2
 377              	step_start:
 378 0000 00000000 	 .space 4
 379              	 .global step
 380              	 .section .data.step,"aw",%progbits
 381              	 .align 2
 384              	step:
 385 0000 0000803F 	 .word 1065353216
 386              	 .global start_help_count
 387              	 .section .bss.start_help_count,"aw",%nobits
 390              	start_help_count:
 391 0000 00       	 .space 1
 392              	 .global start_help
 393              	 .section .bss.start_help,"aw",%nobits
 396              	start_help:
 397 0000 00       	 .space 1
 398              	 .global start_help_flag
 399              	 .section .bss.start_help_flag,"aw",%nobits
 402              	start_help_flag:
 403 0000 00       	 .space 1
 404              	 .global ADC_TO_DCLINK
 405              	 .section .data.ADC_TO_DCLINK,"aw",%progbits
 406              	 .align 2
 409              	ADC_TO_DCLINK:
 410 0000 6666A042 	 .word 1117808230
 411 0004 CDCCA042 	 .word 1117834445
 412 0008 00009A42 	 .word 1117388800
 413 000c 00009A42 	 .word 1117388800
 414 0010 00009A42 	 .word 1117388800
 415 0014 00009F42 	 .word 1117716480
 416              	 .section .text.main,"ax",%progbits
 417              	 .align 2
 418              	 .global main
 419              	 .thumb
 420              	 .thumb_func
 422              	main:
 423              	.LFB552:
 424              	 .file 3 "../main.c"
   1:../main.c     **** /*
   2:../main.c     ****  * main.c
   3:../main.c     ****  *
   4:../main.c     ****  *  Created on: 2020 Jan 02 10:21:43
   5:../main.c     ****  *  Author: Baldo
   6:../main.c     ****  */
   7:../main.c     **** 
   8:../main.c     **** // status: 11.05.2022
   9:../main.c     **** 
  10:../main.c     **** #include <DAVE.h>                 //Declarations from DAVE Code Generation (includes SFR declaratio
  11:../main.c     **** #include <math.h>
  12:../main.c     **** #include <stdio.h> //for printf
  13:../main.c     **** 
  14:../main.c     **** #include "Globals.h"
  15:../main.c     **** #include "DEFINE_CONST.h"
  16:../main.c     **** #include "Hall_Sensors.h"
  17:../main.c     **** #include "rec_data_function.h"
  18:../main.c     **** #include "Read_Current_Sensor.h"
  19:../main.c     **** #include "CAN.h"
  20:../main.c     **** #include "PI_Controller.h"
  21:../main.c     **** 
  22:../main.c     **** //#######################
  23:../main.c     **** //FUNCTION DECLARATION
  24:../main.c     **** //########################
  25:../main.c     **** void Calculation(void);
  26:../main.c     **** 
  27:../main.c     **** //########################
  28:../main.c     **** //VARIABLE DECLARATION
  29:../main.c     **** //########################
  30:../main.c     **** 
  31:../main.c     **** //control type
  32:../main.c     **** uint8_t Torque_control = 1;
  33:../main.c     **** uint8_t Speed_control = 1; //if 0 is torque control if 1 is speed control
  34:../main.c     **** uint8_t CAN_control = 0; // id 1 CAN speed controll aktive
  35:../main.c     **** 
  36:../main.c     **** float Current_U, Current_V, Current_W;
  37:../main.c     **** 
  38:../main.c     **** uint32_t time_180deg_cal = 1000;
  39:../main.c     **** float angle_in_sector = 30;// in deg // 30 defalut becasue in the mideel of the 60
  40:../main.c     **** 
  41:../main.c     **** float angle_phi = 0;
  42:../main.c     **** float ialpha,ibeta,iq,id,Valpha,Vbeta;
  43:../main.c     **** 
  44:../main.c     **** volatile float omega_mech_rps = 0;	//SK	//mechanical rounds per second
  45:../main.c     **** volatile float omega_mech_rps_temp = 0; //SK	//since dividing through the incremental (counted up) 
  46:../main.c     **** 
  47:../main.c     **** 
  48:../main.c     **** // REF vaules given to PI controller
  49:../main.c     **** float speed_ref = 0.0; //meters per second
  50:../main.c     **** float omega_ele_rads_ref = 0.0; // electrical rad per second
  51:../main.c     **** float iq_ref = 0.0;
  52:../main.c     **** float T_ref = 0.0;
  53:../main.c     **** float omega_mech_rps_ref = 0;
  54:../main.c     **** 
  55:../main.c     **** float Vd = 0;
  56:../main.c     **** float Vq = 0;
  57:../main.c     **** 
  58:../main.c     **** 
  59:../main.c     **** volatile float modulation_index; //SK		// modulation index --> calculated via m = V / K_inv
  60:../main.c     **** volatile float modulation_index_scaled; //SK	//scaled from -1 to +1 towards -10000 to +10000 which 
  61:../main.c     **** 
  62:../main.c     **** float angle_ab;
  63:../main.c     **** float angle_ab_rad;
  64:../main.c     **** float amplitude_ab;
  65:../main.c     **** 
  66:../main.c     **** float Ts = 1.0 /20000.0; //T sample correspond to SPVM update rate
  67:../main.c     **** float Tcyc = 1.0 /5000.0; //Tcyc sample correspond to control update rate to PI controler for I
  68:../main.c     **** 
  69:../main.c     **** // scaling factor for SVM Update -> amplitude scaling (max_amplitude = 16384U)
  70:../main.c     **** float scaling_factor = 135;
  71:../main.c     **** float amplitude_corrected;
  72:../main.c     **** 
  73:../main.c     **** // Counter for calculation function -> only use a multiple of the SVM Interrupt
  74:../main.c     **** volatile uint8_t count = 0;
  75:../main.c     **** 
  76:../main.c     **** // Angle correction factor to align Current to Hall Sensor vuales form 14/04
  77:../main.c     **** float offset_pos = -27.0;				//Offset to reduce Hall Sensor Offset in CW direction
  78:../main.c     **** float offset_neg = -20.0;			//Offset to reduce Hall Sensor Offset in CCW direction
  79:../main.c     **** 
  80:../main.c     **** 
  81:../main.c     **** uint8_t Speed_detection_OK = 0;
  82:../main.c     **** 
  83:../main.c     **** //step rec
  84:../main.c     **** float setting_time_scalar = 0.6, step_start =0, step = 1;
  85:../main.c     **** 
  86:../main.c     **** //satrt help
  87:../main.c     **** uint8_t start_help_count = 0, start_help = 0, start_help_flag = 0;
  88:../main.c     **** #define START_HELP_T 0.1
  89:../main.c     **** 
  90:../main.c     **** 
  91:../main.c     **** float ADC_TO_DCLINK[6] = {80.2, 80.4, 77, 77, 77, 79.5}; // 77 defalft value
  92:../main.c     **** 
  93:../main.c     **** //########################
  94:../main.c     **** // MAIN
  95:../main.c     **** //########################
  96:../main.c     **** 
  97:../main.c     **** int main(void)
  98:../main.c     **** {
 425              	 .loc 3 98 0
 426              	 .cfi_startproc
 427              	 
 428              	 
 429 0000 80B5     	 push {r7,lr}
 430              	.LCFI22:
 431              	 .cfi_def_cfa_offset 8
 432              	 .cfi_offset 7,-8
 433              	 .cfi_offset 14,-4
 434 0002 84B0     	 sub sp,sp,#16
 435              	.LCFI23:
 436              	 .cfi_def_cfa_offset 24
 437 0004 02AF     	 add r7,sp,#8
 438              	.LCFI24:
 439              	 .cfi_def_cfa 7,16
  99:../main.c     ****   DAVE_STATUS_t status;
 100:../main.c     ****   status = DAVE_Init();           /* Initialization of DAVE APPs  */
 440              	 .loc 3 100 0
 441 0006 FFF7FEFF 	 bl DAVE_Init
 442 000a 0346     	 mov r3,r0
 443 000c FB71     	 strb r3,[r7,#7]
 101:../main.c     **** 
 102:../main.c     ****   Hall_init();
 444              	 .loc 3 102 0
 445 000e FFF7FEFF 	 bl Hall_init
 103:../main.c     **** 
 104:../main.c     ****   if(status != DAVE_STATUS_SUCCESS)
 446              	 .loc 3 104 0
 447 0012 FB79     	 ldrb r3,[r7,#7]
 448 0014 002B     	 cmp r3,#0
 449 0016 00D0     	 beq .L6
 450              	.L7:
 105:../main.c     ****   {
 106:../main.c     ****     /* Placeholder for error handler code. The while loop below can be replaced with an user error 
 107:../main.c     ****     XMC_DEBUG("DAVE APPs initialization failed\n");
 108:../main.c     **** 
 109:../main.c     ****     while(1U)
 110:../main.c     ****     {
 111:../main.c     **** 
 112:../main.c     ****     }
 451              	 .loc 3 112 0 discriminator 1
 452 0018 FEE7     	 b .L7
 453              	.L6:
 113:../main.c     ****   }
 114:../main.c     **** 
 115:../main.c     ****   //Initialization of CAN
 116:../main.c     ****   	CAN_NODE_STATUS_t init_status;
 117:../main.c     ****   	init_status = CAN_NODE_Init(&CAN_NODE_0);
 454              	 .loc 3 117 0
 455 001a 1548     	 ldr r0,.L10
 456 001c FFF7FEFF 	 bl CAN_NODE_Init
 457 0020 0346     	 mov r3,r0
 458 0022 BB71     	 strb r3,[r7,#6]
 118:../main.c     **** 
 119:../main.c     ****   	if (init_status != CAN_NODE_STATUS_SUCCESS) {
 120:../main.c     ****   		XMC_DEBUG("CAN initialization failed\n");
 121:../main.c     ****   	}
 122:../main.c     **** 
 123:../main.c     ****   if((MOTOR_ON_ROVER > 3) || MOTOR_ON_ROVER < 0){ // if possibel number eneterd
 124:../main.c     **** 	  while(1U)
 125:../main.c     **** 	      {
 126:../main.c     **** 		//  printf("MOTOR_ON_ROVER number false");
 127:../main.c     **** 	      }
 128:../main.c     ****   }
 129:../main.c     **** 
 130:../main.c     ****   if((INVERTER_NUM > 6) || INVERTER_NUM < 0){ // if possibel number eneterd
 131:../main.c     ****  	  while(1U)
 132:../main.c     ****  	      {
 133:../main.c     ****  		//  printf("INVERTER_NUM num false");
 134:../main.c     ****  	      }
 135:../main.c     ****    }
 136:../main.c     **** 
 137:../main.c     ****   /* Placeholder for user application code. The while loop below can be replaced with user applicat
 138:../main.c     ****   while(1U)
 139:../main.c     ****   {
 140:../main.c     **** 	  omega_param_selctor(MOTOR_NUM); //set motor spefici speeed parameters
 459              	 .loc 3 140 0
 460 0024 0A20     	 movs r0,#10
 461 0026 FFF7FEFF 	 bl omega_param_selctor
 141:../main.c     **** 
 142:../main.c     **** 	  PWM_SVM_Start(&PWM_SVM_0); // synchronous start for the CC8 slices.
 462              	 .loc 3 142 0
 463 002a 1248     	 ldr r0,.L10+4
 464 002c FFF7FEFF 	 bl PWM_SVM_Start
 465              	.L9:
 143:../main.c     **** 		  while(1U)
 144:../main.c     **** 		    {
 145:../main.c     **** 			  if(count >=4)		//only calculate a multiple of 20kHz -> 4*50us=200us
 466              	 .loc 3 145 0
 467 0030 114B     	 ldr r3,.L10+8
 468 0032 1B78     	 ldrb r3,[r3]
 469 0034 DBB2     	 uxtb r3,r3
 470 0036 032B     	 cmp r3,#3
 471 0038 18D9     	 bls .L8
 146:../main.c     **** 			  {
 147:../main.c     **** 				  count=0;
 472              	 .loc 3 147 0
 473 003a 0F4B     	 ldr r3,.L10+8
 474 003c 0022     	 movs r2,#0
 475 003e 1A70     	 strb r2,[r3]
 148:../main.c     **** 				  Calculation();
 476              	 .loc 3 148 0
 477 0040 FFF7FEFF 	 bl Calculation
 149:../main.c     **** 
 150:../main.c     **** 				  // f_rec_data(omega_mech_rps	,T_ref,&T_ref,0.12,0.16,10,10000);  //  tref speedd spech char
 151:../main.c     **** 
 152:../main.c     **** 				  //f_rec_data(omega_mech_rps	,T_ref,&omega_mech_rps_ref,step_start,step,2,5000);
 153:../main.c     **** 
 154:../main.c     **** 				   rec_step_from_0(omega_mech_rps, iq_ref,iq, &omega_mech_rps_ref, 1, 20); // start help test
 478              	 .loc 3 154 0
 479 0044 0D4B     	 ldr r3,.L10+12
 480 0046 1868     	 ldr r0,[r3]
 481 0048 0D4B     	 ldr r3,.L10+16
 482 004a 1968     	 ldr r1,[r3]
 483 004c 0D4B     	 ldr r3,.L10+20
 484 004e 1A68     	 ldr r2,[r3]
 485 0050 4FF07E53 	 mov r3,#1065353216
 486 0054 0093     	 str r3,[sp]
 487 0056 1423     	 movs r3,#20
 488 0058 0193     	 str r3,[sp,#4]
 489 005a 0B4B     	 ldr r3,.L10+24
 490 005c FFF7FEFF 	 bl rec_step_from_0
 155:../main.c     **** 				   start_help_flag = 0;
 491              	 .loc 3 155 0
 492 0060 0A4B     	 ldr r3,.L10+28
 493 0062 0022     	 movs r2,#0
 494 0064 1A70     	 strb r2,[r3]
 156:../main.c     **** 
 157:../main.c     **** 				  ADC_MEASUREMENT_StartConversion(&ADC_MEASUREMENT_0);
 495              	 .loc 3 157 0
 496 0066 0A48     	 ldr r0,.L10+32
 497 0068 FFF7FEFF 	 bl ADC_MEASUREMENT_StartConversion
 498              	.L8:
 158:../main.c     **** 			  }
 159:../main.c     **** 		    }
 499              	 .loc 3 159 0
 500 006c E0E7     	 b .L9
 501              	.L11:
 502 006e 00BF     	 .align 2
 503              	.L10:
 504 0070 00000000 	 .word CAN_NODE_0
 505 0074 00000000 	 .word PWM_SVM_0
 506 0078 00000000 	 .word count
 507 007c 00000000 	 .word omega_mech_rps
 508 0080 00000000 	 .word iq_ref
 509 0084 00000000 	 .word iq
 510 0088 00000000 	 .word omega_mech_rps_ref
 511 008c 00000000 	 .word start_help_flag
 512 0090 00000000 	 .word ADC_MEASUREMENT_0
 513              	 .cfi_endproc
 514              	.LFE552:
 516              	 .section .text.VADC0_C0_2_IRQHandler,"ax",%progbits
 517              	 .align 2
 518              	 .global VADC0_C0_2_IRQHandler
 519              	 .thumb
 520              	 .thumb_func
 522              	VADC0_C0_2_IRQHandler:
 523              	.LFB553:
 160:../main.c     ****   }
 161:../main.c     **** }
 162:../main.c     **** 
 163:../main.c     **** 
 164:../main.c     **** //########################
 165:../main.c     **** // INTERRUPTS
 166:../main.c     **** //########################
 167:../main.c     **** 
 168:../main.c     **** void Adc_Measurement_Handler(void){
 524              	 .loc 3 168 0
 525              	 .cfi_startproc
 526              	 
 527              	 
 528 0000 80B5     	 push {r7,lr}
 529              	.LCFI25:
 530              	 .cfi_def_cfa_offset 8
 531              	 .cfi_offset 7,-8
 532              	 .cfi_offset 14,-4
 533 0002 82B0     	 sub sp,sp,#8
 534              	.LCFI26:
 535              	 .cfi_def_cfa_offset 16
 536 0004 00AF     	 add r7,sp,#0
 537              	.LCFI27:
 538              	 .cfi_def_cfa_register 7
 169:../main.c     **** 	uint32_t result  = ADC_MEASUREMENT_GetResult(&ADC_MEASUREMENT_Channel_A);
 539              	 .loc 3 169 0
 540 0006 0A48     	 ldr r0,.L13
 541 0008 FFF7FEFF 	 bl ADC_MEASUREMENT_GetResult
 542 000c 0346     	 mov r3,r0
 543 000e 7B60     	 str r3,[r7,#4]
 170:../main.c     **** 
 171:../main.c     **** 	V_DC_link =  result / ADC_TO_DCLINK[INVERTER_NUM]; // conversion to DClink
 544              	 .loc 3 171 0
 545 0010 7B68     	 ldr r3,[r7,#4]
 546 0012 07EE903A 	 fmsr s15,r3
 547 0016 B8EE677A 	 fuitos s14,s15
 548 001a 064B     	 ldr r3,.L13+4
 549 001c D3ED007A 	 flds s15,[r3]
 550 0020 C7EE277A 	 fdivs s15,s14,s15
 551 0024 044B     	 ldr r3,.L13+8
 552 0026 C3ED007A 	 fsts s15,[r3]
 172:../main.c     **** }
 553              	 .loc 3 172 0
 554 002a 0837     	 adds r7,r7,#8
 555              	.LCFI28:
 556              	 .cfi_def_cfa_offset 8
 557 002c BD46     	 mov sp,r7
 558              	.LCFI29:
 559              	 .cfi_def_cfa_register 13
 560              	 
 561 002e 80BD     	 pop {r7,pc}
 562              	.L14:
 563              	 .align 2
 564              	.L13:
 565 0030 00000000 	 .word ADC_MEASUREMENT_Channel_A_handle
 566 0034 00000000 	 .word ADC_TO_DCLINK
 567 0038 00000000 	 .word V_DC_link
 568              	 .cfi_endproc
 569              	.LFE553:
 571              	 .section .text.CCU43_1_IRQHandler,"ax",%progbits
 572              	 .align 2
 573              	 .global CCU43_1_IRQHandler
 574              	 .thumb
 575              	 .thumb_func
 577              	CCU43_1_IRQHandler:
 578              	.LFB554:
 173:../main.c     **** 
 174:../main.c     **** 
 175:../main.c     **** /*
 176:../main.c     **** // Turn off driver at Overcurrent
 177:../main.c     **** void OverCurrent_U_ISR(void)
 178:../main.c     **** {
 179:../main.c     **** 	//DIGITAL_IO_SetOutputLow(&Driver_U);	// switch off U driver
 180:../main.c     **** }
 181:../main.c     **** void OverCurrent_V_ISR(void)
 182:../main.c     **** {
 183:../main.c     **** 	//DIGITAL_IO_SetOutputLow(&Driver_U);	// switch off U driver
 184:../main.c     **** }
 185:../main.c     **** void OverCurrent_W_ISR(void)
 186:../main.c     **** {
 187:../main.c     **** 	//DIGITAL_IO_SetOutputLow(&Driver_U);	// switch off U driver
 188:../main.c     **** }
 189:../main.c     **** */
 190:../main.c     **** 
 191:../main.c     **** //ISR based on Timer_1 --> 100us time base
 192:../main.c     **** void ISR_INT1(void)
 193:../main.c     **** {
 579              	 .loc 3 193 0
 580              	 .cfi_startproc
 581              	 
 582              	 
 583              	 
 584 0000 80B4     	 push {r7}
 585              	.LCFI30:
 586              	 .cfi_def_cfa_offset 4
 587              	 .cfi_offset 7,-4
 588 0002 00AF     	 add r7,sp,#0
 589              	.LCFI31:
 590              	 .cfi_def_cfa_register 7
 194:../main.c     **** }
 591              	 .loc 3 194 0
 592 0004 BD46     	 mov sp,r7
 593              	.LCFI32:
 594              	 .cfi_def_cfa_register 13
 595              	 
 596 0006 5DF8047B 	 ldr r7,[sp],#4
 597              	.LCFI33:
 598              	 .cfi_restore 7
 599              	 .cfi_def_cfa_offset 0
 600 000a 7047     	 bx lr
 601              	 .cfi_endproc
 602              	.LFE554:
 604              	 .section .text.CCU80_3_IRQHandler,"ax",%progbits
 605              	 .align 2
 606              	 .global CCU80_3_IRQHandler
 607              	 .thumb
 608              	 .thumb_func
 610              	CCU80_3_IRQHandler:
 611              	.LFB555:
 195:../main.c     **** 
 196:../main.c     **** // ISR for Updating the SVM PWM -> 50us = 20kHz
 197:../main.c     **** void PeriodMatchInterruptHandler(void)
 198:../main.c     **** {
 612              	 .loc 3 198 0
 613              	 .cfi_startproc
 614              	 
 615              	 
 616 0000 80B5     	 push {r7,lr}
 617              	.LCFI34:
 618              	 .cfi_def_cfa_offset 8
 619              	 .cfi_offset 7,-8
 620              	 .cfi_offset 14,-4
 621 0002 82B0     	 sub sp,sp,#8
 622              	.LCFI35:
 623              	 .cfi_def_cfa_offset 16
 624 0004 00AF     	 add r7,sp,#0
 625              	.LCFI36:
 626              	 .cfi_def_cfa_register 7
 199:../main.c     **** 	count++;	// only use a multiple of the period match frequency 20*20kHz = 1ms
 627              	 .loc 3 199 0
 628 0006 144B     	 ldr r3,.L18
 629 0008 1B78     	 ldrb r3,[r3]
 630 000a DBB2     	 uxtb r3,r3
 631 000c 0133     	 adds r3,r3,#1
 632 000e DAB2     	 uxtb r2,r3
 633 0010 114B     	 ldr r3,.L18
 634 0012 1A70     	 strb r2,[r3]
 200:../main.c     **** 	if(count == 1){ // only updating evry time there is new data safes 5-8 % duty on the calculation
 635              	 .loc 3 200 0
 636 0014 104B     	 ldr r3,.L18
 637 0016 1B78     	 ldrb r3,[r3]
 638 0018 DBB2     	 uxtb r3,r3
 639 001a 012B     	 cmp r3,#1
 640 001c 18D1     	 bne .L16
 201:../main.c     **** 		PWM_SVM_SVMUpdate(&PWM_SVM_0, (uint16_t)modulation_index_scaled, (uint32_t)angle_ab * ANGLE_ONE_D
 641              	 .loc 3 201 0
 642 001e 0F4B     	 ldr r3,.L18+4
 643 0020 D3ED007A 	 flds s15,[r3]
 644 0024 FCEEE77A 	 ftouizs s15,s15
 645 0028 C7ED017A 	 fsts s15,[r7,#4]
 646 002c BB88     	 ldrh r3,[r7,#4]
 647 002e 9AB2     	 uxth r2,r3
 648 0030 0B4B     	 ldr r3,.L18+8
 649 0032 D3ED007A 	 flds s15,[r3]
 650 0036 FCEEE77A 	 ftouizs s15,s15
 651 003a 17EE901A 	 fmrs r1,s15
 652 003e 4BF20B63 	 movw r3,#46603
 653 0042 03FB01F3 	 mul r3,r3,r1
 654 0046 0748     	 ldr r0,.L18+12
 655 0048 1146     	 mov r1,r2
 656 004a 1A46     	 mov r2,r3
 657 004c FFF7FEFF 	 bl PWM_SVM_SVMUpdate
 658              	.L16:
 202:../main.c     **** 	}
 203:../main.c     **** }
 659              	 .loc 3 203 0
 660 0050 0837     	 adds r7,r7,#8
 661              	.LCFI37:
 662              	 .cfi_def_cfa_offset 8
 663 0052 BD46     	 mov sp,r7
 664              	.LCFI38:
 665              	 .cfi_def_cfa_register 13
 666              	 
 667 0054 80BD     	 pop {r7,pc}
 668              	.L19:
 669 0056 00BF     	 .align 2
 670              	.L18:
 671 0058 00000000 	 .word count
 672 005c 00000000 	 .word modulation_index_scaled
 673 0060 00000000 	 .word angle_ab
 674 0064 00000000 	 .word PWM_SVM_0
 675              	 .cfi_endproc
 676              	.LFE555:
 678              	 .global __aeabi_f2d
 679              	 .global __aeabi_ddiv
 680              	 .global __aeabi_ui2d
 681              	 .global __aeabi_dmul
 682              	 .global __aeabi_d2f
 683              	 .global __aeabi_i2d
 684              	 .global __aeabi_dadd
 685              	 .global __aeabi_dsub
 686              	 .global __aeabi_dcmpeq
 687              	 .section .text.Calculation,"ax",%progbits
 688              	 .align 2
 689              	 .global Calculation
 690              	 .thumb
 691              	 .thumb_func
 693              	Calculation:
 694              	.LFB556:
 204:../main.c     **** 
 205:../main.c     **** //########################
 206:../main.c     **** // FUNCTIONS
 207:../main.c     **** //########################
 208:../main.c     **** 
 209:../main.c     **** 
 210:../main.c     **** // Routine for calculation (sector, clark-Park trans.,...)
 211:../main.c     **** //5kHz loop since every 4th step of 50us --> 200us --> 5kHz
 212:../main.c     **** void Calculation(void){
 695              	 .loc 3 212 0
 696              	 .cfi_startproc
 697              	 
 698              	 
 699 0000 B0B5     	 push {r4,r5,r7,lr}
 700              	.LCFI39:
 701              	 .cfi_def_cfa_offset 16
 702              	 .cfi_offset 4,-16
 703              	 .cfi_offset 5,-12
 704              	 .cfi_offset 7,-8
 705              	 .cfi_offset 14,-4
 706 0002 2DED028B 	 fstmfdd sp!,{d8}
 707              	.LCFI40:
 708              	 .cfi_def_cfa_offset 24
 709              	 .cfi_offset 80,-24
 710              	 .cfi_offset 81,-20
 711 0006 84B0     	 sub sp,sp,#16
 712              	.LCFI41:
 713              	 .cfi_def_cfa_offset 40
 714 0008 00AF     	 add r7,sp,#0
 715              	.LCFI42:
 716              	 .cfi_def_cfa_register 7
 213:../main.c     **** 		DIGITAL_IO_SetOutputHigh(&status_LED_red_cal_time);
 717              	 .loc 3 213 0
 718 000a B448     	 ldr r0,.L84
 719 000c FFF7FEFF 	 bl DIGITAL_IO_SetOutputHigh
 214:../main.c     **** 		// Actual time since last angle update via Hall Sensor
 215:../main.c     **** 		uint32_t t;
 216:../main.c     **** 		if(last_Hall_trig == 'A') t = time_since_A;
 720              	 .loc 3 216 0
 721 0010 B34B     	 ldr r3,.L84+4
 722 0012 1B78     	 ldrb r3,[r3]
 723 0014 DBB2     	 uxtb r3,r3
 724 0016 412B     	 cmp r3,#65
 725 0018 03D1     	 bne .L21
 726              	 .loc 3 216 0 is_stmt 0 discriminator 1
 727 001a B24B     	 ldr r3,.L84+8
 728 001c 1B68     	 ldr r3,[r3]
 729 001e FB60     	 str r3,[r7,#12]
 730 0020 10E0     	 b .L22
 731              	.L21:
 217:../main.c     **** 		else if(last_Hall_trig == 'B') t = time_since_B;
 732              	 .loc 3 217 0 is_stmt 1
 733 0022 AF4B     	 ldr r3,.L84+4
 734 0024 1B78     	 ldrb r3,[r3]
 735 0026 DBB2     	 uxtb r3,r3
 736 0028 422B     	 cmp r3,#66
 737 002a 03D1     	 bne .L23
 738              	 .loc 3 217 0 is_stmt 0 discriminator 1
 739 002c AE4B     	 ldr r3,.L84+12
 740 002e 1B68     	 ldr r3,[r3]
 741 0030 FB60     	 str r3,[r7,#12]
 742 0032 07E0     	 b .L22
 743              	.L23:
 218:../main.c     **** 		else if(last_Hall_trig == 'C') t = time_since_C;
 744              	 .loc 3 218 0 is_stmt 1
 745 0034 AA4B     	 ldr r3,.L84+4
 746 0036 1B78     	 ldrb r3,[r3]
 747 0038 DBB2     	 uxtb r3,r3
 748 003a 432B     	 cmp r3,#67
 749 003c 02D1     	 bne .L22
 750              	 .loc 3 218 0 is_stmt 0 discriminator 1
 751 003e AB4B     	 ldr r3,.L84+16
 752 0040 1B68     	 ldr r3,[r3]
 753 0042 FB60     	 str r3,[r7,#12]
 754              	.L22:
 219:../main.c     **** 		time_180deg_cal = time_180deg;
 755              	 .loc 3 219 0 is_stmt 1
 756 0044 AA4B     	 ldr r3,.L84+20
 757 0046 1B68     	 ldr r3,[r3]
 758 0048 AA4A     	 ldr r2,.L84+24
 759 004a 1360     	 str r3,[r2]
 220:../main.c     **** 		// not fixing sector for calc because if chainges better to do so
 221:../main.c     **** 
 222:../main.c     **** 		if(time_180deg_cal > 2500) time_180deg_cal = 2500;
 760              	 .loc 3 222 0
 761 004c A94B     	 ldr r3,.L84+24
 762 004e 1B68     	 ldr r3,[r3]
 763 0050 40F6C412 	 movw r2,#2500
 764 0054 9342     	 cmp r3,r2
 765 0056 04D9     	 bls .L24
 766              	 .loc 3 222 0 is_stmt 0 discriminator 1
 767 0058 A64B     	 ldr r3,.L84+24
 768 005a 40F6C412 	 movw r2,#2500
 769 005e 1A60     	 str r2,[r3]
 770 0060 06E0     	 b .L25
 771              	.L24:
 223:../main.c     **** 		else if(time_180deg_cal < 2) time_180deg_cal = 2;
 772              	 .loc 3 223 0 is_stmt 1
 773 0062 A44B     	 ldr r3,.L84+24
 774 0064 1B68     	 ldr r3,[r3]
 775 0066 012B     	 cmp r3,#1
 776 0068 02D8     	 bhi .L25
 777              	 .loc 3 223 0 is_stmt 0 discriminator 1
 778 006a A24B     	 ldr r3,.L84+24
 779 006c 0222     	 movs r2,#2
 780 006e 1A60     	 str r2,[r3]
 781              	.L25:
 224:../main.c     **** 
 225:../main.c     **** 		if(t < TIME_OMEGA_0){
 782              	 .loc 3 225 0 is_stmt 1
 783 0070 FB68     	 ldr r3,[r7,#12]
 784 0072 41F28732 	 movw r2,#4999
 785 0076 9342     	 cmp r3,r2
 786 0078 35D8     	 bhi .L26
 226:../main.c     **** 			angle_in_sector = (180.0 / (float)time_180deg_cal) * t;
 787              	 .loc 3 226 0
 788 007a 9E4B     	 ldr r3,.L84+24
 789 007c 1B68     	 ldr r3,[r3]
 790 007e 07EE903A 	 fmsr s15,r3
 791 0082 F8EE677A 	 fuitos s15,s15
 792 0086 17EE900A 	 fmrs r0,s15
 793 008a FFF7FEFF 	 bl __aeabi_f2d
 794 008e 0246     	 mov r2,r0
 795 0090 0B46     	 mov r3,r1
 796 0092 4FF00000 	 mov r0,#0
 797 0096 9849     	 ldr r1,.L84+28
 798 0098 FFF7FEFF 	 bl __aeabi_ddiv
 799 009c 0246     	 mov r2,r0
 800 009e 0B46     	 mov r3,r1
 801 00a0 1446     	 mov r4,r2
 802 00a2 1D46     	 mov r5,r3
 803 00a4 F868     	 ldr r0,[r7,#12]
 804 00a6 FFF7FEFF 	 bl __aeabi_ui2d
 805 00aa 0246     	 mov r2,r0
 806 00ac 0B46     	 mov r3,r1
 807 00ae 2046     	 mov r0,r4
 808 00b0 2946     	 mov r1,r5
 809 00b2 FFF7FEFF 	 bl __aeabi_dmul
 810 00b6 0246     	 mov r2,r0
 811 00b8 0B46     	 mov r3,r1
 812 00ba 1046     	 mov r0,r2
 813 00bc 1946     	 mov r1,r3
 814 00be FFF7FEFF 	 bl __aeabi_d2f
 815 00c2 0246     	 mov r2,r0
 816 00c4 8D4B     	 ldr r3,.L84+32
 817 00c6 1A60     	 str r2,[r3]
 227:../main.c     **** 			if(angle_in_sector > 60) angle_in_sector = 60;
 818              	 .loc 3 227 0
 819 00c8 8C4B     	 ldr r3,.L84+32
 820 00ca D3ED007A 	 flds s15,[r3]
 821 00ce 9FED8C7A 	 flds s14,.L84+36
 822 00d2 F4EEC77A 	 fcmpes s15,s14
 823 00d6 F1EE10FA 	 fmstat
 824 00da 00DC     	 bgt .L68
 825 00dc 06E0     	 b .L29
 826              	.L68:
 827              	 .loc 3 227 0 is_stmt 0 discriminator 1
 828 00de 874B     	 ldr r3,.L84+32
 829 00e0 884A     	 ldr r2,.L84+40
 830 00e2 1A60     	 str r2,[r3]
 831 00e4 02E0     	 b .L29
 832              	.L26:
 228:../main.c     **** 		}
 229:../main.c     **** 		else{
 230:../main.c     **** 			angle_in_sector = 30; // standig still
 833              	 .loc 3 230 0 is_stmt 1
 834 00e6 854B     	 ldr r3,.L84+32
 835 00e8 874A     	 ldr r2,.L84+44
 836 00ea 1A60     	 str r2,[r3]
 837              	.L29:
 231:../main.c     **** 		}
 232:../main.c     **** 
 233:../main.c     **** 		// CW
 234:../main.c     **** 		if(direction==1)
 838              	 .loc 3 234 0
 839 00ec 874B     	 ldr r3,.L84+48
 840 00ee 1B78     	 ldrb r3,[r3]
 841 00f0 DBB2     	 uxtb r3,r3
 842 00f2 5BB2     	 sxtb r3,r3
 843 00f4 012B     	 cmp r3,#1
 844 00f6 54D1     	 bne .L30
 235:../main.c     **** 		{
 236:../main.c     **** 			angle_phi = (sector*60.0)+angle_in_sector;
 845              	 .loc 3 236 0
 846 00f8 854B     	 ldr r3,.L84+52
 847 00fa 1B78     	 ldrb r3,[r3]
 848 00fc DBB2     	 uxtb r3,r3
 849 00fe 5BB2     	 sxtb r3,r3
 850 0100 1846     	 mov r0,r3
 851 0102 FFF7FEFF 	 bl __aeabi_i2d
 852 0106 0246     	 mov r2,r0
 853 0108 0B46     	 mov r3,r1
 854 010a 1046     	 mov r0,r2
 855 010c 1946     	 mov r1,r3
 856 010e 4FF00002 	 mov r2,#0
 857 0112 804B     	 ldr r3,.L84+56
 858 0114 FFF7FEFF 	 bl __aeabi_dmul
 859 0118 0246     	 mov r2,r0
 860 011a 0B46     	 mov r3,r1
 861 011c 1446     	 mov r4,r2
 862 011e 1D46     	 mov r5,r3
 863 0120 764B     	 ldr r3,.L84+32
 864 0122 1B68     	 ldr r3,[r3]
 865 0124 1846     	 mov r0,r3
 866 0126 FFF7FEFF 	 bl __aeabi_f2d
 867 012a 0246     	 mov r2,r0
 868 012c 0B46     	 mov r3,r1
 869 012e 2046     	 mov r0,r4
 870 0130 2946     	 mov r1,r5
 871 0132 FFF7FEFF 	 bl __aeabi_dadd
 872 0136 0246     	 mov r2,r0
 873 0138 0B46     	 mov r3,r1
 874 013a 1046     	 mov r0,r2
 875 013c 1946     	 mov r1,r3
 876 013e FFF7FEFF 	 bl __aeabi_d2f
 877 0142 0246     	 mov r2,r0
 878 0144 744B     	 ldr r3,.L84+60
 879 0146 1A60     	 str r2,[r3]
 237:../main.c     **** 			angle_phi=angle_phi+offset_pos;
 880              	 .loc 3 237 0
 881 0148 734B     	 ldr r3,.L84+60
 882 014a 93ED007A 	 flds s14,[r3]
 883 014e 734B     	 ldr r3,.L84+64
 884 0150 D3ED007A 	 flds s15,[r3]
 885 0154 77EE277A 	 fadds s15,s14,s15
 886 0158 6F4B     	 ldr r3,.L84+60
 887 015a C3ED007A 	 fsts s15,[r3]
 238:../main.c     **** 			if(angle_phi > 360.0){angle_phi=angle_phi-360.0;}
 888              	 .loc 3 238 0
 889 015e 6E4B     	 ldr r3,.L84+60
 890 0160 D3ED007A 	 flds s15,[r3]
 891 0164 9FED6E7A 	 flds s14,.L84+68
 892 0168 F4EEC77A 	 fcmpes s15,s14
 893 016c F1EE10FA 	 fmstat
 894 0170 09DD     	 ble .L31
 895              	 .loc 3 238 0 is_stmt 0 discriminator 1
 896 0172 694B     	 ldr r3,.L84+60
 897 0174 D3ED007A 	 flds s15,[r3]
 898 0178 9FED697A 	 flds s14,.L84+68
 899 017c 77EEC77A 	 fsubs s15,s15,s14
 900 0180 654B     	 ldr r3,.L84+60
 901 0182 C3ED007A 	 fsts s15,[r3]
 902              	.L31:
 239:../main.c     **** 
 240:../main.c     **** 			omega_mech_rps_temp = (float)450/((float)time_180deg_cal);
 903              	 .loc 3 240 0 is_stmt 1
 904 0186 5B4B     	 ldr r3,.L84+24
 905 0188 1B68     	 ldr r3,[r3]
 906 018a 07EE903A 	 fmsr s15,r3
 907 018e F8EE677A 	 fuitos s15,s15
 908 0192 9FED647A 	 flds s14,.L84+72
 909 0196 C7EE277A 	 fdivs s15,s14,s15
 910 019a 634B     	 ldr r3,.L84+76
 911 019c C3ED007A 	 fsts s15,[r3]
 912 01a0 6FE0     	 b .L33
 913              	.L30:
 241:../main.c     **** 		}
 242:../main.c     **** 		// CCW
 243:../main.c     **** 		else{
 244:../main.c     **** 			angle_phi = (sector*60.0)-angle_in_sector;
 914              	 .loc 3 244 0
 915 01a2 5B4B     	 ldr r3,.L84+52
 916 01a4 1B78     	 ldrb r3,[r3]
 917 01a6 DBB2     	 uxtb r3,r3
 918 01a8 5BB2     	 sxtb r3,r3
 919 01aa 1846     	 mov r0,r3
 920 01ac FFF7FEFF 	 bl __aeabi_i2d
 921 01b0 0246     	 mov r2,r0
 922 01b2 0B46     	 mov r3,r1
 923 01b4 1046     	 mov r0,r2
 924 01b6 1946     	 mov r1,r3
 925 01b8 4FF00002 	 mov r2,#0
 926 01bc 554B     	 ldr r3,.L84+56
 927 01be FFF7FEFF 	 bl __aeabi_dmul
 928 01c2 0246     	 mov r2,r0
 929 01c4 0B46     	 mov r3,r1
 930 01c6 1446     	 mov r4,r2
 931 01c8 1D46     	 mov r5,r3
 932 01ca 4C4B     	 ldr r3,.L84+32
 933 01cc 1B68     	 ldr r3,[r3]
 934 01ce 1846     	 mov r0,r3
 935 01d0 FFF7FEFF 	 bl __aeabi_f2d
 936 01d4 0246     	 mov r2,r0
 937 01d6 0B46     	 mov r3,r1
 938 01d8 2046     	 mov r0,r4
 939 01da 2946     	 mov r1,r5
 940 01dc FFF7FEFF 	 bl __aeabi_dsub
 941 01e0 0246     	 mov r2,r0
 942 01e2 0B46     	 mov r3,r1
 943 01e4 1046     	 mov r0,r2
 944 01e6 1946     	 mov r1,r3
 945 01e8 FFF7FEFF 	 bl __aeabi_d2f
 946 01ec 0246     	 mov r2,r0
 947 01ee 4A4B     	 ldr r3,.L84+60
 948 01f0 1A60     	 str r2,[r3]
 245:../main.c     **** 			angle_phi = angle_phi+60.0;
 949              	 .loc 3 245 0
 950 01f2 494B     	 ldr r3,.L84+60
 951 01f4 D3ED007A 	 flds s15,[r3]
 952 01f8 9FED417A 	 flds s14,.L84+36
 953 01fc 77EE877A 	 fadds s15,s15,s14
 954 0200 454B     	 ldr r3,.L84+60
 955 0202 C3ED007A 	 fsts s15,[r3]
 246:../main.c     **** 			if(angle_phi < 0){angle_phi=angle_phi+360.0;}
 956              	 .loc 3 246 0
 957 0206 444B     	 ldr r3,.L84+60
 958 0208 D3ED007A 	 flds s15,[r3]
 959 020c F5EEC07A 	 fcmpezs s15
 960 0210 F1EE10FA 	 fmstat
 961 0214 09D5     	 bpl .L34
 962              	 .loc 3 246 0 is_stmt 0 discriminator 1
 963 0216 404B     	 ldr r3,.L84+60
 964 0218 D3ED007A 	 flds s15,[r3]
 965 021c 9FED407A 	 flds s14,.L84+68
 966 0220 77EE877A 	 fadds s15,s15,s14
 967 0224 3C4B     	 ldr r3,.L84+60
 968 0226 C3ED007A 	 fsts s15,[r3]
 969              	.L34:
 247:../main.c     **** 			angle_phi=angle_phi+offset_neg;
 970              	 .loc 3 247 0 is_stmt 1
 971 022a 3B4B     	 ldr r3,.L84+60
 972 022c 93ED007A 	 flds s14,[r3]
 973 0230 3E4B     	 ldr r3,.L84+80
 974 0232 D3ED007A 	 flds s15,[r3]
 975 0236 77EE277A 	 fadds s15,s14,s15
 976 023a 374B     	 ldr r3,.L84+60
 977 023c C3ED007A 	 fsts s15,[r3]
 248:../main.c     **** 			if(angle_phi > 360.0){angle_phi=angle_phi-360.0;}
 978              	 .loc 3 248 0
 979 0240 354B     	 ldr r3,.L84+60
 980 0242 D3ED007A 	 flds s15,[r3]
 981 0246 9FED367A 	 flds s14,.L84+68
 982 024a F4EEC77A 	 fcmpes s15,s14
 983 024e F1EE10FA 	 fmstat
 984 0252 09DD     	 ble .L36
 985              	 .loc 3 248 0 is_stmt 0 discriminator 1
 986 0254 304B     	 ldr r3,.L84+60
 987 0256 D3ED007A 	 flds s15,[r3]
 988 025a 9FED317A 	 flds s14,.L84+68
 989 025e 77EEC77A 	 fsubs s15,s15,s14
 990 0262 2D4B     	 ldr r3,.L84+60
 991 0264 C3ED007A 	 fsts s15,[r3]
 992              	.L36:
 249:../main.c     **** 
 250:../main.c     **** 			omega_mech_rps_temp = -(float)450/((float)time_180deg_cal);
 993              	 .loc 3 250 0 is_stmt 1
 994 0268 224B     	 ldr r3,.L84+24
 995 026a 1B68     	 ldr r3,[r3]
 996 026c 07EE903A 	 fmsr s15,r3
 997 0270 F8EE677A 	 fuitos s15,s15
 998 0274 9FED2E7A 	 flds s14,.L84+84
 999 0278 C7EE277A 	 fdivs s15,s14,s15
 1000 027c 2A4B     	 ldr r3,.L84+76
 1001 027e C3ED007A 	 fsts s15,[r3]
 1002              	.L33:
 251:../main.c     **** 		}
 252:../main.c     **** 
 253:../main.c     **** 		Speed_detection_OK = 0;
 1003              	 .loc 3 253 0
 1004 0282 2C4B     	 ldr r3,.L84+88
 1005 0284 0022     	 movs r2,#0
 1006 0286 1A70     	 strb r2,[r3]
 254:../main.c     **** 		if(omega_mech_rps_temp<200 && omega_mech_rps_temp>(-200)) //plausibility check to avoid large pea
 1007              	 .loc 3 254 0
 1008 0288 274B     	 ldr r3,.L84+76
 1009 028a D3ED007A 	 flds s15,[r3]
 1010 028e 9FED2A7A 	 flds s14,.L84+92
 1011 0292 F4EEC77A 	 fcmpes s15,s14
 1012 0296 F1EE10FA 	 fmstat
 1013 029a 10D5     	 bpl .L38
 1014              	 .loc 3 254 0 is_stmt 0 discriminator 1
 1015 029c 224B     	 ldr r3,.L84+76
 1016 029e D3ED007A 	 flds s15,[r3]
 1017 02a2 9FED267A 	 flds s14,.L84+96
 1018 02a6 F4EEC77A 	 fcmpes s15,s14
 1019 02aa F1EE10FA 	 fmstat
 1020 02ae 06DD     	 ble .L38
 255:../main.c     **** 		{
 256:../main.c     **** 			omega_mech_rps = omega_mech_rps_temp;
 1021              	 .loc 3 256 0 is_stmt 1
 1022 02b0 1D4B     	 ldr r3,.L84+76
 1023 02b2 1B68     	 ldr r3,[r3]
 1024 02b4 224A     	 ldr r2,.L84+100
 1025 02b6 1360     	 str r3,[r2]
 257:../main.c     **** 			Speed_detection_OK = 1;
 1026              	 .loc 3 257 0
 1027 02b8 1E4B     	 ldr r3,.L84+88
 1028 02ba 0122     	 movs r2,#1
 1029 02bc 1A70     	 strb r2,[r3]
 1030              	.L38:
 258:../main.c     **** 		}
 259:../main.c     **** 
 260:../main.c     **** 		if(t > TIME_OMEGA_0){
 1031              	 .loc 3 260 0
 1032 02be FB68     	 ldr r3,[r7,#12]
 1033 02c0 41F28832 	 movw r2,#5000
 1034 02c4 9342     	 cmp r3,r2
 1035 02c6 3FD9     	 bls .L41
 261:../main.c     **** 			omega_ele_rads = 0;
 1036              	 .loc 3 261 0
 1037 02c8 1E4B     	 ldr r3,.L84+104
 1038 02ca 4FF00002 	 mov r2,#0
 1039 02ce 1A60     	 str r2,[r3]
 262:../main.c     **** 			omega_mech_rps = 0;
 1040              	 .loc 3 262 0
 1041 02d0 1B4B     	 ldr r3,.L84+100
 1042 02d2 4FF00002 	 mov r2,#0
 1043 02d6 1A60     	 str r2,[r3]
 1044 02d8 5AE0     	 b .L42
 1045              	.L85:
 1046 02da 00BF     	 .align 2
 1047              	.L84:
 1048 02dc 00000000 	 .word status_LED_red_cal_time
 1049 02e0 00000000 	 .word last_Hall_trig
 1050 02e4 00000000 	 .word time_since_A
 1051 02e8 00000000 	 .word time_since_B
 1052 02ec 00000000 	 .word time_since_C
 1053 02f0 00000000 	 .word time_180deg
 1054 02f4 00000000 	 .word time_180deg_cal
 1055 02f8 00806640 	 .word 1080459264
 1056 02fc 00000000 	 .word angle_in_sector
 1057 0300 00007042 	 .word 1114636288
 1058 0304 00007042 	 .word 1114636288
 1059 0308 0000F041 	 .word 1106247680
 1060 030c 00000000 	 .word direction
 1061 0310 00000000 	 .word sector
 1062 0314 00004E40 	 .word 1078853632
 1063 0318 00000000 	 .word angle_phi
 1064 031c 00000000 	 .word offset_pos
 1065 0320 0000B443 	 .word 1135869952
 1066 0324 0000E143 	 .word 1138819072
 1067 0328 00000000 	 .word omega_mech_rps_temp
 1068 032c 00000000 	 .word offset_neg
 1069 0330 0000E1C3 	 .word -1008664576
 1070 0334 00000000 	 .word Speed_detection_OK
 1071 0338 00004843 	 .word 1128792064
 1072 033c 000048C3 	 .word -1018691584
 1073 0340 00000000 	 .word omega_mech_rps
 1074 0344 00000000 	 .word omega_ele_rads
 1075              	.L41:
 263:../main.c     **** 		} // set omega  to 0 if no more hall detected
 264:../main.c     **** 		else omega_ele_rads = omega_mech_rps*2*PI*PPZ; //omega_ electrica in rads / s
 1076              	 .loc 3 264 0
 1077 0348 C34B     	 ldr r3,.L86+48
 1078 034a D3ED007A 	 flds s15,[r3]
 1079 034e 77EEA77A 	 fadds s15,s15,s15
 1080 0352 17EE900A 	 fmrs r0,s15
 1081 0356 FFF7FEFF 	 bl __aeabi_f2d
 1082 035a 0246     	 mov r2,r0
 1083 035c 0B46     	 mov r3,r1
 1084 035e 1046     	 mov r0,r2
 1085 0360 1946     	 mov r1,r3
 1086 0362 B1A3     	 adr r3,.L86
 1087 0364 D3E90023 	 ldrd r2,[r3]
 1088 0368 FFF7FEFF 	 bl __aeabi_dmul
 1089 036c 0246     	 mov r2,r0
 1090 036e 0B46     	 mov r3,r1
 1091 0370 1046     	 mov r0,r2
 1092 0372 1946     	 mov r1,r3
 1093 0374 4FF00002 	 mov r2,#0
 1094 0378 B84B     	 ldr r3,.L86+52
 1095 037a FFF7FEFF 	 bl __aeabi_dmul
 1096 037e 0246     	 mov r2,r0
 1097 0380 0B46     	 mov r3,r1
 1098 0382 1046     	 mov r0,r2
 1099 0384 1946     	 mov r1,r3
 1100 0386 FFF7FEFF 	 bl __aeabi_d2f
 1101 038a 0246     	 mov r2,r0
 1102 038c B44B     	 ldr r3,.L86+56
 1103 038e 1A60     	 str r2,[r3]
 1104              	.L42:
 265:../main.c     **** 
 266:../main.c     **** 		//DIGITAL_IO_SetOutputLow(&status_LED_red_cal_time); // 8% duyt  // change to angel_in secotr 7% 
 267:../main.c     **** 
 268:../main.c     **** 		// Current read out over SPI
 269:../main.c     **** 		Current_U = readCurrent(ChipSelect_U);
 1105              	 .loc 3 269 0
 1106 0390 0620     	 movs r0,#6
 1107 0392 FFF7FEFF 	 bl readCurrent
 1108 0396 0246     	 mov r2,r0
 1109 0398 B24B     	 ldr r3,.L86+60
 1110 039a 1A60     	 str r2,[r3]
 270:../main.c     **** 		Current_V = readCurrent(ChipSelect_V);
 1111              	 .loc 3 270 0
 1112 039c 0520     	 movs r0,#5
 1113 039e FFF7FEFF 	 bl readCurrent
 1114 03a2 0246     	 mov r2,r0
 1115 03a4 B04B     	 ldr r3,.L86+64
 1116 03a6 1A60     	 str r2,[r3]
 271:../main.c     **** 		Current_W = readCurrent(ChipSelect_W);
 1117              	 .loc 3 271 0
 1118 03a8 0320     	 movs r0,#3
 1119 03aa FFF7FEFF 	 bl readCurrent
 1120 03ae 0246     	 mov r2,r0
 1121 03b0 AE4B     	 ldr r3,.L86+68
 1122 03b2 1A60     	 str r2,[r3]
 272:../main.c     **** 
 273:../main.c     **** 		//DIGITAL_IO_SetOutputLow(&status_LED_red_cal_time); // 53% duyt   current sesing takes 45% of th
 274:../main.c     **** 
 275:../main.c     **** 		// conversion from rad/s to degree
 276:../main.c     **** 		float angle_phi_rad = angle_phi*Pi180;
 1123              	 .loc 3 276 0
 1124 03b4 AE4B     	 ldr r3,.L86+72
 1125 03b6 1B68     	 ldr r3,[r3]
 1126 03b8 1846     	 mov r0,r3
 1127 03ba FFF7FEFF 	 bl __aeabi_f2d
 1128 03be 0246     	 mov r2,r0
 1129 03c0 0B46     	 mov r3,r1
 1130 03c2 1046     	 mov r0,r2
 1131 03c4 1946     	 mov r1,r3
 1132 03c6 9AA3     	 adr r3,.L86+8
 1133 03c8 D3E90023 	 ldrd r2,[r3]
 1134 03cc FFF7FEFF 	 bl __aeabi_dmul
 1135 03d0 0246     	 mov r2,r0
 1136 03d2 0B46     	 mov r3,r1
 1137 03d4 1046     	 mov r0,r2
 1138 03d6 1946     	 mov r1,r3
 1139 03d8 FFF7FEFF 	 bl __aeabi_d2f
 1140 03dc 0346     	 mov r3,r0
 1141 03de BB60     	 str r3,[r7,#8]
 277:../main.c     **** 
 278:../main.c     **** 		// to decrease multiple calculations and computational effort
 279:../main.c     **** 		float cos_phi = cosf(angle_phi_rad);
 1142              	 .loc 3 279 0
 1143 03e0 B868     	 ldr r0,[r7,#8]
 1144 03e2 FFF7FEFF 	 bl cosf
 1145 03e6 7860     	 str r0,[r7,#4]
 280:../main.c     **** 		float sin_phi = sinf(angle_phi_rad);
 1146              	 .loc 3 280 0
 1147 03e8 B868     	 ldr r0,[r7,#8]
 1148 03ea FFF7FEFF 	 bl sinf
 1149 03ee 3860     	 str r0,[r7]
 281:../main.c     **** 
 282:../main.c     **** 		// Clark-Park transformation (from U,V,W to dq)
 283:../main.c     **** 		id = TwoThird*(cos_phi*Current_U	+ cosf(angle_phi_rad-TwoPiThird)*Current_V + cosf(angle_phi_rad-
 1150              	 .loc 3 283 0
 1151 03f0 9C4B     	 ldr r3,.L86+60
 1152 03f2 93ED007A 	 flds s14,[r3]
 1153 03f6 D7ED017A 	 flds s15,[r7,#4]
 1154 03fa 27EE278A 	 fmuls s16,s14,s15
 1155 03fe B868     	 ldr r0,[r7,#8]
 1156 0400 FFF7FEFF 	 bl __aeabi_f2d
 1157 0404 0246     	 mov r2,r0
 1158 0406 0B46     	 mov r3,r1
 1159 0408 1046     	 mov r0,r2
 1160 040a 1946     	 mov r1,r3
 1161 040c 8AA3     	 adr r3,.L86+16
 1162 040e D3E90023 	 ldrd r2,[r3]
 1163 0412 FFF7FEFF 	 bl __aeabi_dsub
 1164 0416 0246     	 mov r2,r0
 1165 0418 0B46     	 mov r3,r1
 1166 041a 1046     	 mov r0,r2
 1167 041c 1946     	 mov r1,r3
 1168 041e FFF7FEFF 	 bl __aeabi_d2f
 1169 0422 0346     	 mov r3,r0
 1170 0424 1846     	 mov r0,r3
 1171 0426 FFF7FEFF 	 bl cosf
 1172 042a 07EE100A 	 fmsr s14,r0
 1173 042e 8E4B     	 ldr r3,.L86+64
 1174 0430 D3ED007A 	 flds s15,[r3]
 1175 0434 67EE277A 	 fmuls s15,s14,s15
 1176 0438 38EE278A 	 fadds s16,s16,s15
 1177 043c B868     	 ldr r0,[r7,#8]
 1178 043e FFF7FEFF 	 bl __aeabi_f2d
 1179 0442 0246     	 mov r2,r0
 1180 0444 0B46     	 mov r3,r1
 1181 0446 1046     	 mov r0,r2
 1182 0448 1946     	 mov r1,r3
 1183 044a 7DA3     	 adr r3,.L86+24
 1184 044c D3E90023 	 ldrd r2,[r3]
 1185 0450 FFF7FEFF 	 bl __aeabi_dsub
 1186 0454 0246     	 mov r2,r0
 1187 0456 0B46     	 mov r3,r1
 1188 0458 1046     	 mov r0,r2
 1189 045a 1946     	 mov r1,r3
 1190 045c FFF7FEFF 	 bl __aeabi_d2f
 1191 0460 0346     	 mov r3,r0
 1192 0462 1846     	 mov r0,r3
 1193 0464 FFF7FEFF 	 bl cosf
 1194 0468 07EE100A 	 fmsr s14,r0
 1195 046c 7F4B     	 ldr r3,.L86+68
 1196 046e D3ED007A 	 flds s15,[r3]
 1197 0472 67EE277A 	 fmuls s15,s14,s15
 1198 0476 78EE277A 	 fadds s15,s16,s15
 1199 047a 17EE900A 	 fmrs r0,s15
 1200 047e FFF7FEFF 	 bl __aeabi_f2d
 1201 0482 0246     	 mov r2,r0
 1202 0484 0B46     	 mov r3,r1
 1203 0486 1046     	 mov r0,r2
 1204 0488 1946     	 mov r1,r3
 1205 048a 6FA3     	 adr r3,.L86+32
 1206 048c D3E90023 	 ldrd r2,[r3]
 1207 0490 FFF7FEFF 	 bl __aeabi_dmul
 1208 0494 0246     	 mov r2,r0
 1209 0496 0B46     	 mov r3,r1
 1210 0498 1046     	 mov r0,r2
 1211 049a 1946     	 mov r1,r3
 1212 049c FFF7FEFF 	 bl __aeabi_d2f
 1213 04a0 0246     	 mov r2,r0
 1214 04a2 744B     	 ldr r3,.L86+76
 1215 04a4 1A60     	 str r2,[r3]
 284:../main.c     **** 		iq = TwoThird*(-sin_phi*Current_U	 -sinf(angle_phi_rad-TwoPiThird)*Current_V - sinf(angle_phi_rad
 1216              	 .loc 3 284 0
 1217 04a6 D7ED007A 	 flds s15,[r7]
 1218 04aa B1EE677A 	 fnegs s14,s15
 1219 04ae 6D4B     	 ldr r3,.L86+60
 1220 04b0 D3ED007A 	 flds s15,[r3]
 1221 04b4 27EE278A 	 fmuls s16,s14,s15
 1222 04b8 B868     	 ldr r0,[r7,#8]
 1223 04ba FFF7FEFF 	 bl __aeabi_f2d
 1224 04be 0246     	 mov r2,r0
 1225 04c0 0B46     	 mov r3,r1
 1226 04c2 1046     	 mov r0,r2
 1227 04c4 1946     	 mov r1,r3
 1228 04c6 5CA3     	 adr r3,.L86+16
 1229 04c8 D3E90023 	 ldrd r2,[r3]
 1230 04cc FFF7FEFF 	 bl __aeabi_dsub
 1231 04d0 0246     	 mov r2,r0
 1232 04d2 0B46     	 mov r3,r1
 1233 04d4 1046     	 mov r0,r2
 1234 04d6 1946     	 mov r1,r3
 1235 04d8 FFF7FEFF 	 bl __aeabi_d2f
 1236 04dc 0346     	 mov r3,r0
 1237 04de 1846     	 mov r0,r3
 1238 04e0 FFF7FEFF 	 bl sinf
 1239 04e4 07EE100A 	 fmsr s14,r0
 1240 04e8 5F4B     	 ldr r3,.L86+64
 1241 04ea D3ED007A 	 flds s15,[r3]
 1242 04ee 67EE277A 	 fmuls s15,s14,s15
 1243 04f2 38EE678A 	 fsubs s16,s16,s15
 1244 04f6 B868     	 ldr r0,[r7,#8]
 1245 04f8 FFF7FEFF 	 bl __aeabi_f2d
 1246 04fc 0246     	 mov r2,r0
 1247 04fe 0B46     	 mov r3,r1
 1248 0500 1046     	 mov r0,r2
 1249 0502 1946     	 mov r1,r3
 1250 0504 4EA3     	 adr r3,.L86+24
 1251 0506 D3E90023 	 ldrd r2,[r3]
 1252 050a FFF7FEFF 	 bl __aeabi_dsub
 1253 050e 0246     	 mov r2,r0
 1254 0510 0B46     	 mov r3,r1
 1255 0512 1046     	 mov r0,r2
 1256 0514 1946     	 mov r1,r3
 1257 0516 FFF7FEFF 	 bl __aeabi_d2f
 1258 051a 0346     	 mov r3,r0
 1259 051c 1846     	 mov r0,r3
 1260 051e FFF7FEFF 	 bl sinf
 1261 0522 07EE100A 	 fmsr s14,r0
 1262 0526 514B     	 ldr r3,.L86+68
 1263 0528 D3ED007A 	 flds s15,[r3]
 1264 052c 67EE277A 	 fmuls s15,s14,s15
 1265 0530 78EE677A 	 fsubs s15,s16,s15
 1266 0534 17EE900A 	 fmrs r0,s15
 1267 0538 FFF7FEFF 	 bl __aeabi_f2d
 1268 053c 0246     	 mov r2,r0
 1269 053e 0B46     	 mov r3,r1
 1270 0540 1046     	 mov r0,r2
 1271 0542 1946     	 mov r1,r3
 1272 0544 40A3     	 adr r3,.L86+32
 1273 0546 D3E90023 	 ldrd r2,[r3]
 1274 054a FFF7FEFF 	 bl __aeabi_dmul
 1275 054e 0246     	 mov r2,r0
 1276 0550 0B46     	 mov r3,r1
 1277 0552 1046     	 mov r0,r2
 1278 0554 1946     	 mov r1,r3
 1279 0556 FFF7FEFF 	 bl __aeabi_d2f
 1280 055a 0246     	 mov r2,r0
 1281 055c 464B     	 ldr r3,.L86+80
 1282 055e 1A60     	 str r2,[r3]
 285:../main.c     **** 
 286:../main.c     **** 		//DIGITAL_IO_SetOutputLow(&status_LED_red_cal_time); // %63 duty Clark-Park transformation 10% of
 287:../main.c     **** 
 288:../main.c     **** 		if(CAN_control == 1){// can control
 1283              	 .loc 3 288 0
 1284 0560 464B     	 ldr r3,.L86+84
 1285 0562 1B78     	 ldrb r3,[r3]
 1286 0564 012B     	 cmp r3,#1
 1287 0566 1CD1     	 bne .L43
 289:../main.c     **** 
 290:../main.c     **** 			if(CAN_new_meassage == 1){
 1288              	 .loc 3 290 0
 1289 0568 454B     	 ldr r3,.L86+88
 1290 056a 1B78     	 ldrb r3,[r3]
 1291 056c 012B     	 cmp r3,#1
 1292 056e 07D1     	 bne .L44
 291:../main.c     **** 				speed_ref = CAN_speed_ref;
 1293              	 .loc 3 291 0
 1294 0570 444B     	 ldr r3,.L86+92
 1295 0572 1B68     	 ldr r3,[r3]
 1296 0574 444A     	 ldr r2,.L86+96
 1297 0576 1360     	 str r3,[r2]
 292:../main.c     **** 				CAN_new_meassage = 0;
 1298              	 .loc 3 292 0
 1299 0578 414B     	 ldr r3,.L86+88
 1300 057a 0022     	 movs r2,#0
 1301 057c 1A70     	 strb r2,[r3]
 1302 057e 05E0     	 b .L45
 1303              	.L44:
 293:../main.c     **** 			}
 294:../main.c     **** 			else{
 295:../main.c     **** 				CAN_no_com_counter ++;
 1304              	 .loc 3 295 0
 1305 0580 424B     	 ldr r3,.L86+100
 1306 0582 1B78     	 ldrb r3,[r3]
 1307 0584 0133     	 adds r3,r3,#1
 1308 0586 DAB2     	 uxtb r2,r3
 1309 0588 404B     	 ldr r3,.L86+100
 1310 058a 1A70     	 strb r2,[r3]
 1311              	.L45:
 296:../main.c     **** 			}
 297:../main.c     **** 
 298:../main.c     **** 			if(CAN_no_com_counter > CAN_NO_COM_TH){
 1312              	 .loc 3 298 0
 1313 058c 3F4B     	 ldr r3,.L86+100
 1314 058e 1B78     	 ldrb r3,[r3]
 1315 0590 FA2B     	 cmp r3,#250
 1316 0592 06D9     	 bls .L43
 299:../main.c     **** 				//CAN_new_meassage = 0;
 300:../main.c     **** 				CAN_no_com_counter = CAN_NO_COM_TH;
 1317              	 .loc 3 300 0
 1318 0594 3D4B     	 ldr r3,.L86+100
 1319 0596 FA22     	 movs r2,#250
 1320 0598 1A70     	 strb r2,[r3]
 301:../main.c     **** 				speed_ref = 0;
 1321              	 .loc 3 301 0
 1322 059a 3B4B     	 ldr r3,.L86+96
 1323 059c 4FF00002 	 mov r2,#0
 1324 05a0 1A60     	 str r2,[r3]
 1325              	.L43:
 302:../main.c     **** 			}
 303:../main.c     **** 		}
 304:../main.c     **** 
 305:../main.c     **** 		omega_ele_rads_ref = ( speed_ref * PPZ ) / WHEEL_R;
 1326              	 .loc 3 305 0
 1327 05a2 394B     	 ldr r3,.L86+96
 1328 05a4 D3ED007A 	 flds s15,[r3]
 1329 05a8 B2EE067A 	 fconsts s14,#38
 1330 05ac 67EE877A 	 fmuls s15,s15,s14
 1331 05b0 17EE900A 	 fmrs r0,s15
 1332 05b4 FFF7FEFF 	 bl __aeabi_f2d
 1333 05b8 0246     	 mov r2,r0
 1334 05ba 0B46     	 mov r3,r1
 1335 05bc 1046     	 mov r0,r2
 1336 05be 1946     	 mov r1,r3
 1337 05c0 23A3     	 adr r3,.L86+40
 1338 05c2 D3E90023 	 ldrd r2,[r3]
 1339 05c6 FFF7FEFF 	 bl __aeabi_ddiv
 1340 05ca 0246     	 mov r2,r0
 1341 05cc 0B46     	 mov r3,r1
 1342 05ce 1046     	 mov r0,r2
 1343 05d0 1946     	 mov r1,r3
 1344 05d2 FFF7FEFF 	 bl __aeabi_d2f
 1345 05d6 0246     	 mov r2,r0
 1346 05d8 2D4B     	 ldr r3,.L86+104
 1347 05da 1A60     	 str r2,[r3]
 306:../main.c     **** 		 /*
 307:../main.c     **** 		if((omega_ele_rads_ref == 0 && Speed_control == 1) && (( -200 < omega_ele_rads) && (omega_ele_rad
 308:../main.c     **** 			T_ref = 0;
 309:../main.c     **** 		}
 310:../main.c     **** 		else{
 311:../main.c     **** 			if(MOTOR_NUM == 1){
 312:../main.c     **** 				T_ref = PID_Controller(omega_ele_rads_ref,omega_ele_rads,&T_param_1); // outer control loop q f
 313:../main.c     **** 			}
 314:../main.c     **** 			else{
 315:../main.c     **** 				T_ref = PID_Controller(omega_ele_rads_ref,omega_ele_rads,&omega_param);
 316:../main.c     **** 			}
 317:../main.c     **** 		}
 318:../main.c     **** 		*/
 319:../main.c     **** 
 320:../main.c     **** 		// Always run speed controll calc
 321:../main.c     **** 		if(Speed_control == 1 && omega_mech_rps_ref == 0  && (( -2 < omega_mech_rps) && (omega_mech_rps <
 1348              	 .loc 3 321 0
 1349 05dc 2D4B     	 ldr r3,.L86+108
 1350 05de 1B78     	 ldrb r3,[r3]
 1351 05e0 012B     	 cmp r3,#1
 1352 05e2 5DD1     	 bne .L46
 1353              	 .loc 3 321 0 is_stmt 0 discriminator 1
 1354 05e4 2C4B     	 ldr r3,.L86+112
 1355 05e6 D3ED007A 	 flds s15,[r3]
 1356 05ea F5EE407A 	 fcmpzs s15
 1357 05ee F1EE10FA 	 fmstat
 1358 05f2 55D1     	 bne .L46
 1359              	 .loc 3 321 0 discriminator 2
 1360 05f4 184B     	 ldr r3,.L86+48
 1361 05f6 D3ED007A 	 flds s15,[r3]
 1362 05fa B8EE007A 	 fconsts s14,#128
 1363 05fe F4EEC77A 	 fcmpes s15,s14
 1364 0602 F1EE10FA 	 fmstat
 1365 0606 4BDD     	 ble .L46
 1366              	 .loc 3 321 0 discriminator 3
 1367 0608 134B     	 ldr r3,.L86+48
 1368 060a D3ED007A 	 flds s15,[r3]
 1369 060e B0EE007A 	 fconsts s14,#0
 1370 0612 F4EEC77A 	 fcmpes s15,s14
 1371 0616 F1EE10FA 	 fmstat
 1372 061a 41D5     	 bpl .L46
 322:../main.c     **** 			T_ref = 0;
 1373              	 .loc 3 322 0 is_stmt 1
 1374 061c 1F4B     	 ldr r3,.L86+116
 1375 061e 4FF00002 	 mov r2,#0
 1376 0622 1A60     	 str r2,[r3]
 1377 0624 CFE0     	 b .L49
 1378              	.L87:
 1379 0626 00BF     	 .align 3
 1380              	.L86:
 1381 0628 F1D4C853 	 .word 1405670641
 1382 062c FB210940 	 .word 1074340347
 1383 0630 4DC90777 	 .word 1996998989
 1384 0634 46DF913F 	 .word 1066524486
 1385 0638 A038DB37 	 .word 937113760
 1386 063c 52C10040 	 .word 1073791314
 1387 0640 A038DB37 	 .word 937113760
 1388 0644 52C11040 	 .word 1074839890
 1389 0648 93761F57 	 .word 1461679763
 1390 064c 5555E53F 	 .word 1071994197
 1391 0650 48E17A14 	 .word 343597384
 1392 0654 AE47B13F 	 .word 1068582830
 1393 0658 00000000 	 .word omega_mech_rps
 1394 065c 00002640 	 .word 1076232192
 1395 0660 00000000 	 .word omega_ele_rads
 1396 0664 00000000 	 .word Current_U
 1397 0668 00000000 	 .word Current_V
 1398 066c 00000000 	 .word Current_W
 1399 0670 00000000 	 .word angle_phi
 1400 0674 00000000 	 .word id
 1401 0678 00000000 	 .word iq
 1402 067c 00000000 	 .word CAN_control
 1403 0680 00000000 	 .word CAN_new_meassage
 1404 0684 00000000 	 .word CAN_speed_ref
 1405 0688 00000000 	 .word speed_ref
 1406 068c 00000000 	 .word CAN_no_com_counter
 1407 0690 00000000 	 .word omega_ele_rads_ref
 1408 0694 00000000 	 .word Speed_control
 1409 0698 00000000 	 .word omega_mech_rps_ref
 1410 069c 00000000 	 .word T_ref
 1411              	.L46:
 323:../main.c     **** 		}
 324:../main.c     **** 		else{
 325:../main.c     **** 			T_ref = PI_Controller(omega_mech_rps_ref,omega_mech_rps,&omega_param); // outer control loop q f
 1412              	 .loc 3 325 0
 1413 06a0 A74B     	 ldr r3,.L88+24
 1414 06a2 1A68     	 ldr r2,[r3]
 1415 06a4 A74B     	 ldr r3,.L88+28
 1416 06a6 1B68     	 ldr r3,[r3]
 1417 06a8 1046     	 mov r0,r2
 1418 06aa 1946     	 mov r1,r3
 1419 06ac A64A     	 ldr r2,.L88+32
 1420 06ae FFF7FEFF 	 bl PI_Controller
 1421 06b2 0246     	 mov r2,r0
 1422 06b4 A54B     	 ldr r3,.L88+36
 1423 06b6 1A60     	 str r2,[r3]
 326:../main.c     **** 
 327:../main.c     **** 			if(start_help == 1 ){
 1424              	 .loc 3 327 0
 1425 06b8 A54B     	 ldr r3,.L88+40
 1426 06ba 1B78     	 ldrb r3,[r3]
 1427 06bc 012B     	 cmp r3,#1
 1428 06be 40F08280 	 bne .L49
 328:../main.c     **** 				// start help
 329:../main.c     **** 				if(omega_mech_rps_ref != 0 && (copysign(1,omega_mech_rps_ref) != copysign(1,omega_mech_rps) || 
 1429              	 .loc 3 329 0
 1430 06c2 9F4B     	 ldr r3,.L88+24
 1431 06c4 D3ED007A 	 flds s15,[r3]
 1432 06c8 F5EE407A 	 fcmpzs s15
 1433 06cc F1EE10FA 	 fmstat
 1434 06d0 2DD0     	 beq .L50
 1435              	 .loc 3 329 0 is_stmt 0 discriminator 1
 1436 06d2 9B4B     	 ldr r3,.L88+24
 1437 06d4 1B68     	 ldr r3,[r3]
 1438 06d6 1846     	 mov r0,r3
 1439 06d8 FFF7FEFF 	 bl __aeabi_f2d
 1440 06dc 0246     	 mov r2,r0
 1441 06de 0B46     	 mov r3,r1
 1442 06e0 4FF00000 	 mov r0,#0
 1443 06e4 9B49     	 ldr r1,.L88+44
 1444 06e6 FFF7FEFF 	 bl copysign
 1445 06ea 0446     	 mov r4,r0
 1446 06ec 0D46     	 mov r5,r1
 1447 06ee 954B     	 ldr r3,.L88+28
 1448 06f0 1B68     	 ldr r3,[r3]
 1449 06f2 1846     	 mov r0,r3
 1450 06f4 FFF7FEFF 	 bl __aeabi_f2d
 1451 06f8 0246     	 mov r2,r0
 1452 06fa 0B46     	 mov r3,r1
 1453 06fc 4FF00000 	 mov r0,#0
 1454 0700 9449     	 ldr r1,.L88+44
 1455 0702 FFF7FEFF 	 bl copysign
 1456 0706 0246     	 mov r2,r0
 1457 0708 0B46     	 mov r3,r1
 1458 070a 2046     	 mov r0,r4
 1459 070c 2946     	 mov r1,r5
 1460 070e FFF7FEFF 	 bl __aeabi_dcmpeq
 1461 0712 0346     	 mov r3,r0
 1462 0714 002B     	 cmp r3,#0
 1463 0716 07D0     	 beq .L51
 1464              	 .loc 3 329 0 discriminator 2
 1465 0718 8A4B     	 ldr r3,.L88+28
 1466 071a D3ED007A 	 flds s15,[r3]
 1467 071e F5EE407A 	 fcmpzs s15
 1468 0722 F1EE10FA 	 fmstat
 1469 0726 02D1     	 bne .L50
 1470              	.L51:
 330:../main.c     **** 					start_help_count = 1;
 1471              	 .loc 3 330 0 is_stmt 1
 1472 0728 8B4B     	 ldr r3,.L88+48
 1473 072a 0122     	 movs r2,#1
 1474 072c 1A70     	 strb r2,[r3]
 1475              	.L50:
 331:../main.c     **** 				}
 332:../main.c     **** 
 333:../main.c     **** 				if(start_help_count > 0){
 1476              	 .loc 3 333 0
 1477 072e 8A4B     	 ldr r3,.L88+48
 1478 0730 1B78     	 ldrb r3,[r3]
 1479 0732 002B     	 cmp r3,#0
 1480 0734 47D0     	 beq .L49
 334:../main.c     **** 					start_help_flag = 1;
 1481              	 .loc 3 334 0
 1482 0736 894B     	 ldr r3,.L88+52
 1483 0738 0122     	 movs r2,#1
 1484 073a 1A70     	 strb r2,[r3]
 335:../main.c     **** 					start_help_count --;
 1485              	 .loc 3 335 0
 1486 073c 864B     	 ldr r3,.L88+48
 1487 073e 1B78     	 ldrb r3,[r3]
 1488 0740 013B     	 subs r3,r3,#1
 1489 0742 DAB2     	 uxtb r2,r3
 1490 0744 844B     	 ldr r3,.L88+48
 1491 0746 1A70     	 strb r2,[r3]
 336:../main.c     **** 					if(omega_mech_rps_ref > 0)T_ref = T_ref + START_HELP_T;
 1492              	 .loc 3 336 0
 1493 0748 7D4B     	 ldr r3,.L88+24
 1494 074a D3ED007A 	 flds s15,[r3]
 1495 074e F5EEC07A 	 fcmpezs s15
 1496 0752 F1EE10FA 	 fmstat
 1497 0756 17DD     	 ble .L82
 1498              	 .loc 3 336 0 is_stmt 0 discriminator 1
 1499 0758 7C4B     	 ldr r3,.L88+36
 1500 075a 1B68     	 ldr r3,[r3]
 1501 075c 1846     	 mov r0,r3
 1502 075e FFF7FEFF 	 bl __aeabi_f2d
 1503 0762 0246     	 mov r2,r0
 1504 0764 0B46     	 mov r3,r1
 1505 0766 1046     	 mov r0,r2
 1506 0768 1946     	 mov r1,r3
 1507 076a 6FA3     	 adr r3,.L88
 1508 076c D3E90023 	 ldrd r2,[r3]
 1509 0770 FFF7FEFF 	 bl __aeabi_dadd
 1510 0774 0246     	 mov r2,r0
 1511 0776 0B46     	 mov r3,r1
 1512 0778 1046     	 mov r0,r2
 1513 077a 1946     	 mov r1,r3
 1514 077c FFF7FEFF 	 bl __aeabi_d2f
 1515 0780 0246     	 mov r2,r0
 1516 0782 724B     	 ldr r3,.L88+36
 1517 0784 1A60     	 str r2,[r3]
 1518 0786 1EE0     	 b .L49
 1519              	.L82:
 337:../main.c     **** 					else if(omega_mech_rps_ref < 0)T_ref = T_ref - START_HELP_T;
 1520              	 .loc 3 337 0 is_stmt 1
 1521 0788 6D4B     	 ldr r3,.L88+24
 1522 078a D3ED007A 	 flds s15,[r3]
 1523 078e F5EEC07A 	 fcmpezs s15
 1524 0792 F1EE10FA 	 fmstat
 1525 0796 16D5     	 bpl .L49
 1526              	 .loc 3 337 0 is_stmt 0 discriminator 1
 1527 0798 6C4B     	 ldr r3,.L88+36
 1528 079a 1B68     	 ldr r3,[r3]
 1529 079c 1846     	 mov r0,r3
 1530 079e FFF7FEFF 	 bl __aeabi_f2d
 1531 07a2 0246     	 mov r2,r0
 1532 07a4 0B46     	 mov r3,r1
 1533 07a6 1046     	 mov r0,r2
 1534 07a8 1946     	 mov r1,r3
 1535 07aa 5FA3     	 adr r3,.L88
 1536 07ac D3E90023 	 ldrd r2,[r3]
 1537 07b0 FFF7FEFF 	 bl __aeabi_dsub
 1538 07b4 0246     	 mov r2,r0
 1539 07b6 0B46     	 mov r3,r1
 1540 07b8 1046     	 mov r0,r2
 1541 07ba 1946     	 mov r1,r3
 1542 07bc FFF7FEFF 	 bl __aeabi_d2f
 1543 07c0 0246     	 mov r2,r0
 1544 07c2 624B     	 ldr r3,.L88+36
 1545 07c4 1A60     	 str r2,[r3]
 1546              	.L49:
 338:../main.c     **** 				}
 339:../main.c     **** 			}
 340:../main.c     **** 		}
 341:../main.c     **** 
 342:../main.c     **** 		if (Speed_control == 1){// activation of speed control
 1547              	 .loc 3 342 0 is_stmt 1
 1548 07c6 664B     	 ldr r3,.L88+56
 1549 07c8 1B78     	 ldrb r3,[r3]
 1550 07ca 012B     	 cmp r3,#1
 1551 07cc 16D1     	 bne .L55
 343:../main.c     **** 			if(MOTOR_NUM == 1 || MOTOR_NUM == 10) {
 344:../main.c     **** 				iq_ref =  T_ref / K_T; // dirction for motor 1
 1552              	 .loc 3 344 0
 1553 07ce 5F4B     	 ldr r3,.L88+36
 1554 07d0 1B68     	 ldr r3,[r3]
 1555 07d2 1846     	 mov r0,r3
 1556 07d4 FFF7FEFF 	 bl __aeabi_f2d
 1557 07d8 0246     	 mov r2,r0
 1558 07da 0B46     	 mov r3,r1
 1559 07dc 1046     	 mov r0,r2
 1560 07de 1946     	 mov r1,r3
 1561 07e0 53A3     	 adr r3,.L88+8
 1562 07e2 D3E90023 	 ldrd r2,[r3]
 1563 07e6 FFF7FEFF 	 bl __aeabi_ddiv
 1564 07ea 0246     	 mov r2,r0
 1565 07ec 0B46     	 mov r3,r1
 1566 07ee 1046     	 mov r0,r2
 1567 07f0 1946     	 mov r1,r3
 1568 07f2 FFF7FEFF 	 bl __aeabi_d2f
 1569 07f6 0246     	 mov r2,r0
 1570 07f8 5A4B     	 ldr r3,.L88+60
 1571 07fa 1A60     	 str r2,[r3]
 1572              	.L55:
 345:../main.c     **** 			}
 346:../main.c     **** 			else{
 347:../main.c     **** 				iq_ref = - T_ref / K_T;// dirction for motor not 1
 348:../main.c     **** 			}
 349:../main.c     **** 
 350:../main.c     **** 		}
 351:../main.c     **** 
 352:../main.c     **** 		//iq_ref = - T_ref / K_T;// dirction for motor 1
 353:../main.c     **** 
 354:../main.c     **** 		//limit to IQ_REF_MAx limit
 355:../main.c     **** 		if(iq_ref < -IQ_REF_MAX) iq_ref = -IQ_REF_MAX;
 1573              	 .loc 3 355 0
 1574 07fc 594B     	 ldr r3,.L88+60
 1575 07fe D3ED007A 	 flds s15,[r3]
 1576 0802 B9EE047A 	 fconsts s14,#148
 1577 0806 F4EEC77A 	 fcmpes s15,s14
 1578 080a F1EE10FA 	 fmstat
 1579 080e 02D5     	 bpl .L56
 1580              	 .loc 3 355 0 is_stmt 0 discriminator 1
 1581 0810 544B     	 ldr r3,.L88+60
 1582 0812 554A     	 ldr r2,.L88+64
 1583 0814 1A60     	 str r2,[r3]
 1584              	.L56:
 356:../main.c     **** 		if(iq_ref > IQ_REF_MAX) iq_ref = IQ_REF_MAX;
 1585              	 .loc 3 356 0 is_stmt 1
 1586 0816 534B     	 ldr r3,.L88+60
 1587 0818 D3ED007A 	 flds s15,[r3]
 1588 081c B1EE047A 	 fconsts s14,#20
 1589 0820 F4EEC77A 	 fcmpes s15,s14
 1590 0824 F1EE10FA 	 fmstat
 1591 0828 02DD     	 ble .L58
 1592              	 .loc 3 356 0 is_stmt 0 discriminator 1
 1593 082a 4E4B     	 ldr r3,.L88+60
 1594 082c 4F4A     	 ldr r2,.L88+68
 1595 082e 1A60     	 str r2,[r3]
 1596              	.L58:
 357:../main.c     **** 
 358:../main.c     **** 		if(Torque_control == 1){
 1597              	 .loc 3 358 0 is_stmt 1
 1598 0830 4F4B     	 ldr r3,.L88+72
 1599 0832 1B78     	 ldrb r3,[r3]
 1600 0834 012B     	 cmp r3,#1
 1601 0836 16D1     	 bne .L60
 359:../main.c     **** 			//Vd = PID_Controller(0.0,id,&Id_param);
 360:../main.c     **** 			//Vq = PID_Controller(iq_ref,iq,&Iq_param); // toque controll
 361:../main.c     **** 
 362:../main.c     **** 			Vd = PI_Controller(0.0,id,&Id_param);
 1602              	 .loc 3 362 0
 1603 0838 4E4B     	 ldr r3,.L88+76
 1604 083a 1B68     	 ldr r3,[r3]
 1605 083c 4FF00000 	 mov r0,#0
 1606 0840 1946     	 mov r1,r3
 1607 0842 4D4A     	 ldr r2,.L88+80
 1608 0844 FFF7FEFF 	 bl PI_Controller
 1609 0848 0246     	 mov r2,r0
 1610 084a 4C4B     	 ldr r3,.L88+84
 1611 084c 1A60     	 str r2,[r3]
 363:../main.c     **** 			Vq = PI_Controller(iq_ref,iq,&Iq_param); // toque controll
 1612              	 .loc 3 363 0
 1613 084e 454B     	 ldr r3,.L88+60
 1614 0850 1A68     	 ldr r2,[r3]
 1615 0852 4B4B     	 ldr r3,.L88+88
 1616 0854 1B68     	 ldr r3,[r3]
 1617 0856 1046     	 mov r0,r2
 1618 0858 1946     	 mov r1,r3
 1619 085a 4A4A     	 ldr r2,.L88+92
 1620 085c FFF7FEFF 	 bl PI_Controller
 1621 0860 0246     	 mov r2,r0
 1622 0862 494B     	 ldr r3,.L88+96
 1623 0864 1A60     	 str r2,[r3]
 1624              	.L60:
 364:../main.c     **** 		}
 365:../main.c     **** 
 366:../main.c     **** 		//DIGITAL_IO_SetOutputLow(&status_LED_red_cal_time); // %67 duyt   control takes 4% of the time 9
 367:../main.c     **** 
 368:../main.c     **** 		// dq to alpha beta for voltage
 369:../main.c     **** 		Valpha = Vd*cos_phi - Vq*sin_phi;
 1625              	 .loc 3 369 0
 1626 0866 454B     	 ldr r3,.L88+84
 1627 0868 93ED007A 	 flds s14,[r3]
 1628 086c D7ED017A 	 flds s15,[r7,#4]
 1629 0870 27EE277A 	 fmuls s14,s14,s15
 1630 0874 444B     	 ldr r3,.L88+96
 1631 0876 D3ED006A 	 flds s13,[r3]
 1632 087a D7ED007A 	 flds s15,[r7]
 1633 087e 66EEA77A 	 fmuls s15,s13,s15
 1634 0882 77EE677A 	 fsubs s15,s14,s15
 1635 0886 414B     	 ldr r3,.L88+100
 1636 0888 C3ED007A 	 fsts s15,[r3]
 370:../main.c     **** 		Vbeta = Vd*sin_phi + Vq*cos_phi;
 1637              	 .loc 3 370 0
 1638 088c 3B4B     	 ldr r3,.L88+84
 1639 088e 93ED007A 	 flds s14,[r3]
 1640 0892 D7ED007A 	 flds s15,[r7]
 1641 0896 27EE277A 	 fmuls s14,s14,s15
 1642 089a 3B4B     	 ldr r3,.L88+96
 1643 089c D3ED006A 	 flds s13,[r3]
 1644 08a0 D7ED017A 	 flds s15,[r7,#4]
 1645 08a4 66EEA77A 	 fmuls s15,s13,s15
 1646 08a8 77EE277A 	 fadds s15,s14,s15
 1647 08ac 384B     	 ldr r3,.L88+104
 1648 08ae C3ED007A 	 fsts s15,[r3]
 371:../main.c     **** 
 372:../main.c     **** 		// calc angle for SVM app
 373:../main.c     **** 		angle_ab_rad = atanf(Vbeta/Valpha);
 1649              	 .loc 3 373 0
 1650 08b2 374B     	 ldr r3,.L88+104
 1651 08b4 93ED007A 	 flds s14,[r3]
 1652 08b8 344B     	 ldr r3,.L88+100
 1653 08ba D3ED007A 	 flds s15,[r3]
 1654 08be C7EE277A 	 fdivs s15,s14,s15
 1655 08c2 17EE900A 	 fmrs r0,s15
 1656 08c6 FFF7FEFF 	 bl atanf
 1657 08ca 0246     	 mov r2,r0
 1658 08cc 314B     	 ldr r3,.L88+108
 1659 08ce 1A60     	 str r2,[r3]
 374:../main.c     **** 		angle_ab = angle_ab_rad/Pi180;
 1660              	 .loc 3 374 0
 1661 08d0 304B     	 ldr r3,.L88+108
 1662 08d2 1B68     	 ldr r3,[r3]
 1663 08d4 1846     	 mov r0,r3
 1664 08d6 FFF7FEFF 	 bl __aeabi_f2d
 1665 08da 0246     	 mov r2,r0
 1666 08dc 0B46     	 mov r3,r1
 1667 08de 1046     	 mov r0,r2
 1668 08e0 1946     	 mov r1,r3
 1669 08e2 15A3     	 adr r3,.L88+16
 1670 08e4 D3E90023 	 ldrd r2,[r3]
 1671 08e8 FFF7FEFF 	 bl __aeabi_ddiv
 1672 08ec 0246     	 mov r2,r0
 1673 08ee 0B46     	 mov r3,r1
 1674 08f0 1046     	 mov r0,r2
 1675 08f2 1946     	 mov r1,r3
 1676 08f4 FFF7FEFF 	 bl __aeabi_d2f
 1677 08f8 0246     	 mov r2,r0
 1678 08fa 274B     	 ldr r3,.L88+112
 1679 08fc 1A60     	 str r2,[r3]
 375:../main.c     **** 
 376:../main.c     **** 		if(Valpha < 0.0){angle_ab = angle_ab + 180.0;}			// failure correction of angle (tangens)
 1680              	 .loc 3 376 0
 1681 08fe 234B     	 ldr r3,.L88+100
 1682 0900 D3ED007A 	 flds s15,[r3]
 1683 0904 F5EEC07A 	 fcmpezs s15
 1684 0908 F1EE10FA 	 fmstat
 1685 090c 48D5     	 bpl .L83
 1686              	 .loc 3 376 0 is_stmt 0 discriminator 1
 1687 090e 224B     	 ldr r3,.L88+112
 1688 0910 D3ED007A 	 flds s15,[r3]
 1689 0914 9FED217A 	 flds s14,.L88+116
 1690 0918 77EE877A 	 fadds s15,s15,s14
 1691 091c 1E4B     	 ldr r3,.L88+112
 1692 091e C3ED007A 	 fsts s15,[r3]
 1693 0922 4FE0     	 b .L63
 1694              	.L89:
 1695 0924 AFF30080 	 .align 3
 1696              	.L88:
 1697 0928 9A999999 	 .word -1717986918
 1698 092c 9999B93F 	 .word 1069128089
 1699 0930 E17A14AE 	 .word -1374389535
 1700 0934 47E1CA3F 	 .word 1070260551
 1701 0938 4DC90777 	 .word 1996998989
 1702 093c 46DF913F 	 .word 1066524486
 1703 0940 00000000 	 .word omega_mech_rps_ref
 1704 0944 00000000 	 .word omega_mech_rps
 1705 0948 00000000 	 .word omega_param
 1706 094c 00000000 	 .word T_ref
 1707 0950 00000000 	 .word start_help
 1708 0954 0000F03F 	 .word 1072693248
 1709 0958 00000000 	 .word start_help_count
 1710 095c 00000000 	 .word start_help_flag
 1711 0960 00000000 	 .word Speed_control
 1712 0964 00000000 	 .word iq_ref
 1713 0968 0000A0C0 	 .word -1063256064
 1714 096c 0000A040 	 .word 1084227584
 1715 0970 00000000 	 .word Torque_control
 1716 0974 00000000 	 .word id
 1717 0978 00000000 	 .word Id_param
 1718 097c 00000000 	 .word Vd
 1719 0980 00000000 	 .word iq
 1720 0984 00000000 	 .word Iq_param
 1721 0988 00000000 	 .word Vq
 1722 098c 00000000 	 .word Valpha
 1723 0990 00000000 	 .word Vbeta
 1724 0994 00000000 	 .word angle_ab_rad
 1725 0998 00000000 	 .word angle_ab
 1726 099c 00003443 	 .word 1127481344
 1727              	.L83:
 377:../main.c     **** 		else if(Vbeta < 0.0){angle_ab = angle_ab + 360.0;}
 1728              	 .loc 3 377 0 is_stmt 1
 1729 09a0 3D4B     	 ldr r3,.L90+8
 1730 09a2 D3ED007A 	 flds s15,[r3]
 1731 09a6 F5EEC07A 	 fcmpezs s15
 1732 09aa F1EE10FA 	 fmstat
 1733 09ae 09D5     	 bpl .L63
 1734              	 .loc 3 377 0 is_stmt 0 discriminator 1
 1735 09b0 3A4B     	 ldr r3,.L90+12
 1736 09b2 D3ED007A 	 flds s15,[r3]
 1737 09b6 9FED3A7A 	 flds s14,.L90+16
 1738 09ba 77EE877A 	 fadds s15,s15,s14
 1739 09be 374B     	 ldr r3,.L90+12
 1740 09c0 C3ED007A 	 fsts s15,[r3]
 1741              	.L63:
 378:../main.c     **** 
 379:../main.c     **** 		// shortend to one line
 380:../main.c     **** 		// amplitude calculation
 381:../main.c     **** 		amplitude_ab = sqrtf(Valpha*Valpha + Vbeta*Vbeta);
 1742              	 .loc 3 381 0 is_stmt 1
 1743 09c4 374B     	 ldr r3,.L90+20
 1744 09c6 93ED007A 	 flds s14,[r3]
 1745 09ca 364B     	 ldr r3,.L90+20
 1746 09cc D3ED007A 	 flds s15,[r3]
 1747 09d0 27EE277A 	 fmuls s14,s14,s15
 1748 09d4 304B     	 ldr r3,.L90+8
 1749 09d6 D3ED006A 	 flds s13,[r3]
 1750 09da 2F4B     	 ldr r3,.L90+8
 1751 09dc D3ED007A 	 flds s15,[r3]
 1752 09e0 66EEA77A 	 fmuls s15,s13,s15
 1753 09e4 77EE277A 	 fadds s15,s14,s15
 1754 09e8 17EE900A 	 fmrs r0,s15
 1755 09ec FFF7FEFF 	 bl sqrtf
 1756 09f0 0246     	 mov r2,r0
 1757 09f2 2D4B     	 ldr r3,.L90+24
 1758 09f4 1A60     	 str r2,[r3]
 382:../main.c     **** 
 383:../main.c     **** 		//K_inv = V/m --> m = V / K_inv
 384:../main.c     **** 		//modulation_index = amplitude_ab/K_inv;
 385:../main.c     **** 
 386:../main.c     **** 		if(V_DC_link < 0 || V_DC_link > 50) V_DC_link = 14.8;  // plauseblyt check if not set to nom bat 
 1759              	 .loc 3 386 0
 1760 09f6 2D4B     	 ldr r3,.L90+28
 1761 09f8 D3ED007A 	 flds s15,[r3]
 1762 09fc F5EEC07A 	 fcmpezs s15
 1763 0a00 F1EE10FA 	 fmstat
 1764 0a04 09D4     	 bmi .L65
 1765              	 .loc 3 386 0 is_stmt 0 discriminator 2
 1766 0a06 294B     	 ldr r3,.L90+28
 1767 0a08 D3ED007A 	 flds s15,[r3]
 1768 0a0c 9FED287A 	 flds s14,.L90+32
 1769 0a10 F4EEC77A 	 fcmpes s15,s14
 1770 0a14 F1EE10FA 	 fmstat
 1771 0a18 02DD     	 ble .L66
 1772              	.L65:
 1773              	 .loc 3 386 0 discriminator 3
 1774 0a1a 244B     	 ldr r3,.L90+28
 1775 0a1c 254A     	 ldr r2,.L90+36
 1776 0a1e 1A60     	 str r2,[r3]
 1777              	.L66:
 387:../main.c     **** 		modulation_index = amplitude_ab/(V_DC_link /1.732);
 1778              	 .loc 3 387 0 is_stmt 1
 1779 0a20 214B     	 ldr r3,.L90+24
 1780 0a22 1B68     	 ldr r3,[r3]
 1781 0a24 1846     	 mov r0,r3
 1782 0a26 FFF7FEFF 	 bl __aeabi_f2d
 1783 0a2a 0446     	 mov r4,r0
 1784 0a2c 0D46     	 mov r5,r1
 1785 0a2e 1F4B     	 ldr r3,.L90+28
 1786 0a30 1B68     	 ldr r3,[r3]
 1787 0a32 1846     	 mov r0,r3
 1788 0a34 FFF7FEFF 	 bl __aeabi_f2d
 1789 0a38 0246     	 mov r2,r0
 1790 0a3a 0B46     	 mov r3,r1
 1791 0a3c 1046     	 mov r0,r2
 1792 0a3e 1946     	 mov r1,r3
 1793 0a40 13A3     	 adr r3,.L90
 1794 0a42 D3E90023 	 ldrd r2,[r3]
 1795 0a46 FFF7FEFF 	 bl __aeabi_ddiv
 1796 0a4a 0246     	 mov r2,r0
 1797 0a4c 0B46     	 mov r3,r1
 1798 0a4e 2046     	 mov r0,r4
 1799 0a50 2946     	 mov r1,r5
 1800 0a52 FFF7FEFF 	 bl __aeabi_ddiv
 1801 0a56 0246     	 mov r2,r0
 1802 0a58 0B46     	 mov r3,r1
 1803 0a5a 1046     	 mov r0,r2
 1804 0a5c 1946     	 mov r1,r3
 1805 0a5e FFF7FEFF 	 bl __aeabi_d2f
 1806 0a62 0246     	 mov r2,r0
 1807 0a64 144B     	 ldr r3,.L90+40
 1808 0a66 1A60     	 str r2,[r3]
 388:../main.c     **** 
 389:../main.c     **** 		//scale maximum 1 to 10000 -->
 390:../main.c     **** 		modulation_index_scaled = 10000*modulation_index;
 1809              	 .loc 3 390 0
 1810 0a68 134B     	 ldr r3,.L90+40
 1811 0a6a D3ED007A 	 flds s15,[r3]
 1812 0a6e 9FED137A 	 flds s14,.L90+44
 1813 0a72 67EE877A 	 fmuls s15,s15,s14
 1814 0a76 124B     	 ldr r3,.L90+48
 1815 0a78 C3ED007A 	 fsts s15,[r3]
 391:../main.c     **** 
 392:../main.c     **** 
 393:../main.c     **** 		// shortened ca 4% improvemnt
 394:../main.c     **** 		//modulation_index_scaled = sqrtf(Valpha*Valpha + Vbeta*Vbeta) * 577.3339;
 395:../main.c     **** 
 396:../main.c     **** 		DIGITAL_IO_SetOutputLow(&status_LED_red_cal_time); // 83% duty amplitued calc takes 16% of the ti
 1816              	 .loc 3 396 0
 1817 0a7c 1148     	 ldr r0,.L90+52
 1818 0a7e FFF7FEFF 	 bl DIGITAL_IO_SetOutputLow
 397:../main.c     **** 
 398:../main.c     **** }
 1819              	 .loc 3 398 0
 1820 0a82 1037     	 adds r7,r7,#16
 1821              	.LCFI43:
 1822              	 .cfi_def_cfa_offset 24
 1823 0a84 BD46     	 mov sp,r7
 1824              	.LCFI44:
 1825              	 .cfi_def_cfa_register 13
 1826              	 
 1827 0a86 BDEC028B 	 fldmfdd sp!,{d8}
 1828              	.LCFI45:
 1829              	 .cfi_restore 80
 1830              	 .cfi_restore 81
 1831              	 .cfi_def_cfa_offset 16
 1832 0a8a B0BD     	 pop {r4,r5,r7,pc}
 1833              	.L91:
 1834 0a8c AFF30080 	 .align 3
 1835              	.L90:
 1836 0a90 83C0CAA1 	 .word -1580547965
 1837 0a94 45B6FB3F 	 .word 1073460805
 1838 0a98 00000000 	 .word Vbeta
 1839 0a9c 00000000 	 .word angle_ab
 1840 0aa0 0000B443 	 .word 1135869952
 1841 0aa4 00000000 	 .word Valpha
 1842 0aa8 00000000 	 .word amplitude_ab
 1843 0aac 00000000 	 .word V_DC_link
 1844 0ab0 00004842 	 .word 1112014848
 1845 0ab4 CDCC6C41 	 .word 1097649357
 1846 0ab8 00000000 	 .word modulation_index
 1847 0abc 00401C46 	 .word 1176256512
 1848 0ac0 00000000 	 .word modulation_index_scaled
 1849 0ac4 00000000 	 .word status_LED_red_cal_time
 1850              	 .cfi_endproc
 1851              	.LFE556:
 1853              	 .text
 1854              	.Letext0:
 1855              	 .file 4 "c:\\dave\\dave-ide-4.4.2-64bit\\dave-ide-4.4.2-64bit\\eclipse\\arm-gcc-49\\arm-none-eabi\\include\\machine\\_default_types.h"
 1856              	 .file 5 "c:\\dave\\dave-ide-4.4.2-64bit\\dave-ide-4.4.2-64bit\\eclipse\\arm-gcc-49\\arm-none-eabi\\include\\stdint.h"
 1857              	 .file 6 "C:/GitHub/MobRob_Rover_NEW/Inverter/Mobrob_Inverter/Libraries/CMSIS/Infineon/XMC4500_series/Include/XMC4500.h"
 1858              	 .file 7 "C:/GitHub/MobRob_Rover_NEW/Inverter/Mobrob_Inverter/Libraries/XMCLib/inc/xmc4_gpio.h"
 1859              	 .file 8 "C:/GitHub/MobRob_Rover_NEW/Inverter/Mobrob_Inverter/Libraries/XMCLib/inc/xmc4_scu.h"
 1860              	 .file 9 "C:/GitHub/MobRob_Rover_NEW/Inverter/Mobrob_Inverter/Libraries/XMCLib/inc/xmc_usic.h"
 1861              	 .file 10 "C:/GitHub/MobRob_Rover_NEW/Inverter/Mobrob_Inverter/Libraries/XMCLib/inc/xmc_ccu8.h"
 1862              	 .file 11 "C:/GitHub/MobRob_Rover_NEW/Inverter/Mobrob_Inverter/Dave/Generated/GLOBAL_CCU8/global_ccu8.h"
 1863              	 .file 12 "C:/GitHub/MobRob_Rover_NEW/Inverter/Mobrob_Inverter/Dave/Generated/PWM_SVM/pwm_svm.h"
 1864              	 .file 13 "C:/GitHub/MobRob_Rover_NEW/Inverter/Mobrob_Inverter/Libraries/XMCLib/inc/xmc_can.h"
 1865              	 .file 14 "C:/GitHub/MobRob_Rover_NEW/Inverter/Mobrob_Inverter/Dave/Generated/GLOBAL_CAN/global_can.h"
 1866              	 .file 15 "C:/GitHub/MobRob_Rover_NEW/Inverter/Mobrob_Inverter/Dave/Generated/CAN_NODE/can_node.h"
 1867              	 .file 16 "C:/GitHub/MobRob_Rover_NEW/Inverter/Mobrob_Inverter/Libraries/XMCLib/inc/xmc_vadc.h"
 1868              	 .file 17 "C:/GitHub/MobRob_Rover_NEW/Inverter/Mobrob_Inverter/Dave/Generated/GLOBAL_ADC/global_adc.h"
 1869              	 .file 18 "C:/GitHub/MobRob_Rover_NEW/Inverter/Mobrob_Inverter/Dave/Generated/ADC_MEASUREMENT/adc_measurement.h"
 1870              	 .file 19 "C:/GitHub/MobRob_Rover_NEW/Inverter/Mobrob_Inverter/Dave/Generated/DAVE.h"
 1871              	 .file 20 "../PI_Controller.h"
 1872              	 .file 21 "C:/GitHub/MobRob_Rover_NEW/Inverter/Mobrob_Inverter/Libraries/CMSIS/Include/core_cm4.h"
 1873              	 .file 22 "C:/GitHub/MobRob_Rover_NEW/Inverter/Mobrob_Inverter/Libraries/CMSIS/Infineon/XMC4500_series/Include/system_XMC4500.h"
 1874              	 .file 23 "C:/GitHub/MobRob_Rover_NEW/Inverter/Mobrob_Inverter/Dave/Generated/DIGITAL_IO/digital_io_extern.h"
 1875              	 .file 24 "C:/GitHub/MobRob_Rover_NEW/Inverter/Mobrob_Inverter/Dave/Generated/PWM_SVM/pwm_svm_extern.h"
 1876              	 .file 25 "C:/GitHub/MobRob_Rover_NEW/Inverter/Mobrob_Inverter/Dave/Generated/CAN_NODE/can_node_extern.h"
 1877              	 .file 26 "C:/GitHub/MobRob_Rover_NEW/Inverter/Mobrob_Inverter/Dave/Generated/ADC_MEASUREMENT/adc_measurement_extern.h"
 1878              	 .file 27 "../Globals.h"
 1879              	 .file 28 "../Hall_Sensors.h"
 1880              	 .file 29 "../CAN.h"