   1              	 .syntax unified
   2              	 .cpu cortex-m4
   3              	 .eabi_attribute 27,3
   4              	 .fpu fpv4-sp-d16
   5              	 .eabi_attribute 20,1
   6              	 .eabi_attribute 21,1
   7              	 .eabi_attribute 23,3
   8              	 .eabi_attribute 24,1
   9              	 .eabi_attribute 25,1
  10              	 .eabi_attribute 26,1
  11              	 .eabi_attribute 30,6
  12              	 .eabi_attribute 34,1
  13              	 .eabi_attribute 18,4
  14              	 .thumb
  15              	 .file "rec_data_function.c"
  16              	 .text
  17              	.Ltext0:
  18              	 .cfi_sections .debug_frame
  19              	 .global rec_data_contorl
  20              	 .section .bss.rec_data_contorl,"aw",%nobits
  23              	rec_data_contorl:
  24 0000 00       	 .space 1
  25              	 .global rec_data_index
  26              	 .section .bss.rec_data_index,"aw",%nobits
  27              	 .align 1
  30              	rec_data_index:
  31 0000 0000     	 .space 2
  32              	 .global rec_data
  33              	 .section .bss.rec_data,"aw",%nobits
  34              	 .align 2
  37              	rec_data:
  38 0000 00000000 	 .space 4000
  38      00000000 
  38      00000000 
  38      00000000 
  38      00000000 
  39              	 .global rec_data2
  40              	 .section .bss.rec_data2,"aw",%nobits
  41              	 .align 2
  44              	rec_data2:
  45 0000 00000000 	 .space 4000
  45      00000000 
  45      00000000 
  45      00000000 
  45      00000000 
  46              	 .global reset_rec
  47              	 .section .bss.reset_rec,"aw",%nobits
  50              	reset_rec:
  51 0000 00       	 .space 1
  52              	 .global start_rec
  53              	 .section .bss.start_rec,"aw",%nobits
  56              	start_rec:
  57 0000 00       	 .space 1
  58              	 .global start_rec_copunt
  59              	 .section .bss.start_rec_copunt,"aw",%nobits
  60              	 .align 2
  63              	start_rec_copunt:
  64 0000 00000000 	 .space 4
  65              	 .section .text.f_rec_data,"ax",%progbits
  66              	 .align 2
  67              	 .global f_rec_data
  68              	 .thumb
  69              	 .thumb_func
  71              	f_rec_data:
  72              	.LFB0:
  73              	 .file 1 "../rec_data_function.c"
   1:../rec_data_function.c **** /*
   2:../rec_data_function.c ****  * rec_data_function.c
   3:../rec_data_function.c ****  *
   4:../rec_data_function.c ****  *  Created on: 23 Jun 2022
   5:../rec_data_function.c ****  *      Author: lukas
   6:../rec_data_function.c ****  */
   7:../rec_data_function.c **** 
   8:../rec_data_function.c **** #include "rec_data_function.h"
   9:../rec_data_function.c **** //data rec
  10:../rec_data_function.c **** uint8_t rec_data_contorl = 0;// 0 noiting 1 record
  11:../rec_data_function.c **** #define REC_DATA_NUM_POINTS 1000
  12:../rec_data_function.c **** uint16_t rec_data_index = 0;
  13:../rec_data_function.c **** float rec_data[REC_DATA_NUM_POINTS] = {0};
  14:../rec_data_function.c **** float rec_data2[REC_DATA_NUM_POINTS] = {0};
  15:../rec_data_function.c **** 
  16:../rec_data_function.c **** 
  17:../rec_data_function.c **** 
  18:../rec_data_function.c **** uint8_t reset_rec = 0;
  19:../rec_data_function.c **** uint8_t start_rec = 0;
  20:../rec_data_function.c **** uint32_t start_rec_copunt = 0;
  21:../rec_data_function.c **** 
  22:../rec_data_function.c **** 
  23:../rec_data_function.c **** void f_rec_data(float data_point_var1, float data_point_var2,float* x_ref, float start_step_from, f
  74              	 .loc 1 23 0
  75              	 .cfi_startproc
  76              	 
  77              	 
  78              	 
  79 0000 80B4     	 push {r7}
  80              	.LCFI0:
  81              	 .cfi_def_cfa_offset 4
  82              	 .cfi_offset 7,-4
  83 0002 85B0     	 sub sp,sp,#20
  84              	.LCFI1:
  85              	 .cfi_def_cfa_offset 24
  86 0004 00AF     	 add r7,sp,#0
  87              	.LCFI2:
  88              	 .cfi_def_cfa_register 7
  89 0006 F860     	 str r0,[r7,#12]
  90 0008 B960     	 str r1,[r7,#8]
  91 000a 7A60     	 str r2,[r7,#4]
  92 000c 3B60     	 str r3,[r7]
  24:../rec_data_function.c **** 	  if(start_rec  == 1){
  93              	 .loc 1 24 0
  94 000e 324B     	 ldr r3,.L8
  95 0010 1B78     	 ldrb r3,[r3]
  96 0012 012B     	 cmp r3,#1
  97 0014 2AD1     	 bne .L2
  25:../rec_data_function.c **** 		  start_rec_copunt ++;
  98              	 .loc 1 25 0
  99 0016 314B     	 ldr r3,.L8+4
 100 0018 1B68     	 ldr r3,[r3]
 101 001a 0133     	 adds r3,r3,#1
 102 001c 2F4A     	 ldr r2,.L8+4
 103 001e 1360     	 str r3,[r2]
  26:../rec_data_function.c **** 
  27:../rec_data_function.c **** 		  if(start_rec_copunt == 1){
 104              	 .loc 1 27 0
 105 0020 2E4B     	 ldr r3,.L8+4
 106 0022 1B68     	 ldr r3,[r3]
 107 0024 012B     	 cmp r3,#1
 108 0026 02D1     	 bne .L3
  28:../rec_data_function.c **** 			  *x_ref = start_step_from;
 109              	 .loc 1 28 0
 110 0028 7B68     	 ldr r3,[r7,#4]
 111 002a 3A68     	 ldr r2,[r7]
 112 002c 1A60     	 str r2,[r3]
 113              	.L3:
  29:../rec_data_function.c **** 		  }
  30:../rec_data_function.c **** 
  31:../rec_data_function.c **** 		  if(start_rec_copunt ==10000){
 114              	 .loc 1 31 0
 115 002e 2B4B     	 ldr r3,.L8+4
 116 0030 1B68     	 ldr r3,[r3]
 117 0032 42F21072 	 movw r2,#10000
 118 0036 9342     	 cmp r3,r2
 119 0038 02D1     	 bne .L4
  32:../rec_data_function.c **** 			  rec_data_contorl = 1;
 120              	 .loc 1 32 0
 121 003a 294B     	 ldr r3,.L8+8
 122 003c 0122     	 movs r2,#1
 123 003e 1A70     	 strb r2,[r3]
 124              	.L4:
  33:../rec_data_function.c **** 		  }
  34:../rec_data_function.c **** 
  35:../rec_data_function.c **** 
  36:../rec_data_function.c **** 		  if(start_rec_copunt == 10099){ // step
 125              	 .loc 1 36 0
 126 0040 264B     	 ldr r3,.L8+4
 127 0042 1B68     	 ldr r3,[r3]
 128 0044 42F27372 	 movw r2,#10099
 129 0048 9342     	 cmp r3,r2
 130 004a 02D1     	 bne .L5
  37:../rec_data_function.c **** 			  *x_ref = step_to;
 131              	 .loc 1 37 0
 132 004c 7B68     	 ldr r3,[r7,#4]
 133 004e BA69     	 ldr r2,[r7,#24]
 134 0050 1A60     	 str r2,[r3]
 135              	.L5:
  38:../rec_data_function.c **** 		  }
  39:../rec_data_function.c **** 
  40:../rec_data_function.c **** 		  if(start_rec_copunt == 20000){
 136              	 .loc 1 40 0
 137 0052 224B     	 ldr r3,.L8+4
 138 0054 1B68     	 ldr r3,[r3]
 139 0056 44F62062 	 movw r2,#20000
 140 005a 9342     	 cmp r3,r2
 141 005c 06D1     	 bne .L2
  41:../rec_data_function.c **** 			  *x_ref = 0;
 142              	 .loc 1 41 0
 143 005e 7B68     	 ldr r3,[r7,#4]
 144 0060 4FF00002 	 mov r2,#0
 145 0064 1A60     	 str r2,[r3]
  42:../rec_data_function.c **** 			  start_rec = 0;
 146              	 .loc 1 42 0
 147 0066 1C4B     	 ldr r3,.L8
 148 0068 0022     	 movs r2,#0
 149 006a 1A70     	 strb r2,[r3]
 150              	.L2:
  43:../rec_data_function.c **** 		  }
  44:../rec_data_function.c **** 	  }
  45:../rec_data_function.c **** 
  46:../rec_data_function.c **** 
  47:../rec_data_function.c **** 	if(rec_data_contorl == 1){
 151              	 .loc 1 47 0
 152 006c 1C4B     	 ldr r3,.L8+8
 153 006e 1B78     	 ldrb r3,[r3]
 154 0070 012B     	 cmp r3,#1
 155 0072 18D1     	 bne .L6
  48:../rec_data_function.c **** 		  if(rec_data_index < REC_DATA_NUM_POINTS){
 156              	 .loc 1 48 0
 157 0074 1B4B     	 ldr r3,.L8+12
 158 0076 1B88     	 ldrh r3,[r3]
 159 0078 B3F57A7F 	 cmp r3,#1000
 160 007c 13D2     	 bcs .L6
  49:../rec_data_function.c **** 				rec_data[rec_data_index] = data_point_var1;
 161              	 .loc 1 49 0
 162 007e 194B     	 ldr r3,.L8+12
 163 0080 1B88     	 ldrh r3,[r3]
 164 0082 194A     	 ldr r2,.L8+16
 165 0084 9B00     	 lsls r3,r3,#2
 166 0086 1344     	 add r3,r3,r2
 167 0088 FA68     	 ldr r2,[r7,#12]
 168 008a 1A60     	 str r2,[r3]
  50:../rec_data_function.c **** 				rec_data2[rec_data_index] = data_point_var2;
 169              	 .loc 1 50 0
 170 008c 154B     	 ldr r3,.L8+12
 171 008e 1B88     	 ldrh r3,[r3]
 172 0090 164A     	 ldr r2,.L8+20
 173 0092 9B00     	 lsls r3,r3,#2
 174 0094 1344     	 add r3,r3,r2
 175 0096 BA68     	 ldr r2,[r7,#8]
 176 0098 1A60     	 str r2,[r3]
  51:../rec_data_function.c **** 				rec_data_index ++;
 177              	 .loc 1 51 0
 178 009a 124B     	 ldr r3,.L8+12
 179 009c 1B88     	 ldrh r3,[r3]
 180 009e 0133     	 adds r3,r3,#1
 181 00a0 9AB2     	 uxth r2,r3
 182 00a2 104B     	 ldr r3,.L8+12
 183 00a4 1A80     	 strh r2,[r3]
 184              	.L6:
  52:../rec_data_function.c **** 		  }
  53:../rec_data_function.c **** 	}
  54:../rec_data_function.c **** 
  55:../rec_data_function.c **** 	if(reset_rec == 1 && start_rec == 0){
 185              	 .loc 1 55 0
 186 00a6 124B     	 ldr r3,.L8+24
 187 00a8 1B78     	 ldrb r3,[r3]
 188 00aa 012B     	 cmp r3,#1
 189 00ac 0FD1     	 bne .L1
 190              	 .loc 1 55 0 is_stmt 0 discriminator 1
 191 00ae 0A4B     	 ldr r3,.L8
 192 00b0 1B78     	 ldrb r3,[r3]
 193 00b2 002B     	 cmp r3,#0
 194 00b4 0BD1     	 bne .L1
  56:../rec_data_function.c **** 		rec_data_contorl = 0;
 195              	 .loc 1 56 0 is_stmt 1
 196 00b6 0A4B     	 ldr r3,.L8+8
 197 00b8 0022     	 movs r2,#0
 198 00ba 1A70     	 strb r2,[r3]
  57:../rec_data_function.c **** 		reset_rec = 0;
 199              	 .loc 1 57 0
 200 00bc 0C4B     	 ldr r3,.L8+24
 201 00be 0022     	 movs r2,#0
 202 00c0 1A70     	 strb r2,[r3]
  58:../rec_data_function.c **** 		start_rec_copunt = 0;
 203              	 .loc 1 58 0
 204 00c2 064B     	 ldr r3,.L8+4
 205 00c4 0022     	 movs r2,#0
 206 00c6 1A60     	 str r2,[r3]
  59:../rec_data_function.c **** 		rec_data_index = 0;
 207              	 .loc 1 59 0
 208 00c8 064B     	 ldr r3,.L8+12
 209 00ca 0022     	 movs r2,#0
 210 00cc 1A80     	 strh r2,[r3]
 211              	.L1:
  60:../rec_data_function.c **** 	}
  61:../rec_data_function.c **** }
 212              	 .loc 1 61 0
 213 00ce 1437     	 adds r7,r7,#20
 214              	.LCFI3:
 215              	 .cfi_def_cfa_offset 4
 216 00d0 BD46     	 mov sp,r7
 217              	.LCFI4:
 218              	 .cfi_def_cfa_register 13
 219              	 
 220 00d2 5DF8047B 	 ldr r7,[sp],#4
 221              	.LCFI5:
 222              	 .cfi_restore 7
 223              	 .cfi_def_cfa_offset 0
 224 00d6 7047     	 bx lr
 225              	.L9:
 226              	 .align 2
 227              	.L8:
 228 00d8 00000000 	 .word start_rec
 229 00dc 00000000 	 .word start_rec_copunt
 230 00e0 00000000 	 .word rec_data_contorl
 231 00e4 00000000 	 .word rec_data_index
 232 00e8 00000000 	 .word rec_data
 233 00ec 00000000 	 .word rec_data2
 234 00f0 00000000 	 .word reset_rec
 235              	 .cfi_endproc
 236              	.LFE0:
 238              	 .text
 239              	.Letext0:
 240              	 .file 2 "c:\\dave\\dave-ide-4.4.2-64bit\\dave-ide-4.4.2-64bit\\eclipse\\arm-gcc-49\\arm-none-eabi\\include\\machine\\_default_types.h"
 241              	 .file 3 "c:\\dave\\dave-ide-4.4.2-64bit\\dave-ide-4.4.2-64bit\\eclipse\\arm-gcc-49\\arm-none-eabi\\include\\stdint.h"