   1              	 .cpu cortex-m0
   2              	 .fpu softvfp
   3              	 .eabi_attribute 20,1
   4              	 .eabi_attribute 21,1
   5              	 .eabi_attribute 23,3
   6              	 .eabi_attribute 24,1
   7              	 .eabi_attribute 25,1
   8              	 .eabi_attribute 26,1
   9              	 .eabi_attribute 30,6
  10              	 .eabi_attribute 34,0
  11              	 .eabi_attribute 18,4
  12              	 .code 16
  13              	 .file "bus_io.c"
  14              	 .text
  15              	.Ltext0:
  16              	 .cfi_sections .debug_frame
  17              	 .section .text.XMC_GPIO_SetOutputLevel,"ax",%progbits
  18              	 .align 2
  19              	 .code 16
  20              	 .thumb_func
  22              	XMC_GPIO_SetOutputLevel:
  23              	.LFB43:
  24              	 .file 1 "C:/GitHub/MobRob_Rover_NEW/Ultrasonic_Sensor_Node/Ultrasonic_XMC1400_CAPTRUE/Libraries/XMCLib/inc/xmc_gpio.h"
   1:C:/GitHub/MobRob_Rover_NEW/Ultrasonic_Sensor_Node/Ultrasonic_XMC1400_CAPTRUE/Libraries/XMCLib/inc\xmc_gpio.h **** /**
   2:C:/GitHub/MobRob_Rover_NEW/Ultrasonic_Sensor_Node/Ultrasonic_XMC1400_CAPTRUE/Libraries/XMCLib/inc\xmc_gpio.h ****  * @file xmc_gpio.h
   3:C:/GitHub/MobRob_Rover_NEW/Ultrasonic_Sensor_Node/Ultrasonic_XMC1400_CAPTRUE/Libraries/XMCLib/inc\xmc_gpio.h ****  * @date 2015-06-20
   4:C:/GitHub/MobRob_Rover_NEW/Ultrasonic_Sensor_Node/Ultrasonic_XMC1400_CAPTRUE/Libraries/XMCLib/inc\xmc_gpio.h ****  *
   5:C:/GitHub/MobRob_Rover_NEW/Ultrasonic_Sensor_Node/Ultrasonic_XMC1400_CAPTRUE/Libraries/XMCLib/inc\xmc_gpio.h ****  * @cond
   6:C:/GitHub/MobRob_Rover_NEW/Ultrasonic_Sensor_Node/Ultrasonic_XMC1400_CAPTRUE/Libraries/XMCLib/inc\xmc_gpio.h ****  *****************************************************************************
   7:C:/GitHub/MobRob_Rover_NEW/Ultrasonic_Sensor_Node/Ultrasonic_XMC1400_CAPTRUE/Libraries/XMCLib/inc\xmc_gpio.h ****  * XMClib v2.2.0 - XMC Peripheral Driver Library
   8:C:/GitHub/MobRob_Rover_NEW/Ultrasonic_Sensor_Node/Ultrasonic_XMC1400_CAPTRUE/Libraries/XMCLib/inc\xmc_gpio.h ****  *
   9:C:/GitHub/MobRob_Rover_NEW/Ultrasonic_Sensor_Node/Ultrasonic_XMC1400_CAPTRUE/Libraries/XMCLib/inc\xmc_gpio.h ****  * Copyright (c) 2015-2020, Infineon Technologies AG
  10:C:/GitHub/MobRob_Rover_NEW/Ultrasonic_Sensor_Node/Ultrasonic_XMC1400_CAPTRUE/Libraries/XMCLib/inc\xmc_gpio.h ****  * All rights reserved.
  11:C:/GitHub/MobRob_Rover_NEW/Ultrasonic_Sensor_Node/Ultrasonic_XMC1400_CAPTRUE/Libraries/XMCLib/inc\xmc_gpio.h ****  *
  12:C:/GitHub/MobRob_Rover_NEW/Ultrasonic_Sensor_Node/Ultrasonic_XMC1400_CAPTRUE/Libraries/XMCLib/inc\xmc_gpio.h ****  * Boost Software License - Version 1.0 - August 17th, 2003
  13:C:/GitHub/MobRob_Rover_NEW/Ultrasonic_Sensor_Node/Ultrasonic_XMC1400_CAPTRUE/Libraries/XMCLib/inc\xmc_gpio.h ****  *
  14:C:/GitHub/MobRob_Rover_NEW/Ultrasonic_Sensor_Node/Ultrasonic_XMC1400_CAPTRUE/Libraries/XMCLib/inc\xmc_gpio.h ****  * Permission is hereby granted, free of charge, to any person or organization
  15:C:/GitHub/MobRob_Rover_NEW/Ultrasonic_Sensor_Node/Ultrasonic_XMC1400_CAPTRUE/Libraries/XMCLib/inc\xmc_gpio.h ****  * obtaining a copy of the software and accompanying documentation covered by
  16:C:/GitHub/MobRob_Rover_NEW/Ultrasonic_Sensor_Node/Ultrasonic_XMC1400_CAPTRUE/Libraries/XMCLib/inc\xmc_gpio.h ****  * this license (the "Software") to use, reproduce, display, distribute,
  17:C:/GitHub/MobRob_Rover_NEW/Ultrasonic_Sensor_Node/Ultrasonic_XMC1400_CAPTRUE/Libraries/XMCLib/inc\xmc_gpio.h ****  * execute, and transmit the Software, and to prepare derivative works of the
  18:C:/GitHub/MobRob_Rover_NEW/Ultrasonic_Sensor_Node/Ultrasonic_XMC1400_CAPTRUE/Libraries/XMCLib/inc\xmc_gpio.h ****  * Software, and to permit third-parties to whom the Software is furnished to
  19:C:/GitHub/MobRob_Rover_NEW/Ultrasonic_Sensor_Node/Ultrasonic_XMC1400_CAPTRUE/Libraries/XMCLib/inc\xmc_gpio.h ****  * do so, all subject to the following:
  20:C:/GitHub/MobRob_Rover_NEW/Ultrasonic_Sensor_Node/Ultrasonic_XMC1400_CAPTRUE/Libraries/XMCLib/inc\xmc_gpio.h ****  *
  21:C:/GitHub/MobRob_Rover_NEW/Ultrasonic_Sensor_Node/Ultrasonic_XMC1400_CAPTRUE/Libraries/XMCLib/inc\xmc_gpio.h ****  * The copyright notices in the Software and this entire statement, including
  22:C:/GitHub/MobRob_Rover_NEW/Ultrasonic_Sensor_Node/Ultrasonic_XMC1400_CAPTRUE/Libraries/XMCLib/inc\xmc_gpio.h ****  * the above license grant, this restriction and the following disclaimer,
  23:C:/GitHub/MobRob_Rover_NEW/Ultrasonic_Sensor_Node/Ultrasonic_XMC1400_CAPTRUE/Libraries/XMCLib/inc\xmc_gpio.h ****  * must be included in all copies of the Software, in whole or in part, and
  24:C:/GitHub/MobRob_Rover_NEW/Ultrasonic_Sensor_Node/Ultrasonic_XMC1400_CAPTRUE/Libraries/XMCLib/inc\xmc_gpio.h ****  * all derivative works of the Software, unless such copies or derivative
  25:C:/GitHub/MobRob_Rover_NEW/Ultrasonic_Sensor_Node/Ultrasonic_XMC1400_CAPTRUE/Libraries/XMCLib/inc\xmc_gpio.h ****  * works are solely in the form of machine-executable object code generated by
  26:C:/GitHub/MobRob_Rover_NEW/Ultrasonic_Sensor_Node/Ultrasonic_XMC1400_CAPTRUE/Libraries/XMCLib/inc\xmc_gpio.h ****  * a source language processor.
  27:C:/GitHub/MobRob_Rover_NEW/Ultrasonic_Sensor_Node/Ultrasonic_XMC1400_CAPTRUE/Libraries/XMCLib/inc\xmc_gpio.h ****  *
  28:C:/GitHub/MobRob_Rover_NEW/Ultrasonic_Sensor_Node/Ultrasonic_XMC1400_CAPTRUE/Libraries/XMCLib/inc\xmc_gpio.h ****  * THE SOFTWARE IS PROVIDED "AS IS", WITHOUT WARRANTY OF ANY KIND, EXPRESS OR
  29:C:/GitHub/MobRob_Rover_NEW/Ultrasonic_Sensor_Node/Ultrasonic_XMC1400_CAPTRUE/Libraries/XMCLib/inc\xmc_gpio.h ****  * IMPLIED, INCLUDING BUT NOT LIMITED TO THE WARRANTIES OF MERCHANTABILITY,
  30:C:/GitHub/MobRob_Rover_NEW/Ultrasonic_Sensor_Node/Ultrasonic_XMC1400_CAPTRUE/Libraries/XMCLib/inc\xmc_gpio.h ****  * FITNESS FOR A PARTICULAR PURPOSE, TITLE AND NON-INFRINGEMENT. IN NO EVENT
  31:C:/GitHub/MobRob_Rover_NEW/Ultrasonic_Sensor_Node/Ultrasonic_XMC1400_CAPTRUE/Libraries/XMCLib/inc\xmc_gpio.h ****  * SHALL THE COPYRIGHT HOLDERS OR ANYONE DISTRIBUTING THE SOFTWARE BE LIABLE
  32:C:/GitHub/MobRob_Rover_NEW/Ultrasonic_Sensor_Node/Ultrasonic_XMC1400_CAPTRUE/Libraries/XMCLib/inc\xmc_gpio.h ****  * FOR ANY DAMAGES OR OTHER LIABILITY, WHETHER IN CONTRACT, TORT OR OTHERWISE,
  33:C:/GitHub/MobRob_Rover_NEW/Ultrasonic_Sensor_Node/Ultrasonic_XMC1400_CAPTRUE/Libraries/XMCLib/inc\xmc_gpio.h ****  * ARISING FROM, OUT OF OR IN CONNECTION WITH THE SOFTWARE OR THE USE OR OTHER
  34:C:/GitHub/MobRob_Rover_NEW/Ultrasonic_Sensor_Node/Ultrasonic_XMC1400_CAPTRUE/Libraries/XMCLib/inc\xmc_gpio.h ****  * DEALINGS IN THE SOFTWARE.
  35:C:/GitHub/MobRob_Rover_NEW/Ultrasonic_Sensor_Node/Ultrasonic_XMC1400_CAPTRUE/Libraries/XMCLib/inc\xmc_gpio.h ****  *
  36:C:/GitHub/MobRob_Rover_NEW/Ultrasonic_Sensor_Node/Ultrasonic_XMC1400_CAPTRUE/Libraries/XMCLib/inc\xmc_gpio.h ****  * To improve the quality of the software, users are encouraged to share
  37:C:/GitHub/MobRob_Rover_NEW/Ultrasonic_Sensor_Node/Ultrasonic_XMC1400_CAPTRUE/Libraries/XMCLib/inc\xmc_gpio.h ****  * modifications, enhancements or bug fixes with Infineon Technologies AG
  38:C:/GitHub/MobRob_Rover_NEW/Ultrasonic_Sensor_Node/Ultrasonic_XMC1400_CAPTRUE/Libraries/XMCLib/inc\xmc_gpio.h ****  * at XMCSupport@infineon.com.
  39:C:/GitHub/MobRob_Rover_NEW/Ultrasonic_Sensor_Node/Ultrasonic_XMC1400_CAPTRUE/Libraries/XMCLib/inc\xmc_gpio.h ****  *****************************************************************************
  40:C:/GitHub/MobRob_Rover_NEW/Ultrasonic_Sensor_Node/Ultrasonic_XMC1400_CAPTRUE/Libraries/XMCLib/inc\xmc_gpio.h ****  *
  41:C:/GitHub/MobRob_Rover_NEW/Ultrasonic_Sensor_Node/Ultrasonic_XMC1400_CAPTRUE/Libraries/XMCLib/inc\xmc_gpio.h ****  * Change History
  42:C:/GitHub/MobRob_Rover_NEW/Ultrasonic_Sensor_Node/Ultrasonic_XMC1400_CAPTRUE/Libraries/XMCLib/inc\xmc_gpio.h ****  * --------------
  43:C:/GitHub/MobRob_Rover_NEW/Ultrasonic_Sensor_Node/Ultrasonic_XMC1400_CAPTRUE/Libraries/XMCLib/inc\xmc_gpio.h ****  *
  44:C:/GitHub/MobRob_Rover_NEW/Ultrasonic_Sensor_Node/Ultrasonic_XMC1400_CAPTRUE/Libraries/XMCLib/inc\xmc_gpio.h ****  * 2015-02-20:
  45:C:/GitHub/MobRob_Rover_NEW/Ultrasonic_Sensor_Node/Ultrasonic_XMC1400_CAPTRUE/Libraries/XMCLib/inc\xmc_gpio.h ****  *     - Initial draft<br>
  46:C:/GitHub/MobRob_Rover_NEW/Ultrasonic_Sensor_Node/Ultrasonic_XMC1400_CAPTRUE/Libraries/XMCLib/inc\xmc_gpio.h ****  *     - Documentation improved <br>
  47:C:/GitHub/MobRob_Rover_NEW/Ultrasonic_Sensor_Node/Ultrasonic_XMC1400_CAPTRUE/Libraries/XMCLib/inc\xmc_gpio.h ****  *
  48:C:/GitHub/MobRob_Rover_NEW/Ultrasonic_Sensor_Node/Ultrasonic_XMC1400_CAPTRUE/Libraries/XMCLib/inc\xmc_gpio.h ****  * 2015-06-20:
  49:C:/GitHub/MobRob_Rover_NEW/Ultrasonic_Sensor_Node/Ultrasonic_XMC1400_CAPTRUE/Libraries/XMCLib/inc\xmc_gpio.h ****  *     - Removed version macros and declaration of GetDriverVersion API
  50:C:/GitHub/MobRob_Rover_NEW/Ultrasonic_Sensor_Node/Ultrasonic_XMC1400_CAPTRUE/Libraries/XMCLib/inc\xmc_gpio.h ****  *
  51:C:/GitHub/MobRob_Rover_NEW/Ultrasonic_Sensor_Node/Ultrasonic_XMC1400_CAPTRUE/Libraries/XMCLib/inc\xmc_gpio.h ****  * @endcond
  52:C:/GitHub/MobRob_Rover_NEW/Ultrasonic_Sensor_Node/Ultrasonic_XMC1400_CAPTRUE/Libraries/XMCLib/inc\xmc_gpio.h ****  *
  53:C:/GitHub/MobRob_Rover_NEW/Ultrasonic_Sensor_Node/Ultrasonic_XMC1400_CAPTRUE/Libraries/XMCLib/inc\xmc_gpio.h ****  */
  54:C:/GitHub/MobRob_Rover_NEW/Ultrasonic_Sensor_Node/Ultrasonic_XMC1400_CAPTRUE/Libraries/XMCLib/inc\xmc_gpio.h **** 
  55:C:/GitHub/MobRob_Rover_NEW/Ultrasonic_Sensor_Node/Ultrasonic_XMC1400_CAPTRUE/Libraries/XMCLib/inc\xmc_gpio.h **** #ifndef XMC_GPIO_H
  56:C:/GitHub/MobRob_Rover_NEW/Ultrasonic_Sensor_Node/Ultrasonic_XMC1400_CAPTRUE/Libraries/XMCLib/inc\xmc_gpio.h **** #define XMC_GPIO_H
  57:C:/GitHub/MobRob_Rover_NEW/Ultrasonic_Sensor_Node/Ultrasonic_XMC1400_CAPTRUE/Libraries/XMCLib/inc\xmc_gpio.h **** 
  58:C:/GitHub/MobRob_Rover_NEW/Ultrasonic_Sensor_Node/Ultrasonic_XMC1400_CAPTRUE/Libraries/XMCLib/inc\xmc_gpio.h **** /**************************************************************************************************
  59:C:/GitHub/MobRob_Rover_NEW/Ultrasonic_Sensor_Node/Ultrasonic_XMC1400_CAPTRUE/Libraries/XMCLib/inc\xmc_gpio.h ****  * HEADER FILES
  60:C:/GitHub/MobRob_Rover_NEW/Ultrasonic_Sensor_Node/Ultrasonic_XMC1400_CAPTRUE/Libraries/XMCLib/inc\xmc_gpio.h ****  **************************************************************************************************
  61:C:/GitHub/MobRob_Rover_NEW/Ultrasonic_Sensor_Node/Ultrasonic_XMC1400_CAPTRUE/Libraries/XMCLib/inc\xmc_gpio.h **** 
  62:C:/GitHub/MobRob_Rover_NEW/Ultrasonic_Sensor_Node/Ultrasonic_XMC1400_CAPTRUE/Libraries/XMCLib/inc\xmc_gpio.h **** #include "xmc_common.h"
  63:C:/GitHub/MobRob_Rover_NEW/Ultrasonic_Sensor_Node/Ultrasonic_XMC1400_CAPTRUE/Libraries/XMCLib/inc\xmc_gpio.h **** 
  64:C:/GitHub/MobRob_Rover_NEW/Ultrasonic_Sensor_Node/Ultrasonic_XMC1400_CAPTRUE/Libraries/XMCLib/inc\xmc_gpio.h **** /**
  65:C:/GitHub/MobRob_Rover_NEW/Ultrasonic_Sensor_Node/Ultrasonic_XMC1400_CAPTRUE/Libraries/XMCLib/inc\xmc_gpio.h ****  * @addtogroup XMClib XMC Peripheral Library
  66:C:/GitHub/MobRob_Rover_NEW/Ultrasonic_Sensor_Node/Ultrasonic_XMC1400_CAPTRUE/Libraries/XMCLib/inc\xmc_gpio.h ****  * @{
  67:C:/GitHub/MobRob_Rover_NEW/Ultrasonic_Sensor_Node/Ultrasonic_XMC1400_CAPTRUE/Libraries/XMCLib/inc\xmc_gpio.h ****  */
  68:C:/GitHub/MobRob_Rover_NEW/Ultrasonic_Sensor_Node/Ultrasonic_XMC1400_CAPTRUE/Libraries/XMCLib/inc\xmc_gpio.h **** 
  69:C:/GitHub/MobRob_Rover_NEW/Ultrasonic_Sensor_Node/Ultrasonic_XMC1400_CAPTRUE/Libraries/XMCLib/inc\xmc_gpio.h **** /**
  70:C:/GitHub/MobRob_Rover_NEW/Ultrasonic_Sensor_Node/Ultrasonic_XMC1400_CAPTRUE/Libraries/XMCLib/inc\xmc_gpio.h ****  * @addtogroup GPIO
  71:C:/GitHub/MobRob_Rover_NEW/Ultrasonic_Sensor_Node/Ultrasonic_XMC1400_CAPTRUE/Libraries/XMCLib/inc\xmc_gpio.h ****  * @brief General Purpose Input Output (GPIO) driver for the XMC microcontroller family.
  72:C:/GitHub/MobRob_Rover_NEW/Ultrasonic_Sensor_Node/Ultrasonic_XMC1400_CAPTRUE/Libraries/XMCLib/inc\xmc_gpio.h ****  *
  73:C:/GitHub/MobRob_Rover_NEW/Ultrasonic_Sensor_Node/Ultrasonic_XMC1400_CAPTRUE/Libraries/XMCLib/inc\xmc_gpio.h ****  * GPIO driver provide a generic and very flexible software interface for all standard digital I/O 
  74:C:/GitHub/MobRob_Rover_NEW/Ultrasonic_Sensor_Node/Ultrasonic_XMC1400_CAPTRUE/Libraries/XMCLib/inc\xmc_gpio.h ****  * Each port slice has individual interfaces for the operation as General Purpose I/O and it furthe
  75:C:/GitHub/MobRob_Rover_NEW/Ultrasonic_Sensor_Node/Ultrasonic_XMC1400_CAPTRUE/Libraries/XMCLib/inc\xmc_gpio.h ****  * connectivity to the on-chip periphery and the control for the pad characteristics.
  76:C:/GitHub/MobRob_Rover_NEW/Ultrasonic_Sensor_Node/Ultrasonic_XMC1400_CAPTRUE/Libraries/XMCLib/inc\xmc_gpio.h ****  *
  77:C:/GitHub/MobRob_Rover_NEW/Ultrasonic_Sensor_Node/Ultrasonic_XMC1400_CAPTRUE/Libraries/XMCLib/inc\xmc_gpio.h ****  * The driver is divided into Input and Output mode.
  78:C:/GitHub/MobRob_Rover_NEW/Ultrasonic_Sensor_Node/Ultrasonic_XMC1400_CAPTRUE/Libraries/XMCLib/inc\xmc_gpio.h ****  *
  79:C:/GitHub/MobRob_Rover_NEW/Ultrasonic_Sensor_Node/Ultrasonic_XMC1400_CAPTRUE/Libraries/XMCLib/inc\xmc_gpio.h ****  * Input mode features:
  80:C:/GitHub/MobRob_Rover_NEW/Ultrasonic_Sensor_Node/Ultrasonic_XMC1400_CAPTRUE/Libraries/XMCLib/inc\xmc_gpio.h ****  * -# Configuration structure XMC_GPIO_CONFIG_t and initialization function XMC_GPIO_Init()
  81:C:/GitHub/MobRob_Rover_NEW/Ultrasonic_Sensor_Node/Ultrasonic_XMC1400_CAPTRUE/Libraries/XMCLib/inc\xmc_gpio.h ****  * -# Allows the selection of weak pull-up or pull-down device. Configuration structure XMC_GPIO_MO
  82:C:/GitHub/MobRob_Rover_NEW/Ultrasonic_Sensor_Node/Ultrasonic_XMC1400_CAPTRUE/Libraries/XMCLib/inc\xmc_gpio.h ****  * \if XMC1
  83:C:/GitHub/MobRob_Rover_NEW/Ultrasonic_Sensor_Node/Ultrasonic_XMC1400_CAPTRUE/Libraries/XMCLib/inc\xmc_gpio.h ****  * -# Allows the selection of input hysteresis. XMC_GPIO_SetInputHysteresis()
  84:C:/GitHub/MobRob_Rover_NEW/Ultrasonic_Sensor_Node/Ultrasonic_XMC1400_CAPTRUE/Libraries/XMCLib/inc\xmc_gpio.h ****  * \endif
  85:C:/GitHub/MobRob_Rover_NEW/Ultrasonic_Sensor_Node/Ultrasonic_XMC1400_CAPTRUE/Libraries/XMCLib/inc\xmc_gpio.h ****  *
  86:C:/GitHub/MobRob_Rover_NEW/Ultrasonic_Sensor_Node/Ultrasonic_XMC1400_CAPTRUE/Libraries/XMCLib/inc\xmc_gpio.h ****  *
  87:C:/GitHub/MobRob_Rover_NEW/Ultrasonic_Sensor_Node/Ultrasonic_XMC1400_CAPTRUE/Libraries/XMCLib/inc\xmc_gpio.h ****  * Output mode features:
  88:C:/GitHub/MobRob_Rover_NEW/Ultrasonic_Sensor_Node/Ultrasonic_XMC1400_CAPTRUE/Libraries/XMCLib/inc\xmc_gpio.h ****  * -# Allows the selection of push pull/open drain and Alternate output. Configuration structure XM
  89:C:/GitHub/MobRob_Rover_NEW/Ultrasonic_Sensor_Node/Ultrasonic_XMC1400_CAPTRUE/Libraries/XMCLib/inc\xmc_gpio.h ****  * \if XMC4
  90:C:/GitHub/MobRob_Rover_NEW/Ultrasonic_Sensor_Node/Ultrasonic_XMC1400_CAPTRUE/Libraries/XMCLib/inc\xmc_gpio.h ****  * -# Allows the selection of pad driver strength. Configuration structure XMC_GPIO_OUTPUT_STRENGTH
  91:C:/GitHub/MobRob_Rover_NEW/Ultrasonic_Sensor_Node/Ultrasonic_XMC1400_CAPTRUE/Libraries/XMCLib/inc\xmc_gpio.h ****  * \endif
  92:C:/GitHub/MobRob_Rover_NEW/Ultrasonic_Sensor_Node/Ultrasonic_XMC1400_CAPTRUE/Libraries/XMCLib/inc\xmc_gpio.h ****  *
  93:C:/GitHub/MobRob_Rover_NEW/Ultrasonic_Sensor_Node/Ultrasonic_XMC1400_CAPTRUE/Libraries/XMCLib/inc\xmc_gpio.h ****  * -# Allows the selection of initial output level. Configuration structure XMC_GPIO_OUTPUT_LEVEL_t
  94:C:/GitHub/MobRob_Rover_NEW/Ultrasonic_Sensor_Node/Ultrasonic_XMC1400_CAPTRUE/Libraries/XMCLib/inc\xmc_gpio.h ****  *
  95:C:/GitHub/MobRob_Rover_NEW/Ultrasonic_Sensor_Node/Ultrasonic_XMC1400_CAPTRUE/Libraries/XMCLib/inc\xmc_gpio.h ****  *@{
  96:C:/GitHub/MobRob_Rover_NEW/Ultrasonic_Sensor_Node/Ultrasonic_XMC1400_CAPTRUE/Libraries/XMCLib/inc\xmc_gpio.h ****  */
  97:C:/GitHub/MobRob_Rover_NEW/Ultrasonic_Sensor_Node/Ultrasonic_XMC1400_CAPTRUE/Libraries/XMCLib/inc\xmc_gpio.h **** 
  98:C:/GitHub/MobRob_Rover_NEW/Ultrasonic_Sensor_Node/Ultrasonic_XMC1400_CAPTRUE/Libraries/XMCLib/inc\xmc_gpio.h **** /**************************************************************************************************
  99:C:/GitHub/MobRob_Rover_NEW/Ultrasonic_Sensor_Node/Ultrasonic_XMC1400_CAPTRUE/Libraries/XMCLib/inc\xmc_gpio.h ****  * MACROS
 100:C:/GitHub/MobRob_Rover_NEW/Ultrasonic_Sensor_Node/Ultrasonic_XMC1400_CAPTRUE/Libraries/XMCLib/inc\xmc_gpio.h ****  **************************************************************************************************
 101:C:/GitHub/MobRob_Rover_NEW/Ultrasonic_Sensor_Node/Ultrasonic_XMC1400_CAPTRUE/Libraries/XMCLib/inc\xmc_gpio.h **** 
 102:C:/GitHub/MobRob_Rover_NEW/Ultrasonic_Sensor_Node/Ultrasonic_XMC1400_CAPTRUE/Libraries/XMCLib/inc\xmc_gpio.h **** #define PORT_IOCR_PC_Pos PORT0_IOCR0_PC0_Pos
 103:C:/GitHub/MobRob_Rover_NEW/Ultrasonic_Sensor_Node/Ultrasonic_XMC1400_CAPTRUE/Libraries/XMCLib/inc\xmc_gpio.h **** #define PORT_IOCR_PC_Msk PORT0_IOCR0_PC0_Msk
 104:C:/GitHub/MobRob_Rover_NEW/Ultrasonic_Sensor_Node/Ultrasonic_XMC1400_CAPTRUE/Libraries/XMCLib/inc\xmc_gpio.h **** 
 105:C:/GitHub/MobRob_Rover_NEW/Ultrasonic_Sensor_Node/Ultrasonic_XMC1400_CAPTRUE/Libraries/XMCLib/inc\xmc_gpio.h **** #define PORT_IOCR_PC_Size 				(8U)
 106:C:/GitHub/MobRob_Rover_NEW/Ultrasonic_Sensor_Node/Ultrasonic_XMC1400_CAPTRUE/Libraries/XMCLib/inc\xmc_gpio.h **** 
 107:C:/GitHub/MobRob_Rover_NEW/Ultrasonic_Sensor_Node/Ultrasonic_XMC1400_CAPTRUE/Libraries/XMCLib/inc\xmc_gpio.h **** 
 108:C:/GitHub/MobRob_Rover_NEW/Ultrasonic_Sensor_Node/Ultrasonic_XMC1400_CAPTRUE/Libraries/XMCLib/inc\xmc_gpio.h **** #define XMC_GPIO_CHECK_OUTPUT_LEVEL(level) ((level == XMC_GPIO_OUTPUT_LEVEL_LOW) || \
 109:C:/GitHub/MobRob_Rover_NEW/Ultrasonic_Sensor_Node/Ultrasonic_XMC1400_CAPTRUE/Libraries/XMCLib/inc\xmc_gpio.h ****                                             (level == XMC_GPIO_OUTPUT_LEVEL_HIGH))
 110:C:/GitHub/MobRob_Rover_NEW/Ultrasonic_Sensor_Node/Ultrasonic_XMC1400_CAPTRUE/Libraries/XMCLib/inc\xmc_gpio.h **** 
 111:C:/GitHub/MobRob_Rover_NEW/Ultrasonic_Sensor_Node/Ultrasonic_XMC1400_CAPTRUE/Libraries/XMCLib/inc\xmc_gpio.h **** #define XMC_GPIO_CHECK_HWCTRL(hwctrl) ((hwctrl == XMC_GPIO_HWCTRL_DISABLED) || \
 112:C:/GitHub/MobRob_Rover_NEW/Ultrasonic_Sensor_Node/Ultrasonic_XMC1400_CAPTRUE/Libraries/XMCLib/inc\xmc_gpio.h ****                                        (hwctrl == XMC_GPIO_HWCTRL_PERIPHERAL1) || \
 113:C:/GitHub/MobRob_Rover_NEW/Ultrasonic_Sensor_Node/Ultrasonic_XMC1400_CAPTRUE/Libraries/XMCLib/inc\xmc_gpio.h ****                                        (hwctrl == XMC_GPIO_HWCTRL_PERIPHERAL2))
 114:C:/GitHub/MobRob_Rover_NEW/Ultrasonic_Sensor_Node/Ultrasonic_XMC1400_CAPTRUE/Libraries/XMCLib/inc\xmc_gpio.h **** 
 115:C:/GitHub/MobRob_Rover_NEW/Ultrasonic_Sensor_Node/Ultrasonic_XMC1400_CAPTRUE/Libraries/XMCLib/inc\xmc_gpio.h **** /**************************************************************************************************
 116:C:/GitHub/MobRob_Rover_NEW/Ultrasonic_Sensor_Node/Ultrasonic_XMC1400_CAPTRUE/Libraries/XMCLib/inc\xmc_gpio.h ****  * ENUMS
 117:C:/GitHub/MobRob_Rover_NEW/Ultrasonic_Sensor_Node/Ultrasonic_XMC1400_CAPTRUE/Libraries/XMCLib/inc\xmc_gpio.h ****  **************************************************************************************************
 118:C:/GitHub/MobRob_Rover_NEW/Ultrasonic_Sensor_Node/Ultrasonic_XMC1400_CAPTRUE/Libraries/XMCLib/inc\xmc_gpio.h **** 
 119:C:/GitHub/MobRob_Rover_NEW/Ultrasonic_Sensor_Node/Ultrasonic_XMC1400_CAPTRUE/Libraries/XMCLib/inc\xmc_gpio.h **** 
 120:C:/GitHub/MobRob_Rover_NEW/Ultrasonic_Sensor_Node/Ultrasonic_XMC1400_CAPTRUE/Libraries/XMCLib/inc\xmc_gpio.h **** /**
 121:C:/GitHub/MobRob_Rover_NEW/Ultrasonic_Sensor_Node/Ultrasonic_XMC1400_CAPTRUE/Libraries/XMCLib/inc\xmc_gpio.h ****  * Defines output level of a pin. Use type \a XMC_GPIO_OUTPUT_LEVEL_t for this enum.
 122:C:/GitHub/MobRob_Rover_NEW/Ultrasonic_Sensor_Node/Ultrasonic_XMC1400_CAPTRUE/Libraries/XMCLib/inc\xmc_gpio.h ****  */
 123:C:/GitHub/MobRob_Rover_NEW/Ultrasonic_Sensor_Node/Ultrasonic_XMC1400_CAPTRUE/Libraries/XMCLib/inc\xmc_gpio.h **** typedef enum XMC_GPIO_OUTPUT_LEVEL
 124:C:/GitHub/MobRob_Rover_NEW/Ultrasonic_Sensor_Node/Ultrasonic_XMC1400_CAPTRUE/Libraries/XMCLib/inc\xmc_gpio.h **** {
 125:C:/GitHub/MobRob_Rover_NEW/Ultrasonic_Sensor_Node/Ultrasonic_XMC1400_CAPTRUE/Libraries/XMCLib/inc\xmc_gpio.h ****   XMC_GPIO_OUTPUT_LEVEL_LOW  = 0x10000U, /**<  Reset bit */
 126:C:/GitHub/MobRob_Rover_NEW/Ultrasonic_Sensor_Node/Ultrasonic_XMC1400_CAPTRUE/Libraries/XMCLib/inc\xmc_gpio.h ****   XMC_GPIO_OUTPUT_LEVEL_HIGH = 0x1U, 	/**< Set bit  */
 127:C:/GitHub/MobRob_Rover_NEW/Ultrasonic_Sensor_Node/Ultrasonic_XMC1400_CAPTRUE/Libraries/XMCLib/inc\xmc_gpio.h **** } XMC_GPIO_OUTPUT_LEVEL_t;
 128:C:/GitHub/MobRob_Rover_NEW/Ultrasonic_Sensor_Node/Ultrasonic_XMC1400_CAPTRUE/Libraries/XMCLib/inc\xmc_gpio.h **** 
 129:C:/GitHub/MobRob_Rover_NEW/Ultrasonic_Sensor_Node/Ultrasonic_XMC1400_CAPTRUE/Libraries/XMCLib/inc\xmc_gpio.h **** /**
 130:C:/GitHub/MobRob_Rover_NEW/Ultrasonic_Sensor_Node/Ultrasonic_XMC1400_CAPTRUE/Libraries/XMCLib/inc\xmc_gpio.h ****  * Defines direct hardware control characteristics of the pin . Use type \a XMC_GPIO_HWCTRL_t for t
 131:C:/GitHub/MobRob_Rover_NEW/Ultrasonic_Sensor_Node/Ultrasonic_XMC1400_CAPTRUE/Libraries/XMCLib/inc\xmc_gpio.h ****  */
 132:C:/GitHub/MobRob_Rover_NEW/Ultrasonic_Sensor_Node/Ultrasonic_XMC1400_CAPTRUE/Libraries/XMCLib/inc\xmc_gpio.h **** typedef enum XMC_GPIO_HWCTRL
 133:C:/GitHub/MobRob_Rover_NEW/Ultrasonic_Sensor_Node/Ultrasonic_XMC1400_CAPTRUE/Libraries/XMCLib/inc\xmc_gpio.h **** {
 134:C:/GitHub/MobRob_Rover_NEW/Ultrasonic_Sensor_Node/Ultrasonic_XMC1400_CAPTRUE/Libraries/XMCLib/inc\xmc_gpio.h ****   XMC_GPIO_HWCTRL_DISABLED     = 0x0U, /**<  Software control only */
 135:C:/GitHub/MobRob_Rover_NEW/Ultrasonic_Sensor_Node/Ultrasonic_XMC1400_CAPTRUE/Libraries/XMCLib/inc\xmc_gpio.h ****   XMC_GPIO_HWCTRL_PERIPHERAL1  = 0x1U, /**<  HWI0/HWO0 control path can override the software confi
 136:C:/GitHub/MobRob_Rover_NEW/Ultrasonic_Sensor_Node/Ultrasonic_XMC1400_CAPTRUE/Libraries/XMCLib/inc\xmc_gpio.h ****   XMC_GPIO_HWCTRL_PERIPHERAL2  = 0x2U  /**<  HWI1/HWO1 control path can override the software confi
 137:C:/GitHub/MobRob_Rover_NEW/Ultrasonic_Sensor_Node/Ultrasonic_XMC1400_CAPTRUE/Libraries/XMCLib/inc\xmc_gpio.h **** } XMC_GPIO_HWCTRL_t;
 138:C:/GitHub/MobRob_Rover_NEW/Ultrasonic_Sensor_Node/Ultrasonic_XMC1400_CAPTRUE/Libraries/XMCLib/inc\xmc_gpio.h **** 
 139:C:/GitHub/MobRob_Rover_NEW/Ultrasonic_Sensor_Node/Ultrasonic_XMC1400_CAPTRUE/Libraries/XMCLib/inc\xmc_gpio.h **** /**************************************************************************************************
 140:C:/GitHub/MobRob_Rover_NEW/Ultrasonic_Sensor_Node/Ultrasonic_XMC1400_CAPTRUE/Libraries/XMCLib/inc\xmc_gpio.h ****  * DEVICE FAMILY EXTENSIONS
 141:C:/GitHub/MobRob_Rover_NEW/Ultrasonic_Sensor_Node/Ultrasonic_XMC1400_CAPTRUE/Libraries/XMCLib/inc\xmc_gpio.h ****  **************************************************************************************************
 142:C:/GitHub/MobRob_Rover_NEW/Ultrasonic_Sensor_Node/Ultrasonic_XMC1400_CAPTRUE/Libraries/XMCLib/inc\xmc_gpio.h **** 
 143:C:/GitHub/MobRob_Rover_NEW/Ultrasonic_Sensor_Node/Ultrasonic_XMC1400_CAPTRUE/Libraries/XMCLib/inc\xmc_gpio.h **** #if UC_FAMILY == XMC1
 144:C:/GitHub/MobRob_Rover_NEW/Ultrasonic_Sensor_Node/Ultrasonic_XMC1400_CAPTRUE/Libraries/XMCLib/inc\xmc_gpio.h **** #include "xmc1_gpio.h"
 145:C:/GitHub/MobRob_Rover_NEW/Ultrasonic_Sensor_Node/Ultrasonic_XMC1400_CAPTRUE/Libraries/XMCLib/inc\xmc_gpio.h **** #elif UC_FAMILY == XMC4
 146:C:/GitHub/MobRob_Rover_NEW/Ultrasonic_Sensor_Node/Ultrasonic_XMC1400_CAPTRUE/Libraries/XMCLib/inc\xmc_gpio.h **** #include "xmc4_gpio.h"
 147:C:/GitHub/MobRob_Rover_NEW/Ultrasonic_Sensor_Node/Ultrasonic_XMC1400_CAPTRUE/Libraries/XMCLib/inc\xmc_gpio.h **** #else
 148:C:/GitHub/MobRob_Rover_NEW/Ultrasonic_Sensor_Node/Ultrasonic_XMC1400_CAPTRUE/Libraries/XMCLib/inc\xmc_gpio.h **** #error "xmc_gpio.h: family device not supported"
 149:C:/GitHub/MobRob_Rover_NEW/Ultrasonic_Sensor_Node/Ultrasonic_XMC1400_CAPTRUE/Libraries/XMCLib/inc\xmc_gpio.h **** #endif
 150:C:/GitHub/MobRob_Rover_NEW/Ultrasonic_Sensor_Node/Ultrasonic_XMC1400_CAPTRUE/Libraries/XMCLib/inc\xmc_gpio.h **** 
 151:C:/GitHub/MobRob_Rover_NEW/Ultrasonic_Sensor_Node/Ultrasonic_XMC1400_CAPTRUE/Libraries/XMCLib/inc\xmc_gpio.h **** /**************************************************************************************************
 152:C:/GitHub/MobRob_Rover_NEW/Ultrasonic_Sensor_Node/Ultrasonic_XMC1400_CAPTRUE/Libraries/XMCLib/inc\xmc_gpio.h ****  * API PROTOTYPES
 153:C:/GitHub/MobRob_Rover_NEW/Ultrasonic_Sensor_Node/Ultrasonic_XMC1400_CAPTRUE/Libraries/XMCLib/inc\xmc_gpio.h ****  **************************************************************************************************
 154:C:/GitHub/MobRob_Rover_NEW/Ultrasonic_Sensor_Node/Ultrasonic_XMC1400_CAPTRUE/Libraries/XMCLib/inc\xmc_gpio.h **** 
 155:C:/GitHub/MobRob_Rover_NEW/Ultrasonic_Sensor_Node/Ultrasonic_XMC1400_CAPTRUE/Libraries/XMCLib/inc\xmc_gpio.h **** #ifdef __cplusplus
 156:C:/GitHub/MobRob_Rover_NEW/Ultrasonic_Sensor_Node/Ultrasonic_XMC1400_CAPTRUE/Libraries/XMCLib/inc\xmc_gpio.h **** extern "C" {
 157:C:/GitHub/MobRob_Rover_NEW/Ultrasonic_Sensor_Node/Ultrasonic_XMC1400_CAPTRUE/Libraries/XMCLib/inc\xmc_gpio.h **** #endif
 158:C:/GitHub/MobRob_Rover_NEW/Ultrasonic_Sensor_Node/Ultrasonic_XMC1400_CAPTRUE/Libraries/XMCLib/inc\xmc_gpio.h **** 
 159:C:/GitHub/MobRob_Rover_NEW/Ultrasonic_Sensor_Node/Ultrasonic_XMC1400_CAPTRUE/Libraries/XMCLib/inc\xmc_gpio.h **** 
 160:C:/GitHub/MobRob_Rover_NEW/Ultrasonic_Sensor_Node/Ultrasonic_XMC1400_CAPTRUE/Libraries/XMCLib/inc\xmc_gpio.h **** /**
 161:C:/GitHub/MobRob_Rover_NEW/Ultrasonic_Sensor_Node/Ultrasonic_XMC1400_CAPTRUE/Libraries/XMCLib/inc\xmc_gpio.h ****  * @param  port	  Constant pointer pointing to GPIO port, to access port registers like Pn_OUT,Pn_O
 162:C:/GitHub/MobRob_Rover_NEW/Ultrasonic_Sensor_Node/Ultrasonic_XMC1400_CAPTRUE/Libraries/XMCLib/inc\xmc_gpio.h ****  * @param  pin	  Port pin number.
 163:C:/GitHub/MobRob_Rover_NEW/Ultrasonic_Sensor_Node/Ultrasonic_XMC1400_CAPTRUE/Libraries/XMCLib/inc\xmc_gpio.h ****  * @param  config GPIO configuration data structure. Refer data structure @ref XMC_GPIO_CONFIG_t fo
 164:C:/GitHub/MobRob_Rover_NEW/Ultrasonic_Sensor_Node/Ultrasonic_XMC1400_CAPTRUE/Libraries/XMCLib/inc\xmc_gpio.h ****  *
 165:C:/GitHub/MobRob_Rover_NEW/Ultrasonic_Sensor_Node/Ultrasonic_XMC1400_CAPTRUE/Libraries/XMCLib/inc\xmc_gpio.h ****  * @return None
 166:C:/GitHub/MobRob_Rover_NEW/Ultrasonic_Sensor_Node/Ultrasonic_XMC1400_CAPTRUE/Libraries/XMCLib/inc\xmc_gpio.h ****  *
 167:C:/GitHub/MobRob_Rover_NEW/Ultrasonic_Sensor_Node/Ultrasonic_XMC1400_CAPTRUE/Libraries/XMCLib/inc\xmc_gpio.h ****  * \par<b>Description:</b><br>
 168:C:/GitHub/MobRob_Rover_NEW/Ultrasonic_Sensor_Node/Ultrasonic_XMC1400_CAPTRUE/Libraries/XMCLib/inc\xmc_gpio.h ****  * \if XMC1
 169:C:/GitHub/MobRob_Rover_NEW/Ultrasonic_Sensor_Node/Ultrasonic_XMC1400_CAPTRUE/Libraries/XMCLib/inc\xmc_gpio.h ****  * Initializes input / output mode settings like, pull up / pull down devices,hysteresis, push pull
 170:C:/GitHub/MobRob_Rover_NEW/Ultrasonic_Sensor_Node/Ultrasonic_XMC1400_CAPTRUE/Libraries/XMCLib/inc\xmc_gpio.h ****  * Also configures alternate function outputs and clears hardware port control for a selected \a po
 171:C:/GitHub/MobRob_Rover_NEW/Ultrasonic_Sensor_Node/Ultrasonic_XMC1400_CAPTRUE/Libraries/XMCLib/inc\xmc_gpio.h ****  * \a config provides selected I/O settings. It configures hardware registers Pn_IOCR,Pn_OUT, Pn_OM
 172:C:/GitHub/MobRob_Rover_NEW/Ultrasonic_Sensor_Node/Ultrasonic_XMC1400_CAPTRUE/Libraries/XMCLib/inc\xmc_gpio.h ****  * \endif
 173:C:/GitHub/MobRob_Rover_NEW/Ultrasonic_Sensor_Node/Ultrasonic_XMC1400_CAPTRUE/Libraries/XMCLib/inc\xmc_gpio.h ****  * \if XMC4
 174:C:/GitHub/MobRob_Rover_NEW/Ultrasonic_Sensor_Node/Ultrasonic_XMC1400_CAPTRUE/Libraries/XMCLib/inc\xmc_gpio.h ****  * Initializes input / output mode settings like, pull up / pull down devices,push pull /open drain
 175:C:/GitHub/MobRob_Rover_NEW/Ultrasonic_Sensor_Node/Ultrasonic_XMC1400_CAPTRUE/Libraries/XMCLib/inc\xmc_gpio.h ****  * Also configures alternate function outputs and clears hardware port control for selected \a port
 176:C:/GitHub/MobRob_Rover_NEW/Ultrasonic_Sensor_Node/Ultrasonic_XMC1400_CAPTRUE/Libraries/XMCLib/inc\xmc_gpio.h ****  * It configures hardware registers Pn_IOCR,Pn_OUT,Pn_OMR,Pn_PDISC and Pn_PDR.\n
 177:C:/GitHub/MobRob_Rover_NEW/Ultrasonic_Sensor_Node/Ultrasonic_XMC1400_CAPTRUE/Libraries/XMCLib/inc\xmc_gpio.h ****  * \endif
 178:C:/GitHub/MobRob_Rover_NEW/Ultrasonic_Sensor_Node/Ultrasonic_XMC1400_CAPTRUE/Libraries/XMCLib/inc\xmc_gpio.h ****  *
 179:C:/GitHub/MobRob_Rover_NEW/Ultrasonic_Sensor_Node/Ultrasonic_XMC1400_CAPTRUE/Libraries/XMCLib/inc\xmc_gpio.h ****  * \par<b>Related APIs:</b><BR>
 180:C:/GitHub/MobRob_Rover_NEW/Ultrasonic_Sensor_Node/Ultrasonic_XMC1400_CAPTRUE/Libraries/XMCLib/inc\xmc_gpio.h ****  *  None
 181:C:/GitHub/MobRob_Rover_NEW/Ultrasonic_Sensor_Node/Ultrasonic_XMC1400_CAPTRUE/Libraries/XMCLib/inc\xmc_gpio.h ****  *
 182:C:/GitHub/MobRob_Rover_NEW/Ultrasonic_Sensor_Node/Ultrasonic_XMC1400_CAPTRUE/Libraries/XMCLib/inc\xmc_gpio.h ****  * \par<b>Note:</b><br>
 183:C:/GitHub/MobRob_Rover_NEW/Ultrasonic_Sensor_Node/Ultrasonic_XMC1400_CAPTRUE/Libraries/XMCLib/inc\xmc_gpio.h ****  * This API is called in definition of DAVE_init by code generation and therefore should not be exp
 184:C:/GitHub/MobRob_Rover_NEW/Ultrasonic_Sensor_Node/Ultrasonic_XMC1400_CAPTRUE/Libraries/XMCLib/inc\xmc_gpio.h ****  * for the normal operation. Use other APIs only after DAVE_init is called successfully (returns DA
 185:C:/GitHub/MobRob_Rover_NEW/Ultrasonic_Sensor_Node/Ultrasonic_XMC1400_CAPTRUE/Libraries/XMCLib/inc\xmc_gpio.h ****  *
 186:C:/GitHub/MobRob_Rover_NEW/Ultrasonic_Sensor_Node/Ultrasonic_XMC1400_CAPTRUE/Libraries/XMCLib/inc\xmc_gpio.h ****  *
 187:C:/GitHub/MobRob_Rover_NEW/Ultrasonic_Sensor_Node/Ultrasonic_XMC1400_CAPTRUE/Libraries/XMCLib/inc\xmc_gpio.h ****  */
 188:C:/GitHub/MobRob_Rover_NEW/Ultrasonic_Sensor_Node/Ultrasonic_XMC1400_CAPTRUE/Libraries/XMCLib/inc\xmc_gpio.h **** 
 189:C:/GitHub/MobRob_Rover_NEW/Ultrasonic_Sensor_Node/Ultrasonic_XMC1400_CAPTRUE/Libraries/XMCLib/inc\xmc_gpio.h **** 
 190:C:/GitHub/MobRob_Rover_NEW/Ultrasonic_Sensor_Node/Ultrasonic_XMC1400_CAPTRUE/Libraries/XMCLib/inc\xmc_gpio.h **** void XMC_GPIO_Init(XMC_GPIO_PORT_t *const port, const uint8_t pin, const XMC_GPIO_CONFIG_t *const c
 191:C:/GitHub/MobRob_Rover_NEW/Ultrasonic_Sensor_Node/Ultrasonic_XMC1400_CAPTRUE/Libraries/XMCLib/inc\xmc_gpio.h **** 
 192:C:/GitHub/MobRob_Rover_NEW/Ultrasonic_Sensor_Node/Ultrasonic_XMC1400_CAPTRUE/Libraries/XMCLib/inc\xmc_gpio.h **** /**
 193:C:/GitHub/MobRob_Rover_NEW/Ultrasonic_Sensor_Node/Ultrasonic_XMC1400_CAPTRUE/Libraries/XMCLib/inc\xmc_gpio.h ****  *
 194:C:/GitHub/MobRob_Rover_NEW/Ultrasonic_Sensor_Node/Ultrasonic_XMC1400_CAPTRUE/Libraries/XMCLib/inc\xmc_gpio.h ****  * @param  port	Constant pointer pointing to GPIO port, to access hardware register Pn_IOCR.
 195:C:/GitHub/MobRob_Rover_NEW/Ultrasonic_Sensor_Node/Ultrasonic_XMC1400_CAPTRUE/Libraries/XMCLib/inc\xmc_gpio.h ****  * @param  pin	Port pin number.
 196:C:/GitHub/MobRob_Rover_NEW/Ultrasonic_Sensor_Node/Ultrasonic_XMC1400_CAPTRUE/Libraries/XMCLib/inc\xmc_gpio.h ****  * @param  mode input / output functionality selection. Refer @ref XMC_GPIO_MODE_t for valid values
 197:C:/GitHub/MobRob_Rover_NEW/Ultrasonic_Sensor_Node/Ultrasonic_XMC1400_CAPTRUE/Libraries/XMCLib/inc\xmc_gpio.h ****  *
 198:C:/GitHub/MobRob_Rover_NEW/Ultrasonic_Sensor_Node/Ultrasonic_XMC1400_CAPTRUE/Libraries/XMCLib/inc\xmc_gpio.h ****  * @return None
 199:C:/GitHub/MobRob_Rover_NEW/Ultrasonic_Sensor_Node/Ultrasonic_XMC1400_CAPTRUE/Libraries/XMCLib/inc\xmc_gpio.h ****  *
 200:C:/GitHub/MobRob_Rover_NEW/Ultrasonic_Sensor_Node/Ultrasonic_XMC1400_CAPTRUE/Libraries/XMCLib/inc\xmc_gpio.h ****  * \par<b>Description:</b><br>
 201:C:/GitHub/MobRob_Rover_NEW/Ultrasonic_Sensor_Node/Ultrasonic_XMC1400_CAPTRUE/Libraries/XMCLib/inc\xmc_gpio.h ****  * Sets digital input and output driver functionality and characteristics of a GPIO port pin. It co
 202:C:/GitHub/MobRob_Rover_NEW/Ultrasonic_Sensor_Node/Ultrasonic_XMC1400_CAPTRUE/Libraries/XMCLib/inc\xmc_gpio.h ****  * registers Pn_IOCR. \a mode is initially configured during initialization in XMC_GPIO_Init(). Cal
 203:C:/GitHub/MobRob_Rover_NEW/Ultrasonic_Sensor_Node/Ultrasonic_XMC1400_CAPTRUE/Libraries/XMCLib/inc\xmc_gpio.h ****  * the port direction functionality as needed later in the program.
 204:C:/GitHub/MobRob_Rover_NEW/Ultrasonic_Sensor_Node/Ultrasonic_XMC1400_CAPTRUE/Libraries/XMCLib/inc\xmc_gpio.h ****  *
 205:C:/GitHub/MobRob_Rover_NEW/Ultrasonic_Sensor_Node/Ultrasonic_XMC1400_CAPTRUE/Libraries/XMCLib/inc\xmc_gpio.h ****  * \par<b>Related APIs:</b><BR>
 206:C:/GitHub/MobRob_Rover_NEW/Ultrasonic_Sensor_Node/Ultrasonic_XMC1400_CAPTRUE/Libraries/XMCLib/inc\xmc_gpio.h ****  *  None
 207:C:/GitHub/MobRob_Rover_NEW/Ultrasonic_Sensor_Node/Ultrasonic_XMC1400_CAPTRUE/Libraries/XMCLib/inc\xmc_gpio.h ****  *
 208:C:/GitHub/MobRob_Rover_NEW/Ultrasonic_Sensor_Node/Ultrasonic_XMC1400_CAPTRUE/Libraries/XMCLib/inc\xmc_gpio.h ****  */
 209:C:/GitHub/MobRob_Rover_NEW/Ultrasonic_Sensor_Node/Ultrasonic_XMC1400_CAPTRUE/Libraries/XMCLib/inc\xmc_gpio.h **** 
 210:C:/GitHub/MobRob_Rover_NEW/Ultrasonic_Sensor_Node/Ultrasonic_XMC1400_CAPTRUE/Libraries/XMCLib/inc\xmc_gpio.h **** void XMC_GPIO_SetMode(XMC_GPIO_PORT_t *const port, const uint8_t pin, const XMC_GPIO_MODE_t mode);
 211:C:/GitHub/MobRob_Rover_NEW/Ultrasonic_Sensor_Node/Ultrasonic_XMC1400_CAPTRUE/Libraries/XMCLib/inc\xmc_gpio.h **** 
 212:C:/GitHub/MobRob_Rover_NEW/Ultrasonic_Sensor_Node/Ultrasonic_XMC1400_CAPTRUE/Libraries/XMCLib/inc\xmc_gpio.h **** 
 213:C:/GitHub/MobRob_Rover_NEW/Ultrasonic_Sensor_Node/Ultrasonic_XMC1400_CAPTRUE/Libraries/XMCLib/inc\xmc_gpio.h **** /**
 214:C:/GitHub/MobRob_Rover_NEW/Ultrasonic_Sensor_Node/Ultrasonic_XMC1400_CAPTRUE/Libraries/XMCLib/inc\xmc_gpio.h ****  *
 215:C:/GitHub/MobRob_Rover_NEW/Ultrasonic_Sensor_Node/Ultrasonic_XMC1400_CAPTRUE/Libraries/XMCLib/inc\xmc_gpio.h ****  * @param  port	 Constant pointer pointing to GPIO port, to access hardware register Pn_OMR.
 216:C:/GitHub/MobRob_Rover_NEW/Ultrasonic_Sensor_Node/Ultrasonic_XMC1400_CAPTRUE/Libraries/XMCLib/inc\xmc_gpio.h ****  * @param  pin	 Port pin number.
 217:C:/GitHub/MobRob_Rover_NEW/Ultrasonic_Sensor_Node/Ultrasonic_XMC1400_CAPTRUE/Libraries/XMCLib/inc\xmc_gpio.h ****  * @param  level output level selection. Refer @ref XMC_GPIO_OUTPUT_LEVEL_t for valid values.
 218:C:/GitHub/MobRob_Rover_NEW/Ultrasonic_Sensor_Node/Ultrasonic_XMC1400_CAPTRUE/Libraries/XMCLib/inc\xmc_gpio.h ****  *
 219:C:/GitHub/MobRob_Rover_NEW/Ultrasonic_Sensor_Node/Ultrasonic_XMC1400_CAPTRUE/Libraries/XMCLib/inc\xmc_gpio.h ****  * @return None
 220:C:/GitHub/MobRob_Rover_NEW/Ultrasonic_Sensor_Node/Ultrasonic_XMC1400_CAPTRUE/Libraries/XMCLib/inc\xmc_gpio.h ****  *
 221:C:/GitHub/MobRob_Rover_NEW/Ultrasonic_Sensor_Node/Ultrasonic_XMC1400_CAPTRUE/Libraries/XMCLib/inc\xmc_gpio.h ****  * \par<b>Description:</b><br>
 222:C:/GitHub/MobRob_Rover_NEW/Ultrasonic_Sensor_Node/Ultrasonic_XMC1400_CAPTRUE/Libraries/XMCLib/inc\xmc_gpio.h ****  * Set port pin output level to high or low.It configures hardware registers Pn_OMR.\a level is ini
 223:C:/GitHub/MobRob_Rover_NEW/Ultrasonic_Sensor_Node/Ultrasonic_XMC1400_CAPTRUE/Libraries/XMCLib/inc\xmc_gpio.h ****  * configured during initialization in XMC_GPIO_Init(). Call this API to alter output level as need
 224:C:/GitHub/MobRob_Rover_NEW/Ultrasonic_Sensor_Node/Ultrasonic_XMC1400_CAPTRUE/Libraries/XMCLib/inc\xmc_gpio.h ****  *
 225:C:/GitHub/MobRob_Rover_NEW/Ultrasonic_Sensor_Node/Ultrasonic_XMC1400_CAPTRUE/Libraries/XMCLib/inc\xmc_gpio.h ****  * \par<b>Related APIs:</b><BR>
 226:C:/GitHub/MobRob_Rover_NEW/Ultrasonic_Sensor_Node/Ultrasonic_XMC1400_CAPTRUE/Libraries/XMCLib/inc\xmc_gpio.h ****  *  XMC_GPIO_SetOutputHigh(), XMC_GPIO_SetOutputLow().
 227:C:/GitHub/MobRob_Rover_NEW/Ultrasonic_Sensor_Node/Ultrasonic_XMC1400_CAPTRUE/Libraries/XMCLib/inc\xmc_gpio.h ****  *
 228:C:/GitHub/MobRob_Rover_NEW/Ultrasonic_Sensor_Node/Ultrasonic_XMC1400_CAPTRUE/Libraries/XMCLib/inc\xmc_gpio.h ****  * \par<b>Note:</b><br>
 229:C:/GitHub/MobRob_Rover_NEW/Ultrasonic_Sensor_Node/Ultrasonic_XMC1400_CAPTRUE/Libraries/XMCLib/inc\xmc_gpio.h ****  * Prior to this api, user has to configure port pin to output mode using XMC_GPIO_SetMode().
 230:C:/GitHub/MobRob_Rover_NEW/Ultrasonic_Sensor_Node/Ultrasonic_XMC1400_CAPTRUE/Libraries/XMCLib/inc\xmc_gpio.h ****  *
 231:C:/GitHub/MobRob_Rover_NEW/Ultrasonic_Sensor_Node/Ultrasonic_XMC1400_CAPTRUE/Libraries/XMCLib/inc\xmc_gpio.h ****  */
 232:C:/GitHub/MobRob_Rover_NEW/Ultrasonic_Sensor_Node/Ultrasonic_XMC1400_CAPTRUE/Libraries/XMCLib/inc\xmc_gpio.h **** 
 233:C:/GitHub/MobRob_Rover_NEW/Ultrasonic_Sensor_Node/Ultrasonic_XMC1400_CAPTRUE/Libraries/XMCLib/inc\xmc_gpio.h **** 
 234:C:/GitHub/MobRob_Rover_NEW/Ultrasonic_Sensor_Node/Ultrasonic_XMC1400_CAPTRUE/Libraries/XMCLib/inc\xmc_gpio.h **** __STATIC_INLINE void XMC_GPIO_SetOutputLevel(XMC_GPIO_PORT_t *const port, const uint8_t pin, const 
 235:C:/GitHub/MobRob_Rover_NEW/Ultrasonic_Sensor_Node/Ultrasonic_XMC1400_CAPTRUE/Libraries/XMCLib/inc\xmc_gpio.h **** {
  25              	 .loc 1 235 0
  26              	 .cfi_startproc
  27 0000 80B5     	 push {r7,lr}
  28              	.LCFI0:
  29              	 .cfi_def_cfa_offset 8
  30              	 .cfi_offset 7,-8
  31              	 .cfi_offset 14,-4
  32 0002 84B0     	 sub sp,sp,#16
  33              	.LCFI1:
  34              	 .cfi_def_cfa_offset 24
  35 0004 00AF     	 add r7,sp,#0
  36              	.LCFI2:
  37              	 .cfi_def_cfa_register 7
  38 0006 F860     	 str r0,[r7,#12]
  39 0008 7A60     	 str r2,[r7,#4]
  40 000a 0B23     	 mov r3,#11
  41 000c FB18     	 add r3,r7,r3
  42 000e 0A1C     	 add r2,r1,#0
  43 0010 1A70     	 strb r2,[r3]
 236:C:/GitHub/MobRob_Rover_NEW/Ultrasonic_Sensor_Node/Ultrasonic_XMC1400_CAPTRUE/Libraries/XMCLib/inc\xmc_gpio.h ****   XMC_ASSERT("XMC_GPIO_SetOutputLevel: Invalid port", XMC_GPIO_CHECK_OUTPUT_PORT(port));
 237:C:/GitHub/MobRob_Rover_NEW/Ultrasonic_Sensor_Node/Ultrasonic_XMC1400_CAPTRUE/Libraries/XMCLib/inc\xmc_gpio.h ****   XMC_ASSERT("XMC_GPIO_SetOutputLevel: Invalid output level", XMC_GPIO_CHECK_OUTPUT_LEVEL(level));
 238:C:/GitHub/MobRob_Rover_NEW/Ultrasonic_Sensor_Node/Ultrasonic_XMC1400_CAPTRUE/Libraries/XMCLib/inc\xmc_gpio.h **** 
 239:C:/GitHub/MobRob_Rover_NEW/Ultrasonic_Sensor_Node/Ultrasonic_XMC1400_CAPTRUE/Libraries/XMCLib/inc\xmc_gpio.h ****   port->OMR = (uint32_t)level << pin;
  44              	 .loc 1 239 0
  45 0012 0B23     	 mov r3,#11
  46 0014 FB18     	 add r3,r7,r3
  47 0016 1B78     	 ldrb r3,[r3]
  48 0018 7A68     	 ldr r2,[r7,#4]
  49 001a 9A40     	 lsl r2,r2,r3
  50 001c FB68     	 ldr r3,[r7,#12]
  51 001e 5A60     	 str r2,[r3,#4]
 240:C:/GitHub/MobRob_Rover_NEW/Ultrasonic_Sensor_Node/Ultrasonic_XMC1400_CAPTRUE/Libraries/XMCLib/inc\xmc_gpio.h **** }
  52              	 .loc 1 240 0
  53 0020 BD46     	 mov sp,r7
  54 0022 04B0     	 add sp,sp,#16
  55              	 
  56 0024 80BD     	 pop {r7,pc}
  57              	 .cfi_endproc
  58              	.LFE43:
  60 0026 C046     	 .section .text.XMC_GPIO_ToggleOutput,"ax",%progbits
  61              	 .align 2
  62              	 .code 16
  63              	 .thumb_func
  65              	XMC_GPIO_ToggleOutput:
  66              	.LFB46:
 241:C:/GitHub/MobRob_Rover_NEW/Ultrasonic_Sensor_Node/Ultrasonic_XMC1400_CAPTRUE/Libraries/XMCLib/inc\xmc_gpio.h **** 
 242:C:/GitHub/MobRob_Rover_NEW/Ultrasonic_Sensor_Node/Ultrasonic_XMC1400_CAPTRUE/Libraries/XMCLib/inc\xmc_gpio.h **** 
 243:C:/GitHub/MobRob_Rover_NEW/Ultrasonic_Sensor_Node/Ultrasonic_XMC1400_CAPTRUE/Libraries/XMCLib/inc\xmc_gpio.h **** /**
 244:C:/GitHub/MobRob_Rover_NEW/Ultrasonic_Sensor_Node/Ultrasonic_XMC1400_CAPTRUE/Libraries/XMCLib/inc\xmc_gpio.h ****  * @param  port constant pointer pointing to GPIO port, to access hardware register Pn_OMR.
 245:C:/GitHub/MobRob_Rover_NEW/Ultrasonic_Sensor_Node/Ultrasonic_XMC1400_CAPTRUE/Libraries/XMCLib/inc\xmc_gpio.h ****  * @param  pin	Port pin number.
 246:C:/GitHub/MobRob_Rover_NEW/Ultrasonic_Sensor_Node/Ultrasonic_XMC1400_CAPTRUE/Libraries/XMCLib/inc\xmc_gpio.h ****  *
 247:C:/GitHub/MobRob_Rover_NEW/Ultrasonic_Sensor_Node/Ultrasonic_XMC1400_CAPTRUE/Libraries/XMCLib/inc\xmc_gpio.h ****  * @return None
 248:C:/GitHub/MobRob_Rover_NEW/Ultrasonic_Sensor_Node/Ultrasonic_XMC1400_CAPTRUE/Libraries/XMCLib/inc\xmc_gpio.h ****  *
 249:C:/GitHub/MobRob_Rover_NEW/Ultrasonic_Sensor_Node/Ultrasonic_XMC1400_CAPTRUE/Libraries/XMCLib/inc\xmc_gpio.h ****  * \par<b>Description:</b><br>
 250:C:/GitHub/MobRob_Rover_NEW/Ultrasonic_Sensor_Node/Ultrasonic_XMC1400_CAPTRUE/Libraries/XMCLib/inc\xmc_gpio.h ****  *  Sets port pin output to high. It configures hardware registers Pn_OMR.
 251:C:/GitHub/MobRob_Rover_NEW/Ultrasonic_Sensor_Node/Ultrasonic_XMC1400_CAPTRUE/Libraries/XMCLib/inc\xmc_gpio.h ****  *
 252:C:/GitHub/MobRob_Rover_NEW/Ultrasonic_Sensor_Node/Ultrasonic_XMC1400_CAPTRUE/Libraries/XMCLib/inc\xmc_gpio.h ****  *  \par<b>Related APIs:</b><BR>
 253:C:/GitHub/MobRob_Rover_NEW/Ultrasonic_Sensor_Node/Ultrasonic_XMC1400_CAPTRUE/Libraries/XMCLib/inc\xmc_gpio.h ****  *  XMC_GPIO_SetOutputLow()
 254:C:/GitHub/MobRob_Rover_NEW/Ultrasonic_Sensor_Node/Ultrasonic_XMC1400_CAPTRUE/Libraries/XMCLib/inc\xmc_gpio.h ****  *
 255:C:/GitHub/MobRob_Rover_NEW/Ultrasonic_Sensor_Node/Ultrasonic_XMC1400_CAPTRUE/Libraries/XMCLib/inc\xmc_gpio.h ****  * \par<b>Note:</b><br>
 256:C:/GitHub/MobRob_Rover_NEW/Ultrasonic_Sensor_Node/Ultrasonic_XMC1400_CAPTRUE/Libraries/XMCLib/inc\xmc_gpio.h ****  * Prior to this api, user has to configure port pin to output mode using XMC_GPIO_SetMode().\n
 257:C:/GitHub/MobRob_Rover_NEW/Ultrasonic_Sensor_Node/Ultrasonic_XMC1400_CAPTRUE/Libraries/XMCLib/inc\xmc_gpio.h ****  * Register Pn_OMR is virtual and does not contain any flip-flop. A read action delivers the value 
 258:C:/GitHub/MobRob_Rover_NEW/Ultrasonic_Sensor_Node/Ultrasonic_XMC1400_CAPTRUE/Libraries/XMCLib/inc\xmc_gpio.h ****  *
 259:C:/GitHub/MobRob_Rover_NEW/Ultrasonic_Sensor_Node/Ultrasonic_XMC1400_CAPTRUE/Libraries/XMCLib/inc\xmc_gpio.h ****  */
 260:C:/GitHub/MobRob_Rover_NEW/Ultrasonic_Sensor_Node/Ultrasonic_XMC1400_CAPTRUE/Libraries/XMCLib/inc\xmc_gpio.h **** 
 261:C:/GitHub/MobRob_Rover_NEW/Ultrasonic_Sensor_Node/Ultrasonic_XMC1400_CAPTRUE/Libraries/XMCLib/inc\xmc_gpio.h **** __STATIC_INLINE void XMC_GPIO_SetOutputHigh(XMC_GPIO_PORT_t *const port, const uint8_t pin)
 262:C:/GitHub/MobRob_Rover_NEW/Ultrasonic_Sensor_Node/Ultrasonic_XMC1400_CAPTRUE/Libraries/XMCLib/inc\xmc_gpio.h **** {
 263:C:/GitHub/MobRob_Rover_NEW/Ultrasonic_Sensor_Node/Ultrasonic_XMC1400_CAPTRUE/Libraries/XMCLib/inc\xmc_gpio.h ****   XMC_ASSERT("XMC_GPIO_SetOutputHigh: Invalid port", XMC_GPIO_CHECK_OUTPUT_PORT(port));
 264:C:/GitHub/MobRob_Rover_NEW/Ultrasonic_Sensor_Node/Ultrasonic_XMC1400_CAPTRUE/Libraries/XMCLib/inc\xmc_gpio.h **** 
 265:C:/GitHub/MobRob_Rover_NEW/Ultrasonic_Sensor_Node/Ultrasonic_XMC1400_CAPTRUE/Libraries/XMCLib/inc\xmc_gpio.h ****   port->OMR = (uint32_t)0x1U << pin;
 266:C:/GitHub/MobRob_Rover_NEW/Ultrasonic_Sensor_Node/Ultrasonic_XMC1400_CAPTRUE/Libraries/XMCLib/inc\xmc_gpio.h **** }
 267:C:/GitHub/MobRob_Rover_NEW/Ultrasonic_Sensor_Node/Ultrasonic_XMC1400_CAPTRUE/Libraries/XMCLib/inc\xmc_gpio.h **** 
 268:C:/GitHub/MobRob_Rover_NEW/Ultrasonic_Sensor_Node/Ultrasonic_XMC1400_CAPTRUE/Libraries/XMCLib/inc\xmc_gpio.h **** /**
 269:C:/GitHub/MobRob_Rover_NEW/Ultrasonic_Sensor_Node/Ultrasonic_XMC1400_CAPTRUE/Libraries/XMCLib/inc\xmc_gpio.h ****  *
 270:C:/GitHub/MobRob_Rover_NEW/Ultrasonic_Sensor_Node/Ultrasonic_XMC1400_CAPTRUE/Libraries/XMCLib/inc\xmc_gpio.h ****  * @param  port	constant pointer pointing to GPIO port, to access hardware register Pn_OMR.
 271:C:/GitHub/MobRob_Rover_NEW/Ultrasonic_Sensor_Node/Ultrasonic_XMC1400_CAPTRUE/Libraries/XMCLib/inc\xmc_gpio.h ****  * @param  pin	port pin number.
 272:C:/GitHub/MobRob_Rover_NEW/Ultrasonic_Sensor_Node/Ultrasonic_XMC1400_CAPTRUE/Libraries/XMCLib/inc\xmc_gpio.h ****  *
 273:C:/GitHub/MobRob_Rover_NEW/Ultrasonic_Sensor_Node/Ultrasonic_XMC1400_CAPTRUE/Libraries/XMCLib/inc\xmc_gpio.h ****  * @return  None
 274:C:/GitHub/MobRob_Rover_NEW/Ultrasonic_Sensor_Node/Ultrasonic_XMC1400_CAPTRUE/Libraries/XMCLib/inc\xmc_gpio.h ****  *
 275:C:/GitHub/MobRob_Rover_NEW/Ultrasonic_Sensor_Node/Ultrasonic_XMC1400_CAPTRUE/Libraries/XMCLib/inc\xmc_gpio.h ****  *\par<b>Description:</b><br>
 276:C:/GitHub/MobRob_Rover_NEW/Ultrasonic_Sensor_Node/Ultrasonic_XMC1400_CAPTRUE/Libraries/XMCLib/inc\xmc_gpio.h ****  * Sets port pin output to low. It configures hardware registers Pn_OMR.\n
 277:C:/GitHub/MobRob_Rover_NEW/Ultrasonic_Sensor_Node/Ultrasonic_XMC1400_CAPTRUE/Libraries/XMCLib/inc\xmc_gpio.h ****  *
 278:C:/GitHub/MobRob_Rover_NEW/Ultrasonic_Sensor_Node/Ultrasonic_XMC1400_CAPTRUE/Libraries/XMCLib/inc\xmc_gpio.h ****  * \par<b>Related APIs:</b><BR>>
 279:C:/GitHub/MobRob_Rover_NEW/Ultrasonic_Sensor_Node/Ultrasonic_XMC1400_CAPTRUE/Libraries/XMCLib/inc\xmc_gpio.h ****  * XMC_GPIO_SetOutputHigh()
 280:C:/GitHub/MobRob_Rover_NEW/Ultrasonic_Sensor_Node/Ultrasonic_XMC1400_CAPTRUE/Libraries/XMCLib/inc\xmc_gpio.h ****  *
 281:C:/GitHub/MobRob_Rover_NEW/Ultrasonic_Sensor_Node/Ultrasonic_XMC1400_CAPTRUE/Libraries/XMCLib/inc\xmc_gpio.h ****  *\par<b>Note:</b><br>
 282:C:/GitHub/MobRob_Rover_NEW/Ultrasonic_Sensor_Node/Ultrasonic_XMC1400_CAPTRUE/Libraries/XMCLib/inc\xmc_gpio.h ****  * Prior to this api, user has to configure port pin to output mode using XMC_GPIO_SetMode().
 283:C:/GitHub/MobRob_Rover_NEW/Ultrasonic_Sensor_Node/Ultrasonic_XMC1400_CAPTRUE/Libraries/XMCLib/inc\xmc_gpio.h ****  * Register Pn_OMR is virtual and does not contain any flip-flop. A read action delivers the value 
 284:C:/GitHub/MobRob_Rover_NEW/Ultrasonic_Sensor_Node/Ultrasonic_XMC1400_CAPTRUE/Libraries/XMCLib/inc\xmc_gpio.h ****  *
 285:C:/GitHub/MobRob_Rover_NEW/Ultrasonic_Sensor_Node/Ultrasonic_XMC1400_CAPTRUE/Libraries/XMCLib/inc\xmc_gpio.h ****  */
 286:C:/GitHub/MobRob_Rover_NEW/Ultrasonic_Sensor_Node/Ultrasonic_XMC1400_CAPTRUE/Libraries/XMCLib/inc\xmc_gpio.h **** 
 287:C:/GitHub/MobRob_Rover_NEW/Ultrasonic_Sensor_Node/Ultrasonic_XMC1400_CAPTRUE/Libraries/XMCLib/inc\xmc_gpio.h **** __STATIC_INLINE void XMC_GPIO_SetOutputLow(XMC_GPIO_PORT_t *const port, const uint8_t pin)
 288:C:/GitHub/MobRob_Rover_NEW/Ultrasonic_Sensor_Node/Ultrasonic_XMC1400_CAPTRUE/Libraries/XMCLib/inc\xmc_gpio.h **** {
 289:C:/GitHub/MobRob_Rover_NEW/Ultrasonic_Sensor_Node/Ultrasonic_XMC1400_CAPTRUE/Libraries/XMCLib/inc\xmc_gpio.h ****   XMC_ASSERT("XMC_GPIO_SetOutputLow: Invalid port", XMC_GPIO_CHECK_OUTPUT_PORT(port));
 290:C:/GitHub/MobRob_Rover_NEW/Ultrasonic_Sensor_Node/Ultrasonic_XMC1400_CAPTRUE/Libraries/XMCLib/inc\xmc_gpio.h **** 
 291:C:/GitHub/MobRob_Rover_NEW/Ultrasonic_Sensor_Node/Ultrasonic_XMC1400_CAPTRUE/Libraries/XMCLib/inc\xmc_gpio.h ****   port->OMR = 0x10000U << pin;
 292:C:/GitHub/MobRob_Rover_NEW/Ultrasonic_Sensor_Node/Ultrasonic_XMC1400_CAPTRUE/Libraries/XMCLib/inc\xmc_gpio.h **** }
 293:C:/GitHub/MobRob_Rover_NEW/Ultrasonic_Sensor_Node/Ultrasonic_XMC1400_CAPTRUE/Libraries/XMCLib/inc\xmc_gpio.h **** 
 294:C:/GitHub/MobRob_Rover_NEW/Ultrasonic_Sensor_Node/Ultrasonic_XMC1400_CAPTRUE/Libraries/XMCLib/inc\xmc_gpio.h **** /**
 295:C:/GitHub/MobRob_Rover_NEW/Ultrasonic_Sensor_Node/Ultrasonic_XMC1400_CAPTRUE/Libraries/XMCLib/inc\xmc_gpio.h ****  *
 296:C:/GitHub/MobRob_Rover_NEW/Ultrasonic_Sensor_Node/Ultrasonic_XMC1400_CAPTRUE/Libraries/XMCLib/inc\xmc_gpio.h ****  * @param port constant pointer pointing to GPIO port, to access hardware register Pn_OMR.
 297:C:/GitHub/MobRob_Rover_NEW/Ultrasonic_Sensor_Node/Ultrasonic_XMC1400_CAPTRUE/Libraries/XMCLib/inc\xmc_gpio.h ****  * @param pin  port pin number.
 298:C:/GitHub/MobRob_Rover_NEW/Ultrasonic_Sensor_Node/Ultrasonic_XMC1400_CAPTRUE/Libraries/XMCLib/inc\xmc_gpio.h ****  *
 299:C:/GitHub/MobRob_Rover_NEW/Ultrasonic_Sensor_Node/Ultrasonic_XMC1400_CAPTRUE/Libraries/XMCLib/inc\xmc_gpio.h ****  * @return None
 300:C:/GitHub/MobRob_Rover_NEW/Ultrasonic_Sensor_Node/Ultrasonic_XMC1400_CAPTRUE/Libraries/XMCLib/inc\xmc_gpio.h ****  *
 301:C:/GitHub/MobRob_Rover_NEW/Ultrasonic_Sensor_Node/Ultrasonic_XMC1400_CAPTRUE/Libraries/XMCLib/inc\xmc_gpio.h ****  * \par<b>Description:</b><br>
 302:C:/GitHub/MobRob_Rover_NEW/Ultrasonic_Sensor_Node/Ultrasonic_XMC1400_CAPTRUE/Libraries/XMCLib/inc\xmc_gpio.h ****  * Configures port pin output to Toggle. It configures hardware registers Pn_OMR.
 303:C:/GitHub/MobRob_Rover_NEW/Ultrasonic_Sensor_Node/Ultrasonic_XMC1400_CAPTRUE/Libraries/XMCLib/inc\xmc_gpio.h ****  *
 304:C:/GitHub/MobRob_Rover_NEW/Ultrasonic_Sensor_Node/Ultrasonic_XMC1400_CAPTRUE/Libraries/XMCLib/inc\xmc_gpio.h ****  * \par<b>Related APIs:</b><BR>
 305:C:/GitHub/MobRob_Rover_NEW/Ultrasonic_Sensor_Node/Ultrasonic_XMC1400_CAPTRUE/Libraries/XMCLib/inc\xmc_gpio.h ****  * XMC_GPIO_SetOutputHigh(), XMC_GPIO_SetOutputLow().
 306:C:/GitHub/MobRob_Rover_NEW/Ultrasonic_Sensor_Node/Ultrasonic_XMC1400_CAPTRUE/Libraries/XMCLib/inc\xmc_gpio.h ****  *
 307:C:/GitHub/MobRob_Rover_NEW/Ultrasonic_Sensor_Node/Ultrasonic_XMC1400_CAPTRUE/Libraries/XMCLib/inc\xmc_gpio.h ****  * \par<b>Note:</b><br>
 308:C:/GitHub/MobRob_Rover_NEW/Ultrasonic_Sensor_Node/Ultrasonic_XMC1400_CAPTRUE/Libraries/XMCLib/inc\xmc_gpio.h ****  * Prior to this api, user has to configure port pin to output mode using XMC_GPIO_SetMode(). Regis
 309:C:/GitHub/MobRob_Rover_NEW/Ultrasonic_Sensor_Node/Ultrasonic_XMC1400_CAPTRUE/Libraries/XMCLib/inc\xmc_gpio.h ****  * and does not contain any flip-flop. A read action delivers the value of 0.
 310:C:/GitHub/MobRob_Rover_NEW/Ultrasonic_Sensor_Node/Ultrasonic_XMC1400_CAPTRUE/Libraries/XMCLib/inc\xmc_gpio.h ****  *
 311:C:/GitHub/MobRob_Rover_NEW/Ultrasonic_Sensor_Node/Ultrasonic_XMC1400_CAPTRUE/Libraries/XMCLib/inc\xmc_gpio.h ****  */
 312:C:/GitHub/MobRob_Rover_NEW/Ultrasonic_Sensor_Node/Ultrasonic_XMC1400_CAPTRUE/Libraries/XMCLib/inc\xmc_gpio.h **** 
 313:C:/GitHub/MobRob_Rover_NEW/Ultrasonic_Sensor_Node/Ultrasonic_XMC1400_CAPTRUE/Libraries/XMCLib/inc\xmc_gpio.h **** __STATIC_INLINE void XMC_GPIO_ToggleOutput(XMC_GPIO_PORT_t *const port, const uint8_t pin)
 314:C:/GitHub/MobRob_Rover_NEW/Ultrasonic_Sensor_Node/Ultrasonic_XMC1400_CAPTRUE/Libraries/XMCLib/inc\xmc_gpio.h **** {
  67              	 .loc 1 314 0
  68              	 .cfi_startproc
  69 0000 80B5     	 push {r7,lr}
  70              	.LCFI3:
  71              	 .cfi_def_cfa_offset 8
  72              	 .cfi_offset 7,-8
  73              	 .cfi_offset 14,-4
  74 0002 82B0     	 sub sp,sp,#8
  75              	.LCFI4:
  76              	 .cfi_def_cfa_offset 16
  77 0004 00AF     	 add r7,sp,#0
  78              	.LCFI5:
  79              	 .cfi_def_cfa_register 7
  80 0006 7860     	 str r0,[r7,#4]
  81 0008 0A1C     	 mov r2,r1
  82 000a FB1C     	 add r3,r7,#3
  83 000c 1A70     	 strb r2,[r3]
 315:C:/GitHub/MobRob_Rover_NEW/Ultrasonic_Sensor_Node/Ultrasonic_XMC1400_CAPTRUE/Libraries/XMCLib/inc\xmc_gpio.h ****   XMC_ASSERT("XMC_GPIO_ToggleOutput: Invalid port", XMC_GPIO_CHECK_OUTPUT_PORT(port));
 316:C:/GitHub/MobRob_Rover_NEW/Ultrasonic_Sensor_Node/Ultrasonic_XMC1400_CAPTRUE/Libraries/XMCLib/inc\xmc_gpio.h **** 
 317:C:/GitHub/MobRob_Rover_NEW/Ultrasonic_Sensor_Node/Ultrasonic_XMC1400_CAPTRUE/Libraries/XMCLib/inc\xmc_gpio.h ****   port->OMR = 0x10001U << pin;
  84              	 .loc 1 317 0
  85 000e FB1C     	 add r3,r7,#3
  86 0010 1B78     	 ldrb r3,[r3]
  87 0012 034A     	 ldr r2,.L3
  88 0014 9A40     	 lsl r2,r2,r3
  89 0016 7B68     	 ldr r3,[r7,#4]
  90 0018 5A60     	 str r2,[r3,#4]
 318:C:/GitHub/MobRob_Rover_NEW/Ultrasonic_Sensor_Node/Ultrasonic_XMC1400_CAPTRUE/Libraries/XMCLib/inc\xmc_gpio.h **** }
  91              	 .loc 1 318 0
  92 001a BD46     	 mov sp,r7
  93 001c 02B0     	 add sp,sp,#8
  94              	 
  95 001e 80BD     	 pop {r7,pc}
  96              	.L4:
  97              	 .align 2
  98              	.L3:
  99 0020 01000100 	 .word 65537
 100              	 .cfi_endproc
 101              	.LFE46:
 103              	 .section .text.XMC_GPIO_GetInput,"ax",%progbits
 104              	 .align 2
 105              	 .code 16
 106              	 .thumb_func
 108              	XMC_GPIO_GetInput:
 109              	.LFB47:
 319:C:/GitHub/MobRob_Rover_NEW/Ultrasonic_Sensor_Node/Ultrasonic_XMC1400_CAPTRUE/Libraries/XMCLib/inc\xmc_gpio.h **** 
 320:C:/GitHub/MobRob_Rover_NEW/Ultrasonic_Sensor_Node/Ultrasonic_XMC1400_CAPTRUE/Libraries/XMCLib/inc\xmc_gpio.h **** /**
 321:C:/GitHub/MobRob_Rover_NEW/Ultrasonic_Sensor_Node/Ultrasonic_XMC1400_CAPTRUE/Libraries/XMCLib/inc\xmc_gpio.h ****  *
 322:C:/GitHub/MobRob_Rover_NEW/Ultrasonic_Sensor_Node/Ultrasonic_XMC1400_CAPTRUE/Libraries/XMCLib/inc\xmc_gpio.h ****  * @param port constant pointer pointing to GPIO port, to access hardware register Pn_IN.
 323:C:/GitHub/MobRob_Rover_NEW/Ultrasonic_Sensor_Node/Ultrasonic_XMC1400_CAPTRUE/Libraries/XMCLib/inc\xmc_gpio.h ****  * @param pin  Port pin number.
 324:C:/GitHub/MobRob_Rover_NEW/Ultrasonic_Sensor_Node/Ultrasonic_XMC1400_CAPTRUE/Libraries/XMCLib/inc\xmc_gpio.h ****  *
 325:C:/GitHub/MobRob_Rover_NEW/Ultrasonic_Sensor_Node/Ultrasonic_XMC1400_CAPTRUE/Libraries/XMCLib/inc\xmc_gpio.h ****  * @return uint32_t pin logic level status.
 326:C:/GitHub/MobRob_Rover_NEW/Ultrasonic_Sensor_Node/Ultrasonic_XMC1400_CAPTRUE/Libraries/XMCLib/inc\xmc_gpio.h ****  *
 327:C:/GitHub/MobRob_Rover_NEW/Ultrasonic_Sensor_Node/Ultrasonic_XMC1400_CAPTRUE/Libraries/XMCLib/inc\xmc_gpio.h ****  *\par<b>Description:</b><br>
 328:C:/GitHub/MobRob_Rover_NEW/Ultrasonic_Sensor_Node/Ultrasonic_XMC1400_CAPTRUE/Libraries/XMCLib/inc\xmc_gpio.h ****  * Reads the Pn_IN register and returns the current logical value at the GPIO pin.
 329:C:/GitHub/MobRob_Rover_NEW/Ultrasonic_Sensor_Node/Ultrasonic_XMC1400_CAPTRUE/Libraries/XMCLib/inc\xmc_gpio.h ****  *
 330:C:/GitHub/MobRob_Rover_NEW/Ultrasonic_Sensor_Node/Ultrasonic_XMC1400_CAPTRUE/Libraries/XMCLib/inc\xmc_gpio.h ****  * \par<b>Related APIs:</b><BR>
 331:C:/GitHub/MobRob_Rover_NEW/Ultrasonic_Sensor_Node/Ultrasonic_XMC1400_CAPTRUE/Libraries/XMCLib/inc\xmc_gpio.h ****  * None
 332:C:/GitHub/MobRob_Rover_NEW/Ultrasonic_Sensor_Node/Ultrasonic_XMC1400_CAPTRUE/Libraries/XMCLib/inc\xmc_gpio.h ****  *
 333:C:/GitHub/MobRob_Rover_NEW/Ultrasonic_Sensor_Node/Ultrasonic_XMC1400_CAPTRUE/Libraries/XMCLib/inc\xmc_gpio.h ****  * \par<b>Note:</b><br>
 334:C:/GitHub/MobRob_Rover_NEW/Ultrasonic_Sensor_Node/Ultrasonic_XMC1400_CAPTRUE/Libraries/XMCLib/inc\xmc_gpio.h ****  * Prior to this api, user has to configure port pin to input mode using XMC_GPIO_SetMode().
 335:C:/GitHub/MobRob_Rover_NEW/Ultrasonic_Sensor_Node/Ultrasonic_XMC1400_CAPTRUE/Libraries/XMCLib/inc\xmc_gpio.h ****  *
 336:C:/GitHub/MobRob_Rover_NEW/Ultrasonic_Sensor_Node/Ultrasonic_XMC1400_CAPTRUE/Libraries/XMCLib/inc\xmc_gpio.h ****  */
 337:C:/GitHub/MobRob_Rover_NEW/Ultrasonic_Sensor_Node/Ultrasonic_XMC1400_CAPTRUE/Libraries/XMCLib/inc\xmc_gpio.h **** 
 338:C:/GitHub/MobRob_Rover_NEW/Ultrasonic_Sensor_Node/Ultrasonic_XMC1400_CAPTRUE/Libraries/XMCLib/inc\xmc_gpio.h **** __STATIC_INLINE uint32_t XMC_GPIO_GetInput(XMC_GPIO_PORT_t *const port, const uint8_t pin)
 339:C:/GitHub/MobRob_Rover_NEW/Ultrasonic_Sensor_Node/Ultrasonic_XMC1400_CAPTRUE/Libraries/XMCLib/inc\xmc_gpio.h **** {
 110              	 .loc 1 339 0
 111              	 .cfi_startproc
 112 0000 80B5     	 push {r7,lr}
 113              	.LCFI6:
 114              	 .cfi_def_cfa_offset 8
 115              	 .cfi_offset 7,-8
 116              	 .cfi_offset 14,-4
 117 0002 82B0     	 sub sp,sp,#8
 118              	.LCFI7:
 119              	 .cfi_def_cfa_offset 16
 120 0004 00AF     	 add r7,sp,#0
 121              	.LCFI8:
 122              	 .cfi_def_cfa_register 7
 123 0006 7860     	 str r0,[r7,#4]
 124 0008 0A1C     	 mov r2,r1
 125 000a FB1C     	 add r3,r7,#3
 126 000c 1A70     	 strb r2,[r3]
 340:C:/GitHub/MobRob_Rover_NEW/Ultrasonic_Sensor_Node/Ultrasonic_XMC1400_CAPTRUE/Libraries/XMCLib/inc\xmc_gpio.h ****   XMC_ASSERT("XMC_GPIO_GetInput: Invalid port", XMC_GPIO_CHECK_PORT(port));
 341:C:/GitHub/MobRob_Rover_NEW/Ultrasonic_Sensor_Node/Ultrasonic_XMC1400_CAPTRUE/Libraries/XMCLib/inc\xmc_gpio.h **** 
 342:C:/GitHub/MobRob_Rover_NEW/Ultrasonic_Sensor_Node/Ultrasonic_XMC1400_CAPTRUE/Libraries/XMCLib/inc\xmc_gpio.h ****   return (((port->IN) >> pin) & 0x1U);
 127              	 .loc 1 342 0
 128 000e 7B68     	 ldr r3,[r7,#4]
 129 0010 5A6A     	 ldr r2,[r3,#36]
 130 0012 FB1C     	 add r3,r7,#3
 131 0014 1B78     	 ldrb r3,[r3]
 132 0016 DA40     	 lsr r2,r2,r3
 133 0018 131C     	 mov r3,r2
 134 001a 0122     	 mov r2,#1
 135 001c 1340     	 and r3,r2
 343:C:/GitHub/MobRob_Rover_NEW/Ultrasonic_Sensor_Node/Ultrasonic_XMC1400_CAPTRUE/Libraries/XMCLib/inc\xmc_gpio.h **** }
 136              	 .loc 1 343 0
 137 001e 181C     	 mov r0,r3
 138 0020 BD46     	 mov sp,r7
 139 0022 02B0     	 add sp,sp,#8
 140              	 
 141 0024 80BD     	 pop {r7,pc}
 142              	 .cfi_endproc
 143              	.LFE47:
 145 0026 C046     	 .section .text.BUS_IO_GetAppVersion,"ax",%progbits
 146              	 .align 2
 147              	 .global BUS_IO_GetAppVersion
 148              	 .code 16
 149              	 .thumb_func
 151              	BUS_IO_GetAppVersion:
 152              	.LFB52:
 153              	 .file 2 "../Dave/Generated/BUS_IO/bus_io.c"
   1:../Dave/Generated/BUS_IO/bus_io.c **** /**
   2:../Dave/Generated/BUS_IO/bus_io.c ****  * @file bus_io.c
   3:../Dave/Generated/BUS_IO/bus_io.c ****  * @date 2016-04-06
   4:../Dave/Generated/BUS_IO/bus_io.c ****  *
   5:../Dave/Generated/BUS_IO/bus_io.c ****  * NOTE:
   6:../Dave/Generated/BUS_IO/bus_io.c ****  * This file is generated by DAVE. Any manual modification done to this file will be lost when the 
   7:../Dave/Generated/BUS_IO/bus_io.c ****  *
   8:../Dave/Generated/BUS_IO/bus_io.c ****  * @cond
   9:../Dave/Generated/BUS_IO/bus_io.c ****  **************************************************************************************************
  10:../Dave/Generated/BUS_IO/bus_io.c ****  * BUS_IO v4.0.4 - BUS_IO APP is used to configure/control several GPIO pins as one entity.
  11:../Dave/Generated/BUS_IO/bus_io.c ****  *
  12:../Dave/Generated/BUS_IO/bus_io.c ****  * Copyright (c) 2015-2020, Infineon Technologies AG
  13:../Dave/Generated/BUS_IO/bus_io.c ****  * All rights reserved.
  14:../Dave/Generated/BUS_IO/bus_io.c ****  *
  15:../Dave/Generated/BUS_IO/bus_io.c ****  * Redistribution and use in source and binary forms, with or without modification,are permitted pr
  16:../Dave/Generated/BUS_IO/bus_io.c ****  * following conditions are met:
  17:../Dave/Generated/BUS_IO/bus_io.c ****  *
  18:../Dave/Generated/BUS_IO/bus_io.c ****  *   Redistributions of source code must retain the above copyright notice, this list of conditions
  19:../Dave/Generated/BUS_IO/bus_io.c ****  *   disclaimer.
  20:../Dave/Generated/BUS_IO/bus_io.c ****  *
  21:../Dave/Generated/BUS_IO/bus_io.c ****  *   Redistributions in binary form must reproduce the above copyright notice, this list of conditi
  22:../Dave/Generated/BUS_IO/bus_io.c ****  *   following disclaimer in the documentation and/or other materials provided with the distributio
  23:../Dave/Generated/BUS_IO/bus_io.c ****  *
  24:../Dave/Generated/BUS_IO/bus_io.c ****  *   Neither the name of the copyright holders nor the names of its contributors may be used to end
  25:../Dave/Generated/BUS_IO/bus_io.c ****  *   products derived from this software without specific prior written permission.
  26:../Dave/Generated/BUS_IO/bus_io.c ****  *
  27:../Dave/Generated/BUS_IO/bus_io.c ****  * THIS SOFTWARE IS PROVIDED BY THE COPYRIGHT HOLDERS AND CONTRIBUTORS "AS IS" AND ANY EXPRESS OR I
  28:../Dave/Generated/BUS_IO/bus_io.c ****  * INCLUDING, BUT NOT LIMITED TO, THE IMPLIED WARRANTIES OF MERCHANTABILITY AND FITNESS FOR A PARTI
  29:../Dave/Generated/BUS_IO/bus_io.c ****  * DISCLAIMED. IN NO EVENT SHALL THE COPYRIGHT HOLDER OR CONTRIBUTORS BE LIABLE  FOR ANY DIRECT, IN
  30:../Dave/Generated/BUS_IO/bus_io.c ****  * SPECIAL, EXEMPLARY, OR CONSEQUENTIAL DAMAGES (INCLUDING, BUT NOT LIMITED TO, PROCUREMENT OF SUBS
  31:../Dave/Generated/BUS_IO/bus_io.c ****  * SERVICES; LOSS OF USE, DATA, OR PROFITS; OR BUSINESS INTERRUPTION) HOWEVER CAUSED AND ON ANY THE
  32:../Dave/Generated/BUS_IO/bus_io.c ****  * WHETHER IN CONTRACT, STRICT LIABILITY,OR TORT (INCLUDING NEGLIGENCE OR OTHERWISE) ARISING IN ANY
  33:../Dave/Generated/BUS_IO/bus_io.c ****  * USE OF THIS SOFTWARE, EVEN IF ADVISED OF THE POSSIBILITY OF SUCH DAMAGE.
  34:../Dave/Generated/BUS_IO/bus_io.c ****  *
  35:../Dave/Generated/BUS_IO/bus_io.c ****  * To improve the quality of the software, users are encouraged to share modifications, enhancement
  36:../Dave/Generated/BUS_IO/bus_io.c ****  * with Infineon Technologies AG (dave@infineon.com).
  37:../Dave/Generated/BUS_IO/bus_io.c ****  **************************************************************************************************
  38:../Dave/Generated/BUS_IO/bus_io.c ****  *
  39:../Dave/Generated/BUS_IO/bus_io.c ****  * Change History
  40:../Dave/Generated/BUS_IO/bus_io.c ****  * --------------
  41:../Dave/Generated/BUS_IO/bus_io.c ****  *
  42:../Dave/Generated/BUS_IO/bus_io.c ****  * 2016-04-01
  43:../Dave/Generated/BUS_IO/bus_io.c ****  *     - Initial version.<br>
  44:../Dave/Generated/BUS_IO/bus_io.c ****  * 2016-04-06
  45:../Dave/Generated/BUS_IO/bus_io.c ****  *     - BUS_IO_Write() API performance improved.<br>
  46:../Dave/Generated/BUS_IO/bus_io.c ****  *
  47:../Dave/Generated/BUS_IO/bus_io.c ****  * @endcond
  48:../Dave/Generated/BUS_IO/bus_io.c ****  *
  49:../Dave/Generated/BUS_IO/bus_io.c ****  */
  50:../Dave/Generated/BUS_IO/bus_io.c **** 
  51:../Dave/Generated/BUS_IO/bus_io.c **** /**************************************************************************************************
  52:../Dave/Generated/BUS_IO/bus_io.c ****  * HEADER FILES
  53:../Dave/Generated/BUS_IO/bus_io.c ****  **************************************************************************************************
  54:../Dave/Generated/BUS_IO/bus_io.c **** #include "bus_io.h"
  55:../Dave/Generated/BUS_IO/bus_io.c **** 
  56:../Dave/Generated/BUS_IO/bus_io.c **** /**************************************************************************************************
  57:../Dave/Generated/BUS_IO/bus_io.c ****  * MACROS
  58:../Dave/Generated/BUS_IO/bus_io.c ****  **************************************************************************************************
  59:../Dave/Generated/BUS_IO/bus_io.c **** 
  60:../Dave/Generated/BUS_IO/bus_io.c **** /**************************************************************************************************
  61:../Dave/Generated/BUS_IO/bus_io.c ****  * LOCAL DATA
  62:../Dave/Generated/BUS_IO/bus_io.c ****  **************************************************************************************************
  63:../Dave/Generated/BUS_IO/bus_io.c **** 
  64:../Dave/Generated/BUS_IO/bus_io.c **** /**************************************************************************************************
  65:../Dave/Generated/BUS_IO/bus_io.c ****  * LOCAL ROUTINES
  66:../Dave/Generated/BUS_IO/bus_io.c ****  **************************************************************************************************
  67:../Dave/Generated/BUS_IO/bus_io.c **** 
  68:../Dave/Generated/BUS_IO/bus_io.c ****  /*************************************************************************************************
  69:../Dave/Generated/BUS_IO/bus_io.c ****  * API IMPLEMENTATION
  70:../Dave/Generated/BUS_IO/bus_io.c ****  **************************************************************************************************
  71:../Dave/Generated/BUS_IO/bus_io.c **** 
  72:../Dave/Generated/BUS_IO/bus_io.c **** /**
  73:../Dave/Generated/BUS_IO/bus_io.c **** * @brief Get BUS_IO APP version
  74:../Dave/Generated/BUS_IO/bus_io.c **** * @return DAVE_APP_VERSION_t APP version information (major, minor and patch number)
  75:../Dave/Generated/BUS_IO/bus_io.c **** */
  76:../Dave/Generated/BUS_IO/bus_io.c **** 
  77:../Dave/Generated/BUS_IO/bus_io.c **** DAVE_APP_VERSION_t BUS_IO_GetAppVersion(void)
  78:../Dave/Generated/BUS_IO/bus_io.c **** {
 154              	 .loc 2 78 0
 155              	 .cfi_startproc
 156 0000 80B5     	 push {r7,lr}
 157              	.LCFI9:
 158              	 .cfi_def_cfa_offset 8
 159              	 .cfi_offset 7,-8
 160              	 .cfi_offset 14,-4
 161 0002 82B0     	 sub sp,sp,#8
 162              	.LCFI10:
 163              	 .cfi_def_cfa_offset 16
 164 0004 00AF     	 add r7,sp,#0
 165              	.LCFI11:
 166              	 .cfi_def_cfa_register 7
  79:../Dave/Generated/BUS_IO/bus_io.c ****   DAVE_APP_VERSION_t version;
  80:../Dave/Generated/BUS_IO/bus_io.c **** 
  81:../Dave/Generated/BUS_IO/bus_io.c ****   version.major = (uint8_t)BUS_IO_MAJOR_VERSION;
 167              	 .loc 2 81 0
 168 0006 3B1C     	 mov r3,r7
 169 0008 0422     	 mov r2,#4
 170 000a 1A70     	 strb r2,[r3]
  82:../Dave/Generated/BUS_IO/bus_io.c ****   version.minor = (uint8_t)BUS_IO_MINOR_VERSION;
 171              	 .loc 2 82 0
 172 000c 3B1C     	 mov r3,r7
 173 000e 0022     	 mov r2,#0
 174 0010 5A70     	 strb r2,[r3,#1]
  83:../Dave/Generated/BUS_IO/bus_io.c ****   version.patch = (uint8_t)BUS_IO_PATCH_VERSION;
 175              	 .loc 2 83 0
 176 0012 3B1C     	 mov r3,r7
 177 0014 0422     	 mov r2,#4
 178 0016 9A70     	 strb r2,[r3,#2]
  84:../Dave/Generated/BUS_IO/bus_io.c **** 
  85:../Dave/Generated/BUS_IO/bus_io.c ****   return (version);
 179              	 .loc 2 85 0
 180 0018 3B1D     	 add r3,r7,#4
 181 001a 3A1C     	 mov r2,r7
 182 001c 1188     	 ldrh r1,[r2]
 183 001e 1980     	 strh r1,[r3]
 184 0020 9278     	 ldrb r2,[r2,#2]
 185 0022 9A70     	 strb r2,[r3,#2]
 186 0024 3A1D     	 add r2,r7,#4
 187 0026 0023     	 mov r3,#0
 188 0028 1178     	 ldrb r1,[r2]
 189 002a FF20     	 mov r0,#255
 190 002c 0140     	 and r1,r0
 191 002e FF20     	 mov r0,#255
 192 0030 8343     	 bic r3,r0
 193 0032 0B43     	 orr r3,r1
 194 0034 5178     	 ldrb r1,[r2,#1]
 195 0036 FF20     	 mov r0,#255
 196 0038 0140     	 and r1,r0
 197 003a 0902     	 lsl r1,r1,#8
 198 003c 0648     	 ldr r0,.L9
 199 003e 0340     	 and r3,r0
 200 0040 0B43     	 orr r3,r1
 201 0042 9278     	 ldrb r2,[r2,#2]
 202 0044 FF21     	 mov r1,#255
 203 0046 0A40     	 and r2,r1
 204 0048 1204     	 lsl r2,r2,#16
 205 004a 0449     	 ldr r1,.L9+4
 206 004c 0B40     	 and r3,r1
 207 004e 1343     	 orr r3,r2
  86:../Dave/Generated/BUS_IO/bus_io.c **** }
 208              	 .loc 2 86 0
 209 0050 181C     	 mov r0,r3
 210 0052 BD46     	 mov sp,r7
 211 0054 02B0     	 add sp,sp,#8
 212              	 
 213 0056 80BD     	 pop {r7,pc}
 214              	.L10:
 215              	 .align 2
 216              	.L9:
 217 0058 FF00FFFF 	 .word -65281
 218 005c FFFF00FF 	 .word -16711681
 219              	 .cfi_endproc
 220              	.LFE52:
 222              	 .section .text.BUS_IO_Init,"ax",%progbits
 223              	 .align 2
 224              	 .global BUS_IO_Init
 225              	 .code 16
 226              	 .thumb_func
 228              	BUS_IO_Init:
 229              	.LFB53:
  87:../Dave/Generated/BUS_IO/bus_io.c **** 
  88:../Dave/Generated/BUS_IO/bus_io.c **** /**
  89:../Dave/Generated/BUS_IO/bus_io.c **** * @brief Function to initialize the port pin as per UI settings.
  90:../Dave/Generated/BUS_IO/bus_io.c **** * @param handle_ptr Pointer pointing to APP data structure.
  91:../Dave/Generated/BUS_IO/bus_io.c **** * @return BUS_IO_STATUS_t BUS_IO APP status.
  92:../Dave/Generated/BUS_IO/bus_io.c **** */
  93:../Dave/Generated/BUS_IO/bus_io.c **** 
  94:../Dave/Generated/BUS_IO/bus_io.c **** BUS_IO_STATUS_t BUS_IO_Init(BUS_IO_t *const handle_ptr)
  95:../Dave/Generated/BUS_IO/bus_io.c **** {
 230              	 .loc 2 95 0
 231              	 .cfi_startproc
 232 0000 80B5     	 push {r7,lr}
 233              	.LCFI12:
 234              	 .cfi_def_cfa_offset 8
 235              	 .cfi_offset 7,-8
 236              	 .cfi_offset 14,-4
 237 0002 84B0     	 sub sp,sp,#16
 238              	.LCFI13:
 239              	 .cfi_def_cfa_offset 24
 240 0004 00AF     	 add r7,sp,#0
 241              	.LCFI14:
 242              	 .cfi_def_cfa_register 7
 243 0006 7860     	 str r0,[r7,#4]
  96:../Dave/Generated/BUS_IO/bus_io.c ****   uint8_t i;
  97:../Dave/Generated/BUS_IO/bus_io.c **** 
  98:../Dave/Generated/BUS_IO/bus_io.c ****   XMC_ASSERT("BUS_IO_Init: handle_ptr null pointer", handle_ptr != NULL);
  99:../Dave/Generated/BUS_IO/bus_io.c **** 
 100:../Dave/Generated/BUS_IO/bus_io.c ****   if ((bool)false == handle_ptr->initialized)
 244              	 .loc 2 100 0
 245 0008 7B68     	 ldr r3,[r7,#4]
 246 000a 5B7B     	 ldrb r3,[r3,#13]
 247 000c 0122     	 mov r2,#1
 248 000e 5340     	 eor r3,r2
 249 0010 DBB2     	 uxtb r3,r3
 250 0012 002B     	 cmp r3,#0
 251 0014 2CD0     	 beq .L12
 101:../Dave/Generated/BUS_IO/bus_io.c ****   {
 102:../Dave/Generated/BUS_IO/bus_io.c ****     /* Iterate the list of pins initializing the pin according to the gpio_config */
 103:../Dave/Generated/BUS_IO/bus_io.c ****     for (i = 0U; i < handle_ptr->number_of_pins; i++)
 252              	 .loc 2 103 0
 253 0016 0F23     	 mov r3,#15
 254 0018 FB18     	 add r3,r7,r3
 255 001a 0022     	 mov r2,#0
 256 001c 1A70     	 strb r2,[r3]
 257 001e 1DE0     	 b .L13
 258              	.L14:
 104:../Dave/Generated/BUS_IO/bus_io.c ****     {
 105:../Dave/Generated/BUS_IO/bus_io.c ****       /* Initializes input / output characteristics */
 106:../Dave/Generated/BUS_IO/bus_io.c ****       XMC_GPIO_Init(handle_ptr->pin_array[i].gpio_port, handle_ptr->pin_array[i].gpio_pin, &handle_
 259              	 .loc 2 106 0 discriminator 3
 260 0020 7B68     	 ldr r3,[r7,#4]
 261 0022 1A68     	 ldr r2,[r3]
 262 0024 0F23     	 mov r3,#15
 263 0026 FB18     	 add r3,r7,r3
 264 0028 1B78     	 ldrb r3,[r3]
 265 002a DB00     	 lsl r3,r3,#3
 266 002c D318     	 add r3,r2,r3
 267 002e 1968     	 ldr r1,[r3]
 268 0030 7B68     	 ldr r3,[r7,#4]
 269 0032 1A68     	 ldr r2,[r3]
 270 0034 0F23     	 mov r3,#15
 271 0036 FB18     	 add r3,r7,r3
 272 0038 1B78     	 ldrb r3,[r3]
 273 003a DB00     	 lsl r3,r3,#3
 274 003c D318     	 add r3,r2,r3
 275 003e 1A79     	 ldrb r2,[r3,#4]
 276 0040 7B68     	 ldr r3,[r7,#4]
 277 0042 0433     	 add r3,r3,#4
 278 0044 081C     	 mov r0,r1
 279 0046 111C     	 mov r1,r2
 280 0048 1A1C     	 mov r2,r3
 281 004a FFF7FEFF 	 bl XMC_GPIO_Init
 103:../Dave/Generated/BUS_IO/bus_io.c ****     {
 282              	 .loc 2 103 0 discriminator 3
 283 004e 0F23     	 mov r3,#15
 284 0050 FB18     	 add r3,r7,r3
 285 0052 1A78     	 ldrb r2,[r3]
 286 0054 0F23     	 mov r3,#15
 287 0056 FB18     	 add r3,r7,r3
 288 0058 0132     	 add r2,r2,#1
 289 005a 1A70     	 strb r2,[r3]
 290              	.L13:
 103:../Dave/Generated/BUS_IO/bus_io.c ****     {
 291              	 .loc 2 103 0 is_stmt 0 discriminator 1
 292 005c 7B68     	 ldr r3,[r7,#4]
 293 005e 1B7B     	 ldrb r3,[r3,#12]
 294 0060 0F22     	 mov r2,#15
 295 0062 BA18     	 add r2,r7,r2
 296 0064 1278     	 ldrb r2,[r2]
 297 0066 9A42     	 cmp r2,r3
 298 0068 DAD3     	 bcc .L14
 107:../Dave/Generated/BUS_IO/bus_io.c ****     }
 108:../Dave/Generated/BUS_IO/bus_io.c ****     handle_ptr->initialized = (bool)true;
 299              	 .loc 2 108 0 is_stmt 1
 300 006a 7B68     	 ldr r3,[r7,#4]
 301 006c 0122     	 mov r2,#1
 302 006e 5A73     	 strb r2,[r3,#13]
 303              	.L12:
 109:../Dave/Generated/BUS_IO/bus_io.c ****   }
 110:../Dave/Generated/BUS_IO/bus_io.c ****   return (BUS_IO_STATUS_OK);
 304              	 .loc 2 110 0
 305 0070 0023     	 mov r3,#0
 111:../Dave/Generated/BUS_IO/bus_io.c **** }
 306              	 .loc 2 111 0
 307 0072 181C     	 mov r0,r3
 308 0074 BD46     	 mov sp,r7
 309 0076 04B0     	 add sp,sp,#16
 310              	 
 311 0078 80BD     	 pop {r7,pc}
 312              	 .cfi_endproc
 313              	.LFE53:
 315 007a C046     	 .section .text.BUS_IO_SetMode,"ax",%progbits
 316              	 .align 2
 317              	 .global BUS_IO_SetMode
 318              	 .code 16
 319              	 .thumb_func
 321              	BUS_IO_SetMode:
 322              	.LFB54:
 112:../Dave/Generated/BUS_IO/bus_io.c **** 
 113:../Dave/Generated/BUS_IO/bus_io.c **** /* Function to set the mode of the bus */
 114:../Dave/Generated/BUS_IO/bus_io.c **** void BUS_IO_SetMode(BUS_IO_t *const handle_ptr, const BUS_IO_MODE_t mode)
 115:../Dave/Generated/BUS_IO/bus_io.c **** {
 323              	 .loc 2 115 0
 324              	 .cfi_startproc
 325 0000 80B5     	 push {r7,lr}
 326              	.LCFI15:
 327              	 .cfi_def_cfa_offset 8
 328              	 .cfi_offset 7,-8
 329              	 .cfi_offset 14,-4
 330 0002 84B0     	 sub sp,sp,#16
 331              	.LCFI16:
 332              	 .cfi_def_cfa_offset 24
 333 0004 00AF     	 add r7,sp,#0
 334              	.LCFI17:
 335              	 .cfi_def_cfa_register 7
 336 0006 7860     	 str r0,[r7,#4]
 337 0008 0A1C     	 mov r2,r1
 338 000a FB1C     	 add r3,r7,#3
 339 000c 1A70     	 strb r2,[r3]
 116:../Dave/Generated/BUS_IO/bus_io.c ****   uint8_t i;
 117:../Dave/Generated/BUS_IO/bus_io.c **** 
 118:../Dave/Generated/BUS_IO/bus_io.c ****   XMC_ASSERT("BUS_IO_SetMode: handle_ptr null pointer", handle_ptr != NULL);
 119:../Dave/Generated/BUS_IO/bus_io.c **** 
 120:../Dave/Generated/BUS_IO/bus_io.c ****   /* Iterate the list of pins setting the pin according to the selected mode */
 121:../Dave/Generated/BUS_IO/bus_io.c ****   for (i = 0U; i < handle_ptr->number_of_pins; i++)
 340              	 .loc 2 121 0
 341 000e 0F23     	 mov r3,#15
 342 0010 FB18     	 add r3,r7,r3
 343 0012 0022     	 mov r2,#0
 344 0014 1A70     	 strb r2,[r3]
 345 0016 1DE0     	 b .L17
 346              	.L18:
 122:../Dave/Generated/BUS_IO/bus_io.c ****   {
 123:../Dave/Generated/BUS_IO/bus_io.c ****     /* Setting of a mode of a bus */
 124:../Dave/Generated/BUS_IO/bus_io.c ****     XMC_GPIO_SetMode(handle_ptr->pin_array[i].gpio_port, handle_ptr->pin_array[i].gpio_pin, mode);
 347              	 .loc 2 124 0 discriminator 3
 348 0018 7B68     	 ldr r3,[r7,#4]
 349 001a 1A68     	 ldr r2,[r3]
 350 001c 0F23     	 mov r3,#15
 351 001e FB18     	 add r3,r7,r3
 352 0020 1B78     	 ldrb r3,[r3]
 353 0022 DB00     	 lsl r3,r3,#3
 354 0024 D318     	 add r3,r2,r3
 355 0026 1968     	 ldr r1,[r3]
 356 0028 7B68     	 ldr r3,[r7,#4]
 357 002a 1A68     	 ldr r2,[r3]
 358 002c 0F23     	 mov r3,#15
 359 002e FB18     	 add r3,r7,r3
 360 0030 1B78     	 ldrb r3,[r3]
 361 0032 DB00     	 lsl r3,r3,#3
 362 0034 D318     	 add r3,r2,r3
 363 0036 1A79     	 ldrb r2,[r3,#4]
 364 0038 FB1C     	 add r3,r7,#3
 365 003a 1B78     	 ldrb r3,[r3]
 366 003c 081C     	 mov r0,r1
 367 003e 111C     	 mov r1,r2
 368 0040 1A1C     	 mov r2,r3
 369 0042 FFF7FEFF 	 bl XMC_GPIO_SetMode
 121:../Dave/Generated/BUS_IO/bus_io.c ****   {
 370              	 .loc 2 121 0 discriminator 3
 371 0046 0F23     	 mov r3,#15
 372 0048 FB18     	 add r3,r7,r3
 373 004a 1A78     	 ldrb r2,[r3]
 374 004c 0F23     	 mov r3,#15
 375 004e FB18     	 add r3,r7,r3
 376 0050 0132     	 add r2,r2,#1
 377 0052 1A70     	 strb r2,[r3]
 378              	.L17:
 121:../Dave/Generated/BUS_IO/bus_io.c ****   {
 379              	 .loc 2 121 0 is_stmt 0 discriminator 1
 380 0054 7B68     	 ldr r3,[r7,#4]
 381 0056 1B7B     	 ldrb r3,[r3,#12]
 382 0058 0F22     	 mov r2,#15
 383 005a BA18     	 add r2,r7,r2
 384 005c 1278     	 ldrb r2,[r2]
 385 005e 9A42     	 cmp r2,r3
 386 0060 DAD3     	 bcc .L18
 125:../Dave/Generated/BUS_IO/bus_io.c ****   }
 126:../Dave/Generated/BUS_IO/bus_io.c **** }
 387              	 .loc 2 126 0 is_stmt 1
 388 0062 BD46     	 mov sp,r7
 389 0064 04B0     	 add sp,sp,#16
 390              	 
 391 0066 80BD     	 pop {r7,pc}
 392              	 .cfi_endproc
 393              	.LFE54:
 395              	 .section .text.BUS_IO_Read,"ax",%progbits
 396              	 .align 2
 397              	 .global BUS_IO_Read
 398              	 .code 16
 399              	 .thumb_func
 401              	BUS_IO_Read:
 402              	.LFB55:
 127:../Dave/Generated/BUS_IO/bus_io.c **** 
 128:../Dave/Generated/BUS_IO/bus_io.c **** /* Function to read the bus pins state */
 129:../Dave/Generated/BUS_IO/bus_io.c **** uint16_t BUS_IO_Read(BUS_IO_t *const handle_ptr)
 130:../Dave/Generated/BUS_IO/bus_io.c **** {
 403              	 .loc 2 130 0
 404              	 .cfi_startproc
 405 0000 80B5     	 push {r7,lr}
 406              	.LCFI18:
 407              	 .cfi_def_cfa_offset 8
 408              	 .cfi_offset 7,-8
 409              	 .cfi_offset 14,-4
 410 0002 84B0     	 sub sp,sp,#16
 411              	.LCFI19:
 412              	 .cfi_def_cfa_offset 24
 413 0004 00AF     	 add r7,sp,#0
 414              	.LCFI20:
 415              	 .cfi_def_cfa_register 7
 416 0006 7860     	 str r0,[r7,#4]
 131:../Dave/Generated/BUS_IO/bus_io.c ****   uint8_t i;
 132:../Dave/Generated/BUS_IO/bus_io.c ****   uint16_t count = 0U;
 417              	 .loc 2 132 0
 418 0008 0C23     	 mov r3,#12
 419 000a FB18     	 add r3,r7,r3
 420 000c 0022     	 mov r2,#0
 421 000e 1A80     	 strh r2,[r3]
 133:../Dave/Generated/BUS_IO/bus_io.c **** 
 134:../Dave/Generated/BUS_IO/bus_io.c ****   XMC_ASSERT("BUS_IO_Read: handle_ptr null pointer", handle_ptr != NULL);
 135:../Dave/Generated/BUS_IO/bus_io.c **** 
 136:../Dave/Generated/BUS_IO/bus_io.c ****   /* Iterate the list of pins reading the pin state and packing the result according the pin positi
 137:../Dave/Generated/BUS_IO/bus_io.c ****   for (i = 0U; i < handle_ptr->number_of_pins; i++)
 422              	 .loc 2 137 0
 423 0010 0F23     	 mov r3,#15
 424 0012 FB18     	 add r3,r7,r3
 425 0014 0022     	 mov r2,#0
 426 0016 1A70     	 strb r2,[r3]
 427 0018 28E0     	 b .L20
 428              	.L21:
 138:../Dave/Generated/BUS_IO/bus_io.c ****   {
 139:../Dave/Generated/BUS_IO/bus_io.c ****     /* Reading a bus pin's state */
 140:../Dave/Generated/BUS_IO/bus_io.c ****     count |= (uint16_t)(XMC_GPIO_GetInput(handle_ptr->pin_array[i].gpio_port, handle_ptr->pin_array
 429              	 .loc 2 140 0 discriminator 3
 430 001a 7B68     	 ldr r3,[r7,#4]
 431 001c 1A68     	 ldr r2,[r3]
 432 001e 0F23     	 mov r3,#15
 433 0020 FB18     	 add r3,r7,r3
 434 0022 1B78     	 ldrb r3,[r3]
 435 0024 DB00     	 lsl r3,r3,#3
 436 0026 D318     	 add r3,r2,r3
 437 0028 1968     	 ldr r1,[r3]
 438 002a 7B68     	 ldr r3,[r7,#4]
 439 002c 1A68     	 ldr r2,[r3]
 440 002e 0F23     	 mov r3,#15
 441 0030 FB18     	 add r3,r7,r3
 442 0032 1B78     	 ldrb r3,[r3]
 443 0034 DB00     	 lsl r3,r3,#3
 444 0036 D318     	 add r3,r2,r3
 445 0038 1B79     	 ldrb r3,[r3,#4]
 446 003a 081C     	 mov r0,r1
 447 003c 191C     	 mov r1,r3
 448 003e FFF7FEFF 	 bl XMC_GPIO_GetInput
 449 0042 021C     	 mov r2,r0
 450 0044 0F23     	 mov r3,#15
 451 0046 FB18     	 add r3,r7,r3
 452 0048 1B78     	 ldrb r3,[r3]
 453 004a 9A40     	 lsl r2,r2,r3
 454 004c 131C     	 mov r3,r2
 455 004e 99B2     	 uxth r1,r3
 456 0050 0C23     	 mov r3,#12
 457 0052 FB18     	 add r3,r7,r3
 458 0054 0C22     	 mov r2,#12
 459 0056 BA18     	 add r2,r7,r2
 460 0058 1288     	 ldrh r2,[r2]
 461 005a 0A43     	 orr r2,r1
 462 005c 1A80     	 strh r2,[r3]
 137:../Dave/Generated/BUS_IO/bus_io.c ****   {
 463              	 .loc 2 137 0 discriminator 3
 464 005e 0F23     	 mov r3,#15
 465 0060 FB18     	 add r3,r7,r3
 466 0062 1A78     	 ldrb r2,[r3]
 467 0064 0F23     	 mov r3,#15
 468 0066 FB18     	 add r3,r7,r3
 469 0068 0132     	 add r2,r2,#1
 470 006a 1A70     	 strb r2,[r3]
 471              	.L20:
 137:../Dave/Generated/BUS_IO/bus_io.c ****   {
 472              	 .loc 2 137 0 is_stmt 0 discriminator 1
 473 006c 7B68     	 ldr r3,[r7,#4]
 474 006e 1B7B     	 ldrb r3,[r3,#12]
 475 0070 0F22     	 mov r2,#15
 476 0072 BA18     	 add r2,r7,r2
 477 0074 1278     	 ldrb r2,[r2]
 478 0076 9A42     	 cmp r2,r3
 479 0078 CFD3     	 bcc .L21
 141:../Dave/Generated/BUS_IO/bus_io.c ****   }
 142:../Dave/Generated/BUS_IO/bus_io.c ****   return(count);
 480              	 .loc 2 142 0 is_stmt 1
 481 007a 0C23     	 mov r3,#12
 482 007c FB18     	 add r3,r7,r3
 483 007e 1B88     	 ldrh r3,[r3]
 143:../Dave/Generated/BUS_IO/bus_io.c **** }
 484              	 .loc 2 143 0
 485 0080 181C     	 mov r0,r3
 486 0082 BD46     	 mov sp,r7
 487 0084 04B0     	 add sp,sp,#16
 488              	 
 489 0086 80BD     	 pop {r7,pc}
 490              	 .cfi_endproc
 491              	.LFE55:
 493              	 .section .text.BUS_IO_Write,"ax",%progbits
 494              	 .align 2
 495              	 .global BUS_IO_Write
 496              	 .code 16
 497              	 .thumb_func
 499              	BUS_IO_Write:
 500              	.LFB56:
 144:../Dave/Generated/BUS_IO/bus_io.c **** 
 145:../Dave/Generated/BUS_IO/bus_io.c **** /* Function to set the pins bus state */
 146:../Dave/Generated/BUS_IO/bus_io.c **** void BUS_IO_Write(BUS_IO_t *const handle_ptr, const uint16_t data)
 147:../Dave/Generated/BUS_IO/bus_io.c **** {
 501              	 .loc 2 147 0
 502              	 .cfi_startproc
 503 0000 80B5     	 push {r7,lr}
 504              	.LCFI21:
 505              	 .cfi_def_cfa_offset 8
 506              	 .cfi_offset 7,-8
 507              	 .cfi_offset 14,-4
 508 0002 84B0     	 sub sp,sp,#16
 509              	.LCFI22:
 510              	 .cfi_def_cfa_offset 24
 511 0004 00AF     	 add r7,sp,#0
 512              	.LCFI23:
 513              	 .cfi_def_cfa_register 7
 514 0006 7860     	 str r0,[r7,#4]
 515 0008 0A1C     	 mov r2,r1
 516 000a BB1C     	 add r3,r7,#2
 517 000c 1A80     	 strh r2,[r3]
 148:../Dave/Generated/BUS_IO/bus_io.c ****   uint8_t i;
 149:../Dave/Generated/BUS_IO/bus_io.c ****   const BUS_IO_PORT_PIN_t *bus_io_port_pin;
 150:../Dave/Generated/BUS_IO/bus_io.c **** 
 151:../Dave/Generated/BUS_IO/bus_io.c ****   XMC_ASSERT("BUS_IO_Write: handle_ptr null pointer", handle_ptr != NULL);
 152:../Dave/Generated/BUS_IO/bus_io.c **** 
 153:../Dave/Generated/BUS_IO/bus_io.c ****   bus_io_port_pin = handle_ptr->pin_array;
 518              	 .loc 2 153 0
 519 000e 7B68     	 ldr r3,[r7,#4]
 520 0010 1B68     	 ldr r3,[r3]
 521 0012 BB60     	 str r3,[r7,#8]
 154:../Dave/Generated/BUS_IO/bus_io.c ****   /* Iterate the list of pins setting the pin state according the pin position in the list, , from 
 155:../Dave/Generated/BUS_IO/bus_io.c ****   for (i = 0U; i < handle_ptr->number_of_pins; i++)
 522              	 .loc 2 155 0
 523 0014 0F23     	 mov r3,#15
 524 0016 FB18     	 add r3,r7,r3
 525 0018 0022     	 mov r2,#0
 526 001a 1A70     	 strb r2,[r3]
 527 001c 2BE0     	 b .L24
 528              	.L27:
 156:../Dave/Generated/BUS_IO/bus_io.c ****   {
 157:../Dave/Generated/BUS_IO/bus_io.c ****     if (data & (uint16_t)((uint16_t)1 << i))
 529              	 .loc 2 157 0
 530 001e 0F23     	 mov r3,#15
 531 0020 FB18     	 add r3,r7,r3
 532 0022 1B78     	 ldrb r3,[r3]
 533 0024 0122     	 mov r2,#1
 534 0026 9A40     	 lsl r2,r2,r3
 535 0028 131C     	 mov r3,r2
 536 002a 9BB2     	 uxth r3,r3
 537 002c BA1C     	 add r2,r7,#2
 538 002e 1288     	 ldrh r2,[r2]
 539 0030 1340     	 and r3,r2
 540 0032 9BB2     	 uxth r3,r3
 541 0034 002B     	 cmp r3,#0
 542 0036 09D0     	 beq .L25
 158:../Dave/Generated/BUS_IO/bus_io.c ****     {
 159:../Dave/Generated/BUS_IO/bus_io.c ****       XMC_GPIO_SetOutputLevel(bus_io_port_pin->gpio_port, bus_io_port_pin->gpio_pin, XMC_GPIO_OUTPU
 543              	 .loc 2 159 0
 544 0038 BB68     	 ldr r3,[r7,#8]
 545 003a 1A68     	 ldr r2,[r3]
 546 003c BB68     	 ldr r3,[r7,#8]
 547 003e 1B79     	 ldrb r3,[r3,#4]
 548 0040 101C     	 mov r0,r2
 549 0042 191C     	 mov r1,r3
 550 0044 0122     	 mov r2,#1
 551 0046 FFF7FEFF 	 bl XMC_GPIO_SetOutputLevel
 552 004a 0AE0     	 b .L26
 553              	.L25:
 160:../Dave/Generated/BUS_IO/bus_io.c ****     }
 161:../Dave/Generated/BUS_IO/bus_io.c ****     else
 162:../Dave/Generated/BUS_IO/bus_io.c ****     {
 163:../Dave/Generated/BUS_IO/bus_io.c ****       XMC_GPIO_SetOutputLevel(bus_io_port_pin->gpio_port, bus_io_port_pin->gpio_pin, XMC_GPIO_OUTPU
 554              	 .loc 2 163 0
 555 004c BB68     	 ldr r3,[r7,#8]
 556 004e 1968     	 ldr r1,[r3]
 557 0050 BB68     	 ldr r3,[r7,#8]
 558 0052 1A79     	 ldrb r2,[r3,#4]
 559 0054 8023     	 mov r3,#128
 560 0056 5B02     	 lsl r3,r3,#9
 561 0058 081C     	 mov r0,r1
 562 005a 111C     	 mov r1,r2
 563 005c 1A1C     	 mov r2,r3
 564 005e FFF7FEFF 	 bl XMC_GPIO_SetOutputLevel
 565              	.L26:
 164:../Dave/Generated/BUS_IO/bus_io.c ****     }
 165:../Dave/Generated/BUS_IO/bus_io.c ****    bus_io_port_pin++;
 566              	 .loc 2 165 0 discriminator 2
 567 0062 BB68     	 ldr r3,[r7,#8]
 568 0064 0833     	 add r3,r3,#8
 569 0066 BB60     	 str r3,[r7,#8]
 155:../Dave/Generated/BUS_IO/bus_io.c ****   {
 570              	 .loc 2 155 0 discriminator 2
 571 0068 0F23     	 mov r3,#15
 572 006a FB18     	 add r3,r7,r3
 573 006c 1A78     	 ldrb r2,[r3]
 574 006e 0F23     	 mov r3,#15
 575 0070 FB18     	 add r3,r7,r3
 576 0072 0132     	 add r2,r2,#1
 577 0074 1A70     	 strb r2,[r3]
 578              	.L24:
 155:../Dave/Generated/BUS_IO/bus_io.c ****   {
 579              	 .loc 2 155 0 is_stmt 0 discriminator 1
 580 0076 7B68     	 ldr r3,[r7,#4]
 581 0078 1B7B     	 ldrb r3,[r3,#12]
 582 007a 0F22     	 mov r2,#15
 583 007c BA18     	 add r2,r7,r2
 584 007e 1278     	 ldrb r2,[r2]
 585 0080 9A42     	 cmp r2,r3
 586 0082 CCD3     	 bcc .L27
 166:../Dave/Generated/BUS_IO/bus_io.c ****   }
 167:../Dave/Generated/BUS_IO/bus_io.c **** }
 587              	 .loc 2 167 0 is_stmt 1
 588 0084 BD46     	 mov sp,r7
 589 0086 04B0     	 add sp,sp,#16
 590              	 
 591 0088 80BD     	 pop {r7,pc}
 592              	 .cfi_endproc
 593              	.LFE56:
 595 008a C046     	 .section .text.BUS_IO_Toggle,"ax",%progbits
 596              	 .align 2
 597              	 .global BUS_IO_Toggle
 598              	 .code 16
 599              	 .thumb_func
 601              	BUS_IO_Toggle:
 602              	.LFB57:
 168:../Dave/Generated/BUS_IO/bus_io.c **** 
 169:../Dave/Generated/BUS_IO/bus_io.c **** /* Function to Toggles the pins bus state */
 170:../Dave/Generated/BUS_IO/bus_io.c **** void BUS_IO_Toggle(BUS_IO_t *const handle_ptr)
 171:../Dave/Generated/BUS_IO/bus_io.c **** {
 603              	 .loc 2 171 0
 604              	 .cfi_startproc
 605 0000 80B5     	 push {r7,lr}
 606              	.LCFI24:
 607              	 .cfi_def_cfa_offset 8
 608              	 .cfi_offset 7,-8
 609              	 .cfi_offset 14,-4
 610 0002 84B0     	 sub sp,sp,#16
 611              	.LCFI25:
 612              	 .cfi_def_cfa_offset 24
 613 0004 00AF     	 add r7,sp,#0
 614              	.LCFI26:
 615              	 .cfi_def_cfa_register 7
 616 0006 7860     	 str r0,[r7,#4]
 172:../Dave/Generated/BUS_IO/bus_io.c ****   uint8_t i;
 173:../Dave/Generated/BUS_IO/bus_io.c **** 
 174:../Dave/Generated/BUS_IO/bus_io.c ****   XMC_ASSERT("BUS_IO_Toggle: handle_ptr null pointer", handle_ptr != NULL);
 175:../Dave/Generated/BUS_IO/bus_io.c **** 
 176:../Dave/Generated/BUS_IO/bus_io.c ****   /* Iterate the list of pins toggling the pin state */
 177:../Dave/Generated/BUS_IO/bus_io.c ****   for (i = 0U; i < handle_ptr->number_of_pins; i++)
 617              	 .loc 2 177 0
 618 0008 0F23     	 mov r3,#15
 619 000a FB18     	 add r3,r7,r3
 620 000c 0022     	 mov r2,#0
 621 000e 1A70     	 strb r2,[r3]
 622 0010 1AE0     	 b .L29
 623              	.L30:
 178:../Dave/Generated/BUS_IO/bus_io.c ****   {
 179:../Dave/Generated/BUS_IO/bus_io.c ****     /* Toggles the pins bus state */
 180:../Dave/Generated/BUS_IO/bus_io.c ****     XMC_GPIO_ToggleOutput(handle_ptr->pin_array[i].gpio_port, handle_ptr->pin_array[i].gpio_pin);
 624              	 .loc 2 180 0 discriminator 3
 625 0012 7B68     	 ldr r3,[r7,#4]
 626 0014 1A68     	 ldr r2,[r3]
 627 0016 0F23     	 mov r3,#15
 628 0018 FB18     	 add r3,r7,r3
 629 001a 1B78     	 ldrb r3,[r3]
 630 001c DB00     	 lsl r3,r3,#3
 631 001e D318     	 add r3,r2,r3
 632 0020 1968     	 ldr r1,[r3]
 633 0022 7B68     	 ldr r3,[r7,#4]
 634 0024 1A68     	 ldr r2,[r3]
 635 0026 0F23     	 mov r3,#15
 636 0028 FB18     	 add r3,r7,r3
 637 002a 1B78     	 ldrb r3,[r3]
 638 002c DB00     	 lsl r3,r3,#3
 639 002e D318     	 add r3,r2,r3
 640 0030 1B79     	 ldrb r3,[r3,#4]
 641 0032 081C     	 mov r0,r1
 642 0034 191C     	 mov r1,r3
 643 0036 FFF7FEFF 	 bl XMC_GPIO_ToggleOutput
 177:../Dave/Generated/BUS_IO/bus_io.c ****   {
 644              	 .loc 2 177 0 discriminator 3
 645 003a 0F23     	 mov r3,#15
 646 003c FB18     	 add r3,r7,r3
 647 003e 1A78     	 ldrb r2,[r3]
 648 0040 0F23     	 mov r3,#15
 649 0042 FB18     	 add r3,r7,r3
 650 0044 0132     	 add r2,r2,#1
 651 0046 1A70     	 strb r2,[r3]
 652              	.L29:
 177:../Dave/Generated/BUS_IO/bus_io.c ****   {
 653              	 .loc 2 177 0 is_stmt 0 discriminator 1
 654 0048 7B68     	 ldr r3,[r7,#4]
 655 004a 1B7B     	 ldrb r3,[r3,#12]
 656 004c 0F22     	 mov r2,#15
 657 004e BA18     	 add r2,r7,r2
 658 0050 1278     	 ldrb r2,[r2]
 659 0052 9A42     	 cmp r2,r3
 660 0054 DDD3     	 bcc .L30
 181:../Dave/Generated/BUS_IO/bus_io.c ****   }
 182:../Dave/Generated/BUS_IO/bus_io.c **** }
 661              	 .loc 2 182 0 is_stmt 1
 662 0056 BD46     	 mov sp,r7
 663 0058 04B0     	 add sp,sp,#16
 664              	 
 665 005a 80BD     	 pop {r7,pc}
 666              	 .cfi_endproc
 667              	.LFE57:
 669              	 .text
 670              	.Letext0:
 671              	 .file 3 "c:\\dave\\dave-ide-4.4.2-64bit\\dave-ide-4.4.2-64bit\\eclipse\\arm-gcc-49\\arm-none-eabi\\include\\machine\\_default_types.h"
 672              	 .file 4 "c:\\dave\\dave-ide-4.4.2-64bit\\dave-ide-4.4.2-64bit\\eclipse\\arm-gcc-49\\arm-none-eabi\\include\\stdint.h"
 673              	 .file 5 "C:/GitHub/MobRob_Rover_NEW/Ultrasonic_Sensor_Node/Ultrasonic_XMC1400_CAPTRUE/Libraries/XMCLib/inc/xmc1_gpio.h"
 674              	 .file 6 "C:/GitHub/MobRob_Rover_NEW/Ultrasonic_Sensor_Node/Ultrasonic_XMC1400_CAPTRUE/Dave/Generated/DAVE_Common.h"
 675              	 .file 7 "../Dave/Generated/BUS_IO/bus_io.h"
 676              	 .file 8 "C:/GitHub/MobRob_Rover_NEW/Ultrasonic_Sensor_Node/Ultrasonic_XMC1400_CAPTRUE/Libraries/CMSIS/Include/cmsis_gcc.h"