   1              	 .cpu cortex-m0
   2              	 .fpu softvfp
   3              	 .eabi_attribute 20,1
   4              	 .eabi_attribute 21,1
   5              	 .eabi_attribute 23,3
   6              	 .eabi_attribute 24,1
   7              	 .eabi_attribute 25,1
   8              	 .eabi_attribute 26,1
   9              	 .eabi_attribute 30,6
  10              	 .eabi_attribute 34,0
  11              	 .eabi_attribute 18,4
  12              	 .code 16
  13              	 .file "CAN.c"
  14              	 .text
  15              	.Ltext0:
  16              	 .cfi_sections .debug_frame
  17              	 .section .text.XMC_GPIO_SetOutputHigh,"ax",%progbits
  18              	 .align 2
  19              	 .code 16
  20              	 .thumb_func
  22              	XMC_GPIO_SetOutputHigh:
  23              	.LFB122:
  24              	 .file 1 "C:/GitHub/MobRob_Rover_NEW/Steering_Controller/MobRob_Steering_Controller/Libraries/XMCLib/inc/xmc_gpio.h"
   1:C:/GitHub/MobRob_Rover_NEW/Steering_Controller/MobRob_Steering_Controller/Libraries/XMCLib/inc\xmc_gpio.h **** /**
   2:C:/GitHub/MobRob_Rover_NEW/Steering_Controller/MobRob_Steering_Controller/Libraries/XMCLib/inc\xmc_gpio.h ****  * @file xmc_gpio.h
   3:C:/GitHub/MobRob_Rover_NEW/Steering_Controller/MobRob_Steering_Controller/Libraries/XMCLib/inc\xmc_gpio.h ****  * @date 2015-06-20
   4:C:/GitHub/MobRob_Rover_NEW/Steering_Controller/MobRob_Steering_Controller/Libraries/XMCLib/inc\xmc_gpio.h ****  *
   5:C:/GitHub/MobRob_Rover_NEW/Steering_Controller/MobRob_Steering_Controller/Libraries/XMCLib/inc\xmc_gpio.h ****  * @cond
   6:C:/GitHub/MobRob_Rover_NEW/Steering_Controller/MobRob_Steering_Controller/Libraries/XMCLib/inc\xmc_gpio.h ****  *****************************************************************************
   7:C:/GitHub/MobRob_Rover_NEW/Steering_Controller/MobRob_Steering_Controller/Libraries/XMCLib/inc\xmc_gpio.h ****  * XMClib v2.2.0 - XMC Peripheral Driver Library
   8:C:/GitHub/MobRob_Rover_NEW/Steering_Controller/MobRob_Steering_Controller/Libraries/XMCLib/inc\xmc_gpio.h ****  *
   9:C:/GitHub/MobRob_Rover_NEW/Steering_Controller/MobRob_Steering_Controller/Libraries/XMCLib/inc\xmc_gpio.h ****  * Copyright (c) 2015-2020, Infineon Technologies AG
  10:C:/GitHub/MobRob_Rover_NEW/Steering_Controller/MobRob_Steering_Controller/Libraries/XMCLib/inc\xmc_gpio.h ****  * All rights reserved.
  11:C:/GitHub/MobRob_Rover_NEW/Steering_Controller/MobRob_Steering_Controller/Libraries/XMCLib/inc\xmc_gpio.h ****  *
  12:C:/GitHub/MobRob_Rover_NEW/Steering_Controller/MobRob_Steering_Controller/Libraries/XMCLib/inc\xmc_gpio.h ****  * Boost Software License - Version 1.0 - August 17th, 2003
  13:C:/GitHub/MobRob_Rover_NEW/Steering_Controller/MobRob_Steering_Controller/Libraries/XMCLib/inc\xmc_gpio.h ****  *
  14:C:/GitHub/MobRob_Rover_NEW/Steering_Controller/MobRob_Steering_Controller/Libraries/XMCLib/inc\xmc_gpio.h ****  * Permission is hereby granted, free of charge, to any person or organization
  15:C:/GitHub/MobRob_Rover_NEW/Steering_Controller/MobRob_Steering_Controller/Libraries/XMCLib/inc\xmc_gpio.h ****  * obtaining a copy of the software and accompanying documentation covered by
  16:C:/GitHub/MobRob_Rover_NEW/Steering_Controller/MobRob_Steering_Controller/Libraries/XMCLib/inc\xmc_gpio.h ****  * this license (the "Software") to use, reproduce, display, distribute,
  17:C:/GitHub/MobRob_Rover_NEW/Steering_Controller/MobRob_Steering_Controller/Libraries/XMCLib/inc\xmc_gpio.h ****  * execute, and transmit the Software, and to prepare derivative works of the
  18:C:/GitHub/MobRob_Rover_NEW/Steering_Controller/MobRob_Steering_Controller/Libraries/XMCLib/inc\xmc_gpio.h ****  * Software, and to permit third-parties to whom the Software is furnished to
  19:C:/GitHub/MobRob_Rover_NEW/Steering_Controller/MobRob_Steering_Controller/Libraries/XMCLib/inc\xmc_gpio.h ****  * do so, all subject to the following:
  20:C:/GitHub/MobRob_Rover_NEW/Steering_Controller/MobRob_Steering_Controller/Libraries/XMCLib/inc\xmc_gpio.h ****  *
  21:C:/GitHub/MobRob_Rover_NEW/Steering_Controller/MobRob_Steering_Controller/Libraries/XMCLib/inc\xmc_gpio.h ****  * The copyright notices in the Software and this entire statement, including
  22:C:/GitHub/MobRob_Rover_NEW/Steering_Controller/MobRob_Steering_Controller/Libraries/XMCLib/inc\xmc_gpio.h ****  * the above license grant, this restriction and the following disclaimer,
  23:C:/GitHub/MobRob_Rover_NEW/Steering_Controller/MobRob_Steering_Controller/Libraries/XMCLib/inc\xmc_gpio.h ****  * must be included in all copies of the Software, in whole or in part, and
  24:C:/GitHub/MobRob_Rover_NEW/Steering_Controller/MobRob_Steering_Controller/Libraries/XMCLib/inc\xmc_gpio.h ****  * all derivative works of the Software, unless such copies or derivative
  25:C:/GitHub/MobRob_Rover_NEW/Steering_Controller/MobRob_Steering_Controller/Libraries/XMCLib/inc\xmc_gpio.h ****  * works are solely in the form of machine-executable object code generated by
  26:C:/GitHub/MobRob_Rover_NEW/Steering_Controller/MobRob_Steering_Controller/Libraries/XMCLib/inc\xmc_gpio.h ****  * a source language processor.
  27:C:/GitHub/MobRob_Rover_NEW/Steering_Controller/MobRob_Steering_Controller/Libraries/XMCLib/inc\xmc_gpio.h ****  *
  28:C:/GitHub/MobRob_Rover_NEW/Steering_Controller/MobRob_Steering_Controller/Libraries/XMCLib/inc\xmc_gpio.h ****  * THE SOFTWARE IS PROVIDED "AS IS", WITHOUT WARRANTY OF ANY KIND, EXPRESS OR
  29:C:/GitHub/MobRob_Rover_NEW/Steering_Controller/MobRob_Steering_Controller/Libraries/XMCLib/inc\xmc_gpio.h ****  * IMPLIED, INCLUDING BUT NOT LIMITED TO THE WARRANTIES OF MERCHANTABILITY,
  30:C:/GitHub/MobRob_Rover_NEW/Steering_Controller/MobRob_Steering_Controller/Libraries/XMCLib/inc\xmc_gpio.h ****  * FITNESS FOR A PARTICULAR PURPOSE, TITLE AND NON-INFRINGEMENT. IN NO EVENT
  31:C:/GitHub/MobRob_Rover_NEW/Steering_Controller/MobRob_Steering_Controller/Libraries/XMCLib/inc\xmc_gpio.h ****  * SHALL THE COPYRIGHT HOLDERS OR ANYONE DISTRIBUTING THE SOFTWARE BE LIABLE
  32:C:/GitHub/MobRob_Rover_NEW/Steering_Controller/MobRob_Steering_Controller/Libraries/XMCLib/inc\xmc_gpio.h ****  * FOR ANY DAMAGES OR OTHER LIABILITY, WHETHER IN CONTRACT, TORT OR OTHERWISE,
  33:C:/GitHub/MobRob_Rover_NEW/Steering_Controller/MobRob_Steering_Controller/Libraries/XMCLib/inc\xmc_gpio.h ****  * ARISING FROM, OUT OF OR IN CONNECTION WITH THE SOFTWARE OR THE USE OR OTHER
  34:C:/GitHub/MobRob_Rover_NEW/Steering_Controller/MobRob_Steering_Controller/Libraries/XMCLib/inc\xmc_gpio.h ****  * DEALINGS IN THE SOFTWARE.
  35:C:/GitHub/MobRob_Rover_NEW/Steering_Controller/MobRob_Steering_Controller/Libraries/XMCLib/inc\xmc_gpio.h ****  *
  36:C:/GitHub/MobRob_Rover_NEW/Steering_Controller/MobRob_Steering_Controller/Libraries/XMCLib/inc\xmc_gpio.h ****  * To improve the quality of the software, users are encouraged to share
  37:C:/GitHub/MobRob_Rover_NEW/Steering_Controller/MobRob_Steering_Controller/Libraries/XMCLib/inc\xmc_gpio.h ****  * modifications, enhancements or bug fixes with Infineon Technologies AG
  38:C:/GitHub/MobRob_Rover_NEW/Steering_Controller/MobRob_Steering_Controller/Libraries/XMCLib/inc\xmc_gpio.h ****  * at XMCSupport@infineon.com.
  39:C:/GitHub/MobRob_Rover_NEW/Steering_Controller/MobRob_Steering_Controller/Libraries/XMCLib/inc\xmc_gpio.h ****  *****************************************************************************
  40:C:/GitHub/MobRob_Rover_NEW/Steering_Controller/MobRob_Steering_Controller/Libraries/XMCLib/inc\xmc_gpio.h ****  *
  41:C:/GitHub/MobRob_Rover_NEW/Steering_Controller/MobRob_Steering_Controller/Libraries/XMCLib/inc\xmc_gpio.h ****  * Change History
  42:C:/GitHub/MobRob_Rover_NEW/Steering_Controller/MobRob_Steering_Controller/Libraries/XMCLib/inc\xmc_gpio.h ****  * --------------
  43:C:/GitHub/MobRob_Rover_NEW/Steering_Controller/MobRob_Steering_Controller/Libraries/XMCLib/inc\xmc_gpio.h ****  *
  44:C:/GitHub/MobRob_Rover_NEW/Steering_Controller/MobRob_Steering_Controller/Libraries/XMCLib/inc\xmc_gpio.h ****  * 2015-02-20:
  45:C:/GitHub/MobRob_Rover_NEW/Steering_Controller/MobRob_Steering_Controller/Libraries/XMCLib/inc\xmc_gpio.h ****  *     - Initial draft<br>
  46:C:/GitHub/MobRob_Rover_NEW/Steering_Controller/MobRob_Steering_Controller/Libraries/XMCLib/inc\xmc_gpio.h ****  *     - Documentation improved <br>
  47:C:/GitHub/MobRob_Rover_NEW/Steering_Controller/MobRob_Steering_Controller/Libraries/XMCLib/inc\xmc_gpio.h ****  *
  48:C:/GitHub/MobRob_Rover_NEW/Steering_Controller/MobRob_Steering_Controller/Libraries/XMCLib/inc\xmc_gpio.h ****  * 2015-06-20:
  49:C:/GitHub/MobRob_Rover_NEW/Steering_Controller/MobRob_Steering_Controller/Libraries/XMCLib/inc\xmc_gpio.h ****  *     - Removed version macros and declaration of GetDriverVersion API
  50:C:/GitHub/MobRob_Rover_NEW/Steering_Controller/MobRob_Steering_Controller/Libraries/XMCLib/inc\xmc_gpio.h ****  *
  51:C:/GitHub/MobRob_Rover_NEW/Steering_Controller/MobRob_Steering_Controller/Libraries/XMCLib/inc\xmc_gpio.h ****  * @endcond
  52:C:/GitHub/MobRob_Rover_NEW/Steering_Controller/MobRob_Steering_Controller/Libraries/XMCLib/inc\xmc_gpio.h ****  *
  53:C:/GitHub/MobRob_Rover_NEW/Steering_Controller/MobRob_Steering_Controller/Libraries/XMCLib/inc\xmc_gpio.h ****  */
  54:C:/GitHub/MobRob_Rover_NEW/Steering_Controller/MobRob_Steering_Controller/Libraries/XMCLib/inc\xmc_gpio.h **** 
  55:C:/GitHub/MobRob_Rover_NEW/Steering_Controller/MobRob_Steering_Controller/Libraries/XMCLib/inc\xmc_gpio.h **** #ifndef XMC_GPIO_H
  56:C:/GitHub/MobRob_Rover_NEW/Steering_Controller/MobRob_Steering_Controller/Libraries/XMCLib/inc\xmc_gpio.h **** #define XMC_GPIO_H
  57:C:/GitHub/MobRob_Rover_NEW/Steering_Controller/MobRob_Steering_Controller/Libraries/XMCLib/inc\xmc_gpio.h **** 
  58:C:/GitHub/MobRob_Rover_NEW/Steering_Controller/MobRob_Steering_Controller/Libraries/XMCLib/inc\xmc_gpio.h **** /**************************************************************************************************
  59:C:/GitHub/MobRob_Rover_NEW/Steering_Controller/MobRob_Steering_Controller/Libraries/XMCLib/inc\xmc_gpio.h ****  * HEADER FILES
  60:C:/GitHub/MobRob_Rover_NEW/Steering_Controller/MobRob_Steering_Controller/Libraries/XMCLib/inc\xmc_gpio.h ****  **************************************************************************************************
  61:C:/GitHub/MobRob_Rover_NEW/Steering_Controller/MobRob_Steering_Controller/Libraries/XMCLib/inc\xmc_gpio.h **** 
  62:C:/GitHub/MobRob_Rover_NEW/Steering_Controller/MobRob_Steering_Controller/Libraries/XMCLib/inc\xmc_gpio.h **** #include "xmc_common.h"
  63:C:/GitHub/MobRob_Rover_NEW/Steering_Controller/MobRob_Steering_Controller/Libraries/XMCLib/inc\xmc_gpio.h **** 
  64:C:/GitHub/MobRob_Rover_NEW/Steering_Controller/MobRob_Steering_Controller/Libraries/XMCLib/inc\xmc_gpio.h **** /**
  65:C:/GitHub/MobRob_Rover_NEW/Steering_Controller/MobRob_Steering_Controller/Libraries/XMCLib/inc\xmc_gpio.h ****  * @addtogroup XMClib XMC Peripheral Library
  66:C:/GitHub/MobRob_Rover_NEW/Steering_Controller/MobRob_Steering_Controller/Libraries/XMCLib/inc\xmc_gpio.h ****  * @{
  67:C:/GitHub/MobRob_Rover_NEW/Steering_Controller/MobRob_Steering_Controller/Libraries/XMCLib/inc\xmc_gpio.h ****  */
  68:C:/GitHub/MobRob_Rover_NEW/Steering_Controller/MobRob_Steering_Controller/Libraries/XMCLib/inc\xmc_gpio.h **** 
  69:C:/GitHub/MobRob_Rover_NEW/Steering_Controller/MobRob_Steering_Controller/Libraries/XMCLib/inc\xmc_gpio.h **** /**
  70:C:/GitHub/MobRob_Rover_NEW/Steering_Controller/MobRob_Steering_Controller/Libraries/XMCLib/inc\xmc_gpio.h ****  * @addtogroup GPIO
  71:C:/GitHub/MobRob_Rover_NEW/Steering_Controller/MobRob_Steering_Controller/Libraries/XMCLib/inc\xmc_gpio.h ****  * @brief General Purpose Input Output (GPIO) driver for the XMC microcontroller family.
  72:C:/GitHub/MobRob_Rover_NEW/Steering_Controller/MobRob_Steering_Controller/Libraries/XMCLib/inc\xmc_gpio.h ****  *
  73:C:/GitHub/MobRob_Rover_NEW/Steering_Controller/MobRob_Steering_Controller/Libraries/XMCLib/inc\xmc_gpio.h ****  * GPIO driver provide a generic and very flexible software interface for all standard digital I/O 
  74:C:/GitHub/MobRob_Rover_NEW/Steering_Controller/MobRob_Steering_Controller/Libraries/XMCLib/inc\xmc_gpio.h ****  * Each port slice has individual interfaces for the operation as General Purpose I/O and it furthe
  75:C:/GitHub/MobRob_Rover_NEW/Steering_Controller/MobRob_Steering_Controller/Libraries/XMCLib/inc\xmc_gpio.h ****  * connectivity to the on-chip periphery and the control for the pad characteristics.
  76:C:/GitHub/MobRob_Rover_NEW/Steering_Controller/MobRob_Steering_Controller/Libraries/XMCLib/inc\xmc_gpio.h ****  *
  77:C:/GitHub/MobRob_Rover_NEW/Steering_Controller/MobRob_Steering_Controller/Libraries/XMCLib/inc\xmc_gpio.h ****  * The driver is divided into Input and Output mode.
  78:C:/GitHub/MobRob_Rover_NEW/Steering_Controller/MobRob_Steering_Controller/Libraries/XMCLib/inc\xmc_gpio.h ****  *
  79:C:/GitHub/MobRob_Rover_NEW/Steering_Controller/MobRob_Steering_Controller/Libraries/XMCLib/inc\xmc_gpio.h ****  * Input mode features:
  80:C:/GitHub/MobRob_Rover_NEW/Steering_Controller/MobRob_Steering_Controller/Libraries/XMCLib/inc\xmc_gpio.h ****  * -# Configuration structure XMC_GPIO_CONFIG_t and initialization function XMC_GPIO_Init()
  81:C:/GitHub/MobRob_Rover_NEW/Steering_Controller/MobRob_Steering_Controller/Libraries/XMCLib/inc\xmc_gpio.h ****  * -# Allows the selection of weak pull-up or pull-down device. Configuration structure XMC_GPIO_MO
  82:C:/GitHub/MobRob_Rover_NEW/Steering_Controller/MobRob_Steering_Controller/Libraries/XMCLib/inc\xmc_gpio.h ****  * \if XMC1
  83:C:/GitHub/MobRob_Rover_NEW/Steering_Controller/MobRob_Steering_Controller/Libraries/XMCLib/inc\xmc_gpio.h ****  * -# Allows the selection of input hysteresis. XMC_GPIO_SetInputHysteresis()
  84:C:/GitHub/MobRob_Rover_NEW/Steering_Controller/MobRob_Steering_Controller/Libraries/XMCLib/inc\xmc_gpio.h ****  * \endif
  85:C:/GitHub/MobRob_Rover_NEW/Steering_Controller/MobRob_Steering_Controller/Libraries/XMCLib/inc\xmc_gpio.h ****  *
  86:C:/GitHub/MobRob_Rover_NEW/Steering_Controller/MobRob_Steering_Controller/Libraries/XMCLib/inc\xmc_gpio.h ****  *
  87:C:/GitHub/MobRob_Rover_NEW/Steering_Controller/MobRob_Steering_Controller/Libraries/XMCLib/inc\xmc_gpio.h ****  * Output mode features:
  88:C:/GitHub/MobRob_Rover_NEW/Steering_Controller/MobRob_Steering_Controller/Libraries/XMCLib/inc\xmc_gpio.h ****  * -# Allows the selection of push pull/open drain and Alternate output. Configuration structure XM
  89:C:/GitHub/MobRob_Rover_NEW/Steering_Controller/MobRob_Steering_Controller/Libraries/XMCLib/inc\xmc_gpio.h ****  * \if XMC4
  90:C:/GitHub/MobRob_Rover_NEW/Steering_Controller/MobRob_Steering_Controller/Libraries/XMCLib/inc\xmc_gpio.h ****  * -# Allows the selection of pad driver strength. Configuration structure XMC_GPIO_OUTPUT_STRENGTH
  91:C:/GitHub/MobRob_Rover_NEW/Steering_Controller/MobRob_Steering_Controller/Libraries/XMCLib/inc\xmc_gpio.h ****  * \endif
  92:C:/GitHub/MobRob_Rover_NEW/Steering_Controller/MobRob_Steering_Controller/Libraries/XMCLib/inc\xmc_gpio.h ****  *
  93:C:/GitHub/MobRob_Rover_NEW/Steering_Controller/MobRob_Steering_Controller/Libraries/XMCLib/inc\xmc_gpio.h ****  * -# Allows the selection of initial output level. Configuration structure XMC_GPIO_OUTPUT_LEVEL_t
  94:C:/GitHub/MobRob_Rover_NEW/Steering_Controller/MobRob_Steering_Controller/Libraries/XMCLib/inc\xmc_gpio.h ****  *
  95:C:/GitHub/MobRob_Rover_NEW/Steering_Controller/MobRob_Steering_Controller/Libraries/XMCLib/inc\xmc_gpio.h ****  *@{
  96:C:/GitHub/MobRob_Rover_NEW/Steering_Controller/MobRob_Steering_Controller/Libraries/XMCLib/inc\xmc_gpio.h ****  */
  97:C:/GitHub/MobRob_Rover_NEW/Steering_Controller/MobRob_Steering_Controller/Libraries/XMCLib/inc\xmc_gpio.h **** 
  98:C:/GitHub/MobRob_Rover_NEW/Steering_Controller/MobRob_Steering_Controller/Libraries/XMCLib/inc\xmc_gpio.h **** /**************************************************************************************************
  99:C:/GitHub/MobRob_Rover_NEW/Steering_Controller/MobRob_Steering_Controller/Libraries/XMCLib/inc\xmc_gpio.h ****  * MACROS
 100:C:/GitHub/MobRob_Rover_NEW/Steering_Controller/MobRob_Steering_Controller/Libraries/XMCLib/inc\xmc_gpio.h ****  **************************************************************************************************
 101:C:/GitHub/MobRob_Rover_NEW/Steering_Controller/MobRob_Steering_Controller/Libraries/XMCLib/inc\xmc_gpio.h **** 
 102:C:/GitHub/MobRob_Rover_NEW/Steering_Controller/MobRob_Steering_Controller/Libraries/XMCLib/inc\xmc_gpio.h **** #define PORT_IOCR_PC_Pos PORT0_IOCR0_PC0_Pos
 103:C:/GitHub/MobRob_Rover_NEW/Steering_Controller/MobRob_Steering_Controller/Libraries/XMCLib/inc\xmc_gpio.h **** #define PORT_IOCR_PC_Msk PORT0_IOCR0_PC0_Msk
 104:C:/GitHub/MobRob_Rover_NEW/Steering_Controller/MobRob_Steering_Controller/Libraries/XMCLib/inc\xmc_gpio.h **** 
 105:C:/GitHub/MobRob_Rover_NEW/Steering_Controller/MobRob_Steering_Controller/Libraries/XMCLib/inc\xmc_gpio.h **** #define PORT_IOCR_PC_Size 				(8U)
 106:C:/GitHub/MobRob_Rover_NEW/Steering_Controller/MobRob_Steering_Controller/Libraries/XMCLib/inc\xmc_gpio.h **** 
 107:C:/GitHub/MobRob_Rover_NEW/Steering_Controller/MobRob_Steering_Controller/Libraries/XMCLib/inc\xmc_gpio.h **** 
 108:C:/GitHub/MobRob_Rover_NEW/Steering_Controller/MobRob_Steering_Controller/Libraries/XMCLib/inc\xmc_gpio.h **** #define XMC_GPIO_CHECK_OUTPUT_LEVEL(level) ((level == XMC_GPIO_OUTPUT_LEVEL_LOW) || \
 109:C:/GitHub/MobRob_Rover_NEW/Steering_Controller/MobRob_Steering_Controller/Libraries/XMCLib/inc\xmc_gpio.h ****                                             (level == XMC_GPIO_OUTPUT_LEVEL_HIGH))
 110:C:/GitHub/MobRob_Rover_NEW/Steering_Controller/MobRob_Steering_Controller/Libraries/XMCLib/inc\xmc_gpio.h **** 
 111:C:/GitHub/MobRob_Rover_NEW/Steering_Controller/MobRob_Steering_Controller/Libraries/XMCLib/inc\xmc_gpio.h **** #define XMC_GPIO_CHECK_HWCTRL(hwctrl) ((hwctrl == XMC_GPIO_HWCTRL_DISABLED) || \
 112:C:/GitHub/MobRob_Rover_NEW/Steering_Controller/MobRob_Steering_Controller/Libraries/XMCLib/inc\xmc_gpio.h ****                                        (hwctrl == XMC_GPIO_HWCTRL_PERIPHERAL1) || \
 113:C:/GitHub/MobRob_Rover_NEW/Steering_Controller/MobRob_Steering_Controller/Libraries/XMCLib/inc\xmc_gpio.h ****                                        (hwctrl == XMC_GPIO_HWCTRL_PERIPHERAL2))
 114:C:/GitHub/MobRob_Rover_NEW/Steering_Controller/MobRob_Steering_Controller/Libraries/XMCLib/inc\xmc_gpio.h **** 
 115:C:/GitHub/MobRob_Rover_NEW/Steering_Controller/MobRob_Steering_Controller/Libraries/XMCLib/inc\xmc_gpio.h **** /**************************************************************************************************
 116:C:/GitHub/MobRob_Rover_NEW/Steering_Controller/MobRob_Steering_Controller/Libraries/XMCLib/inc\xmc_gpio.h ****  * ENUMS
 117:C:/GitHub/MobRob_Rover_NEW/Steering_Controller/MobRob_Steering_Controller/Libraries/XMCLib/inc\xmc_gpio.h ****  **************************************************************************************************
 118:C:/GitHub/MobRob_Rover_NEW/Steering_Controller/MobRob_Steering_Controller/Libraries/XMCLib/inc\xmc_gpio.h **** 
 119:C:/GitHub/MobRob_Rover_NEW/Steering_Controller/MobRob_Steering_Controller/Libraries/XMCLib/inc\xmc_gpio.h **** 
 120:C:/GitHub/MobRob_Rover_NEW/Steering_Controller/MobRob_Steering_Controller/Libraries/XMCLib/inc\xmc_gpio.h **** /**
 121:C:/GitHub/MobRob_Rover_NEW/Steering_Controller/MobRob_Steering_Controller/Libraries/XMCLib/inc\xmc_gpio.h ****  * Defines output level of a pin. Use type \a XMC_GPIO_OUTPUT_LEVEL_t for this enum.
 122:C:/GitHub/MobRob_Rover_NEW/Steering_Controller/MobRob_Steering_Controller/Libraries/XMCLib/inc\xmc_gpio.h ****  */
 123:C:/GitHub/MobRob_Rover_NEW/Steering_Controller/MobRob_Steering_Controller/Libraries/XMCLib/inc\xmc_gpio.h **** typedef enum XMC_GPIO_OUTPUT_LEVEL
 124:C:/GitHub/MobRob_Rover_NEW/Steering_Controller/MobRob_Steering_Controller/Libraries/XMCLib/inc\xmc_gpio.h **** {
 125:C:/GitHub/MobRob_Rover_NEW/Steering_Controller/MobRob_Steering_Controller/Libraries/XMCLib/inc\xmc_gpio.h ****   XMC_GPIO_OUTPUT_LEVEL_LOW  = 0x10000U, /**<  Reset bit */
 126:C:/GitHub/MobRob_Rover_NEW/Steering_Controller/MobRob_Steering_Controller/Libraries/XMCLib/inc\xmc_gpio.h ****   XMC_GPIO_OUTPUT_LEVEL_HIGH = 0x1U, 	/**< Set bit  */
 127:C:/GitHub/MobRob_Rover_NEW/Steering_Controller/MobRob_Steering_Controller/Libraries/XMCLib/inc\xmc_gpio.h **** } XMC_GPIO_OUTPUT_LEVEL_t;
 128:C:/GitHub/MobRob_Rover_NEW/Steering_Controller/MobRob_Steering_Controller/Libraries/XMCLib/inc\xmc_gpio.h **** 
 129:C:/GitHub/MobRob_Rover_NEW/Steering_Controller/MobRob_Steering_Controller/Libraries/XMCLib/inc\xmc_gpio.h **** /**
 130:C:/GitHub/MobRob_Rover_NEW/Steering_Controller/MobRob_Steering_Controller/Libraries/XMCLib/inc\xmc_gpio.h ****  * Defines direct hardware control characteristics of the pin . Use type \a XMC_GPIO_HWCTRL_t for t
 131:C:/GitHub/MobRob_Rover_NEW/Steering_Controller/MobRob_Steering_Controller/Libraries/XMCLib/inc\xmc_gpio.h ****  */
 132:C:/GitHub/MobRob_Rover_NEW/Steering_Controller/MobRob_Steering_Controller/Libraries/XMCLib/inc\xmc_gpio.h **** typedef enum XMC_GPIO_HWCTRL
 133:C:/GitHub/MobRob_Rover_NEW/Steering_Controller/MobRob_Steering_Controller/Libraries/XMCLib/inc\xmc_gpio.h **** {
 134:C:/GitHub/MobRob_Rover_NEW/Steering_Controller/MobRob_Steering_Controller/Libraries/XMCLib/inc\xmc_gpio.h ****   XMC_GPIO_HWCTRL_DISABLED     = 0x0U, /**<  Software control only */
 135:C:/GitHub/MobRob_Rover_NEW/Steering_Controller/MobRob_Steering_Controller/Libraries/XMCLib/inc\xmc_gpio.h ****   XMC_GPIO_HWCTRL_PERIPHERAL1  = 0x1U, /**<  HWI0/HWO0 control path can override the software confi
 136:C:/GitHub/MobRob_Rover_NEW/Steering_Controller/MobRob_Steering_Controller/Libraries/XMCLib/inc\xmc_gpio.h ****   XMC_GPIO_HWCTRL_PERIPHERAL2  = 0x2U  /**<  HWI1/HWO1 control path can override the software confi
 137:C:/GitHub/MobRob_Rover_NEW/Steering_Controller/MobRob_Steering_Controller/Libraries/XMCLib/inc\xmc_gpio.h **** } XMC_GPIO_HWCTRL_t;
 138:C:/GitHub/MobRob_Rover_NEW/Steering_Controller/MobRob_Steering_Controller/Libraries/XMCLib/inc\xmc_gpio.h **** 
 139:C:/GitHub/MobRob_Rover_NEW/Steering_Controller/MobRob_Steering_Controller/Libraries/XMCLib/inc\xmc_gpio.h **** /**************************************************************************************************
 140:C:/GitHub/MobRob_Rover_NEW/Steering_Controller/MobRob_Steering_Controller/Libraries/XMCLib/inc\xmc_gpio.h ****  * DEVICE FAMILY EXTENSIONS
 141:C:/GitHub/MobRob_Rover_NEW/Steering_Controller/MobRob_Steering_Controller/Libraries/XMCLib/inc\xmc_gpio.h ****  **************************************************************************************************
 142:C:/GitHub/MobRob_Rover_NEW/Steering_Controller/MobRob_Steering_Controller/Libraries/XMCLib/inc\xmc_gpio.h **** 
 143:C:/GitHub/MobRob_Rover_NEW/Steering_Controller/MobRob_Steering_Controller/Libraries/XMCLib/inc\xmc_gpio.h **** #if UC_FAMILY == XMC1
 144:C:/GitHub/MobRob_Rover_NEW/Steering_Controller/MobRob_Steering_Controller/Libraries/XMCLib/inc\xmc_gpio.h **** #include "xmc1_gpio.h"
 145:C:/GitHub/MobRob_Rover_NEW/Steering_Controller/MobRob_Steering_Controller/Libraries/XMCLib/inc\xmc_gpio.h **** #elif UC_FAMILY == XMC4
 146:C:/GitHub/MobRob_Rover_NEW/Steering_Controller/MobRob_Steering_Controller/Libraries/XMCLib/inc\xmc_gpio.h **** #include "xmc4_gpio.h"
 147:C:/GitHub/MobRob_Rover_NEW/Steering_Controller/MobRob_Steering_Controller/Libraries/XMCLib/inc\xmc_gpio.h **** #else
 148:C:/GitHub/MobRob_Rover_NEW/Steering_Controller/MobRob_Steering_Controller/Libraries/XMCLib/inc\xmc_gpio.h **** #error "xmc_gpio.h: family device not supported"
 149:C:/GitHub/MobRob_Rover_NEW/Steering_Controller/MobRob_Steering_Controller/Libraries/XMCLib/inc\xmc_gpio.h **** #endif
 150:C:/GitHub/MobRob_Rover_NEW/Steering_Controller/MobRob_Steering_Controller/Libraries/XMCLib/inc\xmc_gpio.h **** 
 151:C:/GitHub/MobRob_Rover_NEW/Steering_Controller/MobRob_Steering_Controller/Libraries/XMCLib/inc\xmc_gpio.h **** /**************************************************************************************************
 152:C:/GitHub/MobRob_Rover_NEW/Steering_Controller/MobRob_Steering_Controller/Libraries/XMCLib/inc\xmc_gpio.h ****  * API PROTOTYPES
 153:C:/GitHub/MobRob_Rover_NEW/Steering_Controller/MobRob_Steering_Controller/Libraries/XMCLib/inc\xmc_gpio.h ****  **************************************************************************************************
 154:C:/GitHub/MobRob_Rover_NEW/Steering_Controller/MobRob_Steering_Controller/Libraries/XMCLib/inc\xmc_gpio.h **** 
 155:C:/GitHub/MobRob_Rover_NEW/Steering_Controller/MobRob_Steering_Controller/Libraries/XMCLib/inc\xmc_gpio.h **** #ifdef __cplusplus
 156:C:/GitHub/MobRob_Rover_NEW/Steering_Controller/MobRob_Steering_Controller/Libraries/XMCLib/inc\xmc_gpio.h **** extern "C" {
 157:C:/GitHub/MobRob_Rover_NEW/Steering_Controller/MobRob_Steering_Controller/Libraries/XMCLib/inc\xmc_gpio.h **** #endif
 158:C:/GitHub/MobRob_Rover_NEW/Steering_Controller/MobRob_Steering_Controller/Libraries/XMCLib/inc\xmc_gpio.h **** 
 159:C:/GitHub/MobRob_Rover_NEW/Steering_Controller/MobRob_Steering_Controller/Libraries/XMCLib/inc\xmc_gpio.h **** 
 160:C:/GitHub/MobRob_Rover_NEW/Steering_Controller/MobRob_Steering_Controller/Libraries/XMCLib/inc\xmc_gpio.h **** /**
 161:C:/GitHub/MobRob_Rover_NEW/Steering_Controller/MobRob_Steering_Controller/Libraries/XMCLib/inc\xmc_gpio.h ****  * @param  port	  Constant pointer pointing to GPIO port, to access port registers like Pn_OUT,Pn_O
 162:C:/GitHub/MobRob_Rover_NEW/Steering_Controller/MobRob_Steering_Controller/Libraries/XMCLib/inc\xmc_gpio.h ****  * @param  pin	  Port pin number.
 163:C:/GitHub/MobRob_Rover_NEW/Steering_Controller/MobRob_Steering_Controller/Libraries/XMCLib/inc\xmc_gpio.h ****  * @param  config GPIO configuration data structure. Refer data structure @ref XMC_GPIO_CONFIG_t fo
 164:C:/GitHub/MobRob_Rover_NEW/Steering_Controller/MobRob_Steering_Controller/Libraries/XMCLib/inc\xmc_gpio.h ****  *
 165:C:/GitHub/MobRob_Rover_NEW/Steering_Controller/MobRob_Steering_Controller/Libraries/XMCLib/inc\xmc_gpio.h ****  * @return None
 166:C:/GitHub/MobRob_Rover_NEW/Steering_Controller/MobRob_Steering_Controller/Libraries/XMCLib/inc\xmc_gpio.h ****  *
 167:C:/GitHub/MobRob_Rover_NEW/Steering_Controller/MobRob_Steering_Controller/Libraries/XMCLib/inc\xmc_gpio.h ****  * \par<b>Description:</b><br>
 168:C:/GitHub/MobRob_Rover_NEW/Steering_Controller/MobRob_Steering_Controller/Libraries/XMCLib/inc\xmc_gpio.h ****  * \if XMC1
 169:C:/GitHub/MobRob_Rover_NEW/Steering_Controller/MobRob_Steering_Controller/Libraries/XMCLib/inc\xmc_gpio.h ****  * Initializes input / output mode settings like, pull up / pull down devices,hysteresis, push pull
 170:C:/GitHub/MobRob_Rover_NEW/Steering_Controller/MobRob_Steering_Controller/Libraries/XMCLib/inc\xmc_gpio.h ****  * Also configures alternate function outputs and clears hardware port control for a selected \a po
 171:C:/GitHub/MobRob_Rover_NEW/Steering_Controller/MobRob_Steering_Controller/Libraries/XMCLib/inc\xmc_gpio.h ****  * \a config provides selected I/O settings. It configures hardware registers Pn_IOCR,Pn_OUT, Pn_OM
 172:C:/GitHub/MobRob_Rover_NEW/Steering_Controller/MobRob_Steering_Controller/Libraries/XMCLib/inc\xmc_gpio.h ****  * \endif
 173:C:/GitHub/MobRob_Rover_NEW/Steering_Controller/MobRob_Steering_Controller/Libraries/XMCLib/inc\xmc_gpio.h ****  * \if XMC4
 174:C:/GitHub/MobRob_Rover_NEW/Steering_Controller/MobRob_Steering_Controller/Libraries/XMCLib/inc\xmc_gpio.h ****  * Initializes input / output mode settings like, pull up / pull down devices,push pull /open drain
 175:C:/GitHub/MobRob_Rover_NEW/Steering_Controller/MobRob_Steering_Controller/Libraries/XMCLib/inc\xmc_gpio.h ****  * Also configures alternate function outputs and clears hardware port control for selected \a port
 176:C:/GitHub/MobRob_Rover_NEW/Steering_Controller/MobRob_Steering_Controller/Libraries/XMCLib/inc\xmc_gpio.h ****  * It configures hardware registers Pn_IOCR,Pn_OUT,Pn_OMR,Pn_PDISC and Pn_PDR.\n
 177:C:/GitHub/MobRob_Rover_NEW/Steering_Controller/MobRob_Steering_Controller/Libraries/XMCLib/inc\xmc_gpio.h ****  * \endif
 178:C:/GitHub/MobRob_Rover_NEW/Steering_Controller/MobRob_Steering_Controller/Libraries/XMCLib/inc\xmc_gpio.h ****  *
 179:C:/GitHub/MobRob_Rover_NEW/Steering_Controller/MobRob_Steering_Controller/Libraries/XMCLib/inc\xmc_gpio.h ****  * \par<b>Related APIs:</b><BR>
 180:C:/GitHub/MobRob_Rover_NEW/Steering_Controller/MobRob_Steering_Controller/Libraries/XMCLib/inc\xmc_gpio.h ****  *  None
 181:C:/GitHub/MobRob_Rover_NEW/Steering_Controller/MobRob_Steering_Controller/Libraries/XMCLib/inc\xmc_gpio.h ****  *
 182:C:/GitHub/MobRob_Rover_NEW/Steering_Controller/MobRob_Steering_Controller/Libraries/XMCLib/inc\xmc_gpio.h ****  * \par<b>Note:</b><br>
 183:C:/GitHub/MobRob_Rover_NEW/Steering_Controller/MobRob_Steering_Controller/Libraries/XMCLib/inc\xmc_gpio.h ****  * This API is called in definition of DAVE_init by code generation and therefore should not be exp
 184:C:/GitHub/MobRob_Rover_NEW/Steering_Controller/MobRob_Steering_Controller/Libraries/XMCLib/inc\xmc_gpio.h ****  * for the normal operation. Use other APIs only after DAVE_init is called successfully (returns DA
 185:C:/GitHub/MobRob_Rover_NEW/Steering_Controller/MobRob_Steering_Controller/Libraries/XMCLib/inc\xmc_gpio.h ****  *
 186:C:/GitHub/MobRob_Rover_NEW/Steering_Controller/MobRob_Steering_Controller/Libraries/XMCLib/inc\xmc_gpio.h ****  *
 187:C:/GitHub/MobRob_Rover_NEW/Steering_Controller/MobRob_Steering_Controller/Libraries/XMCLib/inc\xmc_gpio.h ****  */
 188:C:/GitHub/MobRob_Rover_NEW/Steering_Controller/MobRob_Steering_Controller/Libraries/XMCLib/inc\xmc_gpio.h **** 
 189:C:/GitHub/MobRob_Rover_NEW/Steering_Controller/MobRob_Steering_Controller/Libraries/XMCLib/inc\xmc_gpio.h **** 
 190:C:/GitHub/MobRob_Rover_NEW/Steering_Controller/MobRob_Steering_Controller/Libraries/XMCLib/inc\xmc_gpio.h **** void XMC_GPIO_Init(XMC_GPIO_PORT_t *const port, const uint8_t pin, const XMC_GPIO_CONFIG_t *const c
 191:C:/GitHub/MobRob_Rover_NEW/Steering_Controller/MobRob_Steering_Controller/Libraries/XMCLib/inc\xmc_gpio.h **** 
 192:C:/GitHub/MobRob_Rover_NEW/Steering_Controller/MobRob_Steering_Controller/Libraries/XMCLib/inc\xmc_gpio.h **** /**
 193:C:/GitHub/MobRob_Rover_NEW/Steering_Controller/MobRob_Steering_Controller/Libraries/XMCLib/inc\xmc_gpio.h ****  *
 194:C:/GitHub/MobRob_Rover_NEW/Steering_Controller/MobRob_Steering_Controller/Libraries/XMCLib/inc\xmc_gpio.h ****  * @param  port	Constant pointer pointing to GPIO port, to access hardware register Pn_IOCR.
 195:C:/GitHub/MobRob_Rover_NEW/Steering_Controller/MobRob_Steering_Controller/Libraries/XMCLib/inc\xmc_gpio.h ****  * @param  pin	Port pin number.
 196:C:/GitHub/MobRob_Rover_NEW/Steering_Controller/MobRob_Steering_Controller/Libraries/XMCLib/inc\xmc_gpio.h ****  * @param  mode input / output functionality selection. Refer @ref XMC_GPIO_MODE_t for valid values
 197:C:/GitHub/MobRob_Rover_NEW/Steering_Controller/MobRob_Steering_Controller/Libraries/XMCLib/inc\xmc_gpio.h ****  *
 198:C:/GitHub/MobRob_Rover_NEW/Steering_Controller/MobRob_Steering_Controller/Libraries/XMCLib/inc\xmc_gpio.h ****  * @return None
 199:C:/GitHub/MobRob_Rover_NEW/Steering_Controller/MobRob_Steering_Controller/Libraries/XMCLib/inc\xmc_gpio.h ****  *
 200:C:/GitHub/MobRob_Rover_NEW/Steering_Controller/MobRob_Steering_Controller/Libraries/XMCLib/inc\xmc_gpio.h ****  * \par<b>Description:</b><br>
 201:C:/GitHub/MobRob_Rover_NEW/Steering_Controller/MobRob_Steering_Controller/Libraries/XMCLib/inc\xmc_gpio.h ****  * Sets digital input and output driver functionality and characteristics of a GPIO port pin. It co
 202:C:/GitHub/MobRob_Rover_NEW/Steering_Controller/MobRob_Steering_Controller/Libraries/XMCLib/inc\xmc_gpio.h ****  * registers Pn_IOCR. \a mode is initially configured during initialization in XMC_GPIO_Init(). Cal
 203:C:/GitHub/MobRob_Rover_NEW/Steering_Controller/MobRob_Steering_Controller/Libraries/XMCLib/inc\xmc_gpio.h ****  * the port direction functionality as needed later in the program.
 204:C:/GitHub/MobRob_Rover_NEW/Steering_Controller/MobRob_Steering_Controller/Libraries/XMCLib/inc\xmc_gpio.h ****  *
 205:C:/GitHub/MobRob_Rover_NEW/Steering_Controller/MobRob_Steering_Controller/Libraries/XMCLib/inc\xmc_gpio.h ****  * \par<b>Related APIs:</b><BR>
 206:C:/GitHub/MobRob_Rover_NEW/Steering_Controller/MobRob_Steering_Controller/Libraries/XMCLib/inc\xmc_gpio.h ****  *  None
 207:C:/GitHub/MobRob_Rover_NEW/Steering_Controller/MobRob_Steering_Controller/Libraries/XMCLib/inc\xmc_gpio.h ****  *
 208:C:/GitHub/MobRob_Rover_NEW/Steering_Controller/MobRob_Steering_Controller/Libraries/XMCLib/inc\xmc_gpio.h ****  */
 209:C:/GitHub/MobRob_Rover_NEW/Steering_Controller/MobRob_Steering_Controller/Libraries/XMCLib/inc\xmc_gpio.h **** 
 210:C:/GitHub/MobRob_Rover_NEW/Steering_Controller/MobRob_Steering_Controller/Libraries/XMCLib/inc\xmc_gpio.h **** void XMC_GPIO_SetMode(XMC_GPIO_PORT_t *const port, const uint8_t pin, const XMC_GPIO_MODE_t mode);
 211:C:/GitHub/MobRob_Rover_NEW/Steering_Controller/MobRob_Steering_Controller/Libraries/XMCLib/inc\xmc_gpio.h **** 
 212:C:/GitHub/MobRob_Rover_NEW/Steering_Controller/MobRob_Steering_Controller/Libraries/XMCLib/inc\xmc_gpio.h **** 
 213:C:/GitHub/MobRob_Rover_NEW/Steering_Controller/MobRob_Steering_Controller/Libraries/XMCLib/inc\xmc_gpio.h **** /**
 214:C:/GitHub/MobRob_Rover_NEW/Steering_Controller/MobRob_Steering_Controller/Libraries/XMCLib/inc\xmc_gpio.h ****  *
 215:C:/GitHub/MobRob_Rover_NEW/Steering_Controller/MobRob_Steering_Controller/Libraries/XMCLib/inc\xmc_gpio.h ****  * @param  port	 Constant pointer pointing to GPIO port, to access hardware register Pn_OMR.
 216:C:/GitHub/MobRob_Rover_NEW/Steering_Controller/MobRob_Steering_Controller/Libraries/XMCLib/inc\xmc_gpio.h ****  * @param  pin	 Port pin number.
 217:C:/GitHub/MobRob_Rover_NEW/Steering_Controller/MobRob_Steering_Controller/Libraries/XMCLib/inc\xmc_gpio.h ****  * @param  level output level selection. Refer @ref XMC_GPIO_OUTPUT_LEVEL_t for valid values.
 218:C:/GitHub/MobRob_Rover_NEW/Steering_Controller/MobRob_Steering_Controller/Libraries/XMCLib/inc\xmc_gpio.h ****  *
 219:C:/GitHub/MobRob_Rover_NEW/Steering_Controller/MobRob_Steering_Controller/Libraries/XMCLib/inc\xmc_gpio.h ****  * @return None
 220:C:/GitHub/MobRob_Rover_NEW/Steering_Controller/MobRob_Steering_Controller/Libraries/XMCLib/inc\xmc_gpio.h ****  *
 221:C:/GitHub/MobRob_Rover_NEW/Steering_Controller/MobRob_Steering_Controller/Libraries/XMCLib/inc\xmc_gpio.h ****  * \par<b>Description:</b><br>
 222:C:/GitHub/MobRob_Rover_NEW/Steering_Controller/MobRob_Steering_Controller/Libraries/XMCLib/inc\xmc_gpio.h ****  * Set port pin output level to high or low.It configures hardware registers Pn_OMR.\a level is ini
 223:C:/GitHub/MobRob_Rover_NEW/Steering_Controller/MobRob_Steering_Controller/Libraries/XMCLib/inc\xmc_gpio.h ****  * configured during initialization in XMC_GPIO_Init(). Call this API to alter output level as need
 224:C:/GitHub/MobRob_Rover_NEW/Steering_Controller/MobRob_Steering_Controller/Libraries/XMCLib/inc\xmc_gpio.h ****  *
 225:C:/GitHub/MobRob_Rover_NEW/Steering_Controller/MobRob_Steering_Controller/Libraries/XMCLib/inc\xmc_gpio.h ****  * \par<b>Related APIs:</b><BR>
 226:C:/GitHub/MobRob_Rover_NEW/Steering_Controller/MobRob_Steering_Controller/Libraries/XMCLib/inc\xmc_gpio.h ****  *  XMC_GPIO_SetOutputHigh(), XMC_GPIO_SetOutputLow().
 227:C:/GitHub/MobRob_Rover_NEW/Steering_Controller/MobRob_Steering_Controller/Libraries/XMCLib/inc\xmc_gpio.h ****  *
 228:C:/GitHub/MobRob_Rover_NEW/Steering_Controller/MobRob_Steering_Controller/Libraries/XMCLib/inc\xmc_gpio.h ****  * \par<b>Note:</b><br>
 229:C:/GitHub/MobRob_Rover_NEW/Steering_Controller/MobRob_Steering_Controller/Libraries/XMCLib/inc\xmc_gpio.h ****  * Prior to this api, user has to configure port pin to output mode using XMC_GPIO_SetMode().
 230:C:/GitHub/MobRob_Rover_NEW/Steering_Controller/MobRob_Steering_Controller/Libraries/XMCLib/inc\xmc_gpio.h ****  *
 231:C:/GitHub/MobRob_Rover_NEW/Steering_Controller/MobRob_Steering_Controller/Libraries/XMCLib/inc\xmc_gpio.h ****  */
 232:C:/GitHub/MobRob_Rover_NEW/Steering_Controller/MobRob_Steering_Controller/Libraries/XMCLib/inc\xmc_gpio.h **** 
 233:C:/GitHub/MobRob_Rover_NEW/Steering_Controller/MobRob_Steering_Controller/Libraries/XMCLib/inc\xmc_gpio.h **** 
 234:C:/GitHub/MobRob_Rover_NEW/Steering_Controller/MobRob_Steering_Controller/Libraries/XMCLib/inc\xmc_gpio.h **** __STATIC_INLINE void XMC_GPIO_SetOutputLevel(XMC_GPIO_PORT_t *const port, const uint8_t pin, const 
 235:C:/GitHub/MobRob_Rover_NEW/Steering_Controller/MobRob_Steering_Controller/Libraries/XMCLib/inc\xmc_gpio.h **** {
 236:C:/GitHub/MobRob_Rover_NEW/Steering_Controller/MobRob_Steering_Controller/Libraries/XMCLib/inc\xmc_gpio.h ****   XMC_ASSERT("XMC_GPIO_SetOutputLevel: Invalid port", XMC_GPIO_CHECK_OUTPUT_PORT(port));
 237:C:/GitHub/MobRob_Rover_NEW/Steering_Controller/MobRob_Steering_Controller/Libraries/XMCLib/inc\xmc_gpio.h ****   XMC_ASSERT("XMC_GPIO_SetOutputLevel: Invalid output level", XMC_GPIO_CHECK_OUTPUT_LEVEL(level));
 238:C:/GitHub/MobRob_Rover_NEW/Steering_Controller/MobRob_Steering_Controller/Libraries/XMCLib/inc\xmc_gpio.h **** 
 239:C:/GitHub/MobRob_Rover_NEW/Steering_Controller/MobRob_Steering_Controller/Libraries/XMCLib/inc\xmc_gpio.h ****   port->OMR = (uint32_t)level << pin;
 240:C:/GitHub/MobRob_Rover_NEW/Steering_Controller/MobRob_Steering_Controller/Libraries/XMCLib/inc\xmc_gpio.h **** }
 241:C:/GitHub/MobRob_Rover_NEW/Steering_Controller/MobRob_Steering_Controller/Libraries/XMCLib/inc\xmc_gpio.h **** 
 242:C:/GitHub/MobRob_Rover_NEW/Steering_Controller/MobRob_Steering_Controller/Libraries/XMCLib/inc\xmc_gpio.h **** 
 243:C:/GitHub/MobRob_Rover_NEW/Steering_Controller/MobRob_Steering_Controller/Libraries/XMCLib/inc\xmc_gpio.h **** /**
 244:C:/GitHub/MobRob_Rover_NEW/Steering_Controller/MobRob_Steering_Controller/Libraries/XMCLib/inc\xmc_gpio.h ****  * @param  port constant pointer pointing to GPIO port, to access hardware register Pn_OMR.
 245:C:/GitHub/MobRob_Rover_NEW/Steering_Controller/MobRob_Steering_Controller/Libraries/XMCLib/inc\xmc_gpio.h ****  * @param  pin	Port pin number.
 246:C:/GitHub/MobRob_Rover_NEW/Steering_Controller/MobRob_Steering_Controller/Libraries/XMCLib/inc\xmc_gpio.h ****  *
 247:C:/GitHub/MobRob_Rover_NEW/Steering_Controller/MobRob_Steering_Controller/Libraries/XMCLib/inc\xmc_gpio.h ****  * @return None
 248:C:/GitHub/MobRob_Rover_NEW/Steering_Controller/MobRob_Steering_Controller/Libraries/XMCLib/inc\xmc_gpio.h ****  *
 249:C:/GitHub/MobRob_Rover_NEW/Steering_Controller/MobRob_Steering_Controller/Libraries/XMCLib/inc\xmc_gpio.h ****  * \par<b>Description:</b><br>
 250:C:/GitHub/MobRob_Rover_NEW/Steering_Controller/MobRob_Steering_Controller/Libraries/XMCLib/inc\xmc_gpio.h ****  *  Sets port pin output to high. It configures hardware registers Pn_OMR.
 251:C:/GitHub/MobRob_Rover_NEW/Steering_Controller/MobRob_Steering_Controller/Libraries/XMCLib/inc\xmc_gpio.h ****  *
 252:C:/GitHub/MobRob_Rover_NEW/Steering_Controller/MobRob_Steering_Controller/Libraries/XMCLib/inc\xmc_gpio.h ****  *  \par<b>Related APIs:</b><BR>
 253:C:/GitHub/MobRob_Rover_NEW/Steering_Controller/MobRob_Steering_Controller/Libraries/XMCLib/inc\xmc_gpio.h ****  *  XMC_GPIO_SetOutputLow()
 254:C:/GitHub/MobRob_Rover_NEW/Steering_Controller/MobRob_Steering_Controller/Libraries/XMCLib/inc\xmc_gpio.h ****  *
 255:C:/GitHub/MobRob_Rover_NEW/Steering_Controller/MobRob_Steering_Controller/Libraries/XMCLib/inc\xmc_gpio.h ****  * \par<b>Note:</b><br>
 256:C:/GitHub/MobRob_Rover_NEW/Steering_Controller/MobRob_Steering_Controller/Libraries/XMCLib/inc\xmc_gpio.h ****  * Prior to this api, user has to configure port pin to output mode using XMC_GPIO_SetMode().\n
 257:C:/GitHub/MobRob_Rover_NEW/Steering_Controller/MobRob_Steering_Controller/Libraries/XMCLib/inc\xmc_gpio.h ****  * Register Pn_OMR is virtual and does not contain any flip-flop. A read action delivers the value 
 258:C:/GitHub/MobRob_Rover_NEW/Steering_Controller/MobRob_Steering_Controller/Libraries/XMCLib/inc\xmc_gpio.h ****  *
 259:C:/GitHub/MobRob_Rover_NEW/Steering_Controller/MobRob_Steering_Controller/Libraries/XMCLib/inc\xmc_gpio.h ****  */
 260:C:/GitHub/MobRob_Rover_NEW/Steering_Controller/MobRob_Steering_Controller/Libraries/XMCLib/inc\xmc_gpio.h **** 
 261:C:/GitHub/MobRob_Rover_NEW/Steering_Controller/MobRob_Steering_Controller/Libraries/XMCLib/inc\xmc_gpio.h **** __STATIC_INLINE void XMC_GPIO_SetOutputHigh(XMC_GPIO_PORT_t *const port, const uint8_t pin)
 262:C:/GitHub/MobRob_Rover_NEW/Steering_Controller/MobRob_Steering_Controller/Libraries/XMCLib/inc\xmc_gpio.h **** {
  25              	 .loc 1 262 0
  26              	 .cfi_startproc
  27 0000 80B5     	 push {r7,lr}
  28              	.LCFI0:
  29              	 .cfi_def_cfa_offset 8
  30              	 .cfi_offset 7,-8
  31              	 .cfi_offset 14,-4
  32 0002 82B0     	 sub sp,sp,#8
  33              	.LCFI1:
  34              	 .cfi_def_cfa_offset 16
  35 0004 00AF     	 add r7,sp,#0
  36              	.LCFI2:
  37              	 .cfi_def_cfa_register 7
  38 0006 7860     	 str r0,[r7,#4]
  39 0008 0A1C     	 mov r2,r1
  40 000a FB1C     	 add r3,r7,#3
  41 000c 1A70     	 strb r2,[r3]
 263:C:/GitHub/MobRob_Rover_NEW/Steering_Controller/MobRob_Steering_Controller/Libraries/XMCLib/inc\xmc_gpio.h ****   XMC_ASSERT("XMC_GPIO_SetOutputHigh: Invalid port", XMC_GPIO_CHECK_OUTPUT_PORT(port));
 264:C:/GitHub/MobRob_Rover_NEW/Steering_Controller/MobRob_Steering_Controller/Libraries/XMCLib/inc\xmc_gpio.h **** 
 265:C:/GitHub/MobRob_Rover_NEW/Steering_Controller/MobRob_Steering_Controller/Libraries/XMCLib/inc\xmc_gpio.h ****   port->OMR = (uint32_t)0x1U << pin;
  42              	 .loc 1 265 0
  43 000e FB1C     	 add r3,r7,#3
  44 0010 1B78     	 ldrb r3,[r3]
  45 0012 0122     	 mov r2,#1
  46 0014 9A40     	 lsl r2,r2,r3
  47 0016 7B68     	 ldr r3,[r7,#4]
  48 0018 5A60     	 str r2,[r3,#4]
 266:C:/GitHub/MobRob_Rover_NEW/Steering_Controller/MobRob_Steering_Controller/Libraries/XMCLib/inc\xmc_gpio.h **** }
  49              	 .loc 1 266 0
  50 001a BD46     	 mov sp,r7
  51 001c 02B0     	 add sp,sp,#8
  52              	 
  53 001e 80BD     	 pop {r7,pc}
  54              	 .cfi_endproc
  55              	.LFE122:
  57              	 .section .text.XMC_GPIO_SetOutputLow,"ax",%progbits
  58              	 .align 2
  59              	 .code 16
  60              	 .thumb_func
  62              	XMC_GPIO_SetOutputLow:
  63              	.LFB123:
 267:C:/GitHub/MobRob_Rover_NEW/Steering_Controller/MobRob_Steering_Controller/Libraries/XMCLib/inc\xmc_gpio.h **** 
 268:C:/GitHub/MobRob_Rover_NEW/Steering_Controller/MobRob_Steering_Controller/Libraries/XMCLib/inc\xmc_gpio.h **** /**
 269:C:/GitHub/MobRob_Rover_NEW/Steering_Controller/MobRob_Steering_Controller/Libraries/XMCLib/inc\xmc_gpio.h ****  *
 270:C:/GitHub/MobRob_Rover_NEW/Steering_Controller/MobRob_Steering_Controller/Libraries/XMCLib/inc\xmc_gpio.h ****  * @param  port	constant pointer pointing to GPIO port, to access hardware register Pn_OMR.
 271:C:/GitHub/MobRob_Rover_NEW/Steering_Controller/MobRob_Steering_Controller/Libraries/XMCLib/inc\xmc_gpio.h ****  * @param  pin	port pin number.
 272:C:/GitHub/MobRob_Rover_NEW/Steering_Controller/MobRob_Steering_Controller/Libraries/XMCLib/inc\xmc_gpio.h ****  *
 273:C:/GitHub/MobRob_Rover_NEW/Steering_Controller/MobRob_Steering_Controller/Libraries/XMCLib/inc\xmc_gpio.h ****  * @return  None
 274:C:/GitHub/MobRob_Rover_NEW/Steering_Controller/MobRob_Steering_Controller/Libraries/XMCLib/inc\xmc_gpio.h ****  *
 275:C:/GitHub/MobRob_Rover_NEW/Steering_Controller/MobRob_Steering_Controller/Libraries/XMCLib/inc\xmc_gpio.h ****  *\par<b>Description:</b><br>
 276:C:/GitHub/MobRob_Rover_NEW/Steering_Controller/MobRob_Steering_Controller/Libraries/XMCLib/inc\xmc_gpio.h ****  * Sets port pin output to low. It configures hardware registers Pn_OMR.\n
 277:C:/GitHub/MobRob_Rover_NEW/Steering_Controller/MobRob_Steering_Controller/Libraries/XMCLib/inc\xmc_gpio.h ****  *
 278:C:/GitHub/MobRob_Rover_NEW/Steering_Controller/MobRob_Steering_Controller/Libraries/XMCLib/inc\xmc_gpio.h ****  * \par<b>Related APIs:</b><BR>>
 279:C:/GitHub/MobRob_Rover_NEW/Steering_Controller/MobRob_Steering_Controller/Libraries/XMCLib/inc\xmc_gpio.h ****  * XMC_GPIO_SetOutputHigh()
 280:C:/GitHub/MobRob_Rover_NEW/Steering_Controller/MobRob_Steering_Controller/Libraries/XMCLib/inc\xmc_gpio.h ****  *
 281:C:/GitHub/MobRob_Rover_NEW/Steering_Controller/MobRob_Steering_Controller/Libraries/XMCLib/inc\xmc_gpio.h ****  *\par<b>Note:</b><br>
 282:C:/GitHub/MobRob_Rover_NEW/Steering_Controller/MobRob_Steering_Controller/Libraries/XMCLib/inc\xmc_gpio.h ****  * Prior to this api, user has to configure port pin to output mode using XMC_GPIO_SetMode().
 283:C:/GitHub/MobRob_Rover_NEW/Steering_Controller/MobRob_Steering_Controller/Libraries/XMCLib/inc\xmc_gpio.h ****  * Register Pn_OMR is virtual and does not contain any flip-flop. A read action delivers the value 
 284:C:/GitHub/MobRob_Rover_NEW/Steering_Controller/MobRob_Steering_Controller/Libraries/XMCLib/inc\xmc_gpio.h ****  *
 285:C:/GitHub/MobRob_Rover_NEW/Steering_Controller/MobRob_Steering_Controller/Libraries/XMCLib/inc\xmc_gpio.h ****  */
 286:C:/GitHub/MobRob_Rover_NEW/Steering_Controller/MobRob_Steering_Controller/Libraries/XMCLib/inc\xmc_gpio.h **** 
 287:C:/GitHub/MobRob_Rover_NEW/Steering_Controller/MobRob_Steering_Controller/Libraries/XMCLib/inc\xmc_gpio.h **** __STATIC_INLINE void XMC_GPIO_SetOutputLow(XMC_GPIO_PORT_t *const port, const uint8_t pin)
 288:C:/GitHub/MobRob_Rover_NEW/Steering_Controller/MobRob_Steering_Controller/Libraries/XMCLib/inc\xmc_gpio.h **** {
  64              	 .loc 1 288 0
  65              	 .cfi_startproc
  66 0000 80B5     	 push {r7,lr}
  67              	.LCFI3:
  68              	 .cfi_def_cfa_offset 8
  69              	 .cfi_offset 7,-8
  70              	 .cfi_offset 14,-4
  71 0002 82B0     	 sub sp,sp,#8
  72              	.LCFI4:
  73              	 .cfi_def_cfa_offset 16
  74 0004 00AF     	 add r7,sp,#0
  75              	.LCFI5:
  76              	 .cfi_def_cfa_register 7
  77 0006 7860     	 str r0,[r7,#4]
  78 0008 0A1C     	 mov r2,r1
  79 000a FB1C     	 add r3,r7,#3
  80 000c 1A70     	 strb r2,[r3]
 289:C:/GitHub/MobRob_Rover_NEW/Steering_Controller/MobRob_Steering_Controller/Libraries/XMCLib/inc\xmc_gpio.h ****   XMC_ASSERT("XMC_GPIO_SetOutputLow: Invalid port", XMC_GPIO_CHECK_OUTPUT_PORT(port));
 290:C:/GitHub/MobRob_Rover_NEW/Steering_Controller/MobRob_Steering_Controller/Libraries/XMCLib/inc\xmc_gpio.h **** 
 291:C:/GitHub/MobRob_Rover_NEW/Steering_Controller/MobRob_Steering_Controller/Libraries/XMCLib/inc\xmc_gpio.h ****   port->OMR = 0x10000U << pin;
  81              	 .loc 1 291 0
  82 000e FB1C     	 add r3,r7,#3
  83 0010 1B78     	 ldrb r3,[r3]
  84 0012 8022     	 mov r2,#128
  85 0014 5202     	 lsl r2,r2,#9
  86 0016 9A40     	 lsl r2,r2,r3
  87 0018 7B68     	 ldr r3,[r7,#4]
  88 001a 5A60     	 str r2,[r3,#4]
 292:C:/GitHub/MobRob_Rover_NEW/Steering_Controller/MobRob_Steering_Controller/Libraries/XMCLib/inc\xmc_gpio.h **** }
  89              	 .loc 1 292 0
  90 001c BD46     	 mov sp,r7
  91 001e 02B0     	 add sp,sp,#8
  92              	 
  93 0020 80BD     	 pop {r7,pc}
  94              	 .cfi_endproc
  95              	.LFE123:
  97 0022 C046     	 .section .text.DIGITAL_IO_SetOutputHigh,"ax",%progbits
  98              	 .align 2
  99              	 .code 16
 100              	 .thumb_func
 102              	DIGITAL_IO_SetOutputHigh:
 103              	.LFB195:
 104              	 .file 2 "C:/GitHub/MobRob_Rover_NEW/Steering_Controller/MobRob_Steering_Controller/Dave/Generated/DIGITAL_IO/digital_io.h"
   1:C:/GitHub/MobRob_Rover_NEW/Steering_Controller/MobRob_Steering_Controller/Dave/Generated/DIGITAL_IO\digital_io.h **** /*
   2:C:/GitHub/MobRob_Rover_NEW/Steering_Controller/MobRob_Steering_Controller/Dave/Generated/DIGITAL_IO\digital_io.h ****  *
   3:C:/GitHub/MobRob_Rover_NEW/Steering_Controller/MobRob_Steering_Controller/Dave/Generated/DIGITAL_IO\digital_io.h ****  * @file digital_io.h
   4:C:/GitHub/MobRob_Rover_NEW/Steering_Controller/MobRob_Steering_Controller/Dave/Generated/DIGITAL_IO\digital_io.h ****  * @date 2021-01-08
   5:C:/GitHub/MobRob_Rover_NEW/Steering_Controller/MobRob_Steering_Controller/Dave/Generated/DIGITAL_IO\digital_io.h ****  *
   6:C:/GitHub/MobRob_Rover_NEW/Steering_Controller/MobRob_Steering_Controller/Dave/Generated/DIGITAL_IO\digital_io.h ****  * NOTE:
   7:C:/GitHub/MobRob_Rover_NEW/Steering_Controller/MobRob_Steering_Controller/Dave/Generated/DIGITAL_IO\digital_io.h ****  * This file is generated by DAVE. Any manual modification done to this file will be lost when the 
   8:C:/GitHub/MobRob_Rover_NEW/Steering_Controller/MobRob_Steering_Controller/Dave/Generated/DIGITAL_IO\digital_io.h ****  *
   9:C:/GitHub/MobRob_Rover_NEW/Steering_Controller/MobRob_Steering_Controller/Dave/Generated/DIGITAL_IO\digital_io.h ****  * @cond
  10:C:/GitHub/MobRob_Rover_NEW/Steering_Controller/MobRob_Steering_Controller/Dave/Generated/DIGITAL_IO\digital_io.h ****  **************************************************************************************************
  11:C:/GitHub/MobRob_Rover_NEW/Steering_Controller/MobRob_Steering_Controller/Dave/Generated/DIGITAL_IO\digital_io.h ****  * DIGITAL_IO v4.0.18 - The DIGITAL_IO APP is used to configure a port pin as digital Input/Output.
  12:C:/GitHub/MobRob_Rover_NEW/Steering_Controller/MobRob_Steering_Controller/Dave/Generated/DIGITAL_IO\digital_io.h ****  *
  13:C:/GitHub/MobRob_Rover_NEW/Steering_Controller/MobRob_Steering_Controller/Dave/Generated/DIGITAL_IO\digital_io.h ****  * Copyright (c) 2015-2020, Infineon Technologies AG
  14:C:/GitHub/MobRob_Rover_NEW/Steering_Controller/MobRob_Steering_Controller/Dave/Generated/DIGITAL_IO\digital_io.h ****  * All rights reserved.
  15:C:/GitHub/MobRob_Rover_NEW/Steering_Controller/MobRob_Steering_Controller/Dave/Generated/DIGITAL_IO\digital_io.h ****  *
  16:C:/GitHub/MobRob_Rover_NEW/Steering_Controller/MobRob_Steering_Controller/Dave/Generated/DIGITAL_IO\digital_io.h ****  * Redistribution and use in source and binary forms, with or without modification,are permitted pr
  17:C:/GitHub/MobRob_Rover_NEW/Steering_Controller/MobRob_Steering_Controller/Dave/Generated/DIGITAL_IO\digital_io.h ****  * following conditions are met:
  18:C:/GitHub/MobRob_Rover_NEW/Steering_Controller/MobRob_Steering_Controller/Dave/Generated/DIGITAL_IO\digital_io.h ****  *
  19:C:/GitHub/MobRob_Rover_NEW/Steering_Controller/MobRob_Steering_Controller/Dave/Generated/DIGITAL_IO\digital_io.h ****  *   Redistributions of source code must retain the above copyright notice, this list of conditions
  20:C:/GitHub/MobRob_Rover_NEW/Steering_Controller/MobRob_Steering_Controller/Dave/Generated/DIGITAL_IO\digital_io.h ****  *   disclaimer.
  21:C:/GitHub/MobRob_Rover_NEW/Steering_Controller/MobRob_Steering_Controller/Dave/Generated/DIGITAL_IO\digital_io.h ****  *
  22:C:/GitHub/MobRob_Rover_NEW/Steering_Controller/MobRob_Steering_Controller/Dave/Generated/DIGITAL_IO\digital_io.h ****  *   Redistributions in binary form must reproduce the above copyright notice, this list of conditi
  23:C:/GitHub/MobRob_Rover_NEW/Steering_Controller/MobRob_Steering_Controller/Dave/Generated/DIGITAL_IO\digital_io.h ****  *   following disclaimer in the documentation and/or other materials provided with the distributio
  24:C:/GitHub/MobRob_Rover_NEW/Steering_Controller/MobRob_Steering_Controller/Dave/Generated/DIGITAL_IO\digital_io.h ****  *
  25:C:/GitHub/MobRob_Rover_NEW/Steering_Controller/MobRob_Steering_Controller/Dave/Generated/DIGITAL_IO\digital_io.h ****  *   Neither the name of the copyright holders nor the names of its contributors may be used to end
  26:C:/GitHub/MobRob_Rover_NEW/Steering_Controller/MobRob_Steering_Controller/Dave/Generated/DIGITAL_IO\digital_io.h ****  *   products derived from this software without specific prior written permission.
  27:C:/GitHub/MobRob_Rover_NEW/Steering_Controller/MobRob_Steering_Controller/Dave/Generated/DIGITAL_IO\digital_io.h ****  *
  28:C:/GitHub/MobRob_Rover_NEW/Steering_Controller/MobRob_Steering_Controller/Dave/Generated/DIGITAL_IO\digital_io.h ****  * THIS SOFTWARE IS PROVIDED BY THE COPYRIGHT HOLDERS AND CONTRIBUTORS "AS IS" AND ANY EXPRESS OR I
  29:C:/GitHub/MobRob_Rover_NEW/Steering_Controller/MobRob_Steering_Controller/Dave/Generated/DIGITAL_IO\digital_io.h ****  * INCLUDING, BUT NOT LIMITED TO, THE IMPLIED WARRANTIES OF MERCHANTABILITY AND FITNESS FOR A PARTI
  30:C:/GitHub/MobRob_Rover_NEW/Steering_Controller/MobRob_Steering_Controller/Dave/Generated/DIGITAL_IO\digital_io.h ****  * DISCLAIMED. IN NO EVENT SHALL THE COPYRIGHT HOLDER OR CONTRIBUTORS BE LIABLE  FOR ANY DIRECT, IN
  31:C:/GitHub/MobRob_Rover_NEW/Steering_Controller/MobRob_Steering_Controller/Dave/Generated/DIGITAL_IO\digital_io.h ****  * SPECIAL, EXEMPLARY, OR CONSEQUENTIAL DAMAGES (INCLUDING, BUT NOT LIMITED TO, PROCUREMENT OF SUBS
  32:C:/GitHub/MobRob_Rover_NEW/Steering_Controller/MobRob_Steering_Controller/Dave/Generated/DIGITAL_IO\digital_io.h ****  * SERVICES; LOSS OF USE, DATA, OR PROFITS; OR BUSINESS INTERRUPTION) HOWEVER CAUSED AND ON ANY THE
  33:C:/GitHub/MobRob_Rover_NEW/Steering_Controller/MobRob_Steering_Controller/Dave/Generated/DIGITAL_IO\digital_io.h ****  * WHETHER IN CONTRACT, STRICT LIABILITY,OR TORT (INCLUDING NEGLIGENCE OR OTHERWISE) ARISING IN ANY
  34:C:/GitHub/MobRob_Rover_NEW/Steering_Controller/MobRob_Steering_Controller/Dave/Generated/DIGITAL_IO\digital_io.h ****  * USE OF THIS SOFTWARE, EVEN IF ADVISED OF THE POSSIBILITY OF SUCH DAMAGE.
  35:C:/GitHub/MobRob_Rover_NEW/Steering_Controller/MobRob_Steering_Controller/Dave/Generated/DIGITAL_IO\digital_io.h ****  *
  36:C:/GitHub/MobRob_Rover_NEW/Steering_Controller/MobRob_Steering_Controller/Dave/Generated/DIGITAL_IO\digital_io.h ****  * To improve the quality of the software, users are encouraged to share modifications, enhancement
  37:C:/GitHub/MobRob_Rover_NEW/Steering_Controller/MobRob_Steering_Controller/Dave/Generated/DIGITAL_IO\digital_io.h ****  * with Infineon Technologies AG (dave@infineon.com).
  38:C:/GitHub/MobRob_Rover_NEW/Steering_Controller/MobRob_Steering_Controller/Dave/Generated/DIGITAL_IO\digital_io.h ****  **************************************************************************************************
  39:C:/GitHub/MobRob_Rover_NEW/Steering_Controller/MobRob_Steering_Controller/Dave/Generated/DIGITAL_IO\digital_io.h ****  *
  40:C:/GitHub/MobRob_Rover_NEW/Steering_Controller/MobRob_Steering_Controller/Dave/Generated/DIGITAL_IO\digital_io.h ****  * Change History
  41:C:/GitHub/MobRob_Rover_NEW/Steering_Controller/MobRob_Steering_Controller/Dave/Generated/DIGITAL_IO\digital_io.h ****  * --------------
  42:C:/GitHub/MobRob_Rover_NEW/Steering_Controller/MobRob_Steering_Controller/Dave/Generated/DIGITAL_IO\digital_io.h ****  *
  43:C:/GitHub/MobRob_Rover_NEW/Steering_Controller/MobRob_Steering_Controller/Dave/Generated/DIGITAL_IO\digital_io.h ****  * 2015-02-16
  44:C:/GitHub/MobRob_Rover_NEW/Steering_Controller/MobRob_Steering_Controller/Dave/Generated/DIGITAL_IO\digital_io.h ****  *     - Initial version
  45:C:/GitHub/MobRob_Rover_NEW/Steering_Controller/MobRob_Steering_Controller/Dave/Generated/DIGITAL_IO\digital_io.h ****  *
  46:C:/GitHub/MobRob_Rover_NEW/Steering_Controller/MobRob_Steering_Controller/Dave/Generated/DIGITAL_IO\digital_io.h ****  * 2015-04-22
  47:C:/GitHub/MobRob_Rover_NEW/Steering_Controller/MobRob_Steering_Controller/Dave/Generated/DIGITAL_IO\digital_io.h ****  *     - XMC_ASSERT is added in static inline functions.<br>
  48:C:/GitHub/MobRob_Rover_NEW/Steering_Controller/MobRob_Steering_Controller/Dave/Generated/DIGITAL_IO\digital_io.h ****  *
  49:C:/GitHub/MobRob_Rover_NEW/Steering_Controller/MobRob_Steering_Controller/Dave/Generated/DIGITAL_IO\digital_io.h ****  * 2015-06-20
  50:C:/GitHub/MobRob_Rover_NEW/Steering_Controller/MobRob_Steering_Controller/Dave/Generated/DIGITAL_IO\digital_io.h ****  *     - Version check added for XMCLib dependency.<br>
  51:C:/GitHub/MobRob_Rover_NEW/Steering_Controller/MobRob_Steering_Controller/Dave/Generated/DIGITAL_IO\digital_io.h ****  *
  52:C:/GitHub/MobRob_Rover_NEW/Steering_Controller/MobRob_Steering_Controller/Dave/Generated/DIGITAL_IO\digital_io.h ****  * 2015-12-22
  53:C:/GitHub/MobRob_Rover_NEW/Steering_Controller/MobRob_Steering_Controller/Dave/Generated/DIGITAL_IO\digital_io.h ****  *     - Added hardware controlled IO feature.
  54:C:/GitHub/MobRob_Rover_NEW/Steering_Controller/MobRob_Steering_Controller/Dave/Generated/DIGITAL_IO\digital_io.h ****  * 2016-07-08:
  55:C:/GitHub/MobRob_Rover_NEW/Steering_Controller/MobRob_Steering_Controller/Dave/Generated/DIGITAL_IO\digital_io.h ****  *     - Fixed incorrect case for an included header.<br>
  56:C:/GitHub/MobRob_Rover_NEW/Steering_Controller/MobRob_Steering_Controller/Dave/Generated/DIGITAL_IO\digital_io.h ****  * 2021-01-08:
  57:C:/GitHub/MobRob_Rover_NEW/Steering_Controller/MobRob_Steering_Controller/Dave/Generated/DIGITAL_IO\digital_io.h ****  *     - Modified check for minimum XMCLib version
  58:C:/GitHub/MobRob_Rover_NEW/Steering_Controller/MobRob_Steering_Controller/Dave/Generated/DIGITAL_IO\digital_io.h ****  *
  59:C:/GitHub/MobRob_Rover_NEW/Steering_Controller/MobRob_Steering_Controller/Dave/Generated/DIGITAL_IO\digital_io.h ****  * @endcond
  60:C:/GitHub/MobRob_Rover_NEW/Steering_Controller/MobRob_Steering_Controller/Dave/Generated/DIGITAL_IO\digital_io.h ****  *
  61:C:/GitHub/MobRob_Rover_NEW/Steering_Controller/MobRob_Steering_Controller/Dave/Generated/DIGITAL_IO\digital_io.h ****  */
  62:C:/GitHub/MobRob_Rover_NEW/Steering_Controller/MobRob_Steering_Controller/Dave/Generated/DIGITAL_IO\digital_io.h **** 
  63:C:/GitHub/MobRob_Rover_NEW/Steering_Controller/MobRob_Steering_Controller/Dave/Generated/DIGITAL_IO\digital_io.h **** /**************************************************************************************************
  64:C:/GitHub/MobRob_Rover_NEW/Steering_Controller/MobRob_Steering_Controller/Dave/Generated/DIGITAL_IO\digital_io.h ****  * HEADER FILES
  65:C:/GitHub/MobRob_Rover_NEW/Steering_Controller/MobRob_Steering_Controller/Dave/Generated/DIGITAL_IO\digital_io.h ****  **************************************************************************************************
  66:C:/GitHub/MobRob_Rover_NEW/Steering_Controller/MobRob_Steering_Controller/Dave/Generated/DIGITAL_IO\digital_io.h **** 
  67:C:/GitHub/MobRob_Rover_NEW/Steering_Controller/MobRob_Steering_Controller/Dave/Generated/DIGITAL_IO\digital_io.h **** #ifndef DIGITAL_IO_H
  68:C:/GitHub/MobRob_Rover_NEW/Steering_Controller/MobRob_Steering_Controller/Dave/Generated/DIGITAL_IO\digital_io.h **** #define DIGITAL_IO_H
  69:C:/GitHub/MobRob_Rover_NEW/Steering_Controller/MobRob_Steering_Controller/Dave/Generated/DIGITAL_IO\digital_io.h **** 
  70:C:/GitHub/MobRob_Rover_NEW/Steering_Controller/MobRob_Steering_Controller/Dave/Generated/DIGITAL_IO\digital_io.h **** #include "xmc_gpio.h"
  71:C:/GitHub/MobRob_Rover_NEW/Steering_Controller/MobRob_Steering_Controller/Dave/Generated/DIGITAL_IO\digital_io.h **** #include "DAVE_Common.h"
  72:C:/GitHub/MobRob_Rover_NEW/Steering_Controller/MobRob_Steering_Controller/Dave/Generated/DIGITAL_IO\digital_io.h **** #include "digital_io_conf.h"
  73:C:/GitHub/MobRob_Rover_NEW/Steering_Controller/MobRob_Steering_Controller/Dave/Generated/DIGITAL_IO\digital_io.h **** 
  74:C:/GitHub/MobRob_Rover_NEW/Steering_Controller/MobRob_Steering_Controller/Dave/Generated/DIGITAL_IO\digital_io.h **** /**************************************************************************************************
  75:C:/GitHub/MobRob_Rover_NEW/Steering_Controller/MobRob_Steering_Controller/Dave/Generated/DIGITAL_IO\digital_io.h ****  * MACROS
  76:C:/GitHub/MobRob_Rover_NEW/Steering_Controller/MobRob_Steering_Controller/Dave/Generated/DIGITAL_IO\digital_io.h ****  **************************************************************************************************
  77:C:/GitHub/MobRob_Rover_NEW/Steering_Controller/MobRob_Steering_Controller/Dave/Generated/DIGITAL_IO\digital_io.h **** #define DIGITAL_IO_XMC_LIB_MAJOR_VERSION 2
  78:C:/GitHub/MobRob_Rover_NEW/Steering_Controller/MobRob_Steering_Controller/Dave/Generated/DIGITAL_IO\digital_io.h **** #define DIGITAL_IO_XMC_LIB_MINOR_VERSION 0
  79:C:/GitHub/MobRob_Rover_NEW/Steering_Controller/MobRob_Steering_Controller/Dave/Generated/DIGITAL_IO\digital_io.h **** #define DIGITAL_IO_XMC_LIB_PATCH_VERSION 0
  80:C:/GitHub/MobRob_Rover_NEW/Steering_Controller/MobRob_Steering_Controller/Dave/Generated/DIGITAL_IO\digital_io.h **** 
  81:C:/GitHub/MobRob_Rover_NEW/Steering_Controller/MobRob_Steering_Controller/Dave/Generated/DIGITAL_IO\digital_io.h **** #if !((XMC_LIB_MAJOR_VERSION > DIGITAL_IO_XMC_LIB_MAJOR_VERSION) ||\
  82:C:/GitHub/MobRob_Rover_NEW/Steering_Controller/MobRob_Steering_Controller/Dave/Generated/DIGITAL_IO\digital_io.h ****       ((XMC_LIB_MAJOR_VERSION == DIGITAL_IO_XMC_LIB_MAJOR_VERSION) && (XMC_LIB_MINOR_VERSION > DIGI
  83:C:/GitHub/MobRob_Rover_NEW/Steering_Controller/MobRob_Steering_Controller/Dave/Generated/DIGITAL_IO\digital_io.h ****       ((XMC_LIB_MAJOR_VERSION == DIGITAL_IO_XMC_LIB_MAJOR_VERSION) && (XMC_LIB_MINOR_VERSION == DIG
  84:C:/GitHub/MobRob_Rover_NEW/Steering_Controller/MobRob_Steering_Controller/Dave/Generated/DIGITAL_IO\digital_io.h **** #error "DIGITAL_IO requires XMC Peripheral Library v2.0.0 or higher"
  85:C:/GitHub/MobRob_Rover_NEW/Steering_Controller/MobRob_Steering_Controller/Dave/Generated/DIGITAL_IO\digital_io.h **** #endif
  86:C:/GitHub/MobRob_Rover_NEW/Steering_Controller/MobRob_Steering_Controller/Dave/Generated/DIGITAL_IO\digital_io.h **** 
  87:C:/GitHub/MobRob_Rover_NEW/Steering_Controller/MobRob_Steering_Controller/Dave/Generated/DIGITAL_IO\digital_io.h ****  /*************************************************************************************************
  88:C:/GitHub/MobRob_Rover_NEW/Steering_Controller/MobRob_Steering_Controller/Dave/Generated/DIGITAL_IO\digital_io.h ****  * ENUMS
  89:C:/GitHub/MobRob_Rover_NEW/Steering_Controller/MobRob_Steering_Controller/Dave/Generated/DIGITAL_IO\digital_io.h ****  **************************************************************************************************
  90:C:/GitHub/MobRob_Rover_NEW/Steering_Controller/MobRob_Steering_Controller/Dave/Generated/DIGITAL_IO\digital_io.h **** 
  91:C:/GitHub/MobRob_Rover_NEW/Steering_Controller/MobRob_Steering_Controller/Dave/Generated/DIGITAL_IO\digital_io.h **** /**
  92:C:/GitHub/MobRob_Rover_NEW/Steering_Controller/MobRob_Steering_Controller/Dave/Generated/DIGITAL_IO\digital_io.h **** * @ingroup DIGITAL_IO_enumerations
  93:C:/GitHub/MobRob_Rover_NEW/Steering_Controller/MobRob_Steering_Controller/Dave/Generated/DIGITAL_IO\digital_io.h **** * @{
  94:C:/GitHub/MobRob_Rover_NEW/Steering_Controller/MobRob_Steering_Controller/Dave/Generated/DIGITAL_IO\digital_io.h **** */
  95:C:/GitHub/MobRob_Rover_NEW/Steering_Controller/MobRob_Steering_Controller/Dave/Generated/DIGITAL_IO\digital_io.h **** 
  96:C:/GitHub/MobRob_Rover_NEW/Steering_Controller/MobRob_Steering_Controller/Dave/Generated/DIGITAL_IO\digital_io.h **** /**
  97:C:/GitHub/MobRob_Rover_NEW/Steering_Controller/MobRob_Steering_Controller/Dave/Generated/DIGITAL_IO\digital_io.h **** * @brief Initialization status of DIGITAL_IO APP.
  98:C:/GitHub/MobRob_Rover_NEW/Steering_Controller/MobRob_Steering_Controller/Dave/Generated/DIGITAL_IO\digital_io.h **** */
  99:C:/GitHub/MobRob_Rover_NEW/Steering_Controller/MobRob_Steering_Controller/Dave/Generated/DIGITAL_IO\digital_io.h **** typedef enum DIGITAL_IO_STATUS
 100:C:/GitHub/MobRob_Rover_NEW/Steering_Controller/MobRob_Steering_Controller/Dave/Generated/DIGITAL_IO\digital_io.h **** {
 101:C:/GitHub/MobRob_Rover_NEW/Steering_Controller/MobRob_Steering_Controller/Dave/Generated/DIGITAL_IO\digital_io.h ****   DIGITAL_IO_STATUS_OK = 0U,/**< 0=Status OK */
 102:C:/GitHub/MobRob_Rover_NEW/Steering_Controller/MobRob_Steering_Controller/Dave/Generated/DIGITAL_IO\digital_io.h ****   DIGITAL_IO_STATUS_FAILURE = 1U/**< 1=Status Failed */
 103:C:/GitHub/MobRob_Rover_NEW/Steering_Controller/MobRob_Steering_Controller/Dave/Generated/DIGITAL_IO\digital_io.h **** } DIGITAL_IO_STATUS_t;
 104:C:/GitHub/MobRob_Rover_NEW/Steering_Controller/MobRob_Steering_Controller/Dave/Generated/DIGITAL_IO\digital_io.h **** 
 105:C:/GitHub/MobRob_Rover_NEW/Steering_Controller/MobRob_Steering_Controller/Dave/Generated/DIGITAL_IO\digital_io.h **** /**
 106:C:/GitHub/MobRob_Rover_NEW/Steering_Controller/MobRob_Steering_Controller/Dave/Generated/DIGITAL_IO\digital_io.h **** * @}
 107:C:/GitHub/MobRob_Rover_NEW/Steering_Controller/MobRob_Steering_Controller/Dave/Generated/DIGITAL_IO\digital_io.h **** */
 108:C:/GitHub/MobRob_Rover_NEW/Steering_Controller/MobRob_Steering_Controller/Dave/Generated/DIGITAL_IO\digital_io.h **** 
 109:C:/GitHub/MobRob_Rover_NEW/Steering_Controller/MobRob_Steering_Controller/Dave/Generated/DIGITAL_IO\digital_io.h **** /**************************************************************************************************
 110:C:/GitHub/MobRob_Rover_NEW/Steering_Controller/MobRob_Steering_Controller/Dave/Generated/DIGITAL_IO\digital_io.h ****  * DATA STRUCTURES
 111:C:/GitHub/MobRob_Rover_NEW/Steering_Controller/MobRob_Steering_Controller/Dave/Generated/DIGITAL_IO\digital_io.h ****  **************************************************************************************************
 112:C:/GitHub/MobRob_Rover_NEW/Steering_Controller/MobRob_Steering_Controller/Dave/Generated/DIGITAL_IO\digital_io.h **** /**
 113:C:/GitHub/MobRob_Rover_NEW/Steering_Controller/MobRob_Steering_Controller/Dave/Generated/DIGITAL_IO\digital_io.h **** * @ingroup DIGITAL_IO_datastructures
 114:C:/GitHub/MobRob_Rover_NEW/Steering_Controller/MobRob_Steering_Controller/Dave/Generated/DIGITAL_IO\digital_io.h **** * @{
 115:C:/GitHub/MobRob_Rover_NEW/Steering_Controller/MobRob_Steering_Controller/Dave/Generated/DIGITAL_IO\digital_io.h **** */
 116:C:/GitHub/MobRob_Rover_NEW/Steering_Controller/MobRob_Steering_Controller/Dave/Generated/DIGITAL_IO\digital_io.h **** 
 117:C:/GitHub/MobRob_Rover_NEW/Steering_Controller/MobRob_Steering_Controller/Dave/Generated/DIGITAL_IO\digital_io.h **** /**
 118:C:/GitHub/MobRob_Rover_NEW/Steering_Controller/MobRob_Steering_Controller/Dave/Generated/DIGITAL_IO\digital_io.h **** * @brief Initialization data structure of DIGITAL_IO APP
 119:C:/GitHub/MobRob_Rover_NEW/Steering_Controller/MobRob_Steering_Controller/Dave/Generated/DIGITAL_IO\digital_io.h **** */
 120:C:/GitHub/MobRob_Rover_NEW/Steering_Controller/MobRob_Steering_Controller/Dave/Generated/DIGITAL_IO\digital_io.h **** typedef struct DIGITAL_IO
 121:C:/GitHub/MobRob_Rover_NEW/Steering_Controller/MobRob_Steering_Controller/Dave/Generated/DIGITAL_IO\digital_io.h **** {
 122:C:/GitHub/MobRob_Rover_NEW/Steering_Controller/MobRob_Steering_Controller/Dave/Generated/DIGITAL_IO\digital_io.h ****   XMC_GPIO_PORT_t *const gpio_port;             /**< port number */
 123:C:/GitHub/MobRob_Rover_NEW/Steering_Controller/MobRob_Steering_Controller/Dave/Generated/DIGITAL_IO\digital_io.h ****   const XMC_GPIO_CONFIG_t gpio_config;          /**< mode, initial output level and pad driver stre
 124:C:/GitHub/MobRob_Rover_NEW/Steering_Controller/MobRob_Steering_Controller/Dave/Generated/DIGITAL_IO\digital_io.h ****   const uint8_t gpio_pin;                       /**< pin number */
 125:C:/GitHub/MobRob_Rover_NEW/Steering_Controller/MobRob_Steering_Controller/Dave/Generated/DIGITAL_IO\digital_io.h ****   const XMC_GPIO_HWCTRL_t hwctrl;               /**< Hardware port control */
 126:C:/GitHub/MobRob_Rover_NEW/Steering_Controller/MobRob_Steering_Controller/Dave/Generated/DIGITAL_IO\digital_io.h **** } DIGITAL_IO_t;
 127:C:/GitHub/MobRob_Rover_NEW/Steering_Controller/MobRob_Steering_Controller/Dave/Generated/DIGITAL_IO\digital_io.h **** 
 128:C:/GitHub/MobRob_Rover_NEW/Steering_Controller/MobRob_Steering_Controller/Dave/Generated/DIGITAL_IO\digital_io.h **** 
 129:C:/GitHub/MobRob_Rover_NEW/Steering_Controller/MobRob_Steering_Controller/Dave/Generated/DIGITAL_IO\digital_io.h **** /**
 130:C:/GitHub/MobRob_Rover_NEW/Steering_Controller/MobRob_Steering_Controller/Dave/Generated/DIGITAL_IO\digital_io.h **** * @}
 131:C:/GitHub/MobRob_Rover_NEW/Steering_Controller/MobRob_Steering_Controller/Dave/Generated/DIGITAL_IO\digital_io.h **** */
 132:C:/GitHub/MobRob_Rover_NEW/Steering_Controller/MobRob_Steering_Controller/Dave/Generated/DIGITAL_IO\digital_io.h **** 
 133:C:/GitHub/MobRob_Rover_NEW/Steering_Controller/MobRob_Steering_Controller/Dave/Generated/DIGITAL_IO\digital_io.h **** 
 134:C:/GitHub/MobRob_Rover_NEW/Steering_Controller/MobRob_Steering_Controller/Dave/Generated/DIGITAL_IO\digital_io.h **** /**************************************************************************************************
 135:C:/GitHub/MobRob_Rover_NEW/Steering_Controller/MobRob_Steering_Controller/Dave/Generated/DIGITAL_IO\digital_io.h ****  * API Prototypes
 136:C:/GitHub/MobRob_Rover_NEW/Steering_Controller/MobRob_Steering_Controller/Dave/Generated/DIGITAL_IO\digital_io.h ****  **************************************************************************************************
 137:C:/GitHub/MobRob_Rover_NEW/Steering_Controller/MobRob_Steering_Controller/Dave/Generated/DIGITAL_IO\digital_io.h **** 
 138:C:/GitHub/MobRob_Rover_NEW/Steering_Controller/MobRob_Steering_Controller/Dave/Generated/DIGITAL_IO\digital_io.h **** 
 139:C:/GitHub/MobRob_Rover_NEW/Steering_Controller/MobRob_Steering_Controller/Dave/Generated/DIGITAL_IO\digital_io.h **** #ifdef __cplusplus
 140:C:/GitHub/MobRob_Rover_NEW/Steering_Controller/MobRob_Steering_Controller/Dave/Generated/DIGITAL_IO\digital_io.h **** extern "C" {
 141:C:/GitHub/MobRob_Rover_NEW/Steering_Controller/MobRob_Steering_Controller/Dave/Generated/DIGITAL_IO\digital_io.h **** #endif
 142:C:/GitHub/MobRob_Rover_NEW/Steering_Controller/MobRob_Steering_Controller/Dave/Generated/DIGITAL_IO\digital_io.h **** 
 143:C:/GitHub/MobRob_Rover_NEW/Steering_Controller/MobRob_Steering_Controller/Dave/Generated/DIGITAL_IO\digital_io.h **** /**
 144:C:/GitHub/MobRob_Rover_NEW/Steering_Controller/MobRob_Steering_Controller/Dave/Generated/DIGITAL_IO\digital_io.h **** * @ingroup DIGITAL_IO_apidoc
 145:C:/GitHub/MobRob_Rover_NEW/Steering_Controller/MobRob_Steering_Controller/Dave/Generated/DIGITAL_IO\digital_io.h **** * @{
 146:C:/GitHub/MobRob_Rover_NEW/Steering_Controller/MobRob_Steering_Controller/Dave/Generated/DIGITAL_IO\digital_io.h **** */
 147:C:/GitHub/MobRob_Rover_NEW/Steering_Controller/MobRob_Steering_Controller/Dave/Generated/DIGITAL_IO\digital_io.h **** 
 148:C:/GitHub/MobRob_Rover_NEW/Steering_Controller/MobRob_Steering_Controller/Dave/Generated/DIGITAL_IO\digital_io.h **** 
 149:C:/GitHub/MobRob_Rover_NEW/Steering_Controller/MobRob_Steering_Controller/Dave/Generated/DIGITAL_IO\digital_io.h **** 
 150:C:/GitHub/MobRob_Rover_NEW/Steering_Controller/MobRob_Steering_Controller/Dave/Generated/DIGITAL_IO\digital_io.h **** /**
 151:C:/GitHub/MobRob_Rover_NEW/Steering_Controller/MobRob_Steering_Controller/Dave/Generated/DIGITAL_IO\digital_io.h **** * @brief Get DIGITAL_IO APP version
 152:C:/GitHub/MobRob_Rover_NEW/Steering_Controller/MobRob_Steering_Controller/Dave/Generated/DIGITAL_IO\digital_io.h **** * @return DAVE_APP_VERSION_t APP version information (major, minor and patch number)
 153:C:/GitHub/MobRob_Rover_NEW/Steering_Controller/MobRob_Steering_Controller/Dave/Generated/DIGITAL_IO\digital_io.h **** *
 154:C:/GitHub/MobRob_Rover_NEW/Steering_Controller/MobRob_Steering_Controller/Dave/Generated/DIGITAL_IO\digital_io.h **** * \par<b>Description: </b><br>
 155:C:/GitHub/MobRob_Rover_NEW/Steering_Controller/MobRob_Steering_Controller/Dave/Generated/DIGITAL_IO\digital_io.h **** * The function can be used to check application software compatibility with a
 156:C:/GitHub/MobRob_Rover_NEW/Steering_Controller/MobRob_Steering_Controller/Dave/Generated/DIGITAL_IO\digital_io.h **** * specific version of the APP.
 157:C:/GitHub/MobRob_Rover_NEW/Steering_Controller/MobRob_Steering_Controller/Dave/Generated/DIGITAL_IO\digital_io.h **** *
 158:C:/GitHub/MobRob_Rover_NEW/Steering_Controller/MobRob_Steering_Controller/Dave/Generated/DIGITAL_IO\digital_io.h **** * Example Usage:
 159:C:/GitHub/MobRob_Rover_NEW/Steering_Controller/MobRob_Steering_Controller/Dave/Generated/DIGITAL_IO\digital_io.h **** *
 160:C:/GitHub/MobRob_Rover_NEW/Steering_Controller/MobRob_Steering_Controller/Dave/Generated/DIGITAL_IO\digital_io.h **** * @code
 161:C:/GitHub/MobRob_Rover_NEW/Steering_Controller/MobRob_Steering_Controller/Dave/Generated/DIGITAL_IO\digital_io.h **** * #include "DAVE.h"
 162:C:/GitHub/MobRob_Rover_NEW/Steering_Controller/MobRob_Steering_Controller/Dave/Generated/DIGITAL_IO\digital_io.h **** *
 163:C:/GitHub/MobRob_Rover_NEW/Steering_Controller/MobRob_Steering_Controller/Dave/Generated/DIGITAL_IO\digital_io.h **** * int main(void)
 164:C:/GitHub/MobRob_Rover_NEW/Steering_Controller/MobRob_Steering_Controller/Dave/Generated/DIGITAL_IO\digital_io.h **** * {
 165:C:/GitHub/MobRob_Rover_NEW/Steering_Controller/MobRob_Steering_Controller/Dave/Generated/DIGITAL_IO\digital_io.h **** *   DAVE_STATUS_t init_status;
 166:C:/GitHub/MobRob_Rover_NEW/Steering_Controller/MobRob_Steering_Controller/Dave/Generated/DIGITAL_IO\digital_io.h **** *   DAVE_APP_VERSION_t version;
 167:C:/GitHub/MobRob_Rover_NEW/Steering_Controller/MobRob_Steering_Controller/Dave/Generated/DIGITAL_IO\digital_io.h **** *
 168:C:/GitHub/MobRob_Rover_NEW/Steering_Controller/MobRob_Steering_Controller/Dave/Generated/DIGITAL_IO\digital_io.h **** *   // Initialize DIGITAL_IO APP:
 169:C:/GitHub/MobRob_Rover_NEW/Steering_Controller/MobRob_Steering_Controller/Dave/Generated/DIGITAL_IO\digital_io.h **** *   // DIGITAL_IO_Init() is called from within DAVE_Init().
 170:C:/GitHub/MobRob_Rover_NEW/Steering_Controller/MobRob_Steering_Controller/Dave/Generated/DIGITAL_IO\digital_io.h **** *   init_status = DAVE_Init();
 171:C:/GitHub/MobRob_Rover_NEW/Steering_Controller/MobRob_Steering_Controller/Dave/Generated/DIGITAL_IO\digital_io.h **** *   if(init_status == DAVE_STATUS_SUCCESS)
 172:C:/GitHub/MobRob_Rover_NEW/Steering_Controller/MobRob_Steering_Controller/Dave/Generated/DIGITAL_IO\digital_io.h **** *   {
 173:C:/GitHub/MobRob_Rover_NEW/Steering_Controller/MobRob_Steering_Controller/Dave/Generated/DIGITAL_IO\digital_io.h **** *     version = DIGITAL_IO_GetAppVersion();
 174:C:/GitHub/MobRob_Rover_NEW/Steering_Controller/MobRob_Steering_Controller/Dave/Generated/DIGITAL_IO\digital_io.h **** *     if (version.major != 4U) {
 175:C:/GitHub/MobRob_Rover_NEW/Steering_Controller/MobRob_Steering_Controller/Dave/Generated/DIGITAL_IO\digital_io.h **** *     // Probably, not the right version.
 176:C:/GitHub/MobRob_Rover_NEW/Steering_Controller/MobRob_Steering_Controller/Dave/Generated/DIGITAL_IO\digital_io.h **** *     }
 177:C:/GitHub/MobRob_Rover_NEW/Steering_Controller/MobRob_Steering_Controller/Dave/Generated/DIGITAL_IO\digital_io.h **** *   }
 178:C:/GitHub/MobRob_Rover_NEW/Steering_Controller/MobRob_Steering_Controller/Dave/Generated/DIGITAL_IO\digital_io.h **** *
 179:C:/GitHub/MobRob_Rover_NEW/Steering_Controller/MobRob_Steering_Controller/Dave/Generated/DIGITAL_IO\digital_io.h **** *     // More code here
 180:C:/GitHub/MobRob_Rover_NEW/Steering_Controller/MobRob_Steering_Controller/Dave/Generated/DIGITAL_IO\digital_io.h **** *     while(1) {
 181:C:/GitHub/MobRob_Rover_NEW/Steering_Controller/MobRob_Steering_Controller/Dave/Generated/DIGITAL_IO\digital_io.h **** *
 182:C:/GitHub/MobRob_Rover_NEW/Steering_Controller/MobRob_Steering_Controller/Dave/Generated/DIGITAL_IO\digital_io.h **** *     }
 183:C:/GitHub/MobRob_Rover_NEW/Steering_Controller/MobRob_Steering_Controller/Dave/Generated/DIGITAL_IO\digital_io.h **** *     return (1);
 184:C:/GitHub/MobRob_Rover_NEW/Steering_Controller/MobRob_Steering_Controller/Dave/Generated/DIGITAL_IO\digital_io.h **** *  }
 185:C:/GitHub/MobRob_Rover_NEW/Steering_Controller/MobRob_Steering_Controller/Dave/Generated/DIGITAL_IO\digital_io.h **** * @endcode<BR>
 186:C:/GitHub/MobRob_Rover_NEW/Steering_Controller/MobRob_Steering_Controller/Dave/Generated/DIGITAL_IO\digital_io.h **** */
 187:C:/GitHub/MobRob_Rover_NEW/Steering_Controller/MobRob_Steering_Controller/Dave/Generated/DIGITAL_IO\digital_io.h **** 
 188:C:/GitHub/MobRob_Rover_NEW/Steering_Controller/MobRob_Steering_Controller/Dave/Generated/DIGITAL_IO\digital_io.h **** DAVE_APP_VERSION_t DIGITAL_IO_GetAppVersion(void);
 189:C:/GitHub/MobRob_Rover_NEW/Steering_Controller/MobRob_Steering_Controller/Dave/Generated/DIGITAL_IO\digital_io.h **** 
 190:C:/GitHub/MobRob_Rover_NEW/Steering_Controller/MobRob_Steering_Controller/Dave/Generated/DIGITAL_IO\digital_io.h **** /**
 191:C:/GitHub/MobRob_Rover_NEW/Steering_Controller/MobRob_Steering_Controller/Dave/Generated/DIGITAL_IO\digital_io.h **** *
 192:C:/GitHub/MobRob_Rover_NEW/Steering_Controller/MobRob_Steering_Controller/Dave/Generated/DIGITAL_IO\digital_io.h **** * @brief Function to initialize the port pin as per UI settings.
 193:C:/GitHub/MobRob_Rover_NEW/Steering_Controller/MobRob_Steering_Controller/Dave/Generated/DIGITAL_IO\digital_io.h **** * @param handler Pointer pointing to APP data structure. Refer @ref DIGITAL_IO_t for details.
 194:C:/GitHub/MobRob_Rover_NEW/Steering_Controller/MobRob_Steering_Controller/Dave/Generated/DIGITAL_IO\digital_io.h **** * @return DIGITAL_IO_STATUS_t DIGITAL_IO APP status. Refer @ref DIGITAL_IO_STATUS_t structure for d
 195:C:/GitHub/MobRob_Rover_NEW/Steering_Controller/MobRob_Steering_Controller/Dave/Generated/DIGITAL_IO\digital_io.h **** *
 196:C:/GitHub/MobRob_Rover_NEW/Steering_Controller/MobRob_Steering_Controller/Dave/Generated/DIGITAL_IO\digital_io.h **** * \par<b>Description:</b><br>
 197:C:/GitHub/MobRob_Rover_NEW/Steering_Controller/MobRob_Steering_Controller/Dave/Generated/DIGITAL_IO\digital_io.h **** * This function initializes GPIO port registers IOCR,PDISC,OMR,PDR/PHCR to configure pin direction,
 198:C:/GitHub/MobRob_Rover_NEW/Steering_Controller/MobRob_Steering_Controller/Dave/Generated/DIGITAL_IO\digital_io.h **** * and pad driver strength/hysteresis.
 199:C:/GitHub/MobRob_Rover_NEW/Steering_Controller/MobRob_Steering_Controller/Dave/Generated/DIGITAL_IO\digital_io.h **** *
 200:C:/GitHub/MobRob_Rover_NEW/Steering_Controller/MobRob_Steering_Controller/Dave/Generated/DIGITAL_IO\digital_io.h **** * \par<b>Related APIs:</b><BR>
 201:C:/GitHub/MobRob_Rover_NEW/Steering_Controller/MobRob_Steering_Controller/Dave/Generated/DIGITAL_IO\digital_io.h **** * None
 202:C:/GitHub/MobRob_Rover_NEW/Steering_Controller/MobRob_Steering_Controller/Dave/Generated/DIGITAL_IO\digital_io.h **** *
 203:C:/GitHub/MobRob_Rover_NEW/Steering_Controller/MobRob_Steering_Controller/Dave/Generated/DIGITAL_IO\digital_io.h **** * Example Usage:
 204:C:/GitHub/MobRob_Rover_NEW/Steering_Controller/MobRob_Steering_Controller/Dave/Generated/DIGITAL_IO\digital_io.h **** * @code
 205:C:/GitHub/MobRob_Rover_NEW/Steering_Controller/MobRob_Steering_Controller/Dave/Generated/DIGITAL_IO\digital_io.h **** * #include "DAVE.h" //Declarations from DAVE Code Generation (includes SFR declaration)
 206:C:/GitHub/MobRob_Rover_NEW/Steering_Controller/MobRob_Steering_Controller/Dave/Generated/DIGITAL_IO\digital_io.h **** *
 207:C:/GitHub/MobRob_Rover_NEW/Steering_Controller/MobRob_Steering_Controller/Dave/Generated/DIGITAL_IO\digital_io.h **** * int main(void)
 208:C:/GitHub/MobRob_Rover_NEW/Steering_Controller/MobRob_Steering_Controller/Dave/Generated/DIGITAL_IO\digital_io.h **** * {
 209:C:/GitHub/MobRob_Rover_NEW/Steering_Controller/MobRob_Steering_Controller/Dave/Generated/DIGITAL_IO\digital_io.h **** *   DAVE_STATUS_t status;
 210:C:/GitHub/MobRob_Rover_NEW/Steering_Controller/MobRob_Steering_Controller/Dave/Generated/DIGITAL_IO\digital_io.h **** *   status = DAVE_Init();  //(DAVE_STATUS_t)DIGITAL_IO_Init(&DIGITAL_IO_0) is called within DAVE_In
 211:C:/GitHub/MobRob_Rover_NEW/Steering_Controller/MobRob_Steering_Controller/Dave/Generated/DIGITAL_IO\digital_io.h **** *   if(status == DAVE_STATUS_SUCCESS)
 212:C:/GitHub/MobRob_Rover_NEW/Steering_Controller/MobRob_Steering_Controller/Dave/Generated/DIGITAL_IO\digital_io.h **** *   {
 213:C:/GitHub/MobRob_Rover_NEW/Steering_Controller/MobRob_Steering_Controller/Dave/Generated/DIGITAL_IO\digital_io.h **** *     XMC_DEBUG("DAVE Apps initialization success\n");
 214:C:/GitHub/MobRob_Rover_NEW/Steering_Controller/MobRob_Steering_Controller/Dave/Generated/DIGITAL_IO\digital_io.h **** *   }
 215:C:/GitHub/MobRob_Rover_NEW/Steering_Controller/MobRob_Steering_Controller/Dave/Generated/DIGITAL_IO\digital_io.h **** *   else
 216:C:/GitHub/MobRob_Rover_NEW/Steering_Controller/MobRob_Steering_Controller/Dave/Generated/DIGITAL_IO\digital_io.h **** *   {
 217:C:/GitHub/MobRob_Rover_NEW/Steering_Controller/MobRob_Steering_Controller/Dave/Generated/DIGITAL_IO\digital_io.h **** *     XMC_DEBUG(("DAVE Apps initialization failed with status %d\n", status));
 218:C:/GitHub/MobRob_Rover_NEW/Steering_Controller/MobRob_Steering_Controller/Dave/Generated/DIGITAL_IO\digital_io.h **** *     while(1U)
 219:C:/GitHub/MobRob_Rover_NEW/Steering_Controller/MobRob_Steering_Controller/Dave/Generated/DIGITAL_IO\digital_io.h **** *     {
 220:C:/GitHub/MobRob_Rover_NEW/Steering_Controller/MobRob_Steering_Controller/Dave/Generated/DIGITAL_IO\digital_io.h **** *     }
 221:C:/GitHub/MobRob_Rover_NEW/Steering_Controller/MobRob_Steering_Controller/Dave/Generated/DIGITAL_IO\digital_io.h **** *   }
 222:C:/GitHub/MobRob_Rover_NEW/Steering_Controller/MobRob_Steering_Controller/Dave/Generated/DIGITAL_IO\digital_io.h **** *   //Placeholder for user application code. The while loop below can be replaced with user applica
 223:C:/GitHub/MobRob_Rover_NEW/Steering_Controller/MobRob_Steering_Controller/Dave/Generated/DIGITAL_IO\digital_io.h **** *   while(1U)
 224:C:/GitHub/MobRob_Rover_NEW/Steering_Controller/MobRob_Steering_Controller/Dave/Generated/DIGITAL_IO\digital_io.h **** *   {
 225:C:/GitHub/MobRob_Rover_NEW/Steering_Controller/MobRob_Steering_Controller/Dave/Generated/DIGITAL_IO\digital_io.h **** *   }
 226:C:/GitHub/MobRob_Rover_NEW/Steering_Controller/MobRob_Steering_Controller/Dave/Generated/DIGITAL_IO\digital_io.h **** *   return 1U;
 227:C:/GitHub/MobRob_Rover_NEW/Steering_Controller/MobRob_Steering_Controller/Dave/Generated/DIGITAL_IO\digital_io.h **** *  }
 228:C:/GitHub/MobRob_Rover_NEW/Steering_Controller/MobRob_Steering_Controller/Dave/Generated/DIGITAL_IO\digital_io.h **** *  @endcode
 229:C:/GitHub/MobRob_Rover_NEW/Steering_Controller/MobRob_Steering_Controller/Dave/Generated/DIGITAL_IO\digital_io.h **** */
 230:C:/GitHub/MobRob_Rover_NEW/Steering_Controller/MobRob_Steering_Controller/Dave/Generated/DIGITAL_IO\digital_io.h **** 
 231:C:/GitHub/MobRob_Rover_NEW/Steering_Controller/MobRob_Steering_Controller/Dave/Generated/DIGITAL_IO\digital_io.h **** DIGITAL_IO_STATUS_t DIGITAL_IO_Init(const DIGITAL_IO_t *const handler);
 232:C:/GitHub/MobRob_Rover_NEW/Steering_Controller/MobRob_Steering_Controller/Dave/Generated/DIGITAL_IO\digital_io.h **** 
 233:C:/GitHub/MobRob_Rover_NEW/Steering_Controller/MobRob_Steering_Controller/Dave/Generated/DIGITAL_IO\digital_io.h **** /**
 234:C:/GitHub/MobRob_Rover_NEW/Steering_Controller/MobRob_Steering_Controller/Dave/Generated/DIGITAL_IO\digital_io.h **** *
 235:C:/GitHub/MobRob_Rover_NEW/Steering_Controller/MobRob_Steering_Controller/Dave/Generated/DIGITAL_IO\digital_io.h **** * @brief Function to set port pin high.
 236:C:/GitHub/MobRob_Rover_NEW/Steering_Controller/MobRob_Steering_Controller/Dave/Generated/DIGITAL_IO\digital_io.h **** * @param handler Pointer pointing to APP data structure. Refer @ref DIGITAL_IO_t for details.
 237:C:/GitHub/MobRob_Rover_NEW/Steering_Controller/MobRob_Steering_Controller/Dave/Generated/DIGITAL_IO\digital_io.h **** * @return None
 238:C:/GitHub/MobRob_Rover_NEW/Steering_Controller/MobRob_Steering_Controller/Dave/Generated/DIGITAL_IO\digital_io.h **** *
 239:C:/GitHub/MobRob_Rover_NEW/Steering_Controller/MobRob_Steering_Controller/Dave/Generated/DIGITAL_IO\digital_io.h **** * \par<b>Description:</b><br>
 240:C:/GitHub/MobRob_Rover_NEW/Steering_Controller/MobRob_Steering_Controller/Dave/Generated/DIGITAL_IO\digital_io.h **** * This function configures port output modification register Pn_OMR, to make port pin to high level
 241:C:/GitHub/MobRob_Rover_NEW/Steering_Controller/MobRob_Steering_Controller/Dave/Generated/DIGITAL_IO\digital_io.h **** *
 242:C:/GitHub/MobRob_Rover_NEW/Steering_Controller/MobRob_Steering_Controller/Dave/Generated/DIGITAL_IO\digital_io.h **** * \par<b>Related APIs:</b><BR>
 243:C:/GitHub/MobRob_Rover_NEW/Steering_Controller/MobRob_Steering_Controller/Dave/Generated/DIGITAL_IO\digital_io.h **** *  DIGITAL_IO_SetOutputLow()
 244:C:/GitHub/MobRob_Rover_NEW/Steering_Controller/MobRob_Steering_Controller/Dave/Generated/DIGITAL_IO\digital_io.h **** *
 245:C:/GitHub/MobRob_Rover_NEW/Steering_Controller/MobRob_Steering_Controller/Dave/Generated/DIGITAL_IO\digital_io.h **** * Example Usage:
 246:C:/GitHub/MobRob_Rover_NEW/Steering_Controller/MobRob_Steering_Controller/Dave/Generated/DIGITAL_IO\digital_io.h **** * @code
 247:C:/GitHub/MobRob_Rover_NEW/Steering_Controller/MobRob_Steering_Controller/Dave/Generated/DIGITAL_IO\digital_io.h **** * #include "DAVE.h" //Declarations from DAVE Code Generation (includes SFR declaration)
 248:C:/GitHub/MobRob_Rover_NEW/Steering_Controller/MobRob_Steering_Controller/Dave/Generated/DIGITAL_IO\digital_io.h **** *
 249:C:/GitHub/MobRob_Rover_NEW/Steering_Controller/MobRob_Steering_Controller/Dave/Generated/DIGITAL_IO\digital_io.h **** * int main(void)
 250:C:/GitHub/MobRob_Rover_NEW/Steering_Controller/MobRob_Steering_Controller/Dave/Generated/DIGITAL_IO\digital_io.h **** * {
 251:C:/GitHub/MobRob_Rover_NEW/Steering_Controller/MobRob_Steering_Controller/Dave/Generated/DIGITAL_IO\digital_io.h **** *   DAVE_STATUS_t status;
 252:C:/GitHub/MobRob_Rover_NEW/Steering_Controller/MobRob_Steering_Controller/Dave/Generated/DIGITAL_IO\digital_io.h **** *   status = DAVE_Init();  //(DAVE_STATUS_t)DIGITAL_IO_Init(&DIGITAL_IO_0) is called within DAVE_In
 253:C:/GitHub/MobRob_Rover_NEW/Steering_Controller/MobRob_Steering_Controller/Dave/Generated/DIGITAL_IO\digital_io.h **** *   if(status == DAVE_STATUS_SUCCESS)
 254:C:/GitHub/MobRob_Rover_NEW/Steering_Controller/MobRob_Steering_Controller/Dave/Generated/DIGITAL_IO\digital_io.h **** *   {
 255:C:/GitHub/MobRob_Rover_NEW/Steering_Controller/MobRob_Steering_Controller/Dave/Generated/DIGITAL_IO\digital_io.h **** *     XMC_DEBUG("DAVE Apps initialization success\n");
 256:C:/GitHub/MobRob_Rover_NEW/Steering_Controller/MobRob_Steering_Controller/Dave/Generated/DIGITAL_IO\digital_io.h **** *   }
 257:C:/GitHub/MobRob_Rover_NEW/Steering_Controller/MobRob_Steering_Controller/Dave/Generated/DIGITAL_IO\digital_io.h **** *   else
 258:C:/GitHub/MobRob_Rover_NEW/Steering_Controller/MobRob_Steering_Controller/Dave/Generated/DIGITAL_IO\digital_io.h **** *   {
 259:C:/GitHub/MobRob_Rover_NEW/Steering_Controller/MobRob_Steering_Controller/Dave/Generated/DIGITAL_IO\digital_io.h **** *     XMC_DEBUG(("DAVE Apps initialization failed with status %d\n", status));
 260:C:/GitHub/MobRob_Rover_NEW/Steering_Controller/MobRob_Steering_Controller/Dave/Generated/DIGITAL_IO\digital_io.h **** *     while(1U)
 261:C:/GitHub/MobRob_Rover_NEW/Steering_Controller/MobRob_Steering_Controller/Dave/Generated/DIGITAL_IO\digital_io.h **** *     {
 262:C:/GitHub/MobRob_Rover_NEW/Steering_Controller/MobRob_Steering_Controller/Dave/Generated/DIGITAL_IO\digital_io.h **** *     }
 263:C:/GitHub/MobRob_Rover_NEW/Steering_Controller/MobRob_Steering_Controller/Dave/Generated/DIGITAL_IO\digital_io.h **** *   }
 264:C:/GitHub/MobRob_Rover_NEW/Steering_Controller/MobRob_Steering_Controller/Dave/Generated/DIGITAL_IO\digital_io.h **** *   //Placeholder for user application code. The while loop below can be replaced with user applica
 265:C:/GitHub/MobRob_Rover_NEW/Steering_Controller/MobRob_Steering_Controller/Dave/Generated/DIGITAL_IO\digital_io.h **** *   DIGITAL_IO_SetOutputHigh(&DIGITAL_IO_0);
 266:C:/GitHub/MobRob_Rover_NEW/Steering_Controller/MobRob_Steering_Controller/Dave/Generated/DIGITAL_IO\digital_io.h **** *   while(1U)
 267:C:/GitHub/MobRob_Rover_NEW/Steering_Controller/MobRob_Steering_Controller/Dave/Generated/DIGITAL_IO\digital_io.h **** *   {
 268:C:/GitHub/MobRob_Rover_NEW/Steering_Controller/MobRob_Steering_Controller/Dave/Generated/DIGITAL_IO\digital_io.h **** *     // Add application code here
 269:C:/GitHub/MobRob_Rover_NEW/Steering_Controller/MobRob_Steering_Controller/Dave/Generated/DIGITAL_IO\digital_io.h **** *   }
 270:C:/GitHub/MobRob_Rover_NEW/Steering_Controller/MobRob_Steering_Controller/Dave/Generated/DIGITAL_IO\digital_io.h **** *
 271:C:/GitHub/MobRob_Rover_NEW/Steering_Controller/MobRob_Steering_Controller/Dave/Generated/DIGITAL_IO\digital_io.h **** *   return (1);
 272:C:/GitHub/MobRob_Rover_NEW/Steering_Controller/MobRob_Steering_Controller/Dave/Generated/DIGITAL_IO\digital_io.h **** * }
 273:C:/GitHub/MobRob_Rover_NEW/Steering_Controller/MobRob_Steering_Controller/Dave/Generated/DIGITAL_IO\digital_io.h **** *  @endcode
 274:C:/GitHub/MobRob_Rover_NEW/Steering_Controller/MobRob_Steering_Controller/Dave/Generated/DIGITAL_IO\digital_io.h **** */
 275:C:/GitHub/MobRob_Rover_NEW/Steering_Controller/MobRob_Steering_Controller/Dave/Generated/DIGITAL_IO\digital_io.h **** 
 276:C:/GitHub/MobRob_Rover_NEW/Steering_Controller/MobRob_Steering_Controller/Dave/Generated/DIGITAL_IO\digital_io.h **** __STATIC_INLINE void DIGITAL_IO_SetOutputHigh(const DIGITAL_IO_t *const handler)
 277:C:/GitHub/MobRob_Rover_NEW/Steering_Controller/MobRob_Steering_Controller/Dave/Generated/DIGITAL_IO\digital_io.h **** {
 105              	 .loc 2 277 0
 106              	 .cfi_startproc
 107 0000 80B5     	 push {r7,lr}
 108              	.LCFI6:
 109              	 .cfi_def_cfa_offset 8
 110              	 .cfi_offset 7,-8
 111              	 .cfi_offset 14,-4
 112 0002 82B0     	 sub sp,sp,#8
 113              	.LCFI7:
 114              	 .cfi_def_cfa_offset 16
 115 0004 00AF     	 add r7,sp,#0
 116              	.LCFI8:
 117              	 .cfi_def_cfa_register 7
 118 0006 7860     	 str r0,[r7,#4]
 278:C:/GitHub/MobRob_Rover_NEW/Steering_Controller/MobRob_Steering_Controller/Dave/Generated/DIGITAL_IO\digital_io.h ****   XMC_ASSERT("DIGITAL_IO_SetOutputHigh: handler null pointer", handler != NULL);
 279:C:/GitHub/MobRob_Rover_NEW/Steering_Controller/MobRob_Steering_Controller/Dave/Generated/DIGITAL_IO\digital_io.h ****   XMC_GPIO_SetOutputHigh(handler->gpio_port, handler->gpio_pin);
 119              	 .loc 2 279 0
 120 0008 7B68     	 ldr r3,[r7,#4]
 121 000a 1A68     	 ldr r2,[r3]
 122 000c 7B68     	 ldr r3,[r7,#4]
 123 000e 1B7B     	 ldrb r3,[r3,#12]
 124 0010 101C     	 mov r0,r2
 125 0012 191C     	 mov r1,r3
 126 0014 FFF7FEFF 	 bl XMC_GPIO_SetOutputHigh
 280:C:/GitHub/MobRob_Rover_NEW/Steering_Controller/MobRob_Steering_Controller/Dave/Generated/DIGITAL_IO\digital_io.h **** }
 127              	 .loc 2 280 0
 128 0018 BD46     	 mov sp,r7
 129 001a 02B0     	 add sp,sp,#8
 130              	 
 131 001c 80BD     	 pop {r7,pc}
 132              	 .cfi_endproc
 133              	.LFE195:
 135 001e C046     	 .section .text.DIGITAL_IO_SetOutputLow,"ax",%progbits
 136              	 .align 2
 137              	 .code 16
 138              	 .thumb_func
 140              	DIGITAL_IO_SetOutputLow:
 141              	.LFB196:
 281:C:/GitHub/MobRob_Rover_NEW/Steering_Controller/MobRob_Steering_Controller/Dave/Generated/DIGITAL_IO\digital_io.h **** 
 282:C:/GitHub/MobRob_Rover_NEW/Steering_Controller/MobRob_Steering_Controller/Dave/Generated/DIGITAL_IO\digital_io.h **** /**
 283:C:/GitHub/MobRob_Rover_NEW/Steering_Controller/MobRob_Steering_Controller/Dave/Generated/DIGITAL_IO\digital_io.h **** * @brief Function to reset port pin.
 284:C:/GitHub/MobRob_Rover_NEW/Steering_Controller/MobRob_Steering_Controller/Dave/Generated/DIGITAL_IO\digital_io.h **** * @param handler Pointer pointing to APP data structure. Refer @ref DIGITAL_IO_t for details.
 285:C:/GitHub/MobRob_Rover_NEW/Steering_Controller/MobRob_Steering_Controller/Dave/Generated/DIGITAL_IO\digital_io.h **** * @return None
 286:C:/GitHub/MobRob_Rover_NEW/Steering_Controller/MobRob_Steering_Controller/Dave/Generated/DIGITAL_IO\digital_io.h **** *
 287:C:/GitHub/MobRob_Rover_NEW/Steering_Controller/MobRob_Steering_Controller/Dave/Generated/DIGITAL_IO\digital_io.h **** * \par<b>Description:</b><br>
 288:C:/GitHub/MobRob_Rover_NEW/Steering_Controller/MobRob_Steering_Controller/Dave/Generated/DIGITAL_IO\digital_io.h **** * This function configures port output modification register Pn_OMR, to make port pin to low level.
 289:C:/GitHub/MobRob_Rover_NEW/Steering_Controller/MobRob_Steering_Controller/Dave/Generated/DIGITAL_IO\digital_io.h **** *
 290:C:/GitHub/MobRob_Rover_NEW/Steering_Controller/MobRob_Steering_Controller/Dave/Generated/DIGITAL_IO\digital_io.h **** * \par<b>Related APIs:</b><BR>
 291:C:/GitHub/MobRob_Rover_NEW/Steering_Controller/MobRob_Steering_Controller/Dave/Generated/DIGITAL_IO\digital_io.h **** * DIGITAL_IO_SetOutputHigh()
 292:C:/GitHub/MobRob_Rover_NEW/Steering_Controller/MobRob_Steering_Controller/Dave/Generated/DIGITAL_IO\digital_io.h **** *
 293:C:/GitHub/MobRob_Rover_NEW/Steering_Controller/MobRob_Steering_Controller/Dave/Generated/DIGITAL_IO\digital_io.h **** * Example Usage:
 294:C:/GitHub/MobRob_Rover_NEW/Steering_Controller/MobRob_Steering_Controller/Dave/Generated/DIGITAL_IO\digital_io.h **** * @code
 295:C:/GitHub/MobRob_Rover_NEW/Steering_Controller/MobRob_Steering_Controller/Dave/Generated/DIGITAL_IO\digital_io.h **** *  #include "DAVE.h" //Declarations from DAVE Code Generation (includes SFR declaration)
 296:C:/GitHub/MobRob_Rover_NEW/Steering_Controller/MobRob_Steering_Controller/Dave/Generated/DIGITAL_IO\digital_io.h **** *
 297:C:/GitHub/MobRob_Rover_NEW/Steering_Controller/MobRob_Steering_Controller/Dave/Generated/DIGITAL_IO\digital_io.h **** *  int main(void)
 298:C:/GitHub/MobRob_Rover_NEW/Steering_Controller/MobRob_Steering_Controller/Dave/Generated/DIGITAL_IO\digital_io.h **** *  {
 299:C:/GitHub/MobRob_Rover_NEW/Steering_Controller/MobRob_Steering_Controller/Dave/Generated/DIGITAL_IO\digital_io.h **** *    DAVE_STATUS_t status;
 300:C:/GitHub/MobRob_Rover_NEW/Steering_Controller/MobRob_Steering_Controller/Dave/Generated/DIGITAL_IO\digital_io.h **** *    status = DAVE_Init();  //(DAVE_STATUS_t)DIGITAL_IO_Init(&DIGITAL_IO_0) is called within DAVE_I
 301:C:/GitHub/MobRob_Rover_NEW/Steering_Controller/MobRob_Steering_Controller/Dave/Generated/DIGITAL_IO\digital_io.h **** *    if(status == DAVE_STATUS_SUCCESS)
 302:C:/GitHub/MobRob_Rover_NEW/Steering_Controller/MobRob_Steering_Controller/Dave/Generated/DIGITAL_IO\digital_io.h **** *    {
 303:C:/GitHub/MobRob_Rover_NEW/Steering_Controller/MobRob_Steering_Controller/Dave/Generated/DIGITAL_IO\digital_io.h **** *      XMC_DEBUG("DAVE Apps initialization success\n");
 304:C:/GitHub/MobRob_Rover_NEW/Steering_Controller/MobRob_Steering_Controller/Dave/Generated/DIGITAL_IO\digital_io.h **** *    }
 305:C:/GitHub/MobRob_Rover_NEW/Steering_Controller/MobRob_Steering_Controller/Dave/Generated/DIGITAL_IO\digital_io.h **** *    else
 306:C:/GitHub/MobRob_Rover_NEW/Steering_Controller/MobRob_Steering_Controller/Dave/Generated/DIGITAL_IO\digital_io.h **** *    {
 307:C:/GitHub/MobRob_Rover_NEW/Steering_Controller/MobRob_Steering_Controller/Dave/Generated/DIGITAL_IO\digital_io.h **** *      XMC_DEBUG(("DAVE Apps initialization failed with status %d\n", status));
 308:C:/GitHub/MobRob_Rover_NEW/Steering_Controller/MobRob_Steering_Controller/Dave/Generated/DIGITAL_IO\digital_io.h **** *      while(1U)
 309:C:/GitHub/MobRob_Rover_NEW/Steering_Controller/MobRob_Steering_Controller/Dave/Generated/DIGITAL_IO\digital_io.h **** *      {
 310:C:/GitHub/MobRob_Rover_NEW/Steering_Controller/MobRob_Steering_Controller/Dave/Generated/DIGITAL_IO\digital_io.h **** *      }
 311:C:/GitHub/MobRob_Rover_NEW/Steering_Controller/MobRob_Steering_Controller/Dave/Generated/DIGITAL_IO\digital_io.h **** *    }
 312:C:/GitHub/MobRob_Rover_NEW/Steering_Controller/MobRob_Steering_Controller/Dave/Generated/DIGITAL_IO\digital_io.h **** *    //Placeholder for user application code. The while loop below can be replaced with user applic
 313:C:/GitHub/MobRob_Rover_NEW/Steering_Controller/MobRob_Steering_Controller/Dave/Generated/DIGITAL_IO\digital_io.h **** *    DIGITAL_IO_SetOutputLow(&DIGITAL_IO_0);
 314:C:/GitHub/MobRob_Rover_NEW/Steering_Controller/MobRob_Steering_Controller/Dave/Generated/DIGITAL_IO\digital_io.h **** *    while(1U)
 315:C:/GitHub/MobRob_Rover_NEW/Steering_Controller/MobRob_Steering_Controller/Dave/Generated/DIGITAL_IO\digital_io.h **** *    {
 316:C:/GitHub/MobRob_Rover_NEW/Steering_Controller/MobRob_Steering_Controller/Dave/Generated/DIGITAL_IO\digital_io.h **** *      // Add application code here
 317:C:/GitHub/MobRob_Rover_NEW/Steering_Controller/MobRob_Steering_Controller/Dave/Generated/DIGITAL_IO\digital_io.h **** *    }
 318:C:/GitHub/MobRob_Rover_NEW/Steering_Controller/MobRob_Steering_Controller/Dave/Generated/DIGITAL_IO\digital_io.h **** *
 319:C:/GitHub/MobRob_Rover_NEW/Steering_Controller/MobRob_Steering_Controller/Dave/Generated/DIGITAL_IO\digital_io.h **** *   return (1);
 320:C:/GitHub/MobRob_Rover_NEW/Steering_Controller/MobRob_Steering_Controller/Dave/Generated/DIGITAL_IO\digital_io.h **** * }
 321:C:/GitHub/MobRob_Rover_NEW/Steering_Controller/MobRob_Steering_Controller/Dave/Generated/DIGITAL_IO\digital_io.h **** *  @endcode
 322:C:/GitHub/MobRob_Rover_NEW/Steering_Controller/MobRob_Steering_Controller/Dave/Generated/DIGITAL_IO\digital_io.h **** */
 323:C:/GitHub/MobRob_Rover_NEW/Steering_Controller/MobRob_Steering_Controller/Dave/Generated/DIGITAL_IO\digital_io.h **** 
 324:C:/GitHub/MobRob_Rover_NEW/Steering_Controller/MobRob_Steering_Controller/Dave/Generated/DIGITAL_IO\digital_io.h **** __STATIC_INLINE void DIGITAL_IO_SetOutputLow(const DIGITAL_IO_t *const handler)
 325:C:/GitHub/MobRob_Rover_NEW/Steering_Controller/MobRob_Steering_Controller/Dave/Generated/DIGITAL_IO\digital_io.h **** {
 142              	 .loc 2 325 0
 143              	 .cfi_startproc
 144 0000 80B5     	 push {r7,lr}
 145              	.LCFI9:
 146              	 .cfi_def_cfa_offset 8
 147              	 .cfi_offset 7,-8
 148              	 .cfi_offset 14,-4
 149 0002 82B0     	 sub sp,sp,#8
 150              	.LCFI10:
 151              	 .cfi_def_cfa_offset 16
 152 0004 00AF     	 add r7,sp,#0
 153              	.LCFI11:
 154              	 .cfi_def_cfa_register 7
 155 0006 7860     	 str r0,[r7,#4]
 326:C:/GitHub/MobRob_Rover_NEW/Steering_Controller/MobRob_Steering_Controller/Dave/Generated/DIGITAL_IO\digital_io.h ****   XMC_ASSERT("DIGITAL_IO_SetOutputLow: handler null pointer", handler != NULL);
 327:C:/GitHub/MobRob_Rover_NEW/Steering_Controller/MobRob_Steering_Controller/Dave/Generated/DIGITAL_IO\digital_io.h ****   XMC_GPIO_SetOutputLow(handler->gpio_port,handler->gpio_pin);
 156              	 .loc 2 327 0
 157 0008 7B68     	 ldr r3,[r7,#4]
 158 000a 1A68     	 ldr r2,[r3]
 159 000c 7B68     	 ldr r3,[r7,#4]
 160 000e 1B7B     	 ldrb r3,[r3,#12]
 161 0010 101C     	 mov r0,r2
 162 0012 191C     	 mov r1,r3
 163 0014 FFF7FEFF 	 bl XMC_GPIO_SetOutputLow
 328:C:/GitHub/MobRob_Rover_NEW/Steering_Controller/MobRob_Steering_Controller/Dave/Generated/DIGITAL_IO\digital_io.h **** }
 164              	 .loc 2 328 0
 165 0018 BD46     	 mov sp,r7
 166 001a 02B0     	 add sp,sp,#8
 167              	 
 168 001c 80BD     	 pop {r7,pc}
 169              	 .cfi_endproc
 170              	.LFE196:
 172 001e C046     	 .section .text.XMC_WDT_Service,"ax",%progbits
 173              	 .align 2
 174              	 .code 16
 175              	 .thumb_func
 177              	XMC_WDT_Service:
 178              	.LFB217:
 179              	 .file 3 "C:/GitHub/MobRob_Rover_NEW/Steering_Controller/MobRob_Steering_Controller/Libraries/XMCLib/inc/xmc_wdt.h"
   1:C:/GitHub/MobRob_Rover_NEW/Steering_Controller/MobRob_Steering_Controller/Libraries/XMCLib/inc\xmc_wdt.h **** /**
   2:C:/GitHub/MobRob_Rover_NEW/Steering_Controller/MobRob_Steering_Controller/Libraries/XMCLib/inc\xmc_wdt.h ****  * @file xmc_wdt.h
   3:C:/GitHub/MobRob_Rover_NEW/Steering_Controller/MobRob_Steering_Controller/Libraries/XMCLib/inc\xmc_wdt.h ****  * @date 2015-08-06
   4:C:/GitHub/MobRob_Rover_NEW/Steering_Controller/MobRob_Steering_Controller/Libraries/XMCLib/inc\xmc_wdt.h ****  *
   5:C:/GitHub/MobRob_Rover_NEW/Steering_Controller/MobRob_Steering_Controller/Libraries/XMCLib/inc\xmc_wdt.h ****  * @cond
   6:C:/GitHub/MobRob_Rover_NEW/Steering_Controller/MobRob_Steering_Controller/Libraries/XMCLib/inc\xmc_wdt.h ****  *****************************************************************************
   7:C:/GitHub/MobRob_Rover_NEW/Steering_Controller/MobRob_Steering_Controller/Libraries/XMCLib/inc\xmc_wdt.h ****  * XMClib v2.2.0 - XMC Peripheral Driver Library
   8:C:/GitHub/MobRob_Rover_NEW/Steering_Controller/MobRob_Steering_Controller/Libraries/XMCLib/inc\xmc_wdt.h ****  *
   9:C:/GitHub/MobRob_Rover_NEW/Steering_Controller/MobRob_Steering_Controller/Libraries/XMCLib/inc\xmc_wdt.h ****  * Copyright (c) 2015-2020, Infineon Technologies AG
  10:C:/GitHub/MobRob_Rover_NEW/Steering_Controller/MobRob_Steering_Controller/Libraries/XMCLib/inc\xmc_wdt.h ****  * All rights reserved.
  11:C:/GitHub/MobRob_Rover_NEW/Steering_Controller/MobRob_Steering_Controller/Libraries/XMCLib/inc\xmc_wdt.h ****  *
  12:C:/GitHub/MobRob_Rover_NEW/Steering_Controller/MobRob_Steering_Controller/Libraries/XMCLib/inc\xmc_wdt.h ****  * Boost Software License - Version 1.0 - August 17th, 2003
  13:C:/GitHub/MobRob_Rover_NEW/Steering_Controller/MobRob_Steering_Controller/Libraries/XMCLib/inc\xmc_wdt.h ****  *
  14:C:/GitHub/MobRob_Rover_NEW/Steering_Controller/MobRob_Steering_Controller/Libraries/XMCLib/inc\xmc_wdt.h ****  * Permission is hereby granted, free of charge, to any person or organization
  15:C:/GitHub/MobRob_Rover_NEW/Steering_Controller/MobRob_Steering_Controller/Libraries/XMCLib/inc\xmc_wdt.h ****  * obtaining a copy of the software and accompanying documentation covered by
  16:C:/GitHub/MobRob_Rover_NEW/Steering_Controller/MobRob_Steering_Controller/Libraries/XMCLib/inc\xmc_wdt.h ****  * this license (the "Software") to use, reproduce, display, distribute,
  17:C:/GitHub/MobRob_Rover_NEW/Steering_Controller/MobRob_Steering_Controller/Libraries/XMCLib/inc\xmc_wdt.h ****  * execute, and transmit the Software, and to prepare derivative works of the
  18:C:/GitHub/MobRob_Rover_NEW/Steering_Controller/MobRob_Steering_Controller/Libraries/XMCLib/inc\xmc_wdt.h ****  * Software, and to permit third-parties to whom the Software is furnished to
  19:C:/GitHub/MobRob_Rover_NEW/Steering_Controller/MobRob_Steering_Controller/Libraries/XMCLib/inc\xmc_wdt.h ****  * do so, all subject to the following:
  20:C:/GitHub/MobRob_Rover_NEW/Steering_Controller/MobRob_Steering_Controller/Libraries/XMCLib/inc\xmc_wdt.h ****  *
  21:C:/GitHub/MobRob_Rover_NEW/Steering_Controller/MobRob_Steering_Controller/Libraries/XMCLib/inc\xmc_wdt.h ****  * The copyright notices in the Software and this entire statement, including
  22:C:/GitHub/MobRob_Rover_NEW/Steering_Controller/MobRob_Steering_Controller/Libraries/XMCLib/inc\xmc_wdt.h ****  * the above license grant, this restriction and the following disclaimer,
  23:C:/GitHub/MobRob_Rover_NEW/Steering_Controller/MobRob_Steering_Controller/Libraries/XMCLib/inc\xmc_wdt.h ****  * must be included in all copies of the Software, in whole or in part, and
  24:C:/GitHub/MobRob_Rover_NEW/Steering_Controller/MobRob_Steering_Controller/Libraries/XMCLib/inc\xmc_wdt.h ****  * all derivative works of the Software, unless such copies or derivative
  25:C:/GitHub/MobRob_Rover_NEW/Steering_Controller/MobRob_Steering_Controller/Libraries/XMCLib/inc\xmc_wdt.h ****  * works are solely in the form of machine-executable object code generated by
  26:C:/GitHub/MobRob_Rover_NEW/Steering_Controller/MobRob_Steering_Controller/Libraries/XMCLib/inc\xmc_wdt.h ****  * a source language processor.
  27:C:/GitHub/MobRob_Rover_NEW/Steering_Controller/MobRob_Steering_Controller/Libraries/XMCLib/inc\xmc_wdt.h ****  *
  28:C:/GitHub/MobRob_Rover_NEW/Steering_Controller/MobRob_Steering_Controller/Libraries/XMCLib/inc\xmc_wdt.h ****  * THE SOFTWARE IS PROVIDED "AS IS", WITHOUT WARRANTY OF ANY KIND, EXPRESS OR
  29:C:/GitHub/MobRob_Rover_NEW/Steering_Controller/MobRob_Steering_Controller/Libraries/XMCLib/inc\xmc_wdt.h ****  * IMPLIED, INCLUDING BUT NOT LIMITED TO THE WARRANTIES OF MERCHANTABILITY,
  30:C:/GitHub/MobRob_Rover_NEW/Steering_Controller/MobRob_Steering_Controller/Libraries/XMCLib/inc\xmc_wdt.h ****  * FITNESS FOR A PARTICULAR PURPOSE, TITLE AND NON-INFRINGEMENT. IN NO EVENT
  31:C:/GitHub/MobRob_Rover_NEW/Steering_Controller/MobRob_Steering_Controller/Libraries/XMCLib/inc\xmc_wdt.h ****  * SHALL THE COPYRIGHT HOLDERS OR ANYONE DISTRIBUTING THE SOFTWARE BE LIABLE
  32:C:/GitHub/MobRob_Rover_NEW/Steering_Controller/MobRob_Steering_Controller/Libraries/XMCLib/inc\xmc_wdt.h ****  * FOR ANY DAMAGES OR OTHER LIABILITY, WHETHER IN CONTRACT, TORT OR OTHERWISE,
  33:C:/GitHub/MobRob_Rover_NEW/Steering_Controller/MobRob_Steering_Controller/Libraries/XMCLib/inc\xmc_wdt.h ****  * ARISING FROM, OUT OF OR IN CONNECTION WITH THE SOFTWARE OR THE USE OR OTHER
  34:C:/GitHub/MobRob_Rover_NEW/Steering_Controller/MobRob_Steering_Controller/Libraries/XMCLib/inc\xmc_wdt.h ****  * DEALINGS IN THE SOFTWARE.
  35:C:/GitHub/MobRob_Rover_NEW/Steering_Controller/MobRob_Steering_Controller/Libraries/XMCLib/inc\xmc_wdt.h ****  *
  36:C:/GitHub/MobRob_Rover_NEW/Steering_Controller/MobRob_Steering_Controller/Libraries/XMCLib/inc\xmc_wdt.h ****  * To improve the quality of the software, users are encouraged to share
  37:C:/GitHub/MobRob_Rover_NEW/Steering_Controller/MobRob_Steering_Controller/Libraries/XMCLib/inc\xmc_wdt.h ****  * modifications, enhancements or bug fixes with Infineon Technologies AG
  38:C:/GitHub/MobRob_Rover_NEW/Steering_Controller/MobRob_Steering_Controller/Libraries/XMCLib/inc\xmc_wdt.h ****  * at XMCSupport@infineon.com.
  39:C:/GitHub/MobRob_Rover_NEW/Steering_Controller/MobRob_Steering_Controller/Libraries/XMCLib/inc\xmc_wdt.h ****  *****************************************************************************
  40:C:/GitHub/MobRob_Rover_NEW/Steering_Controller/MobRob_Steering_Controller/Libraries/XMCLib/inc\xmc_wdt.h ****  *
  41:C:/GitHub/MobRob_Rover_NEW/Steering_Controller/MobRob_Steering_Controller/Libraries/XMCLib/inc\xmc_wdt.h ****  * Change History
  42:C:/GitHub/MobRob_Rover_NEW/Steering_Controller/MobRob_Steering_Controller/Libraries/XMCLib/inc\xmc_wdt.h ****  * --------------
  43:C:/GitHub/MobRob_Rover_NEW/Steering_Controller/MobRob_Steering_Controller/Libraries/XMCLib/inc\xmc_wdt.h ****  *
  44:C:/GitHub/MobRob_Rover_NEW/Steering_Controller/MobRob_Steering_Controller/Libraries/XMCLib/inc\xmc_wdt.h ****  * 2015-02-20:
  45:C:/GitHub/MobRob_Rover_NEW/Steering_Controller/MobRob_Steering_Controller/Libraries/XMCLib/inc\xmc_wdt.h ****  *     - Initial <br>
  46:C:/GitHub/MobRob_Rover_NEW/Steering_Controller/MobRob_Steering_Controller/Libraries/XMCLib/inc\xmc_wdt.h ****  *     - Documentation updates <br>
  47:C:/GitHub/MobRob_Rover_NEW/Steering_Controller/MobRob_Steering_Controller/Libraries/XMCLib/inc\xmc_wdt.h ****  *
  48:C:/GitHub/MobRob_Rover_NEW/Steering_Controller/MobRob_Steering_Controller/Libraries/XMCLib/inc\xmc_wdt.h ****  * 2015-06-20:
  49:C:/GitHub/MobRob_Rover_NEW/Steering_Controller/MobRob_Steering_Controller/Libraries/XMCLib/inc\xmc_wdt.h ****  *     - Removed version macros and declaration of GetDriverVersion API <br>
  50:C:/GitHub/MobRob_Rover_NEW/Steering_Controller/MobRob_Steering_Controller/Libraries/XMCLib/inc\xmc_wdt.h ****  *
  51:C:/GitHub/MobRob_Rover_NEW/Steering_Controller/MobRob_Steering_Controller/Libraries/XMCLib/inc\xmc_wdt.h ****  * 2015-08-06:
  52:C:/GitHub/MobRob_Rover_NEW/Steering_Controller/MobRob_Steering_Controller/Libraries/XMCLib/inc\xmc_wdt.h ****  *     - Bug fix in XMC_WDT_SetDebugMode() API, Wrong register is being configured.<br>
  53:C:/GitHub/MobRob_Rover_NEW/Steering_Controller/MobRob_Steering_Controller/Libraries/XMCLib/inc\xmc_wdt.h ****  * @endcond
  54:C:/GitHub/MobRob_Rover_NEW/Steering_Controller/MobRob_Steering_Controller/Libraries/XMCLib/inc\xmc_wdt.h ****  */
  55:C:/GitHub/MobRob_Rover_NEW/Steering_Controller/MobRob_Steering_Controller/Libraries/XMCLib/inc\xmc_wdt.h **** 
  56:C:/GitHub/MobRob_Rover_NEW/Steering_Controller/MobRob_Steering_Controller/Libraries/XMCLib/inc\xmc_wdt.h **** #ifndef XMC_WDT_H
  57:C:/GitHub/MobRob_Rover_NEW/Steering_Controller/MobRob_Steering_Controller/Libraries/XMCLib/inc\xmc_wdt.h **** #define XMC_WDT_H
  58:C:/GitHub/MobRob_Rover_NEW/Steering_Controller/MobRob_Steering_Controller/Libraries/XMCLib/inc\xmc_wdt.h **** 
  59:C:/GitHub/MobRob_Rover_NEW/Steering_Controller/MobRob_Steering_Controller/Libraries/XMCLib/inc\xmc_wdt.h **** /**************************************************************************************************
  60:C:/GitHub/MobRob_Rover_NEW/Steering_Controller/MobRob_Steering_Controller/Libraries/XMCLib/inc\xmc_wdt.h ****  * HEADER FILES
  61:C:/GitHub/MobRob_Rover_NEW/Steering_Controller/MobRob_Steering_Controller/Libraries/XMCLib/inc\xmc_wdt.h ****  **************************************************************************************************
  62:C:/GitHub/MobRob_Rover_NEW/Steering_Controller/MobRob_Steering_Controller/Libraries/XMCLib/inc\xmc_wdt.h **** 
  63:C:/GitHub/MobRob_Rover_NEW/Steering_Controller/MobRob_Steering_Controller/Libraries/XMCLib/inc\xmc_wdt.h **** #include "xmc_common.h"
  64:C:/GitHub/MobRob_Rover_NEW/Steering_Controller/MobRob_Steering_Controller/Libraries/XMCLib/inc\xmc_wdt.h **** #include "xmc_scu.h"
  65:C:/GitHub/MobRob_Rover_NEW/Steering_Controller/MobRob_Steering_Controller/Libraries/XMCLib/inc\xmc_wdt.h **** /**
  66:C:/GitHub/MobRob_Rover_NEW/Steering_Controller/MobRob_Steering_Controller/Libraries/XMCLib/inc\xmc_wdt.h ****  * @addtogroup XMClib XMC Peripheral Library
  67:C:/GitHub/MobRob_Rover_NEW/Steering_Controller/MobRob_Steering_Controller/Libraries/XMCLib/inc\xmc_wdt.h ****  * @{
  68:C:/GitHub/MobRob_Rover_NEW/Steering_Controller/MobRob_Steering_Controller/Libraries/XMCLib/inc\xmc_wdt.h ****  */
  69:C:/GitHub/MobRob_Rover_NEW/Steering_Controller/MobRob_Steering_Controller/Libraries/XMCLib/inc\xmc_wdt.h **** 
  70:C:/GitHub/MobRob_Rover_NEW/Steering_Controller/MobRob_Steering_Controller/Libraries/XMCLib/inc\xmc_wdt.h **** /**
  71:C:/GitHub/MobRob_Rover_NEW/Steering_Controller/MobRob_Steering_Controller/Libraries/XMCLib/inc\xmc_wdt.h ****  * @addtogroup WDT
  72:C:/GitHub/MobRob_Rover_NEW/Steering_Controller/MobRob_Steering_Controller/Libraries/XMCLib/inc\xmc_wdt.h ****  * @brief Watchdog driver for the XMC microcontroller family.
  73:C:/GitHub/MobRob_Rover_NEW/Steering_Controller/MobRob_Steering_Controller/Libraries/XMCLib/inc\xmc_wdt.h ****  *
  74:C:/GitHub/MobRob_Rover_NEW/Steering_Controller/MobRob_Steering_Controller/Libraries/XMCLib/inc\xmc_wdt.h ****  * The watchdog unit (WDT) improves the system integrity, by triggering the system reset request to
  75:C:/GitHub/MobRob_Rover_NEW/Steering_Controller/MobRob_Steering_Controller/Libraries/XMCLib/inc\xmc_wdt.h ****  * back from the unresponsive state to normal operation.
  76:C:/GitHub/MobRob_Rover_NEW/Steering_Controller/MobRob_Steering_Controller/Libraries/XMCLib/inc\xmc_wdt.h ****  *
  77:C:/GitHub/MobRob_Rover_NEW/Steering_Controller/MobRob_Steering_Controller/Libraries/XMCLib/inc\xmc_wdt.h ****  * This LLD provides the Configuration structure XMC_WDT_CONFIG_t and initialization function XMC_W
  78:C:/GitHub/MobRob_Rover_NEW/Steering_Controller/MobRob_Steering_Controller/Libraries/XMCLib/inc\xmc_wdt.h ****  * It can be used to:
  79:C:/GitHub/MobRob_Rover_NEW/Steering_Controller/MobRob_Steering_Controller/Libraries/XMCLib/inc\xmc_wdt.h ****  * -# Start or Stop the watchdog timer. (XMC_WDT_Start() and XMC_WDT_Stop())
  80:C:/GitHub/MobRob_Rover_NEW/Steering_Controller/MobRob_Steering_Controller/Libraries/XMCLib/inc\xmc_wdt.h ****  * -# Service the watchdog timer. (XMC_WDT_Service())
  81:C:/GitHub/MobRob_Rover_NEW/Steering_Controller/MobRob_Steering_Controller/Libraries/XMCLib/inc\xmc_wdt.h ****  * -# Configure the service window upper bound and lower bound timing values. (XMC_WDT_SetWindowBou
  82:C:/GitHub/MobRob_Rover_NEW/Steering_Controller/MobRob_Steering_Controller/Libraries/XMCLib/inc\xmc_wdt.h ****  * -# Enable the generation of the pre-warning event for the first overflow of the timer. (XMC_WDT_
  83:C:/GitHub/MobRob_Rover_NEW/Steering_Controller/MobRob_Steering_Controller/Libraries/XMCLib/inc\xmc_wdt.h ****  * -# Clear the pre-warning alarm event. It is mandatory to clear the flag during pre-warning alarm
  84:C:/GitHub/MobRob_Rover_NEW/Steering_Controller/MobRob_Steering_Controller/Libraries/XMCLib/inc\xmc_wdt.h ****       generating reset request for the second overflow of the timer. (XMC_WDT_ClearAlarm())
  85:C:/GitHub/MobRob_Rover_NEW/Steering_Controller/MobRob_Steering_Controller/Libraries/XMCLib/inc\xmc_wdt.h ****  * -# Suspend the watchdog timer during Debug HALT mode. (XMC_WDT_SetDebugMode())
  86:C:/GitHub/MobRob_Rover_NEW/Steering_Controller/MobRob_Steering_Controller/Libraries/XMCLib/inc\xmc_wdt.h ****  * -# Configure service indication pulse width.(XMC_WDT_SetServicePulseWidth())
  87:C:/GitHub/MobRob_Rover_NEW/Steering_Controller/MobRob_Steering_Controller/Libraries/XMCLib/inc\xmc_wdt.h ****  *
  88:C:/GitHub/MobRob_Rover_NEW/Steering_Controller/MobRob_Steering_Controller/Libraries/XMCLib/inc\xmc_wdt.h ****  * @{
  89:C:/GitHub/MobRob_Rover_NEW/Steering_Controller/MobRob_Steering_Controller/Libraries/XMCLib/inc\xmc_wdt.h ****  */
  90:C:/GitHub/MobRob_Rover_NEW/Steering_Controller/MobRob_Steering_Controller/Libraries/XMCLib/inc\xmc_wdt.h **** 
  91:C:/GitHub/MobRob_Rover_NEW/Steering_Controller/MobRob_Steering_Controller/Libraries/XMCLib/inc\xmc_wdt.h **** /**************************************************************************************************
  92:C:/GitHub/MobRob_Rover_NEW/Steering_Controller/MobRob_Steering_Controller/Libraries/XMCLib/inc\xmc_wdt.h ****  * MACROS
  93:C:/GitHub/MobRob_Rover_NEW/Steering_Controller/MobRob_Steering_Controller/Libraries/XMCLib/inc\xmc_wdt.h ****   *************************************************************************************************
  94:C:/GitHub/MobRob_Rover_NEW/Steering_Controller/MobRob_Steering_Controller/Libraries/XMCLib/inc\xmc_wdt.h **** 
  95:C:/GitHub/MobRob_Rover_NEW/Steering_Controller/MobRob_Steering_Controller/Libraries/XMCLib/inc\xmc_wdt.h **** #define XMC_WDT_MAGIC_WORD             (0xABADCAFEU) /* Magic word to be written in Service Registe
  96:C:/GitHub/MobRob_Rover_NEW/Steering_Controller/MobRob_Steering_Controller/Libraries/XMCLib/inc\xmc_wdt.h ****                                                           to service or feed the watchdog. */
  97:C:/GitHub/MobRob_Rover_NEW/Steering_Controller/MobRob_Steering_Controller/Libraries/XMCLib/inc\xmc_wdt.h **** 
  98:C:/GitHub/MobRob_Rover_NEW/Steering_Controller/MobRob_Steering_Controller/Libraries/XMCLib/inc\xmc_wdt.h **** /**************************************************************************************************
  99:C:/GitHub/MobRob_Rover_NEW/Steering_Controller/MobRob_Steering_Controller/Libraries/XMCLib/inc\xmc_wdt.h ****  * ENUMS
 100:C:/GitHub/MobRob_Rover_NEW/Steering_Controller/MobRob_Steering_Controller/Libraries/XMCLib/inc\xmc_wdt.h ****   *************************************************************************************************
 101:C:/GitHub/MobRob_Rover_NEW/Steering_Controller/MobRob_Steering_Controller/Libraries/XMCLib/inc\xmc_wdt.h **** 
 102:C:/GitHub/MobRob_Rover_NEW/Steering_Controller/MobRob_Steering_Controller/Libraries/XMCLib/inc\xmc_wdt.h **** /**
 103:C:/GitHub/MobRob_Rover_NEW/Steering_Controller/MobRob_Steering_Controller/Libraries/XMCLib/inc\xmc_wdt.h ****  *  Defines working modes for watchdog. Use type XMC_WDT_MODE_t for this enum.
 104:C:/GitHub/MobRob_Rover_NEW/Steering_Controller/MobRob_Steering_Controller/Libraries/XMCLib/inc\xmc_wdt.h ****  */
 105:C:/GitHub/MobRob_Rover_NEW/Steering_Controller/MobRob_Steering_Controller/Libraries/XMCLib/inc\xmc_wdt.h **** typedef enum XMC_WDT_MODE
 106:C:/GitHub/MobRob_Rover_NEW/Steering_Controller/MobRob_Steering_Controller/Libraries/XMCLib/inc\xmc_wdt.h **** {
 107:C:/GitHub/MobRob_Rover_NEW/Steering_Controller/MobRob_Steering_Controller/Libraries/XMCLib/inc\xmc_wdt.h ****   XMC_WDT_MODE_TIMEOUT    = (uint32_t)0x0 << WDT_CTR_PRE_Pos, /**< Generates reset request as soon 
 108:C:/GitHub/MobRob_Rover_NEW/Steering_Controller/MobRob_Steering_Controller/Libraries/XMCLib/inc\xmc_wdt.h ****                                                                    occurs. */
 109:C:/GitHub/MobRob_Rover_NEW/Steering_Controller/MobRob_Steering_Controller/Libraries/XMCLib/inc\xmc_wdt.h ****   XMC_WDT_MODE_PREWARNING = (uint32_t)0x1 << WDT_CTR_PRE_Pos  /**< Generates an alarm event for the
 110:C:/GitHub/MobRob_Rover_NEW/Steering_Controller/MobRob_Steering_Controller/Libraries/XMCLib/inc\xmc_wdt.h ****                                                                    reset request after subsequent o
 111:C:/GitHub/MobRob_Rover_NEW/Steering_Controller/MobRob_Steering_Controller/Libraries/XMCLib/inc\xmc_wdt.h ****                                                                    serviced after first overflow. *
 112:C:/GitHub/MobRob_Rover_NEW/Steering_Controller/MobRob_Steering_Controller/Libraries/XMCLib/inc\xmc_wdt.h **** } XMC_WDT_MODE_t;
 113:C:/GitHub/MobRob_Rover_NEW/Steering_Controller/MobRob_Steering_Controller/Libraries/XMCLib/inc\xmc_wdt.h **** 
 114:C:/GitHub/MobRob_Rover_NEW/Steering_Controller/MobRob_Steering_Controller/Libraries/XMCLib/inc\xmc_wdt.h **** /**
 115:C:/GitHub/MobRob_Rover_NEW/Steering_Controller/MobRob_Steering_Controller/Libraries/XMCLib/inc\xmc_wdt.h ****  *  Defines debug behaviour of watchdog when the CPU enters HALT mode. Use type XMC_WDT_DEBUG_MODE_
 116:C:/GitHub/MobRob_Rover_NEW/Steering_Controller/MobRob_Steering_Controller/Libraries/XMCLib/inc\xmc_wdt.h ****  */
 117:C:/GitHub/MobRob_Rover_NEW/Steering_Controller/MobRob_Steering_Controller/Libraries/XMCLib/inc\xmc_wdt.h **** typedef enum XMC_WDT_DEBUG_MODE
 118:C:/GitHub/MobRob_Rover_NEW/Steering_Controller/MobRob_Steering_Controller/Libraries/XMCLib/inc\xmc_wdt.h **** {
 119:C:/GitHub/MobRob_Rover_NEW/Steering_Controller/MobRob_Steering_Controller/Libraries/XMCLib/inc\xmc_wdt.h ****   XMC_WDT_DEBUG_MODE_STOP = (uint32_t)0x0 << WDT_CTR_DSP_Pos, /**< Watchdog counter is paused durin
 120:C:/GitHub/MobRob_Rover_NEW/Steering_Controller/MobRob_Steering_Controller/Libraries/XMCLib/inc\xmc_wdt.h ****   XMC_WDT_DEBUG_MODE_RUN  = (uint32_t)0x1 << WDT_CTR_DSP_Pos  /**< Watchdog counter is not paused d
 121:C:/GitHub/MobRob_Rover_NEW/Steering_Controller/MobRob_Steering_Controller/Libraries/XMCLib/inc\xmc_wdt.h **** } XMC_WDT_DEBUG_MODE_t;
 122:C:/GitHub/MobRob_Rover_NEW/Steering_Controller/MobRob_Steering_Controller/Libraries/XMCLib/inc\xmc_wdt.h **** 
 123:C:/GitHub/MobRob_Rover_NEW/Steering_Controller/MobRob_Steering_Controller/Libraries/XMCLib/inc\xmc_wdt.h **** /**************************************************************************************************
 124:C:/GitHub/MobRob_Rover_NEW/Steering_Controller/MobRob_Steering_Controller/Libraries/XMCLib/inc\xmc_wdt.h ****  * DATA STRUCTURES
 125:C:/GitHub/MobRob_Rover_NEW/Steering_Controller/MobRob_Steering_Controller/Libraries/XMCLib/inc\xmc_wdt.h ****   *************************************************************************************************
 126:C:/GitHub/MobRob_Rover_NEW/Steering_Controller/MobRob_Steering_Controller/Libraries/XMCLib/inc\xmc_wdt.h **** /* Anonymous structure/union guard start */
 127:C:/GitHub/MobRob_Rover_NEW/Steering_Controller/MobRob_Steering_Controller/Libraries/XMCLib/inc\xmc_wdt.h **** #if defined(__CC_ARM)
 128:C:/GitHub/MobRob_Rover_NEW/Steering_Controller/MobRob_Steering_Controller/Libraries/XMCLib/inc\xmc_wdt.h **** #pragma push
 129:C:/GitHub/MobRob_Rover_NEW/Steering_Controller/MobRob_Steering_Controller/Libraries/XMCLib/inc\xmc_wdt.h **** #pragma anon_unions
 130:C:/GitHub/MobRob_Rover_NEW/Steering_Controller/MobRob_Steering_Controller/Libraries/XMCLib/inc\xmc_wdt.h **** #elif defined(__TASKING__)
 131:C:/GitHub/MobRob_Rover_NEW/Steering_Controller/MobRob_Steering_Controller/Libraries/XMCLib/inc\xmc_wdt.h **** #pragma warning 586
 132:C:/GitHub/MobRob_Rover_NEW/Steering_Controller/MobRob_Steering_Controller/Libraries/XMCLib/inc\xmc_wdt.h **** #endif
 133:C:/GitHub/MobRob_Rover_NEW/Steering_Controller/MobRob_Steering_Controller/Libraries/XMCLib/inc\xmc_wdt.h **** 
 134:C:/GitHub/MobRob_Rover_NEW/Steering_Controller/MobRob_Steering_Controller/Libraries/XMCLib/inc\xmc_wdt.h **** /**
 135:C:/GitHub/MobRob_Rover_NEW/Steering_Controller/MobRob_Steering_Controller/Libraries/XMCLib/inc\xmc_wdt.h ****  * Structure for initializing watchdog timer. Use type XMC_WDT_CONFIG_t for this structure.
 136:C:/GitHub/MobRob_Rover_NEW/Steering_Controller/MobRob_Steering_Controller/Libraries/XMCLib/inc\xmc_wdt.h ****  */
 137:C:/GitHub/MobRob_Rover_NEW/Steering_Controller/MobRob_Steering_Controller/Libraries/XMCLib/inc\xmc_wdt.h **** typedef struct XMC_WDT_CONFIG
 138:C:/GitHub/MobRob_Rover_NEW/Steering_Controller/MobRob_Steering_Controller/Libraries/XMCLib/inc\xmc_wdt.h **** {
 139:C:/GitHub/MobRob_Rover_NEW/Steering_Controller/MobRob_Steering_Controller/Libraries/XMCLib/inc\xmc_wdt.h ****   uint32_t window_upper_bound; /**< Upper bound for service window (WUB). Reset request is generate
 140:C:/GitHub/MobRob_Rover_NEW/Steering_Controller/MobRob_Steering_Controller/Libraries/XMCLib/inc\xmc_wdt.h ****                                     timer. ALways upper bound value has to be more than lower bound
 141:C:/GitHub/MobRob_Rover_NEW/Steering_Controller/MobRob_Steering_Controller/Libraries/XMCLib/inc\xmc_wdt.h ****                                     lower than WLB, triggers a system reset after timer crossed upp
 142:C:/GitHub/MobRob_Rover_NEW/Steering_Controller/MobRob_Steering_Controller/Libraries/XMCLib/inc\xmc_wdt.h ****                                     Range: [0H to FFFFFFFFH] */
 143:C:/GitHub/MobRob_Rover_NEW/Steering_Controller/MobRob_Steering_Controller/Libraries/XMCLib/inc\xmc_wdt.h ****   uint32_t window_lower_bound; /**< Lower bound for servicing window (WLB). Setting the lower bound
 144:C:/GitHub/MobRob_Rover_NEW/Steering_Controller/MobRob_Steering_Controller/Libraries/XMCLib/inc\xmc_wdt.h ****                                     window mechanism.\n
 145:C:/GitHub/MobRob_Rover_NEW/Steering_Controller/MobRob_Steering_Controller/Libraries/XMCLib/inc\xmc_wdt.h ****                                     Range: [0H to FFFFFFFFH] */
 146:C:/GitHub/MobRob_Rover_NEW/Steering_Controller/MobRob_Steering_Controller/Libraries/XMCLib/inc\xmc_wdt.h ****   union
 147:C:/GitHub/MobRob_Rover_NEW/Steering_Controller/MobRob_Steering_Controller/Libraries/XMCLib/inc\xmc_wdt.h ****   {
 148:C:/GitHub/MobRob_Rover_NEW/Steering_Controller/MobRob_Steering_Controller/Libraries/XMCLib/inc\xmc_wdt.h ****     struct
 149:C:/GitHub/MobRob_Rover_NEW/Steering_Controller/MobRob_Steering_Controller/Libraries/XMCLib/inc\xmc_wdt.h ****     {
 150:C:/GitHub/MobRob_Rover_NEW/Steering_Controller/MobRob_Steering_Controller/Libraries/XMCLib/inc\xmc_wdt.h ****       uint32_t : 1;
 151:C:/GitHub/MobRob_Rover_NEW/Steering_Controller/MobRob_Steering_Controller/Libraries/XMCLib/inc\xmc_wdt.h ****       uint32_t prewarn_mode : 1;        /**< Pre-warning mode (PRE). This accepts boolean values as
 152:C:/GitHub/MobRob_Rover_NEW/Steering_Controller/MobRob_Steering_Controller/Libraries/XMCLib/inc\xmc_wdt.h ****       uint32_t : 2;
 153:C:/GitHub/MobRob_Rover_NEW/Steering_Controller/MobRob_Steering_Controller/Libraries/XMCLib/inc\xmc_wdt.h ****       uint32_t run_in_debug_mode : 1;   /**< Watchdog timer behaviour during debug (DSP). This acce
 154:C:/GitHub/MobRob_Rover_NEW/Steering_Controller/MobRob_Steering_Controller/Libraries/XMCLib/inc\xmc_wdt.h ****       uint32_t : 3;
 155:C:/GitHub/MobRob_Rover_NEW/Steering_Controller/MobRob_Steering_Controller/Libraries/XMCLib/inc\xmc_wdt.h ****       uint32_t service_pulse_width : 8; /**< Service Indication Pulse Width (SPW). Generated Pulse 
 156:C:/GitHub/MobRob_Rover_NEW/Steering_Controller/MobRob_Steering_Controller/Libraries/XMCLib/inc\xmc_wdt.h ****                                              in fwdt cycles.\n
 157:C:/GitHub/MobRob_Rover_NEW/Steering_Controller/MobRob_Steering_Controller/Libraries/XMCLib/inc\xmc_wdt.h ****                                              Range: [0H to FFH] */
 158:C:/GitHub/MobRob_Rover_NEW/Steering_Controller/MobRob_Steering_Controller/Libraries/XMCLib/inc\xmc_wdt.h ****       uint32_t : 16;
 159:C:/GitHub/MobRob_Rover_NEW/Steering_Controller/MobRob_Steering_Controller/Libraries/XMCLib/inc\xmc_wdt.h ****     };
 160:C:/GitHub/MobRob_Rover_NEW/Steering_Controller/MobRob_Steering_Controller/Libraries/XMCLib/inc\xmc_wdt.h ****     uint32_t wdt_ctr; /* Value of operation mode control register (CTR). Its bit fields are repr
 161:C:/GitHub/MobRob_Rover_NEW/Steering_Controller/MobRob_Steering_Controller/Libraries/XMCLib/inc\xmc_wdt.h ****                            union members. */
 162:C:/GitHub/MobRob_Rover_NEW/Steering_Controller/MobRob_Steering_Controller/Libraries/XMCLib/inc\xmc_wdt.h ****   };
 163:C:/GitHub/MobRob_Rover_NEW/Steering_Controller/MobRob_Steering_Controller/Libraries/XMCLib/inc\xmc_wdt.h **** } XMC_WDT_CONFIG_t;
 164:C:/GitHub/MobRob_Rover_NEW/Steering_Controller/MobRob_Steering_Controller/Libraries/XMCLib/inc\xmc_wdt.h **** /* Anonymous structure/union guard end */
 165:C:/GitHub/MobRob_Rover_NEW/Steering_Controller/MobRob_Steering_Controller/Libraries/XMCLib/inc\xmc_wdt.h **** #if defined(__CC_ARM)
 166:C:/GitHub/MobRob_Rover_NEW/Steering_Controller/MobRob_Steering_Controller/Libraries/XMCLib/inc\xmc_wdt.h **** #pragma pop
 167:C:/GitHub/MobRob_Rover_NEW/Steering_Controller/MobRob_Steering_Controller/Libraries/XMCLib/inc\xmc_wdt.h **** #elif defined(__TASKING__)
 168:C:/GitHub/MobRob_Rover_NEW/Steering_Controller/MobRob_Steering_Controller/Libraries/XMCLib/inc\xmc_wdt.h **** #pragma warning restore
 169:C:/GitHub/MobRob_Rover_NEW/Steering_Controller/MobRob_Steering_Controller/Libraries/XMCLib/inc\xmc_wdt.h **** #endif
 170:C:/GitHub/MobRob_Rover_NEW/Steering_Controller/MobRob_Steering_Controller/Libraries/XMCLib/inc\xmc_wdt.h **** /**************************************************************************************************
 171:C:/GitHub/MobRob_Rover_NEW/Steering_Controller/MobRob_Steering_Controller/Libraries/XMCLib/inc\xmc_wdt.h ****  * API PROTOTYPES
 172:C:/GitHub/MobRob_Rover_NEW/Steering_Controller/MobRob_Steering_Controller/Libraries/XMCLib/inc\xmc_wdt.h ****   *************************************************************************************************
 173:C:/GitHub/MobRob_Rover_NEW/Steering_Controller/MobRob_Steering_Controller/Libraries/XMCLib/inc\xmc_wdt.h **** 
 174:C:/GitHub/MobRob_Rover_NEW/Steering_Controller/MobRob_Steering_Controller/Libraries/XMCLib/inc\xmc_wdt.h **** #ifdef __cplusplus
 175:C:/GitHub/MobRob_Rover_NEW/Steering_Controller/MobRob_Steering_Controller/Libraries/XMCLib/inc\xmc_wdt.h **** extern "C" {
 176:C:/GitHub/MobRob_Rover_NEW/Steering_Controller/MobRob_Steering_Controller/Libraries/XMCLib/inc\xmc_wdt.h **** #endif
 177:C:/GitHub/MobRob_Rover_NEW/Steering_Controller/MobRob_Steering_Controller/Libraries/XMCLib/inc\xmc_wdt.h **** 
 178:C:/GitHub/MobRob_Rover_NEW/Steering_Controller/MobRob_Steering_Controller/Libraries/XMCLib/inc\xmc_wdt.h **** /**
 179:C:/GitHub/MobRob_Rover_NEW/Steering_Controller/MobRob_Steering_Controller/Libraries/XMCLib/inc\xmc_wdt.h ****  * @param None
 180:C:/GitHub/MobRob_Rover_NEW/Steering_Controller/MobRob_Steering_Controller/Libraries/XMCLib/inc\xmc_wdt.h ****  *
 181:C:/GitHub/MobRob_Rover_NEW/Steering_Controller/MobRob_Steering_Controller/Libraries/XMCLib/inc\xmc_wdt.h ****  * @return None
 182:C:/GitHub/MobRob_Rover_NEW/Steering_Controller/MobRob_Steering_Controller/Libraries/XMCLib/inc\xmc_wdt.h ****  *
 183:C:/GitHub/MobRob_Rover_NEW/Steering_Controller/MobRob_Steering_Controller/Libraries/XMCLib/inc\xmc_wdt.h ****  * \par<b>Description:</b><br>
 184:C:/GitHub/MobRob_Rover_NEW/Steering_Controller/MobRob_Steering_Controller/Libraries/XMCLib/inc\xmc_wdt.h ****  * \if XMC4
 185:C:/GitHub/MobRob_Rover_NEW/Steering_Controller/MobRob_Steering_Controller/Libraries/XMCLib/inc\xmc_wdt.h ****  * Enables watchdog clock and releases watchdog reset.\n
 186:C:/GitHub/MobRob_Rover_NEW/Steering_Controller/MobRob_Steering_Controller/Libraries/XMCLib/inc\xmc_wdt.h ****  * \endif
 187:C:/GitHub/MobRob_Rover_NEW/Steering_Controller/MobRob_Steering_Controller/Libraries/XMCLib/inc\xmc_wdt.h ****  * \if XMC1
 188:C:/GitHub/MobRob_Rover_NEW/Steering_Controller/MobRob_Steering_Controller/Libraries/XMCLib/inc\xmc_wdt.h ****  * Enables watchdog clock.\n
 189:C:/GitHub/MobRob_Rover_NEW/Steering_Controller/MobRob_Steering_Controller/Libraries/XMCLib/inc\xmc_wdt.h ****  * \endif
 190:C:/GitHub/MobRob_Rover_NEW/Steering_Controller/MobRob_Steering_Controller/Libraries/XMCLib/inc\xmc_wdt.h ****  * \par
 191:C:/GitHub/MobRob_Rover_NEW/Steering_Controller/MobRob_Steering_Controller/Libraries/XMCLib/inc\xmc_wdt.h ****  * This API is invoked by XMC_WDT_Init() and therefore no need to call it explicitly during watchdo
 192:C:/GitHub/MobRob_Rover_NEW/Steering_Controller/MobRob_Steering_Controller/Libraries/XMCLib/inc\xmc_wdt.h ****  * sequence. Invoke this API to enable watchdog once again if the watchdog is disabled by invoking 
 193:C:/GitHub/MobRob_Rover_NEW/Steering_Controller/MobRob_Steering_Controller/Libraries/XMCLib/inc\xmc_wdt.h ****  *
 194:C:/GitHub/MobRob_Rover_NEW/Steering_Controller/MobRob_Steering_Controller/Libraries/XMCLib/inc\xmc_wdt.h ****  * \par<b>Note:</b><br>
 195:C:/GitHub/MobRob_Rover_NEW/Steering_Controller/MobRob_Steering_Controller/Libraries/XMCLib/inc\xmc_wdt.h ****  * \if XMC4
 196:C:/GitHub/MobRob_Rover_NEW/Steering_Controller/MobRob_Steering_Controller/Libraries/XMCLib/inc\xmc_wdt.h ****  * 1. It is required to configure the watchdog, again after invoking XMC_WDT_Disable(). Since all t
 197:C:/GitHub/MobRob_Rover_NEW/Steering_Controller/MobRob_Steering_Controller/Libraries/XMCLib/inc\xmc_wdt.h ****  *    reset with default values.
 198:C:/GitHub/MobRob_Rover_NEW/Steering_Controller/MobRob_Steering_Controller/Libraries/XMCLib/inc\xmc_wdt.h ****  * \endif
 199:C:/GitHub/MobRob_Rover_NEW/Steering_Controller/MobRob_Steering_Controller/Libraries/XMCLib/inc\xmc_wdt.h ****  * \if XMC1
 200:C:/GitHub/MobRob_Rover_NEW/Steering_Controller/MobRob_Steering_Controller/Libraries/XMCLib/inc\xmc_wdt.h ****  * 1. Not required to configure the watchdog again after invoking XMC_WDT_Disable(). Since the regi
 201:C:/GitHub/MobRob_Rover_NEW/Steering_Controller/MobRob_Steering_Controller/Libraries/XMCLib/inc\xmc_wdt.h ****  *    the configured values.
 202:C:/GitHub/MobRob_Rover_NEW/Steering_Controller/MobRob_Steering_Controller/Libraries/XMCLib/inc\xmc_wdt.h ****  * \endif
 203:C:/GitHub/MobRob_Rover_NEW/Steering_Controller/MobRob_Steering_Controller/Libraries/XMCLib/inc\xmc_wdt.h ****  * \par<b>Related APIs:</b><BR>
 204:C:/GitHub/MobRob_Rover_NEW/Steering_Controller/MobRob_Steering_Controller/Libraries/XMCLib/inc\xmc_wdt.h ****  * XMC_WDT_Init(), XMC_WDT_Disable()
 205:C:/GitHub/MobRob_Rover_NEW/Steering_Controller/MobRob_Steering_Controller/Libraries/XMCLib/inc\xmc_wdt.h ****  */
 206:C:/GitHub/MobRob_Rover_NEW/Steering_Controller/MobRob_Steering_Controller/Libraries/XMCLib/inc\xmc_wdt.h **** void XMC_WDT_Enable(void);
 207:C:/GitHub/MobRob_Rover_NEW/Steering_Controller/MobRob_Steering_Controller/Libraries/XMCLib/inc\xmc_wdt.h **** 
 208:C:/GitHub/MobRob_Rover_NEW/Steering_Controller/MobRob_Steering_Controller/Libraries/XMCLib/inc\xmc_wdt.h **** /**
 209:C:/GitHub/MobRob_Rover_NEW/Steering_Controller/MobRob_Steering_Controller/Libraries/XMCLib/inc\xmc_wdt.h ****  * @param None
 210:C:/GitHub/MobRob_Rover_NEW/Steering_Controller/MobRob_Steering_Controller/Libraries/XMCLib/inc\xmc_wdt.h ****  *
 211:C:/GitHub/MobRob_Rover_NEW/Steering_Controller/MobRob_Steering_Controller/Libraries/XMCLib/inc\xmc_wdt.h ****  * @return None
 212:C:/GitHub/MobRob_Rover_NEW/Steering_Controller/MobRob_Steering_Controller/Libraries/XMCLib/inc\xmc_wdt.h ****  *
 213:C:/GitHub/MobRob_Rover_NEW/Steering_Controller/MobRob_Steering_Controller/Libraries/XMCLib/inc\xmc_wdt.h ****  * \par<b>Description:</b><br>
 214:C:/GitHub/MobRob_Rover_NEW/Steering_Controller/MobRob_Steering_Controller/Libraries/XMCLib/inc\xmc_wdt.h ****  * \if XMC4
 215:C:/GitHub/MobRob_Rover_NEW/Steering_Controller/MobRob_Steering_Controller/Libraries/XMCLib/inc\xmc_wdt.h ****  * Disables the clock and resets watchdog timer.\n
 216:C:/GitHub/MobRob_Rover_NEW/Steering_Controller/MobRob_Steering_Controller/Libraries/XMCLib/inc\xmc_wdt.h ****  * \endif
 217:C:/GitHub/MobRob_Rover_NEW/Steering_Controller/MobRob_Steering_Controller/Libraries/XMCLib/inc\xmc_wdt.h ****  * \if XMC1
 218:C:/GitHub/MobRob_Rover_NEW/Steering_Controller/MobRob_Steering_Controller/Libraries/XMCLib/inc\xmc_wdt.h ****  * Disables the clock to the watchdog timer.\n
 219:C:/GitHub/MobRob_Rover_NEW/Steering_Controller/MobRob_Steering_Controller/Libraries/XMCLib/inc\xmc_wdt.h ****  * \endif
 220:C:/GitHub/MobRob_Rover_NEW/Steering_Controller/MobRob_Steering_Controller/Libraries/XMCLib/inc\xmc_wdt.h ****  *
 221:C:/GitHub/MobRob_Rover_NEW/Steering_Controller/MobRob_Steering_Controller/Libraries/XMCLib/inc\xmc_wdt.h ****  * \par<b>Note:</b><br>
 222:C:/GitHub/MobRob_Rover_NEW/Steering_Controller/MobRob_Steering_Controller/Libraries/XMCLib/inc\xmc_wdt.h ****  * \if XMC4
 223:C:/GitHub/MobRob_Rover_NEW/Steering_Controller/MobRob_Steering_Controller/Libraries/XMCLib/inc\xmc_wdt.h ****  * 1. Resets the registers with default values. So XMC_WDT_Init() has to be invoked again to config
 224:C:/GitHub/MobRob_Rover_NEW/Steering_Controller/MobRob_Steering_Controller/Libraries/XMCLib/inc\xmc_wdt.h ****  * \endif
 225:C:/GitHub/MobRob_Rover_NEW/Steering_Controller/MobRob_Steering_Controller/Libraries/XMCLib/inc\xmc_wdt.h ****  * \if XMC1
 226:C:/GitHub/MobRob_Rover_NEW/Steering_Controller/MobRob_Steering_Controller/Libraries/XMCLib/inc\xmc_wdt.h ****  * 1. After invoking XMC_WDT_Disable(), all register values are displayed with 0F in debugger. Once
 227:C:/GitHub/MobRob_Rover_NEW/Steering_Controller/MobRob_Steering_Controller/Libraries/XMCLib/inc\xmc_wdt.h ****       calling XMC_WDT_Enable(), previous configured register values are displayed. No need to invok
 228:C:/GitHub/MobRob_Rover_NEW/Steering_Controller/MobRob_Steering_Controller/Libraries/XMCLib/inc\xmc_wdt.h ****       again.
 229:C:/GitHub/MobRob_Rover_NEW/Steering_Controller/MobRob_Steering_Controller/Libraries/XMCLib/inc\xmc_wdt.h ****  * \endif
 230:C:/GitHub/MobRob_Rover_NEW/Steering_Controller/MobRob_Steering_Controller/Libraries/XMCLib/inc\xmc_wdt.h ****  * \par<b>Related APIs:</b><BR>
 231:C:/GitHub/MobRob_Rover_NEW/Steering_Controller/MobRob_Steering_Controller/Libraries/XMCLib/inc\xmc_wdt.h ****  * XMC_WDT_Enable()
 232:C:/GitHub/MobRob_Rover_NEW/Steering_Controller/MobRob_Steering_Controller/Libraries/XMCLib/inc\xmc_wdt.h ****  */
 233:C:/GitHub/MobRob_Rover_NEW/Steering_Controller/MobRob_Steering_Controller/Libraries/XMCLib/inc\xmc_wdt.h **** void XMC_WDT_Disable(void);
 234:C:/GitHub/MobRob_Rover_NEW/Steering_Controller/MobRob_Steering_Controller/Libraries/XMCLib/inc\xmc_wdt.h **** 
 235:C:/GitHub/MobRob_Rover_NEW/Steering_Controller/MobRob_Steering_Controller/Libraries/XMCLib/inc\xmc_wdt.h **** /**
 236:C:/GitHub/MobRob_Rover_NEW/Steering_Controller/MobRob_Steering_Controller/Libraries/XMCLib/inc\xmc_wdt.h ****  * @param config pointer to a constant watchdog configuration data structure. Refer data structure 
 237:C:/GitHub/MobRob_Rover_NEW/Steering_Controller/MobRob_Steering_Controller/Libraries/XMCLib/inc\xmc_wdt.h ****  *               for detail.
 238:C:/GitHub/MobRob_Rover_NEW/Steering_Controller/MobRob_Steering_Controller/Libraries/XMCLib/inc\xmc_wdt.h ****  *
 239:C:/GitHub/MobRob_Rover_NEW/Steering_Controller/MobRob_Steering_Controller/Libraries/XMCLib/inc\xmc_wdt.h ****  * @return None
 240:C:/GitHub/MobRob_Rover_NEW/Steering_Controller/MobRob_Steering_Controller/Libraries/XMCLib/inc\xmc_wdt.h ****  *
 241:C:/GitHub/MobRob_Rover_NEW/Steering_Controller/MobRob_Steering_Controller/Libraries/XMCLib/inc\xmc_wdt.h ****  * \par<b>Description:</b><br>
 242:C:/GitHub/MobRob_Rover_NEW/Steering_Controller/MobRob_Steering_Controller/Libraries/XMCLib/inc\xmc_wdt.h ****  * Initializes and configures watchdog with configuration data pointed by \a config.\n
 243:C:/GitHub/MobRob_Rover_NEW/Steering_Controller/MobRob_Steering_Controller/Libraries/XMCLib/inc\xmc_wdt.h ****  * \par
 244:C:/GitHub/MobRob_Rover_NEW/Steering_Controller/MobRob_Steering_Controller/Libraries/XMCLib/inc\xmc_wdt.h ****  * It invokes XMC_WDT_Enable() to enable clock and release reset. Then configures the lower and upp
 245:C:/GitHub/MobRob_Rover_NEW/Steering_Controller/MobRob_Steering_Controller/Libraries/XMCLib/inc\xmc_wdt.h ****  * working mode (timeout/pre-warning), debug behaviour and service request indication pulse width.
 246:C:/GitHub/MobRob_Rover_NEW/Steering_Controller/MobRob_Steering_Controller/Libraries/XMCLib/inc\xmc_wdt.h ****  *
 247:C:/GitHub/MobRob_Rover_NEW/Steering_Controller/MobRob_Steering_Controller/Libraries/XMCLib/inc\xmc_wdt.h ****  * \par<b>Note:</b><br>
 248:C:/GitHub/MobRob_Rover_NEW/Steering_Controller/MobRob_Steering_Controller/Libraries/XMCLib/inc\xmc_wdt.h ****  * 1. With out invoking this XMC_WDT_Init() or XMC_WDT_Enable(), invocation of other APIs like XMC_
 249:C:/GitHub/MobRob_Rover_NEW/Steering_Controller/MobRob_Steering_Controller/Libraries/XMCLib/inc\xmc_wdt.h ****  *    XMC_WDT_SetMode(), XMC_WDT_SetServicePulseWidth(), XMC_WDT_SetDebugMode(), XMC_WDT_Start(), X
 250:C:/GitHub/MobRob_Rover_NEW/Steering_Controller/MobRob_Steering_Controller/Libraries/XMCLib/inc\xmc_wdt.h ****  *    XMC_WDT_Service(), XMC_WDT_ClearAlarm() has no affect.
 251:C:/GitHub/MobRob_Rover_NEW/Steering_Controller/MobRob_Steering_Controller/Libraries/XMCLib/inc\xmc_wdt.h ****  */
 252:C:/GitHub/MobRob_Rover_NEW/Steering_Controller/MobRob_Steering_Controller/Libraries/XMCLib/inc\xmc_wdt.h **** void XMC_WDT_Init(const XMC_WDT_CONFIG_t *const config);
 253:C:/GitHub/MobRob_Rover_NEW/Steering_Controller/MobRob_Steering_Controller/Libraries/XMCLib/inc\xmc_wdt.h **** 
 254:C:/GitHub/MobRob_Rover_NEW/Steering_Controller/MobRob_Steering_Controller/Libraries/XMCLib/inc\xmc_wdt.h **** /**
 255:C:/GitHub/MobRob_Rover_NEW/Steering_Controller/MobRob_Steering_Controller/Libraries/XMCLib/inc\xmc_wdt.h ****  * @param lower_bound specifies watchdog window lower bound in terms of watchdog clock (fWDT) cycle
 256:C:/GitHub/MobRob_Rover_NEW/Steering_Controller/MobRob_Steering_Controller/Libraries/XMCLib/inc\xmc_wdt.h ****  *                    Range: [0H to FFFFFFFFH].
 257:C:/GitHub/MobRob_Rover_NEW/Steering_Controller/MobRob_Steering_Controller/Libraries/XMCLib/inc\xmc_wdt.h ****  * @param upper_bound specifies watchdog window upper bound in terms of watchdog clock (fWDT) cycle
 258:C:/GitHub/MobRob_Rover_NEW/Steering_Controller/MobRob_Steering_Controller/Libraries/XMCLib/inc\xmc_wdt.h ****  *                    Range: [0H to FFFFFFFFH].
 259:C:/GitHub/MobRob_Rover_NEW/Steering_Controller/MobRob_Steering_Controller/Libraries/XMCLib/inc\xmc_wdt.h ****  *
 260:C:/GitHub/MobRob_Rover_NEW/Steering_Controller/MobRob_Steering_Controller/Libraries/XMCLib/inc\xmc_wdt.h ****  * @return None
 261:C:/GitHub/MobRob_Rover_NEW/Steering_Controller/MobRob_Steering_Controller/Libraries/XMCLib/inc\xmc_wdt.h ****  *
 262:C:/GitHub/MobRob_Rover_NEW/Steering_Controller/MobRob_Steering_Controller/Libraries/XMCLib/inc\xmc_wdt.h ****  * \par<b>Description:</b><br>
 263:C:/GitHub/MobRob_Rover_NEW/Steering_Controller/MobRob_Steering_Controller/Libraries/XMCLib/inc\xmc_wdt.h ****  * Sets watchdog window lower and upper bounds by updating WLB and WUB registers.\n
 264:C:/GitHub/MobRob_Rover_NEW/Steering_Controller/MobRob_Steering_Controller/Libraries/XMCLib/inc\xmc_wdt.h ****  * \par
 265:C:/GitHub/MobRob_Rover_NEW/Steering_Controller/MobRob_Steering_Controller/Libraries/XMCLib/inc\xmc_wdt.h ****  * Window lower and upper bounds are set during initialization in XMC_WDT_Init(). Invoke this API t
 266:C:/GitHub/MobRob_Rover_NEW/Steering_Controller/MobRob_Steering_Controller/Libraries/XMCLib/inc\xmc_wdt.h ****  * needed later in the program. This upper bound and lower bound can be calculated by using the bel
 267:C:/GitHub/MobRob_Rover_NEW/Steering_Controller/MobRob_Steering_Controller/Libraries/XMCLib/inc\xmc_wdt.h ****  *       upper_bound or lower_bound = desired_boundary_time(sec) * fwdt(hz)
 268:C:/GitHub/MobRob_Rover_NEW/Steering_Controller/MobRob_Steering_Controller/Libraries/XMCLib/inc\xmc_wdt.h ****  *
 269:C:/GitHub/MobRob_Rover_NEW/Steering_Controller/MobRob_Steering_Controller/Libraries/XMCLib/inc\xmc_wdt.h ****  * \par<b>Note:</b>
 270:C:/GitHub/MobRob_Rover_NEW/Steering_Controller/MobRob_Steering_Controller/Libraries/XMCLib/inc\xmc_wdt.h ****  * 1. Always ensure that upper_bound is greater than the lower_bound value. If not, whenever timer 
 271:C:/GitHub/MobRob_Rover_NEW/Steering_Controller/MobRob_Steering_Controller/Libraries/XMCLib/inc\xmc_wdt.h ****  *    upper_bound value it triggers the reset(wdt_rst_req) of the controller.
 272:C:/GitHub/MobRob_Rover_NEW/Steering_Controller/MobRob_Steering_Controller/Libraries/XMCLib/inc\xmc_wdt.h ****  */
 273:C:/GitHub/MobRob_Rover_NEW/Steering_Controller/MobRob_Steering_Controller/Libraries/XMCLib/inc\xmc_wdt.h **** __STATIC_INLINE void XMC_WDT_SetWindowBounds(uint32_t lower_bound, uint32_t upper_bound)
 274:C:/GitHub/MobRob_Rover_NEW/Steering_Controller/MobRob_Steering_Controller/Libraries/XMCLib/inc\xmc_wdt.h **** {
 275:C:/GitHub/MobRob_Rover_NEW/Steering_Controller/MobRob_Steering_Controller/Libraries/XMCLib/inc\xmc_wdt.h ****   WDT->WLB = lower_bound;
 276:C:/GitHub/MobRob_Rover_NEW/Steering_Controller/MobRob_Steering_Controller/Libraries/XMCLib/inc\xmc_wdt.h ****   WDT->WUB = upper_bound;
 277:C:/GitHub/MobRob_Rover_NEW/Steering_Controller/MobRob_Steering_Controller/Libraries/XMCLib/inc\xmc_wdt.h **** }
 278:C:/GitHub/MobRob_Rover_NEW/Steering_Controller/MobRob_Steering_Controller/Libraries/XMCLib/inc\xmc_wdt.h **** 
 279:C:/GitHub/MobRob_Rover_NEW/Steering_Controller/MobRob_Steering_Controller/Libraries/XMCLib/inc\xmc_wdt.h **** /**
 280:C:/GitHub/MobRob_Rover_NEW/Steering_Controller/MobRob_Steering_Controller/Libraries/XMCLib/inc\xmc_wdt.h ****  * @param mode is one of the working modes of the watchdog timer, i.e timeout or pre-warning. Refer
 281:C:/GitHub/MobRob_Rover_NEW/Steering_Controller/MobRob_Steering_Controller/Libraries/XMCLib/inc\xmc_wdt.h ****  *             for valid values.
 282:C:/GitHub/MobRob_Rover_NEW/Steering_Controller/MobRob_Steering_Controller/Libraries/XMCLib/inc\xmc_wdt.h ****  *
 283:C:/GitHub/MobRob_Rover_NEW/Steering_Controller/MobRob_Steering_Controller/Libraries/XMCLib/inc\xmc_wdt.h ****  * @return None
 284:C:/GitHub/MobRob_Rover_NEW/Steering_Controller/MobRob_Steering_Controller/Libraries/XMCLib/inc\xmc_wdt.h ****  *
 285:C:/GitHub/MobRob_Rover_NEW/Steering_Controller/MobRob_Steering_Controller/Libraries/XMCLib/inc\xmc_wdt.h ****  * \par<b>Description:</b><br>
 286:C:/GitHub/MobRob_Rover_NEW/Steering_Controller/MobRob_Steering_Controller/Libraries/XMCLib/inc\xmc_wdt.h ****  * Sets watchdog working mode (timeout or pre-warning) by updating PRE bit of CTR register.\n
 287:C:/GitHub/MobRob_Rover_NEW/Steering_Controller/MobRob_Steering_Controller/Libraries/XMCLib/inc\xmc_wdt.h ****  * \par
 288:C:/GitHub/MobRob_Rover_NEW/Steering_Controller/MobRob_Steering_Controller/Libraries/XMCLib/inc\xmc_wdt.h ****  * The working mode is set during initialization in XMC_WDT_Init(). Invoke this API to alter the mo
 289:C:/GitHub/MobRob_Rover_NEW/Steering_Controller/MobRob_Steering_Controller/Libraries/XMCLib/inc\xmc_wdt.h ****  * the program.
 290:C:/GitHub/MobRob_Rover_NEW/Steering_Controller/MobRob_Steering_Controller/Libraries/XMCLib/inc\xmc_wdt.h ****  */
 291:C:/GitHub/MobRob_Rover_NEW/Steering_Controller/MobRob_Steering_Controller/Libraries/XMCLib/inc\xmc_wdt.h **** __STATIC_INLINE void XMC_WDT_SetMode(XMC_WDT_MODE_t mode)
 292:C:/GitHub/MobRob_Rover_NEW/Steering_Controller/MobRob_Steering_Controller/Libraries/XMCLib/inc\xmc_wdt.h **** {
 293:C:/GitHub/MobRob_Rover_NEW/Steering_Controller/MobRob_Steering_Controller/Libraries/XMCLib/inc\xmc_wdt.h ****   WDT->CTR = (WDT->CTR & (uint32_t)~WDT_CTR_PRE_Msk) | (uint32_t)mode;
 294:C:/GitHub/MobRob_Rover_NEW/Steering_Controller/MobRob_Steering_Controller/Libraries/XMCLib/inc\xmc_wdt.h **** }
 295:C:/GitHub/MobRob_Rover_NEW/Steering_Controller/MobRob_Steering_Controller/Libraries/XMCLib/inc\xmc_wdt.h **** 
 296:C:/GitHub/MobRob_Rover_NEW/Steering_Controller/MobRob_Steering_Controller/Libraries/XMCLib/inc\xmc_wdt.h **** /**
 297:C:/GitHub/MobRob_Rover_NEW/Steering_Controller/MobRob_Steering_Controller/Libraries/XMCLib/inc\xmc_wdt.h ****  * @param service_pulse_width specifies Service indication pulse width in terms of fwdt.
 298:C:/GitHub/MobRob_Rover_NEW/Steering_Controller/MobRob_Steering_Controller/Libraries/XMCLib/inc\xmc_wdt.h ****  *                            Range: [0H  FFH].
 299:C:/GitHub/MobRob_Rover_NEW/Steering_Controller/MobRob_Steering_Controller/Libraries/XMCLib/inc\xmc_wdt.h ****  * @return None
 300:C:/GitHub/MobRob_Rover_NEW/Steering_Controller/MobRob_Steering_Controller/Libraries/XMCLib/inc\xmc_wdt.h ****  *
 301:C:/GitHub/MobRob_Rover_NEW/Steering_Controller/MobRob_Steering_Controller/Libraries/XMCLib/inc\xmc_wdt.h ****  * \par<b>Description:</b><br>
 302:C:/GitHub/MobRob_Rover_NEW/Steering_Controller/MobRob_Steering_Controller/Libraries/XMCLib/inc\xmc_wdt.h ****  * Sets service indication pulse width by updating SPW bit field of CTR register.\n
 303:C:/GitHub/MobRob_Rover_NEW/Steering_Controller/MobRob_Steering_Controller/Libraries/XMCLib/inc\xmc_wdt.h ****  * \par
 304:C:/GitHub/MobRob_Rover_NEW/Steering_Controller/MobRob_Steering_Controller/Libraries/XMCLib/inc\xmc_wdt.h ****  * The service indication pulse (with width service_pulse_width + 1 in fwdt cycles) is generated on
 305:C:/GitHub/MobRob_Rover_NEW/Steering_Controller/MobRob_Steering_Controller/Libraries/XMCLib/inc\xmc_wdt.h ****  * or feeding of watchdog. The pulse width is initially set during initialization in XMC_WDT_Init()
 306:C:/GitHub/MobRob_Rover_NEW/Steering_Controller/MobRob_Steering_Controller/Libraries/XMCLib/inc\xmc_wdt.h ****  * alter the width as needed later in the program.
 307:C:/GitHub/MobRob_Rover_NEW/Steering_Controller/MobRob_Steering_Controller/Libraries/XMCLib/inc\xmc_wdt.h ****  */
 308:C:/GitHub/MobRob_Rover_NEW/Steering_Controller/MobRob_Steering_Controller/Libraries/XMCLib/inc\xmc_wdt.h **** __STATIC_INLINE void XMC_WDT_SetServicePulseWidth(uint8_t service_pulse_width)
 309:C:/GitHub/MobRob_Rover_NEW/Steering_Controller/MobRob_Steering_Controller/Libraries/XMCLib/inc\xmc_wdt.h **** {
 310:C:/GitHub/MobRob_Rover_NEW/Steering_Controller/MobRob_Steering_Controller/Libraries/XMCLib/inc\xmc_wdt.h ****   WDT->CTR = (WDT->CTR & (uint32_t)~WDT_CTR_SPW_Msk) | ((uint32_t)service_pulse_width << WDT_CTR_SP
 311:C:/GitHub/MobRob_Rover_NEW/Steering_Controller/MobRob_Steering_Controller/Libraries/XMCLib/inc\xmc_wdt.h **** }
 312:C:/GitHub/MobRob_Rover_NEW/Steering_Controller/MobRob_Steering_Controller/Libraries/XMCLib/inc\xmc_wdt.h **** 
 313:C:/GitHub/MobRob_Rover_NEW/Steering_Controller/MobRob_Steering_Controller/Libraries/XMCLib/inc\xmc_wdt.h **** /**
 314:C:/GitHub/MobRob_Rover_NEW/Steering_Controller/MobRob_Steering_Controller/Libraries/XMCLib/inc\xmc_wdt.h ****  * @param debug_mode running state of watchdog during debug halt mode. Refer @ref XMC_WDT_DEBUG_MOD
 315:C:/GitHub/MobRob_Rover_NEW/Steering_Controller/MobRob_Steering_Controller/Libraries/XMCLib/inc\xmc_wdt.h ****  *                   valid values.
 316:C:/GitHub/MobRob_Rover_NEW/Steering_Controller/MobRob_Steering_Controller/Libraries/XMCLib/inc\xmc_wdt.h ****  *
 317:C:/GitHub/MobRob_Rover_NEW/Steering_Controller/MobRob_Steering_Controller/Libraries/XMCLib/inc\xmc_wdt.h ****  * @return None
 318:C:/GitHub/MobRob_Rover_NEW/Steering_Controller/MobRob_Steering_Controller/Libraries/XMCLib/inc\xmc_wdt.h ****  *
 319:C:/GitHub/MobRob_Rover_NEW/Steering_Controller/MobRob_Steering_Controller/Libraries/XMCLib/inc\xmc_wdt.h ****  * \par<b>Description:</b><br>
 320:C:/GitHub/MobRob_Rover_NEW/Steering_Controller/MobRob_Steering_Controller/Libraries/XMCLib/inc\xmc_wdt.h ****  * Sets debug behaviour of watchdog by modifying DSP bit of CTR register.\n
 321:C:/GitHub/MobRob_Rover_NEW/Steering_Controller/MobRob_Steering_Controller/Libraries/XMCLib/inc\xmc_wdt.h ****  * \par
 322:C:/GitHub/MobRob_Rover_NEW/Steering_Controller/MobRob_Steering_Controller/Libraries/XMCLib/inc\xmc_wdt.h ****  * Depending upon DSP bit, the watchdog timer stops when CPU is in HALT mode. The debug behaviour i
 323:C:/GitHub/MobRob_Rover_NEW/Steering_Controller/MobRob_Steering_Controller/Libraries/XMCLib/inc\xmc_wdt.h ****  * XMC_WDT_DEBUG_MODE_STOP during initialization in XMC_WDT_Init(). Invoke this API to change the d
 324:C:/GitHub/MobRob_Rover_NEW/Steering_Controller/MobRob_Steering_Controller/Libraries/XMCLib/inc\xmc_wdt.h ****  * needed later in the program.
 325:C:/GitHub/MobRob_Rover_NEW/Steering_Controller/MobRob_Steering_Controller/Libraries/XMCLib/inc\xmc_wdt.h ****  */
 326:C:/GitHub/MobRob_Rover_NEW/Steering_Controller/MobRob_Steering_Controller/Libraries/XMCLib/inc\xmc_wdt.h **** __STATIC_INLINE void XMC_WDT_SetDebugMode(const XMC_WDT_DEBUG_MODE_t debug_mode)
 327:C:/GitHub/MobRob_Rover_NEW/Steering_Controller/MobRob_Steering_Controller/Libraries/XMCLib/inc\xmc_wdt.h **** {
 328:C:/GitHub/MobRob_Rover_NEW/Steering_Controller/MobRob_Steering_Controller/Libraries/XMCLib/inc\xmc_wdt.h ****   WDT->CTR = (WDT->CTR & (uint32_t)~WDT_CTR_DSP_Msk) | (uint32_t)debug_mode;
 329:C:/GitHub/MobRob_Rover_NEW/Steering_Controller/MobRob_Steering_Controller/Libraries/XMCLib/inc\xmc_wdt.h **** }
 330:C:/GitHub/MobRob_Rover_NEW/Steering_Controller/MobRob_Steering_Controller/Libraries/XMCLib/inc\xmc_wdt.h **** 
 331:C:/GitHub/MobRob_Rover_NEW/Steering_Controller/MobRob_Steering_Controller/Libraries/XMCLib/inc\xmc_wdt.h **** /**
 332:C:/GitHub/MobRob_Rover_NEW/Steering_Controller/MobRob_Steering_Controller/Libraries/XMCLib/inc\xmc_wdt.h ****  * @param None
 333:C:/GitHub/MobRob_Rover_NEW/Steering_Controller/MobRob_Steering_Controller/Libraries/XMCLib/inc\xmc_wdt.h ****  *
 334:C:/GitHub/MobRob_Rover_NEW/Steering_Controller/MobRob_Steering_Controller/Libraries/XMCLib/inc\xmc_wdt.h ****  * @return None
 335:C:/GitHub/MobRob_Rover_NEW/Steering_Controller/MobRob_Steering_Controller/Libraries/XMCLib/inc\xmc_wdt.h ****  *
 336:C:/GitHub/MobRob_Rover_NEW/Steering_Controller/MobRob_Steering_Controller/Libraries/XMCLib/inc\xmc_wdt.h ****  * \par<b>Description:</b><br>
 337:C:/GitHub/MobRob_Rover_NEW/Steering_Controller/MobRob_Steering_Controller/Libraries/XMCLib/inc\xmc_wdt.h ****  * Start the watchdog timer by setting ENB bit of CTR register.\n
 338:C:/GitHub/MobRob_Rover_NEW/Steering_Controller/MobRob_Steering_Controller/Libraries/XMCLib/inc\xmc_wdt.h ****  * \par
 339:C:/GitHub/MobRob_Rover_NEW/Steering_Controller/MobRob_Steering_Controller/Libraries/XMCLib/inc\xmc_wdt.h ****  * Invoke this API to start the watchdog after initialization, or to resume the watchdog when
 340:C:/GitHub/MobRob_Rover_NEW/Steering_Controller/MobRob_Steering_Controller/Libraries/XMCLib/inc\xmc_wdt.h ****  * paused by invoking XMC_WDT_Stop().
 341:C:/GitHub/MobRob_Rover_NEW/Steering_Controller/MobRob_Steering_Controller/Libraries/XMCLib/inc\xmc_wdt.h ****  *
 342:C:/GitHub/MobRob_Rover_NEW/Steering_Controller/MobRob_Steering_Controller/Libraries/XMCLib/inc\xmc_wdt.h ****  * \par<b>Related APIs:</b><BR>
 343:C:/GitHub/MobRob_Rover_NEW/Steering_Controller/MobRob_Steering_Controller/Libraries/XMCLib/inc\xmc_wdt.h ****  * XMC_WDT_Init(), XMC_WDT_Stop()
 344:C:/GitHub/MobRob_Rover_NEW/Steering_Controller/MobRob_Steering_Controller/Libraries/XMCLib/inc\xmc_wdt.h ****  */
 345:C:/GitHub/MobRob_Rover_NEW/Steering_Controller/MobRob_Steering_Controller/Libraries/XMCLib/inc\xmc_wdt.h **** __STATIC_INLINE void XMC_WDT_Start(void)
 346:C:/GitHub/MobRob_Rover_NEW/Steering_Controller/MobRob_Steering_Controller/Libraries/XMCLib/inc\xmc_wdt.h **** {
 347:C:/GitHub/MobRob_Rover_NEW/Steering_Controller/MobRob_Steering_Controller/Libraries/XMCLib/inc\xmc_wdt.h ****   WDT->CTR |= (uint32_t)WDT_CTR_ENB_Msk;
 348:C:/GitHub/MobRob_Rover_NEW/Steering_Controller/MobRob_Steering_Controller/Libraries/XMCLib/inc\xmc_wdt.h **** }
 349:C:/GitHub/MobRob_Rover_NEW/Steering_Controller/MobRob_Steering_Controller/Libraries/XMCLib/inc\xmc_wdt.h **** 
 350:C:/GitHub/MobRob_Rover_NEW/Steering_Controller/MobRob_Steering_Controller/Libraries/XMCLib/inc\xmc_wdt.h **** /**
 351:C:/GitHub/MobRob_Rover_NEW/Steering_Controller/MobRob_Steering_Controller/Libraries/XMCLib/inc\xmc_wdt.h ****  * @param None
 352:C:/GitHub/MobRob_Rover_NEW/Steering_Controller/MobRob_Steering_Controller/Libraries/XMCLib/inc\xmc_wdt.h ****  *
 353:C:/GitHub/MobRob_Rover_NEW/Steering_Controller/MobRob_Steering_Controller/Libraries/XMCLib/inc\xmc_wdt.h ****  * @return None
 354:C:/GitHub/MobRob_Rover_NEW/Steering_Controller/MobRob_Steering_Controller/Libraries/XMCLib/inc\xmc_wdt.h ****  *
 355:C:/GitHub/MobRob_Rover_NEW/Steering_Controller/MobRob_Steering_Controller/Libraries/XMCLib/inc\xmc_wdt.h ****  * \par<b>Description:</b><br>
 356:C:/GitHub/MobRob_Rover_NEW/Steering_Controller/MobRob_Steering_Controller/Libraries/XMCLib/inc\xmc_wdt.h ****  * Pauses watchdog timer by resetting ENB bit of CTR register.\n
 357:C:/GitHub/MobRob_Rover_NEW/Steering_Controller/MobRob_Steering_Controller/Libraries/XMCLib/inc\xmc_wdt.h ****  * \par
 358:C:/GitHub/MobRob_Rover_NEW/Steering_Controller/MobRob_Steering_Controller/Libraries/XMCLib/inc\xmc_wdt.h ****  * Invoke this API to pause the watchdog as needed in the program e.g. debugging through software c
 359:C:/GitHub/MobRob_Rover_NEW/Steering_Controller/MobRob_Steering_Controller/Libraries/XMCLib/inc\xmc_wdt.h ****  *
 360:C:/GitHub/MobRob_Rover_NEW/Steering_Controller/MobRob_Steering_Controller/Libraries/XMCLib/inc\xmc_wdt.h ****  * \par<b>Related APIs:</b><BR>
 361:C:/GitHub/MobRob_Rover_NEW/Steering_Controller/MobRob_Steering_Controller/Libraries/XMCLib/inc\xmc_wdt.h ****  * XMC_WDT_Init(), XMC_WDT_Stop()
 362:C:/GitHub/MobRob_Rover_NEW/Steering_Controller/MobRob_Steering_Controller/Libraries/XMCLib/inc\xmc_wdt.h ****  */
 363:C:/GitHub/MobRob_Rover_NEW/Steering_Controller/MobRob_Steering_Controller/Libraries/XMCLib/inc\xmc_wdt.h **** __STATIC_INLINE void XMC_WDT_Stop(void)
 364:C:/GitHub/MobRob_Rover_NEW/Steering_Controller/MobRob_Steering_Controller/Libraries/XMCLib/inc\xmc_wdt.h **** {
 365:C:/GitHub/MobRob_Rover_NEW/Steering_Controller/MobRob_Steering_Controller/Libraries/XMCLib/inc\xmc_wdt.h ****   WDT->CTR &= (uint32_t)~WDT_CTR_ENB_Msk;
 366:C:/GitHub/MobRob_Rover_NEW/Steering_Controller/MobRob_Steering_Controller/Libraries/XMCLib/inc\xmc_wdt.h **** }
 367:C:/GitHub/MobRob_Rover_NEW/Steering_Controller/MobRob_Steering_Controller/Libraries/XMCLib/inc\xmc_wdt.h **** 
 368:C:/GitHub/MobRob_Rover_NEW/Steering_Controller/MobRob_Steering_Controller/Libraries/XMCLib/inc\xmc_wdt.h **** /**
 369:C:/GitHub/MobRob_Rover_NEW/Steering_Controller/MobRob_Steering_Controller/Libraries/XMCLib/inc\xmc_wdt.h ****  * @param None
 370:C:/GitHub/MobRob_Rover_NEW/Steering_Controller/MobRob_Steering_Controller/Libraries/XMCLib/inc\xmc_wdt.h ****  *
 371:C:/GitHub/MobRob_Rover_NEW/Steering_Controller/MobRob_Steering_Controller/Libraries/XMCLib/inc\xmc_wdt.h ****  * @return uint32_t Current count value of watchdog timer register (TIM).
 372:C:/GitHub/MobRob_Rover_NEW/Steering_Controller/MobRob_Steering_Controller/Libraries/XMCLib/inc\xmc_wdt.h ****  *                  Range: [0H to FFFFFFFFH]
 373:C:/GitHub/MobRob_Rover_NEW/Steering_Controller/MobRob_Steering_Controller/Libraries/XMCLib/inc\xmc_wdt.h ****  *
 374:C:/GitHub/MobRob_Rover_NEW/Steering_Controller/MobRob_Steering_Controller/Libraries/XMCLib/inc\xmc_wdt.h ****  * \par<b>Description:</b><br>
 375:C:/GitHub/MobRob_Rover_NEW/Steering_Controller/MobRob_Steering_Controller/Libraries/XMCLib/inc\xmc_wdt.h ****  * Reads current count of timer register (TIM).\n
 376:C:/GitHub/MobRob_Rover_NEW/Steering_Controller/MobRob_Steering_Controller/Libraries/XMCLib/inc\xmc_wdt.h ****  * \par
 377:C:/GitHub/MobRob_Rover_NEW/Steering_Controller/MobRob_Steering_Controller/Libraries/XMCLib/inc\xmc_wdt.h ****  * Invoke this API before servicing or feeding the watchdog to check whether count is between lower
 378:C:/GitHub/MobRob_Rover_NEW/Steering_Controller/MobRob_Steering_Controller/Libraries/XMCLib/inc\xmc_wdt.h ****  * window bounds.
 379:C:/GitHub/MobRob_Rover_NEW/Steering_Controller/MobRob_Steering_Controller/Libraries/XMCLib/inc\xmc_wdt.h ****  *
 380:C:/GitHub/MobRob_Rover_NEW/Steering_Controller/MobRob_Steering_Controller/Libraries/XMCLib/inc\xmc_wdt.h ****  * \par<b>Related APIs:</b><BR>
 381:C:/GitHub/MobRob_Rover_NEW/Steering_Controller/MobRob_Steering_Controller/Libraries/XMCLib/inc\xmc_wdt.h ****  * XMC_WDT_Service()
 382:C:/GitHub/MobRob_Rover_NEW/Steering_Controller/MobRob_Steering_Controller/Libraries/XMCLib/inc\xmc_wdt.h ****  */
 383:C:/GitHub/MobRob_Rover_NEW/Steering_Controller/MobRob_Steering_Controller/Libraries/XMCLib/inc\xmc_wdt.h **** __STATIC_INLINE uint32_t XMC_WDT_GetCounter(void)
 384:C:/GitHub/MobRob_Rover_NEW/Steering_Controller/MobRob_Steering_Controller/Libraries/XMCLib/inc\xmc_wdt.h **** {
 385:C:/GitHub/MobRob_Rover_NEW/Steering_Controller/MobRob_Steering_Controller/Libraries/XMCLib/inc\xmc_wdt.h ****   return WDT->TIM;
 386:C:/GitHub/MobRob_Rover_NEW/Steering_Controller/MobRob_Steering_Controller/Libraries/XMCLib/inc\xmc_wdt.h **** }
 387:C:/GitHub/MobRob_Rover_NEW/Steering_Controller/MobRob_Steering_Controller/Libraries/XMCLib/inc\xmc_wdt.h **** 
 388:C:/GitHub/MobRob_Rover_NEW/Steering_Controller/MobRob_Steering_Controller/Libraries/XMCLib/inc\xmc_wdt.h **** /**
 389:C:/GitHub/MobRob_Rover_NEW/Steering_Controller/MobRob_Steering_Controller/Libraries/XMCLib/inc\xmc_wdt.h ****  * @param None
 390:C:/GitHub/MobRob_Rover_NEW/Steering_Controller/MobRob_Steering_Controller/Libraries/XMCLib/inc\xmc_wdt.h ****  *
 391:C:/GitHub/MobRob_Rover_NEW/Steering_Controller/MobRob_Steering_Controller/Libraries/XMCLib/inc\xmc_wdt.h ****  * @return None
 392:C:/GitHub/MobRob_Rover_NEW/Steering_Controller/MobRob_Steering_Controller/Libraries/XMCLib/inc\xmc_wdt.h ****  *
 393:C:/GitHub/MobRob_Rover_NEW/Steering_Controller/MobRob_Steering_Controller/Libraries/XMCLib/inc\xmc_wdt.h ****  * \par<b>Description:</b><br>
 394:C:/GitHub/MobRob_Rover_NEW/Steering_Controller/MobRob_Steering_Controller/Libraries/XMCLib/inc\xmc_wdt.h ****  * Services or feeds the watchdog by writing the Magic word in SRV register.\n
 395:C:/GitHub/MobRob_Rover_NEW/Steering_Controller/MobRob_Steering_Controller/Libraries/XMCLib/inc\xmc_wdt.h ****  * \par
 396:C:/GitHub/MobRob_Rover_NEW/Steering_Controller/MobRob_Steering_Controller/Libraries/XMCLib/inc\xmc_wdt.h ****  * Service watchdog when count value of watchdog timer is between lower and upper window bounds. Su
 397:C:/GitHub/MobRob_Rover_NEW/Steering_Controller/MobRob_Steering_Controller/Libraries/XMCLib/inc\xmc_wdt.h ****  * will reset watchdog timer (TIM register) to 0H and generate service indication pulse.
 398:C:/GitHub/MobRob_Rover_NEW/Steering_Controller/MobRob_Steering_Controller/Libraries/XMCLib/inc\xmc_wdt.h ****  *
 399:C:/GitHub/MobRob_Rover_NEW/Steering_Controller/MobRob_Steering_Controller/Libraries/XMCLib/inc\xmc_wdt.h ****  * \par<b>Note:</b><br>
 400:C:/GitHub/MobRob_Rover_NEW/Steering_Controller/MobRob_Steering_Controller/Libraries/XMCLib/inc\xmc_wdt.h ****  * 1. invoking this API when count value of watchdog timer is less than window lower bound results
 401:C:/GitHub/MobRob_Rover_NEW/Steering_Controller/MobRob_Steering_Controller/Libraries/XMCLib/inc\xmc_wdt.h ****  *    wrong servicing and immediately triggers reset request.
 402:C:/GitHub/MobRob_Rover_NEW/Steering_Controller/MobRob_Steering_Controller/Libraries/XMCLib/inc\xmc_wdt.h ****  *
 403:C:/GitHub/MobRob_Rover_NEW/Steering_Controller/MobRob_Steering_Controller/Libraries/XMCLib/inc\xmc_wdt.h ****  * \par<b>Related APIs:</b><BR>
 404:C:/GitHub/MobRob_Rover_NEW/Steering_Controller/MobRob_Steering_Controller/Libraries/XMCLib/inc\xmc_wdt.h ****  * XMC_WDT_GetCounter(), XMC_WDT_SetWindowBounds(), XMC_WDT_SetServicePulseWidth()
 405:C:/GitHub/MobRob_Rover_NEW/Steering_Controller/MobRob_Steering_Controller/Libraries/XMCLib/inc\xmc_wdt.h ****  */
 406:C:/GitHub/MobRob_Rover_NEW/Steering_Controller/MobRob_Steering_Controller/Libraries/XMCLib/inc\xmc_wdt.h **** __STATIC_INLINE void XMC_WDT_Service(void)
 407:C:/GitHub/MobRob_Rover_NEW/Steering_Controller/MobRob_Steering_Controller/Libraries/XMCLib/inc\xmc_wdt.h **** {
 180              	 .loc 3 407 0
 181              	 .cfi_startproc
 182 0000 80B5     	 push {r7,lr}
 183              	.LCFI12:
 184              	 .cfi_def_cfa_offset 8
 185              	 .cfi_offset 7,-8
 186              	 .cfi_offset 14,-4
 187 0002 00AF     	 add r7,sp,#0
 188              	.LCFI13:
 189              	 .cfi_def_cfa_register 7
 408:C:/GitHub/MobRob_Rover_NEW/Steering_Controller/MobRob_Steering_Controller/Libraries/XMCLib/inc\xmc_wdt.h ****   WDT->SRV = XMC_WDT_MAGIC_WORD;
 190              	 .loc 3 408 0
 191 0004 024B     	 ldr r3,.L6
 192 0006 034A     	 ldr r2,.L6+4
 193 0008 9A60     	 str r2,[r3,#8]
 409:C:/GitHub/MobRob_Rover_NEW/Steering_Controller/MobRob_Steering_Controller/Libraries/XMCLib/inc\xmc_wdt.h **** }
 194              	 .loc 3 409 0
 195 000a BD46     	 mov sp,r7
 196              	 
 197 000c 80BD     	 pop {r7,pc}
 198              	.L7:
 199 000e C046     	 .align 2
 200              	.L6:
 201 0010 00000240 	 .word 1073872896
 202 0014 FECAADAB 	 .word -1414673666
 203              	 .cfi_endproc
 204              	.LFE217:
 206              	 .section .text.WATCHDOG_Service,"ax",%progbits
 207              	 .align 2
 208              	 .code 16
 209              	 .thumb_func
 211              	WATCHDOG_Service:
 212              	.LFB221:
 213              	 .file 4 "C:/GitHub/MobRob_Rover_NEW/Steering_Controller/MobRob_Steering_Controller/Dave/Generated/WATCHDOG/watchdog.h"
   1:C:/GitHub/MobRob_Rover_NEW/Steering_Controller/MobRob_Steering_Controller/Dave/Generated/WATCHDOG\watchdog.h **** /**
   2:C:/GitHub/MobRob_Rover_NEW/Steering_Controller/MobRob_Steering_Controller/Dave/Generated/WATCHDOG\watchdog.h ****  * @file watchdog.h
   3:C:/GitHub/MobRob_Rover_NEW/Steering_Controller/MobRob_Steering_Controller/Dave/Generated/WATCHDOG\watchdog.h ****  * @date 2016-02-09
   4:C:/GitHub/MobRob_Rover_NEW/Steering_Controller/MobRob_Steering_Controller/Dave/Generated/WATCHDOG\watchdog.h ****  *
   5:C:/GitHub/MobRob_Rover_NEW/Steering_Controller/MobRob_Steering_Controller/Dave/Generated/WATCHDOG\watchdog.h ****  * NOTE:
   6:C:/GitHub/MobRob_Rover_NEW/Steering_Controller/MobRob_Steering_Controller/Dave/Generated/WATCHDOG\watchdog.h ****  * This file is generated by DAVE. Any manual modification done to this file will be lost when the 
   7:C:/GitHub/MobRob_Rover_NEW/Steering_Controller/MobRob_Steering_Controller/Dave/Generated/WATCHDOG\watchdog.h ****  *
   8:C:/GitHub/MobRob_Rover_NEW/Steering_Controller/MobRob_Steering_Controller/Dave/Generated/WATCHDOG\watchdog.h ****  * @cond
   9:C:/GitHub/MobRob_Rover_NEW/Steering_Controller/MobRob_Steering_Controller/Dave/Generated/WATCHDOG\watchdog.h ****  **************************************************************************************************
  10:C:/GitHub/MobRob_Rover_NEW/Steering_Controller/MobRob_Steering_Controller/Dave/Generated/WATCHDOG\watchdog.h ****  * WATCHDOG v4.0.16 - Configures the watchdog peripheral instance.
  11:C:/GitHub/MobRob_Rover_NEW/Steering_Controller/MobRob_Steering_Controller/Dave/Generated/WATCHDOG\watchdog.h ****  *
  12:C:/GitHub/MobRob_Rover_NEW/Steering_Controller/MobRob_Steering_Controller/Dave/Generated/WATCHDOG\watchdog.h ****  * Copyright (c) 2016-2020, Infineon Technologies AG
  13:C:/GitHub/MobRob_Rover_NEW/Steering_Controller/MobRob_Steering_Controller/Dave/Generated/WATCHDOG\watchdog.h ****  * All rights reserved.
  14:C:/GitHub/MobRob_Rover_NEW/Steering_Controller/MobRob_Steering_Controller/Dave/Generated/WATCHDOG\watchdog.h ****  *
  15:C:/GitHub/MobRob_Rover_NEW/Steering_Controller/MobRob_Steering_Controller/Dave/Generated/WATCHDOG\watchdog.h ****  * Redistribution and use in source and binary forms, with or without modification,are permitted pr
  16:C:/GitHub/MobRob_Rover_NEW/Steering_Controller/MobRob_Steering_Controller/Dave/Generated/WATCHDOG\watchdog.h ****  * following conditions are met:
  17:C:/GitHub/MobRob_Rover_NEW/Steering_Controller/MobRob_Steering_Controller/Dave/Generated/WATCHDOG\watchdog.h ****  *
  18:C:/GitHub/MobRob_Rover_NEW/Steering_Controller/MobRob_Steering_Controller/Dave/Generated/WATCHDOG\watchdog.h ****  *   Redistributions of source code must retain the above copyright notice, this list of conditions
  19:C:/GitHub/MobRob_Rover_NEW/Steering_Controller/MobRob_Steering_Controller/Dave/Generated/WATCHDOG\watchdog.h ****  *   disclaimer.
  20:C:/GitHub/MobRob_Rover_NEW/Steering_Controller/MobRob_Steering_Controller/Dave/Generated/WATCHDOG\watchdog.h ****  *
  21:C:/GitHub/MobRob_Rover_NEW/Steering_Controller/MobRob_Steering_Controller/Dave/Generated/WATCHDOG\watchdog.h ****  *   Redistributions in binary form must reproduce the above copyright notice, this list of conditi
  22:C:/GitHub/MobRob_Rover_NEW/Steering_Controller/MobRob_Steering_Controller/Dave/Generated/WATCHDOG\watchdog.h ****  *   following disclaimer in the documentation and/or other materials provided with the distributio
  23:C:/GitHub/MobRob_Rover_NEW/Steering_Controller/MobRob_Steering_Controller/Dave/Generated/WATCHDOG\watchdog.h ****  *
  24:C:/GitHub/MobRob_Rover_NEW/Steering_Controller/MobRob_Steering_Controller/Dave/Generated/WATCHDOG\watchdog.h ****  *   Neither the name of the copyright holders nor the names of its contributors may be used to end
  25:C:/GitHub/MobRob_Rover_NEW/Steering_Controller/MobRob_Steering_Controller/Dave/Generated/WATCHDOG\watchdog.h ****  *   products derived from this software without specific prior written permission.
  26:C:/GitHub/MobRob_Rover_NEW/Steering_Controller/MobRob_Steering_Controller/Dave/Generated/WATCHDOG\watchdog.h ****  *
  27:C:/GitHub/MobRob_Rover_NEW/Steering_Controller/MobRob_Steering_Controller/Dave/Generated/WATCHDOG\watchdog.h ****  * THIS SOFTWARE IS PROVIDED BY THE COPYRIGHT HOLDERS AND CONTRIBUTORS "AS IS" AND ANY EXPRESS OR I
  28:C:/GitHub/MobRob_Rover_NEW/Steering_Controller/MobRob_Steering_Controller/Dave/Generated/WATCHDOG\watchdog.h ****  * INCLUDING, BUT NOT LIMITED TO, THE IMPLIED WARRANTIES OF MERCHANTABILITY AND FITNESS FOR A PARTI
  29:C:/GitHub/MobRob_Rover_NEW/Steering_Controller/MobRob_Steering_Controller/Dave/Generated/WATCHDOG\watchdog.h ****  * DISCLAIMED. IN NO EVENT SHALL THE COPYRIGHT HOLDER OR CONTRIBUTORS BE LIABLE  FOR ANY DIRECT, IN
  30:C:/GitHub/MobRob_Rover_NEW/Steering_Controller/MobRob_Steering_Controller/Dave/Generated/WATCHDOG\watchdog.h ****  * SPECIAL, EXEMPLARY, OR CONSEQUENTIAL DAMAGES (INCLUDING, BUT NOT LIMITED TO, PROCUREMENT OF SUBS
  31:C:/GitHub/MobRob_Rover_NEW/Steering_Controller/MobRob_Steering_Controller/Dave/Generated/WATCHDOG\watchdog.h ****  * SERVICES; LOSS OF USE, DATA, OR PROFITS; OR BUSINESS INTERRUPTION) HOWEVER CAUSED AND ON ANY THE
  32:C:/GitHub/MobRob_Rover_NEW/Steering_Controller/MobRob_Steering_Controller/Dave/Generated/WATCHDOG\watchdog.h ****  * WHETHER IN CONTRACT, STRICT LIABILITY,OR TORT (INCLUDING NEGLIGENCE OR OTHERWISE) ARISING IN ANY
  33:C:/GitHub/MobRob_Rover_NEW/Steering_Controller/MobRob_Steering_Controller/Dave/Generated/WATCHDOG\watchdog.h ****  * USE OF THIS SOFTWARE, EVEN IF ADVISED OF THE POSSIBILITY OF SUCH DAMAGE.
  34:C:/GitHub/MobRob_Rover_NEW/Steering_Controller/MobRob_Steering_Controller/Dave/Generated/WATCHDOG\watchdog.h ****  *
  35:C:/GitHub/MobRob_Rover_NEW/Steering_Controller/MobRob_Steering_Controller/Dave/Generated/WATCHDOG\watchdog.h ****  * To improve the quality of the software, users are encouraged to share modifications, enhancement
  36:C:/GitHub/MobRob_Rover_NEW/Steering_Controller/MobRob_Steering_Controller/Dave/Generated/WATCHDOG\watchdog.h ****  * with Infineon Technologies AG (dave@infineon.com).
  37:C:/GitHub/MobRob_Rover_NEW/Steering_Controller/MobRob_Steering_Controller/Dave/Generated/WATCHDOG\watchdog.h ****  **************************************************************************************************
  38:C:/GitHub/MobRob_Rover_NEW/Steering_Controller/MobRob_Steering_Controller/Dave/Generated/WATCHDOG\watchdog.h ****  *
  39:C:/GitHub/MobRob_Rover_NEW/Steering_Controller/MobRob_Steering_Controller/Dave/Generated/WATCHDOG\watchdog.h ****  * Change History
  40:C:/GitHub/MobRob_Rover_NEW/Steering_Controller/MobRob_Steering_Controller/Dave/Generated/WATCHDOG\watchdog.h ****  * --------------
  41:C:/GitHub/MobRob_Rover_NEW/Steering_Controller/MobRob_Steering_Controller/Dave/Generated/WATCHDOG\watchdog.h ****  *
  42:C:/GitHub/MobRob_Rover_NEW/Steering_Controller/MobRob_Steering_Controller/Dave/Generated/WATCHDOG\watchdog.h ****  * 2015-02-16:
  43:C:/GitHub/MobRob_Rover_NEW/Steering_Controller/MobRob_Steering_Controller/Dave/Generated/WATCHDOG\watchdog.h ****  *     - Initial version<br>
  44:C:/GitHub/MobRob_Rover_NEW/Steering_Controller/MobRob_Steering_Controller/Dave/Generated/WATCHDOG\watchdog.h ****  *
  45:C:/GitHub/MobRob_Rover_NEW/Steering_Controller/MobRob_Steering_Controller/Dave/Generated/WATCHDOG\watchdog.h ****  * 2015-05-08:
  46:C:/GitHub/MobRob_Rover_NEW/Steering_Controller/MobRob_Steering_Controller/Dave/Generated/WATCHDOG\watchdog.h ****  *     - C++ guard applied to only API section<br>
  47:C:/GitHub/MobRob_Rover_NEW/Steering_Controller/MobRob_Steering_Controller/Dave/Generated/WATCHDOG\watchdog.h ****  *     - File guard updated according to the guidelines<br>
  48:C:/GitHub/MobRob_Rover_NEW/Steering_Controller/MobRob_Steering_Controller/Dave/Generated/WATCHDOG\watchdog.h ****  *     - Enum items of "WATCHDOG_EVENT_MODE" are changed to follow coding guidelines<br>
  49:C:/GitHub/MobRob_Rover_NEW/Steering_Controller/MobRob_Steering_Controller/Dave/Generated/WATCHDOG\watchdog.h ****  *
  50:C:/GitHub/MobRob_Rover_NEW/Steering_Controller/MobRob_Steering_Controller/Dave/Generated/WATCHDOG\watchdog.h ****  * 2015-06-20:
  51:C:/GitHub/MobRob_Rover_NEW/Steering_Controller/MobRob_Steering_Controller/Dave/Generated/WATCHDOG\watchdog.h ****  *     - "callback_func_ptr" in APP config structure is updated according to the GLOBAL_SCU APP.
  52:C:/GitHub/MobRob_Rover_NEW/Steering_Controller/MobRob_Steering_Controller/Dave/Generated/WATCHDOG\watchdog.h ****  *
  53:C:/GitHub/MobRob_Rover_NEW/Steering_Controller/MobRob_Steering_Controller/Dave/Generated/WATCHDOG\watchdog.h ****  * 2015-06-20:
  54:C:/GitHub/MobRob_Rover_NEW/Steering_Controller/MobRob_Steering_Controller/Dave/Generated/WATCHDOG\watchdog.h ****  *     - macro WATCHDOG_EVENT_CONFIGURATION is replaced with WATCHDOG_EVENT_VIA_SCU.
  55:C:/GitHub/MobRob_Rover_NEW/Steering_Controller/MobRob_Steering_Controller/Dave/Generated/WATCHDOG\watchdog.h ****  *
  56:C:/GitHub/MobRob_Rover_NEW/Steering_Controller/MobRob_Steering_Controller/Dave/Generated/WATCHDOG\watchdog.h ****  * 2016-02-09:
  57:C:/GitHub/MobRob_Rover_NEW/Steering_Controller/MobRob_Steering_Controller/Dave/Generated/WATCHDOG\watchdog.h ****  *     - Added a check for XMC4 devices, to verify that WATCHDOG clock is enabled or not in CLOCK_X
  58:C:/GitHub/MobRob_Rover_NEW/Steering_Controller/MobRob_Steering_Controller/Dave/Generated/WATCHDOG\watchdog.h ****  *
  59:C:/GitHub/MobRob_Rover_NEW/Steering_Controller/MobRob_Steering_Controller/Dave/Generated/WATCHDOG\watchdog.h ****  * @endcond
  60:C:/GitHub/MobRob_Rover_NEW/Steering_Controller/MobRob_Steering_Controller/Dave/Generated/WATCHDOG\watchdog.h ****  *
  61:C:/GitHub/MobRob_Rover_NEW/Steering_Controller/MobRob_Steering_Controller/Dave/Generated/WATCHDOG\watchdog.h ****  */
  62:C:/GitHub/MobRob_Rover_NEW/Steering_Controller/MobRob_Steering_Controller/Dave/Generated/WATCHDOG\watchdog.h **** 
  63:C:/GitHub/MobRob_Rover_NEW/Steering_Controller/MobRob_Steering_Controller/Dave/Generated/WATCHDOG\watchdog.h **** #ifndef WATCHDOG_H
  64:C:/GitHub/MobRob_Rover_NEW/Steering_Controller/MobRob_Steering_Controller/Dave/Generated/WATCHDOG\watchdog.h **** #define WATCHDOG_H
  65:C:/GitHub/MobRob_Rover_NEW/Steering_Controller/MobRob_Steering_Controller/Dave/Generated/WATCHDOG\watchdog.h **** /**************************************************************************************************
  66:C:/GitHub/MobRob_Rover_NEW/Steering_Controller/MobRob_Steering_Controller/Dave/Generated/WATCHDOG\watchdog.h ****  * HEADER FILES
  67:C:/GitHub/MobRob_Rover_NEW/Steering_Controller/MobRob_Steering_Controller/Dave/Generated/WATCHDOG\watchdog.h ****  **************************************************************************************************
  68:C:/GitHub/MobRob_Rover_NEW/Steering_Controller/MobRob_Steering_Controller/Dave/Generated/WATCHDOG\watchdog.h **** #include "xmc_wdt.h"
  69:C:/GitHub/MobRob_Rover_NEW/Steering_Controller/MobRob_Steering_Controller/Dave/Generated/WATCHDOG\watchdog.h **** #if(UC_FAMILY == XMC4)
  70:C:/GitHub/MobRob_Rover_NEW/Steering_Controller/MobRob_Steering_Controller/Dave/Generated/WATCHDOG\watchdog.h **** #include "CLOCK_XMC4/clock_xmc4.h"
  71:C:/GitHub/MobRob_Rover_NEW/Steering_Controller/MobRob_Steering_Controller/Dave/Generated/WATCHDOG\watchdog.h **** #else
  72:C:/GitHub/MobRob_Rover_NEW/Steering_Controller/MobRob_Steering_Controller/Dave/Generated/WATCHDOG\watchdog.h **** #include "CLOCK_XMC1/clock_xmc1.h"
  73:C:/GitHub/MobRob_Rover_NEW/Steering_Controller/MobRob_Steering_Controller/Dave/Generated/WATCHDOG\watchdog.h **** #endif
  74:C:/GitHub/MobRob_Rover_NEW/Steering_Controller/MobRob_Steering_Controller/Dave/Generated/WATCHDOG\watchdog.h **** #include "watchdog_conf.h"
  75:C:/GitHub/MobRob_Rover_NEW/Steering_Controller/MobRob_Steering_Controller/Dave/Generated/WATCHDOG\watchdog.h **** #include "DAVE_Common.h"
  76:C:/GitHub/MobRob_Rover_NEW/Steering_Controller/MobRob_Steering_Controller/Dave/Generated/WATCHDOG\watchdog.h **** 
  77:C:/GitHub/MobRob_Rover_NEW/Steering_Controller/MobRob_Steering_Controller/Dave/Generated/WATCHDOG\watchdog.h **** /**************************************************************************************************
  78:C:/GitHub/MobRob_Rover_NEW/Steering_Controller/MobRob_Steering_Controller/Dave/Generated/WATCHDOG\watchdog.h ****  * MACROS
  79:C:/GitHub/MobRob_Rover_NEW/Steering_Controller/MobRob_Steering_Controller/Dave/Generated/WATCHDOG\watchdog.h ****  **************************************************************************************************
  80:C:/GitHub/MobRob_Rover_NEW/Steering_Controller/MobRob_Steering_Controller/Dave/Generated/WATCHDOG\watchdog.h **** #define WATCHDOG_XMC_LIB_MAJOR_VERSION 2
  81:C:/GitHub/MobRob_Rover_NEW/Steering_Controller/MobRob_Steering_Controller/Dave/Generated/WATCHDOG\watchdog.h **** #define WATCHDOG_XMC_LIB_MINOR_VERSION 0
  82:C:/GitHub/MobRob_Rover_NEW/Steering_Controller/MobRob_Steering_Controller/Dave/Generated/WATCHDOG\watchdog.h **** #define WATCHDOG_XMC_LIB_PATCH_VERSION 0
  83:C:/GitHub/MobRob_Rover_NEW/Steering_Controller/MobRob_Steering_Controller/Dave/Generated/WATCHDOG\watchdog.h **** 
  84:C:/GitHub/MobRob_Rover_NEW/Steering_Controller/MobRob_Steering_Controller/Dave/Generated/WATCHDOG\watchdog.h **** #if !((XMC_LIB_MAJOR_VERSION > WATCHDOG_XMC_LIB_MAJOR_VERSION) ||\
  85:C:/GitHub/MobRob_Rover_NEW/Steering_Controller/MobRob_Steering_Controller/Dave/Generated/WATCHDOG\watchdog.h ****       ((XMC_LIB_MAJOR_VERSION == WATCHDOG_XMC_LIB_MAJOR_VERSION) && (XMC_LIB_MINOR_VERSION > WATCHD
  86:C:/GitHub/MobRob_Rover_NEW/Steering_Controller/MobRob_Steering_Controller/Dave/Generated/WATCHDOG\watchdog.h ****       ((XMC_LIB_MAJOR_VERSION == WATCHDOG_XMC_LIB_MAJOR_VERSION) && (XMC_LIB_MINOR_VERSION == WATCH
  87:C:/GitHub/MobRob_Rover_NEW/Steering_Controller/MobRob_Steering_Controller/Dave/Generated/WATCHDOG\watchdog.h **** #error "WATCHDOG requires XMC Peripheral Library v2.0.0 or higher"
  88:C:/GitHub/MobRob_Rover_NEW/Steering_Controller/MobRob_Steering_Controller/Dave/Generated/WATCHDOG\watchdog.h **** #endif
  89:C:/GitHub/MobRob_Rover_NEW/Steering_Controller/MobRob_Steering_Controller/Dave/Generated/WATCHDOG\watchdog.h **** 
  90:C:/GitHub/MobRob_Rover_NEW/Steering_Controller/MobRob_Steering_Controller/Dave/Generated/WATCHDOG\watchdog.h **** /**************************************************************************************************
  91:C:/GitHub/MobRob_Rover_NEW/Steering_Controller/MobRob_Steering_Controller/Dave/Generated/WATCHDOG\watchdog.h ****  * ENUMS
  92:C:/GitHub/MobRob_Rover_NEW/Steering_Controller/MobRob_Steering_Controller/Dave/Generated/WATCHDOG\watchdog.h ****  **************************************************************************************************
  93:C:/GitHub/MobRob_Rover_NEW/Steering_Controller/MobRob_Steering_Controller/Dave/Generated/WATCHDOG\watchdog.h **** /**
  94:C:/GitHub/MobRob_Rover_NEW/Steering_Controller/MobRob_Steering_Controller/Dave/Generated/WATCHDOG\watchdog.h ****  * @ingroup WATCHDOG_enumerations
  95:C:/GitHub/MobRob_Rover_NEW/Steering_Controller/MobRob_Steering_Controller/Dave/Generated/WATCHDOG\watchdog.h ****  * @{
  96:C:/GitHub/MobRob_Rover_NEW/Steering_Controller/MobRob_Steering_Controller/Dave/Generated/WATCHDOG\watchdog.h ****  */
  97:C:/GitHub/MobRob_Rover_NEW/Steering_Controller/MobRob_Steering_Controller/Dave/Generated/WATCHDOG\watchdog.h **** 
  98:C:/GitHub/MobRob_Rover_NEW/Steering_Controller/MobRob_Steering_Controller/Dave/Generated/WATCHDOG\watchdog.h **** /**
  99:C:/GitHub/MobRob_Rover_NEW/Steering_Controller/MobRob_Steering_Controller/Dave/Generated/WATCHDOG\watchdog.h ****  *  @brief In case of XMC4000 devices, WatchDog event can be generated as  Regular Interrupt or can
 100:C:/GitHub/MobRob_Rover_NEW/Steering_Controller/MobRob_Steering_Controller/Dave/Generated/WATCHDOG\watchdog.h ****  *         NMI Request. Where as in case of XMC1000 device, it can be generated as Regular Interrup
 101:C:/GitHub/MobRob_Rover_NEW/Steering_Controller/MobRob_Steering_Controller/Dave/Generated/WATCHDOG\watchdog.h ****  */
 102:C:/GitHub/MobRob_Rover_NEW/Steering_Controller/MobRob_Steering_Controller/Dave/Generated/WATCHDOG\watchdog.h **** typedef enum WATCHDOG_EVENT_MODE
 103:C:/GitHub/MobRob_Rover_NEW/Steering_Controller/MobRob_Steering_Controller/Dave/Generated/WATCHDOG\watchdog.h **** {
 104:C:/GitHub/MobRob_Rover_NEW/Steering_Controller/MobRob_Steering_Controller/Dave/Generated/WATCHDOG\watchdog.h ****     WATCHDOG_EVENT_MODE_INTERRUPT   = 0U, /**< Regular Interrupt */
 105:C:/GitHub/MobRob_Rover_NEW/Steering_Controller/MobRob_Steering_Controller/Dave/Generated/WATCHDOG\watchdog.h ****     WATCHDOG_EVENT_MODE_NMI_REQUEST = 1U /**< Promoted to NMI */
 106:C:/GitHub/MobRob_Rover_NEW/Steering_Controller/MobRob_Steering_Controller/Dave/Generated/WATCHDOG\watchdog.h **** } WATCHDOG_EVENT_MODE_t;
 107:C:/GitHub/MobRob_Rover_NEW/Steering_Controller/MobRob_Steering_Controller/Dave/Generated/WATCHDOG\watchdog.h **** 
 108:C:/GitHub/MobRob_Rover_NEW/Steering_Controller/MobRob_Steering_Controller/Dave/Generated/WATCHDOG\watchdog.h **** /**
 109:C:/GitHub/MobRob_Rover_NEW/Steering_Controller/MobRob_Steering_Controller/Dave/Generated/WATCHDOG\watchdog.h ****  *  @brief Initialization status.
 110:C:/GitHub/MobRob_Rover_NEW/Steering_Controller/MobRob_Steering_Controller/Dave/Generated/WATCHDOG\watchdog.h ****  */
 111:C:/GitHub/MobRob_Rover_NEW/Steering_Controller/MobRob_Steering_Controller/Dave/Generated/WATCHDOG\watchdog.h **** typedef enum WATCHDOG_STATUS
 112:C:/GitHub/MobRob_Rover_NEW/Steering_Controller/MobRob_Steering_Controller/Dave/Generated/WATCHDOG\watchdog.h **** {
 113:C:/GitHub/MobRob_Rover_NEW/Steering_Controller/MobRob_Steering_Controller/Dave/Generated/WATCHDOG\watchdog.h ****   WATCHDOG_STATUS_SUCCESS = 0U, /**< Status success */
 114:C:/GitHub/MobRob_Rover_NEW/Steering_Controller/MobRob_Steering_Controller/Dave/Generated/WATCHDOG\watchdog.h ****   WATCHDOG_STATUS_FAILURE, /**< Status failure */
 115:C:/GitHub/MobRob_Rover_NEW/Steering_Controller/MobRob_Steering_Controller/Dave/Generated/WATCHDOG\watchdog.h **** } WATCHDOG_STATUS_t;
 116:C:/GitHub/MobRob_Rover_NEW/Steering_Controller/MobRob_Steering_Controller/Dave/Generated/WATCHDOG\watchdog.h **** /**
 117:C:/GitHub/MobRob_Rover_NEW/Steering_Controller/MobRob_Steering_Controller/Dave/Generated/WATCHDOG\watchdog.h **** * @}
 118:C:/GitHub/MobRob_Rover_NEW/Steering_Controller/MobRob_Steering_Controller/Dave/Generated/WATCHDOG\watchdog.h **** */
 119:C:/GitHub/MobRob_Rover_NEW/Steering_Controller/MobRob_Steering_Controller/Dave/Generated/WATCHDOG\watchdog.h **** 
 120:C:/GitHub/MobRob_Rover_NEW/Steering_Controller/MobRob_Steering_Controller/Dave/Generated/WATCHDOG\watchdog.h **** /**************************************************************************************************
 121:C:/GitHub/MobRob_Rover_NEW/Steering_Controller/MobRob_Steering_Controller/Dave/Generated/WATCHDOG\watchdog.h **** * DATA STRUCTURES
 122:C:/GitHub/MobRob_Rover_NEW/Steering_Controller/MobRob_Steering_Controller/Dave/Generated/WATCHDOG\watchdog.h **** ***************************************************************************************************
 123:C:/GitHub/MobRob_Rover_NEW/Steering_Controller/MobRob_Steering_Controller/Dave/Generated/WATCHDOG\watchdog.h **** /**
 124:C:/GitHub/MobRob_Rover_NEW/Steering_Controller/MobRob_Steering_Controller/Dave/Generated/WATCHDOG\watchdog.h ****  * @ingroup WATCHDOG_datastructures
 125:C:/GitHub/MobRob_Rover_NEW/Steering_Controller/MobRob_Steering_Controller/Dave/Generated/WATCHDOG\watchdog.h ****  * @{
 126:C:/GitHub/MobRob_Rover_NEW/Steering_Controller/MobRob_Steering_Controller/Dave/Generated/WATCHDOG\watchdog.h ****  */
 127:C:/GitHub/MobRob_Rover_NEW/Steering_Controller/MobRob_Steering_Controller/Dave/Generated/WATCHDOG\watchdog.h **** 
 128:C:/GitHub/MobRob_Rover_NEW/Steering_Controller/MobRob_Steering_Controller/Dave/Generated/WATCHDOG\watchdog.h **** /**
 129:C:/GitHub/MobRob_Rover_NEW/Steering_Controller/MobRob_Steering_Controller/Dave/Generated/WATCHDOG\watchdog.h ****  * @brief WATCHDOG_HandleType is  data structure for storing the GUI configured values of a WATCHDO
 130:C:/GitHub/MobRob_Rover_NEW/Steering_Controller/MobRob_Steering_Controller/Dave/Generated/WATCHDOG\watchdog.h ****  */
 131:C:/GitHub/MobRob_Rover_NEW/Steering_Controller/MobRob_Steering_Controller/Dave/Generated/WATCHDOG\watchdog.h **** typedef struct WATCHDOG
 132:C:/GitHub/MobRob_Rover_NEW/Steering_Controller/MobRob_Steering_Controller/Dave/Generated/WATCHDOG\watchdog.h **** {
 133:C:/GitHub/MobRob_Rover_NEW/Steering_Controller/MobRob_Steering_Controller/Dave/Generated/WATCHDOG\watchdog.h ****   const XMC_WDT_CONFIG_t* const config; /**< Configuration of WDT */
 134:C:/GitHub/MobRob_Rover_NEW/Steering_Controller/MobRob_Steering_Controller/Dave/Generated/WATCHDOG\watchdog.h ****   #if ((WATCHDOG_PREWARNING_CHECK == 1U) && (WATCHDOG_EVENT_VIA_SCU == 1U))
 135:C:/GitHub/MobRob_Rover_NEW/Steering_Controller/MobRob_Steering_Controller/Dave/Generated/WATCHDOG\watchdog.h ****   #if(UC_FAMILY == XMC4)
 136:C:/GitHub/MobRob_Rover_NEW/Steering_Controller/MobRob_Steering_Controller/Dave/Generated/WATCHDOG\watchdog.h ****   GLOBAL_SCU_XMC4_t* const scu_global_handler; /**< pointer to SCU_GLOBAL APP instance*/
 137:C:/GitHub/MobRob_Rover_NEW/Steering_Controller/MobRob_Steering_Controller/Dave/Generated/WATCHDOG\watchdog.h ****   GLOBAL_SCU_XMC4_EVENT_HANDLER_t callback_func_ptr; /**< Callback function pointer */
 138:C:/GitHub/MobRob_Rover_NEW/Steering_Controller/MobRob_Steering_Controller/Dave/Generated/WATCHDOG\watchdog.h ****   #else
 139:C:/GitHub/MobRob_Rover_NEW/Steering_Controller/MobRob_Steering_Controller/Dave/Generated/WATCHDOG\watchdog.h ****   GLOBAL_SCU_XMC1_t* const scu_global_handler; /**< pointer to SCU_GLOBAL APP instance*/
 140:C:/GitHub/MobRob_Rover_NEW/Steering_Controller/MobRob_Steering_Controller/Dave/Generated/WATCHDOG\watchdog.h ****   GLOBAL_SCU_XMC1_EVENT_HANDLER_t callback_func_ptr; /**< Callback function pointer */
 141:C:/GitHub/MobRob_Rover_NEW/Steering_Controller/MobRob_Steering_Controller/Dave/Generated/WATCHDOG\watchdog.h ****   #endif
 142:C:/GitHub/MobRob_Rover_NEW/Steering_Controller/MobRob_Steering_Controller/Dave/Generated/WATCHDOG\watchdog.h ****   #endif
 143:C:/GitHub/MobRob_Rover_NEW/Steering_Controller/MobRob_Steering_Controller/Dave/Generated/WATCHDOG\watchdog.h ****   bool  initialized; /**< Holds the initialization status */
 144:C:/GitHub/MobRob_Rover_NEW/Steering_Controller/MobRob_Steering_Controller/Dave/Generated/WATCHDOG\watchdog.h **** } WATCHDOG_t;
 145:C:/GitHub/MobRob_Rover_NEW/Steering_Controller/MobRob_Steering_Controller/Dave/Generated/WATCHDOG\watchdog.h **** 
 146:C:/GitHub/MobRob_Rover_NEW/Steering_Controller/MobRob_Steering_Controller/Dave/Generated/WATCHDOG\watchdog.h **** /**
 147:C:/GitHub/MobRob_Rover_NEW/Steering_Controller/MobRob_Steering_Controller/Dave/Generated/WATCHDOG\watchdog.h **** * @}
 148:C:/GitHub/MobRob_Rover_NEW/Steering_Controller/MobRob_Steering_Controller/Dave/Generated/WATCHDOG\watchdog.h **** */
 149:C:/GitHub/MobRob_Rover_NEW/Steering_Controller/MobRob_Steering_Controller/Dave/Generated/WATCHDOG\watchdog.h **** /**************************************************************************************************
 150:C:/GitHub/MobRob_Rover_NEW/Steering_Controller/MobRob_Steering_Controller/Dave/Generated/WATCHDOG\watchdog.h **** * API Prototypes
 151:C:/GitHub/MobRob_Rover_NEW/Steering_Controller/MobRob_Steering_Controller/Dave/Generated/WATCHDOG\watchdog.h **** ***************************************************************************************************
 152:C:/GitHub/MobRob_Rover_NEW/Steering_Controller/MobRob_Steering_Controller/Dave/Generated/WATCHDOG\watchdog.h **** #ifdef __cplusplus
 153:C:/GitHub/MobRob_Rover_NEW/Steering_Controller/MobRob_Steering_Controller/Dave/Generated/WATCHDOG\watchdog.h **** extern "C" {
 154:C:/GitHub/MobRob_Rover_NEW/Steering_Controller/MobRob_Steering_Controller/Dave/Generated/WATCHDOG\watchdog.h **** #endif
 155:C:/GitHub/MobRob_Rover_NEW/Steering_Controller/MobRob_Steering_Controller/Dave/Generated/WATCHDOG\watchdog.h **** /**
 156:C:/GitHub/MobRob_Rover_NEW/Steering_Controller/MobRob_Steering_Controller/Dave/Generated/WATCHDOG\watchdog.h ****  * @brief Get WATCHDOG APP version
 157:C:/GitHub/MobRob_Rover_NEW/Steering_Controller/MobRob_Steering_Controller/Dave/Generated/WATCHDOG\watchdog.h ****  * @return DAVE_APP_VERSION_t APP version information (major, minor and patch number)
 158:C:/GitHub/MobRob_Rover_NEW/Steering_Controller/MobRob_Steering_Controller/Dave/Generated/WATCHDOG\watchdog.h ****  * <BR>
 159:C:/GitHub/MobRob_Rover_NEW/Steering_Controller/MobRob_Steering_Controller/Dave/Generated/WATCHDOG\watchdog.h ****  * \par<b>Description:</b><br>
 160:C:/GitHub/MobRob_Rover_NEW/Steering_Controller/MobRob_Steering_Controller/Dave/Generated/WATCHDOG\watchdog.h ****  * The function can be used to check application software compatibility with a
 161:C:/GitHub/MobRob_Rover_NEW/Steering_Controller/MobRob_Steering_Controller/Dave/Generated/WATCHDOG\watchdog.h ****  * specific version of the APP.
 162:C:/GitHub/MobRob_Rover_NEW/Steering_Controller/MobRob_Steering_Controller/Dave/Generated/WATCHDOG\watchdog.h ****  *
 163:C:/GitHub/MobRob_Rover_NEW/Steering_Controller/MobRob_Steering_Controller/Dave/Generated/WATCHDOG\watchdog.h ****  * Example Usage:
 164:C:/GitHub/MobRob_Rover_NEW/Steering_Controller/MobRob_Steering_Controller/Dave/Generated/WATCHDOG\watchdog.h ****  *
 165:C:/GitHub/MobRob_Rover_NEW/Steering_Controller/MobRob_Steering_Controller/Dave/Generated/WATCHDOG\watchdog.h ****  * @code
 166:C:/GitHub/MobRob_Rover_NEW/Steering_Controller/MobRob_Steering_Controller/Dave/Generated/WATCHDOG\watchdog.h ****  * #include "DAVE.h"
 167:C:/GitHub/MobRob_Rover_NEW/Steering_Controller/MobRob_Steering_Controller/Dave/Generated/WATCHDOG\watchdog.h ****  * int main(void)
 168:C:/GitHub/MobRob_Rover_NEW/Steering_Controller/MobRob_Steering_Controller/Dave/Generated/WATCHDOG\watchdog.h ****  * {
 169:C:/GitHub/MobRob_Rover_NEW/Steering_Controller/MobRob_Steering_Controller/Dave/Generated/WATCHDOG\watchdog.h ****  *   DAVE_STATUS_t status;
 170:C:/GitHub/MobRob_Rover_NEW/Steering_Controller/MobRob_Steering_Controller/Dave/Generated/WATCHDOG\watchdog.h ****  *   DAVE_APP_VERSION_t app_version;
 171:C:/GitHub/MobRob_Rover_NEW/Steering_Controller/MobRob_Steering_Controller/Dave/Generated/WATCHDOG\watchdog.h ****  *
 172:C:/GitHub/MobRob_Rover_NEW/Steering_Controller/MobRob_Steering_Controller/Dave/Generated/WATCHDOG\watchdog.h ****  *   status = DAVE_Init();    // WATCHDOG_Init() is called from DAVE_Init()
 173:C:/GitHub/MobRob_Rover_NEW/Steering_Controller/MobRob_Steering_Controller/Dave/Generated/WATCHDOG\watchdog.h ****  *
 174:C:/GitHub/MobRob_Rover_NEW/Steering_Controller/MobRob_Steering_Controller/Dave/Generated/WATCHDOG\watchdog.h ****  *   app_version = WATCHDOG_GetAppVersion();
 175:C:/GitHub/MobRob_Rover_NEW/Steering_Controller/MobRob_Steering_Controller/Dave/Generated/WATCHDOG\watchdog.h ****  *
 176:C:/GitHub/MobRob_Rover_NEW/Steering_Controller/MobRob_Steering_Controller/Dave/Generated/WATCHDOG\watchdog.h ****  *   if (app_version.major != 4U)
 177:C:/GitHub/MobRob_Rover_NEW/Steering_Controller/MobRob_Steering_Controller/Dave/Generated/WATCHDOG\watchdog.h ****  *   {
 178:C:/GitHub/MobRob_Rover_NEW/Steering_Controller/MobRob_Steering_Controller/Dave/Generated/WATCHDOG\watchdog.h ****  *     // Probably, not the right version.
 179:C:/GitHub/MobRob_Rover_NEW/Steering_Controller/MobRob_Steering_Controller/Dave/Generated/WATCHDOG\watchdog.h ****  *   }
 180:C:/GitHub/MobRob_Rover_NEW/Steering_Controller/MobRob_Steering_Controller/Dave/Generated/WATCHDOG\watchdog.h ****  *
 181:C:/GitHub/MobRob_Rover_NEW/Steering_Controller/MobRob_Steering_Controller/Dave/Generated/WATCHDOG\watchdog.h ****  *   while(1U)
 182:C:/GitHub/MobRob_Rover_NEW/Steering_Controller/MobRob_Steering_Controller/Dave/Generated/WATCHDOG\watchdog.h ****  *   {
 183:C:/GitHub/MobRob_Rover_NEW/Steering_Controller/MobRob_Steering_Controller/Dave/Generated/WATCHDOG\watchdog.h ****  *   }
 184:C:/GitHub/MobRob_Rover_NEW/Steering_Controller/MobRob_Steering_Controller/Dave/Generated/WATCHDOG\watchdog.h ****  *   return 1;
 185:C:/GitHub/MobRob_Rover_NEW/Steering_Controller/MobRob_Steering_Controller/Dave/Generated/WATCHDOG\watchdog.h ****  * }
 186:C:/GitHub/MobRob_Rover_NEW/Steering_Controller/MobRob_Steering_Controller/Dave/Generated/WATCHDOG\watchdog.h ****  * @endcode<BR>
 187:C:/GitHub/MobRob_Rover_NEW/Steering_Controller/MobRob_Steering_Controller/Dave/Generated/WATCHDOG\watchdog.h ****  */
 188:C:/GitHub/MobRob_Rover_NEW/Steering_Controller/MobRob_Steering_Controller/Dave/Generated/WATCHDOG\watchdog.h **** 
 189:C:/GitHub/MobRob_Rover_NEW/Steering_Controller/MobRob_Steering_Controller/Dave/Generated/WATCHDOG\watchdog.h **** DAVE_APP_VERSION_t WATCHDOG_GetAppVersion(void);
 190:C:/GitHub/MobRob_Rover_NEW/Steering_Controller/MobRob_Steering_Controller/Dave/Generated/WATCHDOG\watchdog.h **** 
 191:C:/GitHub/MobRob_Rover_NEW/Steering_Controller/MobRob_Steering_Controller/Dave/Generated/WATCHDOG\watchdog.h **** /**
 192:C:/GitHub/MobRob_Rover_NEW/Steering_Controller/MobRob_Steering_Controller/Dave/Generated/WATCHDOG\watchdog.h ****  * @ingroup WATCHDOG_apidoc
 193:C:/GitHub/MobRob_Rover_NEW/Steering_Controller/MobRob_Steering_Controller/Dave/Generated/WATCHDOG\watchdog.h ****  * @{
 194:C:/GitHub/MobRob_Rover_NEW/Steering_Controller/MobRob_Steering_Controller/Dave/Generated/WATCHDOG\watchdog.h ****  */
 195:C:/GitHub/MobRob_Rover_NEW/Steering_Controller/MobRob_Steering_Controller/Dave/Generated/WATCHDOG\watchdog.h **** 
 196:C:/GitHub/MobRob_Rover_NEW/Steering_Controller/MobRob_Steering_Controller/Dave/Generated/WATCHDOG\watchdog.h **** /**
 197:C:/GitHub/MobRob_Rover_NEW/Steering_Controller/MobRob_Steering_Controller/Dave/Generated/WATCHDOG\watchdog.h ****  * @brief Initializes a WATCHDOG with generated configuration.
 198:C:/GitHub/MobRob_Rover_NEW/Steering_Controller/MobRob_Steering_Controller/Dave/Generated/WATCHDOG\watchdog.h ****  *
 199:C:/GitHub/MobRob_Rover_NEW/Steering_Controller/MobRob_Steering_Controller/Dave/Generated/WATCHDOG\watchdog.h ****  * @param handle pointer to the WATCHDOG APP handle structure.
 200:C:/GitHub/MobRob_Rover_NEW/Steering_Controller/MobRob_Steering_Controller/Dave/Generated/WATCHDOG\watchdog.h ****  * @return WATCHDOG_STATUS_t\n
 201:C:/GitHub/MobRob_Rover_NEW/Steering_Controller/MobRob_Steering_Controller/Dave/Generated/WATCHDOG\watchdog.h ****  *         WATCHDOG_STATUS_SUCCESS : if initialization is successful\n
 202:C:/GitHub/MobRob_Rover_NEW/Steering_Controller/MobRob_Steering_Controller/Dave/Generated/WATCHDOG\watchdog.h ****  *         WATCHDOG_STATUS_FAILURE : if initialization is failed
 203:C:/GitHub/MobRob_Rover_NEW/Steering_Controller/MobRob_Steering_Controller/Dave/Generated/WATCHDOG\watchdog.h ****  * <BR>
 204:C:/GitHub/MobRob_Rover_NEW/Steering_Controller/MobRob_Steering_Controller/Dave/Generated/WATCHDOG\watchdog.h ****  * \par<b>Description:</b><br>
 205:C:/GitHub/MobRob_Rover_NEW/Steering_Controller/MobRob_Steering_Controller/Dave/Generated/WATCHDOG\watchdog.h ****  * <ul>
 206:C:/GitHub/MobRob_Rover_NEW/Steering_Controller/MobRob_Steering_Controller/Dave/Generated/WATCHDOG\watchdog.h ****  * <li>Enable the WDT module.</li>
 207:C:/GitHub/MobRob_Rover_NEW/Steering_Controller/MobRob_Steering_Controller/Dave/Generated/WATCHDOG\watchdog.h ****  * <li>Configure the service upper and lower bound settings</li>
 208:C:/GitHub/MobRob_Rover_NEW/Steering_Controller/MobRob_Steering_Controller/Dave/Generated/WATCHDOG\watchdog.h ****  * <li>Configure the Pre-warning alarm event, if enabled</li>
 209:C:/GitHub/MobRob_Rover_NEW/Steering_Controller/MobRob_Steering_Controller/Dave/Generated/WATCHDOG\watchdog.h ****  * </ul>
 210:C:/GitHub/MobRob_Rover_NEW/Steering_Controller/MobRob_Steering_Controller/Dave/Generated/WATCHDOG\watchdog.h ****  *
 211:C:/GitHub/MobRob_Rover_NEW/Steering_Controller/MobRob_Steering_Controller/Dave/Generated/WATCHDOG\watchdog.h ****  * Example Usage:
 212:C:/GitHub/MobRob_Rover_NEW/Steering_Controller/MobRob_Steering_Controller/Dave/Generated/WATCHDOG\watchdog.h ****  *
 213:C:/GitHub/MobRob_Rover_NEW/Steering_Controller/MobRob_Steering_Controller/Dave/Generated/WATCHDOG\watchdog.h ****  * @code
 214:C:/GitHub/MobRob_Rover_NEW/Steering_Controller/MobRob_Steering_Controller/Dave/Generated/WATCHDOG\watchdog.h ****  * #include "DAVE.h"
 215:C:/GitHub/MobRob_Rover_NEW/Steering_Controller/MobRob_Steering_Controller/Dave/Generated/WATCHDOG\watchdog.h ****  * int main(void)
 216:C:/GitHub/MobRob_Rover_NEW/Steering_Controller/MobRob_Steering_Controller/Dave/Generated/WATCHDOG\watchdog.h ****  * {
 217:C:/GitHub/MobRob_Rover_NEW/Steering_Controller/MobRob_Steering_Controller/Dave/Generated/WATCHDOG\watchdog.h ****  *   // ... Initializes Apps configurations ...
 218:C:/GitHub/MobRob_Rover_NEW/Steering_Controller/MobRob_Steering_Controller/Dave/Generated/WATCHDOG\watchdog.h ****  *   DAVE_Init(); // WATCHDOG_Init(&WATCHDOG_0) will be called from DAVE_Init()
 219:C:/GitHub/MobRob_Rover_NEW/Steering_Controller/MobRob_Steering_Controller/Dave/Generated/WATCHDOG\watchdog.h ****  *
 220:C:/GitHub/MobRob_Rover_NEW/Steering_Controller/MobRob_Steering_Controller/Dave/Generated/WATCHDOG\watchdog.h ****  *   while(1U)
 221:C:/GitHub/MobRob_Rover_NEW/Steering_Controller/MobRob_Steering_Controller/Dave/Generated/WATCHDOG\watchdog.h ****  *   {
 222:C:/GitHub/MobRob_Rover_NEW/Steering_Controller/MobRob_Steering_Controller/Dave/Generated/WATCHDOG\watchdog.h ****  *   }
 223:C:/GitHub/MobRob_Rover_NEW/Steering_Controller/MobRob_Steering_Controller/Dave/Generated/WATCHDOG\watchdog.h ****  *
 224:C:/GitHub/MobRob_Rover_NEW/Steering_Controller/MobRob_Steering_Controller/Dave/Generated/WATCHDOG\watchdog.h ****  *   return 1;
 225:C:/GitHub/MobRob_Rover_NEW/Steering_Controller/MobRob_Steering_Controller/Dave/Generated/WATCHDOG\watchdog.h ****  * }
 226:C:/GitHub/MobRob_Rover_NEW/Steering_Controller/MobRob_Steering_Controller/Dave/Generated/WATCHDOG\watchdog.h ****  *
 227:C:/GitHub/MobRob_Rover_NEW/Steering_Controller/MobRob_Steering_Controller/Dave/Generated/WATCHDOG\watchdog.h ****  * @endcode<BR> </p>
 228:C:/GitHub/MobRob_Rover_NEW/Steering_Controller/MobRob_Steering_Controller/Dave/Generated/WATCHDOG\watchdog.h ****  */
 229:C:/GitHub/MobRob_Rover_NEW/Steering_Controller/MobRob_Steering_Controller/Dave/Generated/WATCHDOG\watchdog.h **** WATCHDOG_STATUS_t WATCHDOG_Init(WATCHDOG_t *handle);
 230:C:/GitHub/MobRob_Rover_NEW/Steering_Controller/MobRob_Steering_Controller/Dave/Generated/WATCHDOG\watchdog.h **** 
 231:C:/GitHub/MobRob_Rover_NEW/Steering_Controller/MobRob_Steering_Controller/Dave/Generated/WATCHDOG\watchdog.h **** /**
 232:C:/GitHub/MobRob_Rover_NEW/Steering_Controller/MobRob_Steering_Controller/Dave/Generated/WATCHDOG\watchdog.h ****  * @brief Starts the WATCHDOG timer.
 233:C:/GitHub/MobRob_Rover_NEW/Steering_Controller/MobRob_Steering_Controller/Dave/Generated/WATCHDOG\watchdog.h ****  *
 234:C:/GitHub/MobRob_Rover_NEW/Steering_Controller/MobRob_Steering_Controller/Dave/Generated/WATCHDOG\watchdog.h ****  * @return None
 235:C:/GitHub/MobRob_Rover_NEW/Steering_Controller/MobRob_Steering_Controller/Dave/Generated/WATCHDOG\watchdog.h ****  * <BR>
 236:C:/GitHub/MobRob_Rover_NEW/Steering_Controller/MobRob_Steering_Controller/Dave/Generated/WATCHDOG\watchdog.h ****  * 
 237:C:/GitHub/MobRob_Rover_NEW/Steering_Controller/MobRob_Steering_Controller/Dave/Generated/WATCHDOG\watchdog.h ****  * \par<b>Description:</b><br>
 238:C:/GitHub/MobRob_Rover_NEW/Steering_Controller/MobRob_Steering_Controller/Dave/Generated/WATCHDOG\watchdog.h ****  * After starting, WDT has to be serviced with in the specified service window boundary.
 239:C:/GitHub/MobRob_Rover_NEW/Steering_Controller/MobRob_Steering_Controller/Dave/Generated/WATCHDOG\watchdog.h ****  * This can done by invoking WATCHDOG_Service(). If failed service, leads to system reset.
 240:C:/GitHub/MobRob_Rover_NEW/Steering_Controller/MobRob_Steering_Controller/Dave/Generated/WATCHDOG\watchdog.h ****  *
 241:C:/GitHub/MobRob_Rover_NEW/Steering_Controller/MobRob_Steering_Controller/Dave/Generated/WATCHDOG\watchdog.h ****  * Example Usage:
 242:C:/GitHub/MobRob_Rover_NEW/Steering_Controller/MobRob_Steering_Controller/Dave/Generated/WATCHDOG\watchdog.h ****  *
 243:C:/GitHub/MobRob_Rover_NEW/Steering_Controller/MobRob_Steering_Controller/Dave/Generated/WATCHDOG\watchdog.h ****  * @code
 244:C:/GitHub/MobRob_Rover_NEW/Steering_Controller/MobRob_Steering_Controller/Dave/Generated/WATCHDOG\watchdog.h ****  * #include "DAVE.h"
 245:C:/GitHub/MobRob_Rover_NEW/Steering_Controller/MobRob_Steering_Controller/Dave/Generated/WATCHDOG\watchdog.h ****  * int main(void)
 246:C:/GitHub/MobRob_Rover_NEW/Steering_Controller/MobRob_Steering_Controller/Dave/Generated/WATCHDOG\watchdog.h ****  * {
 247:C:/GitHub/MobRob_Rover_NEW/Steering_Controller/MobRob_Steering_Controller/Dave/Generated/WATCHDOG\watchdog.h ****  *   DAVE_STATUS_t status;
 248:C:/GitHub/MobRob_Rover_NEW/Steering_Controller/MobRob_Steering_Controller/Dave/Generated/WATCHDOG\watchdog.h ****  *
 249:C:/GitHub/MobRob_Rover_NEW/Steering_Controller/MobRob_Steering_Controller/Dave/Generated/WATCHDOG\watchdog.h ****  *   status = DAVE_Init();        // Initialization of DAVE Apps
 250:C:/GitHub/MobRob_Rover_NEW/Steering_Controller/MobRob_Steering_Controller/Dave/Generated/WATCHDOG\watchdog.h ****  *
 251:C:/GitHub/MobRob_Rover_NEW/Steering_Controller/MobRob_Steering_Controller/Dave/Generated/WATCHDOG\watchdog.h ****  *   if(status == DAVE_STATUS_SUCCESS)
 252:C:/GitHub/MobRob_Rover_NEW/Steering_Controller/MobRob_Steering_Controller/Dave/Generated/WATCHDOG\watchdog.h ****  *   {
 253:C:/GitHub/MobRob_Rover_NEW/Steering_Controller/MobRob_Steering_Controller/Dave/Generated/WATCHDOG\watchdog.h ****  *     WATCHDOG_Start(); // Start the watchdog timer
 254:C:/GitHub/MobRob_Rover_NEW/Steering_Controller/MobRob_Steering_Controller/Dave/Generated/WATCHDOG\watchdog.h ****  *   }
 255:C:/GitHub/MobRob_Rover_NEW/Steering_Controller/MobRob_Steering_Controller/Dave/Generated/WATCHDOG\watchdog.h ****  *
 256:C:/GitHub/MobRob_Rover_NEW/Steering_Controller/MobRob_Steering_Controller/Dave/Generated/WATCHDOG\watchdog.h ****  *   while(1U)
 257:C:/GitHub/MobRob_Rover_NEW/Steering_Controller/MobRob_Steering_Controller/Dave/Generated/WATCHDOG\watchdog.h ****  *   {
 258:C:/GitHub/MobRob_Rover_NEW/Steering_Controller/MobRob_Steering_Controller/Dave/Generated/WATCHDOG\watchdog.h ****  *   }
 259:C:/GitHub/MobRob_Rover_NEW/Steering_Controller/MobRob_Steering_Controller/Dave/Generated/WATCHDOG\watchdog.h ****  *
 260:C:/GitHub/MobRob_Rover_NEW/Steering_Controller/MobRob_Steering_Controller/Dave/Generated/WATCHDOG\watchdog.h ****  *   return 1;
 261:C:/GitHub/MobRob_Rover_NEW/Steering_Controller/MobRob_Steering_Controller/Dave/Generated/WATCHDOG\watchdog.h ****  * }
 262:C:/GitHub/MobRob_Rover_NEW/Steering_Controller/MobRob_Steering_Controller/Dave/Generated/WATCHDOG\watchdog.h ****  *
 263:C:/GitHub/MobRob_Rover_NEW/Steering_Controller/MobRob_Steering_Controller/Dave/Generated/WATCHDOG\watchdog.h ****  * void Watchdog_Handler(void)
 264:C:/GitHub/MobRob_Rover_NEW/Steering_Controller/MobRob_Steering_Controller/Dave/Generated/WATCHDOG\watchdog.h ****  * {
 265:C:/GitHub/MobRob_Rover_NEW/Steering_Controller/MobRob_Steering_Controller/Dave/Generated/WATCHDOG\watchdog.h ****  *   WATCHDOG_Service(); //service the watchdog timer.
 266:C:/GitHub/MobRob_Rover_NEW/Steering_Controller/MobRob_Steering_Controller/Dave/Generated/WATCHDOG\watchdog.h ****  *   WATCHDOG_Stop();
 267:C:/GitHub/MobRob_Rover_NEW/Steering_Controller/MobRob_Steering_Controller/Dave/Generated/WATCHDOG\watchdog.h ****  * }
 268:C:/GitHub/MobRob_Rover_NEW/Steering_Controller/MobRob_Steering_Controller/Dave/Generated/WATCHDOG\watchdog.h ****  *
 269:C:/GitHub/MobRob_Rover_NEW/Steering_Controller/MobRob_Steering_Controller/Dave/Generated/WATCHDOG\watchdog.h ****  * @endcode<BR> </p>
 270:C:/GitHub/MobRob_Rover_NEW/Steering_Controller/MobRob_Steering_Controller/Dave/Generated/WATCHDOG\watchdog.h ****  */
 271:C:/GitHub/MobRob_Rover_NEW/Steering_Controller/MobRob_Steering_Controller/Dave/Generated/WATCHDOG\watchdog.h **** __STATIC_INLINE void WATCHDOG_Start(void)
 272:C:/GitHub/MobRob_Rover_NEW/Steering_Controller/MobRob_Steering_Controller/Dave/Generated/WATCHDOG\watchdog.h **** {
 273:C:/GitHub/MobRob_Rover_NEW/Steering_Controller/MobRob_Steering_Controller/Dave/Generated/WATCHDOG\watchdog.h ****   XMC_WDT_Start();
 274:C:/GitHub/MobRob_Rover_NEW/Steering_Controller/MobRob_Steering_Controller/Dave/Generated/WATCHDOG\watchdog.h **** }
 275:C:/GitHub/MobRob_Rover_NEW/Steering_Controller/MobRob_Steering_Controller/Dave/Generated/WATCHDOG\watchdog.h **** 
 276:C:/GitHub/MobRob_Rover_NEW/Steering_Controller/MobRob_Steering_Controller/Dave/Generated/WATCHDOG\watchdog.h **** /**
 277:C:/GitHub/MobRob_Rover_NEW/Steering_Controller/MobRob_Steering_Controller/Dave/Generated/WATCHDOG\watchdog.h ****  * @brief Stops the WATCHDOG timer.
 278:C:/GitHub/MobRob_Rover_NEW/Steering_Controller/MobRob_Steering_Controller/Dave/Generated/WATCHDOG\watchdog.h ****  *
 279:C:/GitHub/MobRob_Rover_NEW/Steering_Controller/MobRob_Steering_Controller/Dave/Generated/WATCHDOG\watchdog.h ****  * @return None
 280:C:/GitHub/MobRob_Rover_NEW/Steering_Controller/MobRob_Steering_Controller/Dave/Generated/WATCHDOG\watchdog.h ****  *            <BR>
 281:C:/GitHub/MobRob_Rover_NEW/Steering_Controller/MobRob_Steering_Controller/Dave/Generated/WATCHDOG\watchdog.h ****  *
 282:C:/GitHub/MobRob_Rover_NEW/Steering_Controller/MobRob_Steering_Controller/Dave/Generated/WATCHDOG\watchdog.h ****  * \par<b>Description:</b><br>
 283:C:/GitHub/MobRob_Rover_NEW/Steering_Controller/MobRob_Steering_Controller/Dave/Generated/WATCHDOG\watchdog.h ****  * WATCHDOG_Stop() can be used to pause the watchog timer as needed. To resume invoke WATCHDOG_Star
 284:C:/GitHub/MobRob_Rover_NEW/Steering_Controller/MobRob_Steering_Controller/Dave/Generated/WATCHDOG\watchdog.h ****  * 
 285:C:/GitHub/MobRob_Rover_NEW/Steering_Controller/MobRob_Steering_Controller/Dave/Generated/WATCHDOG\watchdog.h ****  * Example Usage:
 286:C:/GitHub/MobRob_Rover_NEW/Steering_Controller/MobRob_Steering_Controller/Dave/Generated/WATCHDOG\watchdog.h ****  *
 287:C:/GitHub/MobRob_Rover_NEW/Steering_Controller/MobRob_Steering_Controller/Dave/Generated/WATCHDOG\watchdog.h ****  * @code
 288:C:/GitHub/MobRob_Rover_NEW/Steering_Controller/MobRob_Steering_Controller/Dave/Generated/WATCHDOG\watchdog.h ****  * #include "DAVE.h"
 289:C:/GitHub/MobRob_Rover_NEW/Steering_Controller/MobRob_Steering_Controller/Dave/Generated/WATCHDOG\watchdog.h ****  * int main(void)
 290:C:/GitHub/MobRob_Rover_NEW/Steering_Controller/MobRob_Steering_Controller/Dave/Generated/WATCHDOG\watchdog.h ****  * {
 291:C:/GitHub/MobRob_Rover_NEW/Steering_Controller/MobRob_Steering_Controller/Dave/Generated/WATCHDOG\watchdog.h ****  *   DAVE_STATUS_t status;
 292:C:/GitHub/MobRob_Rover_NEW/Steering_Controller/MobRob_Steering_Controller/Dave/Generated/WATCHDOG\watchdog.h ****  *
 293:C:/GitHub/MobRob_Rover_NEW/Steering_Controller/MobRob_Steering_Controller/Dave/Generated/WATCHDOG\watchdog.h ****  *   status = DAVE_Init();        // Initialization of DAVE Apps
 294:C:/GitHub/MobRob_Rover_NEW/Steering_Controller/MobRob_Steering_Controller/Dave/Generated/WATCHDOG\watchdog.h ****  *
 295:C:/GitHub/MobRob_Rover_NEW/Steering_Controller/MobRob_Steering_Controller/Dave/Generated/WATCHDOG\watchdog.h ****  *   if(status == DAVE_STATUS_SUCCESS)
 296:C:/GitHub/MobRob_Rover_NEW/Steering_Controller/MobRob_Steering_Controller/Dave/Generated/WATCHDOG\watchdog.h ****  *   {
 297:C:/GitHub/MobRob_Rover_NEW/Steering_Controller/MobRob_Steering_Controller/Dave/Generated/WATCHDOG\watchdog.h ****  *     WATCHDOG_Start(); // Start the watchdog timer
 298:C:/GitHub/MobRob_Rover_NEW/Steering_Controller/MobRob_Steering_Controller/Dave/Generated/WATCHDOG\watchdog.h ****  *   }
 299:C:/GitHub/MobRob_Rover_NEW/Steering_Controller/MobRob_Steering_Controller/Dave/Generated/WATCHDOG\watchdog.h ****  *
 300:C:/GitHub/MobRob_Rover_NEW/Steering_Controller/MobRob_Steering_Controller/Dave/Generated/WATCHDOG\watchdog.h ****  *   while(1U)
 301:C:/GitHub/MobRob_Rover_NEW/Steering_Controller/MobRob_Steering_Controller/Dave/Generated/WATCHDOG\watchdog.h ****  *   {
 302:C:/GitHub/MobRob_Rover_NEW/Steering_Controller/MobRob_Steering_Controller/Dave/Generated/WATCHDOG\watchdog.h ****  *   }
 303:C:/GitHub/MobRob_Rover_NEW/Steering_Controller/MobRob_Steering_Controller/Dave/Generated/WATCHDOG\watchdog.h ****  *
 304:C:/GitHub/MobRob_Rover_NEW/Steering_Controller/MobRob_Steering_Controller/Dave/Generated/WATCHDOG\watchdog.h ****  *   return 1;
 305:C:/GitHub/MobRob_Rover_NEW/Steering_Controller/MobRob_Steering_Controller/Dave/Generated/WATCHDOG\watchdog.h ****  * }
 306:C:/GitHub/MobRob_Rover_NEW/Steering_Controller/MobRob_Steering_Controller/Dave/Generated/WATCHDOG\watchdog.h ****  *
 307:C:/GitHub/MobRob_Rover_NEW/Steering_Controller/MobRob_Steering_Controller/Dave/Generated/WATCHDOG\watchdog.h ****  * void Watchdog_Handler(void)
 308:C:/GitHub/MobRob_Rover_NEW/Steering_Controller/MobRob_Steering_Controller/Dave/Generated/WATCHDOG\watchdog.h ****  * {
 309:C:/GitHub/MobRob_Rover_NEW/Steering_Controller/MobRob_Steering_Controller/Dave/Generated/WATCHDOG\watchdog.h ****  *   WATCHDOG_ClearAlarm(); //clears the alarm flag
 310:C:/GitHub/MobRob_Rover_NEW/Steering_Controller/MobRob_Steering_Controller/Dave/Generated/WATCHDOG\watchdog.h ****  *   WATCHDOG_Service(); //service the watchdog timer.
 311:C:/GitHub/MobRob_Rover_NEW/Steering_Controller/MobRob_Steering_Controller/Dave/Generated/WATCHDOG\watchdog.h ****  *   WATCHDOG_Stop(); //Stop the watchdog timer
 312:C:/GitHub/MobRob_Rover_NEW/Steering_Controller/MobRob_Steering_Controller/Dave/Generated/WATCHDOG\watchdog.h ****  * }
 313:C:/GitHub/MobRob_Rover_NEW/Steering_Controller/MobRob_Steering_Controller/Dave/Generated/WATCHDOG\watchdog.h ****  *
 314:C:/GitHub/MobRob_Rover_NEW/Steering_Controller/MobRob_Steering_Controller/Dave/Generated/WATCHDOG\watchdog.h ****  * @endcode<BR> </p>
 315:C:/GitHub/MobRob_Rover_NEW/Steering_Controller/MobRob_Steering_Controller/Dave/Generated/WATCHDOG\watchdog.h ****  */
 316:C:/GitHub/MobRob_Rover_NEW/Steering_Controller/MobRob_Steering_Controller/Dave/Generated/WATCHDOG\watchdog.h **** __STATIC_INLINE void WATCHDOG_Stop(void)
 317:C:/GitHub/MobRob_Rover_NEW/Steering_Controller/MobRob_Steering_Controller/Dave/Generated/WATCHDOG\watchdog.h **** {
 318:C:/GitHub/MobRob_Rover_NEW/Steering_Controller/MobRob_Steering_Controller/Dave/Generated/WATCHDOG\watchdog.h ****   XMC_WDT_Stop();
 319:C:/GitHub/MobRob_Rover_NEW/Steering_Controller/MobRob_Steering_Controller/Dave/Generated/WATCHDOG\watchdog.h **** }
 320:C:/GitHub/MobRob_Rover_NEW/Steering_Controller/MobRob_Steering_Controller/Dave/Generated/WATCHDOG\watchdog.h **** 
 321:C:/GitHub/MobRob_Rover_NEW/Steering_Controller/MobRob_Steering_Controller/Dave/Generated/WATCHDOG\watchdog.h **** /**
 322:C:/GitHub/MobRob_Rover_NEW/Steering_Controller/MobRob_Steering_Controller/Dave/Generated/WATCHDOG\watchdog.h ****  * @brief Service the WATCHDOG timer.
 323:C:/GitHub/MobRob_Rover_NEW/Steering_Controller/MobRob_Steering_Controller/Dave/Generated/WATCHDOG\watchdog.h ****  *
 324:C:/GitHub/MobRob_Rover_NEW/Steering_Controller/MobRob_Steering_Controller/Dave/Generated/WATCHDOG\watchdog.h ****  * @return    None                           
 325:C:/GitHub/MobRob_Rover_NEW/Steering_Controller/MobRob_Steering_Controller/Dave/Generated/WATCHDOG\watchdog.h ****  *            <BR>
 326:C:/GitHub/MobRob_Rover_NEW/Steering_Controller/MobRob_Steering_Controller/Dave/Generated/WATCHDOG\watchdog.h ****  *
 327:C:/GitHub/MobRob_Rover_NEW/Steering_Controller/MobRob_Steering_Controller/Dave/Generated/WATCHDOG\watchdog.h ****  * \par<b>Description:</b><br>
 328:C:/GitHub/MobRob_Rover_NEW/Steering_Controller/MobRob_Steering_Controller/Dave/Generated/WATCHDOG\watchdog.h ****  * WATCHDOG_Service() will reset the watchdog timer.
 329:C:/GitHub/MobRob_Rover_NEW/Steering_Controller/MobRob_Steering_Controller/Dave/Generated/WATCHDOG\watchdog.h ****  *
 330:C:/GitHub/MobRob_Rover_NEW/Steering_Controller/MobRob_Steering_Controller/Dave/Generated/WATCHDOG\watchdog.h ****  * Example Usage:
 331:C:/GitHub/MobRob_Rover_NEW/Steering_Controller/MobRob_Steering_Controller/Dave/Generated/WATCHDOG\watchdog.h ****  * 
 332:C:/GitHub/MobRob_Rover_NEW/Steering_Controller/MobRob_Steering_Controller/Dave/Generated/WATCHDOG\watchdog.h ****  * @code
 333:C:/GitHub/MobRob_Rover_NEW/Steering_Controller/MobRob_Steering_Controller/Dave/Generated/WATCHDOG\watchdog.h ****  * #include "DAVE.h"
 334:C:/GitHub/MobRob_Rover_NEW/Steering_Controller/MobRob_Steering_Controller/Dave/Generated/WATCHDOG\watchdog.h ****  * int main(void)
 335:C:/GitHub/MobRob_Rover_NEW/Steering_Controller/MobRob_Steering_Controller/Dave/Generated/WATCHDOG\watchdog.h ****  * {
 336:C:/GitHub/MobRob_Rover_NEW/Steering_Controller/MobRob_Steering_Controller/Dave/Generated/WATCHDOG\watchdog.h ****  *   DAVE_STATUS_t status;
 337:C:/GitHub/MobRob_Rover_NEW/Steering_Controller/MobRob_Steering_Controller/Dave/Generated/WATCHDOG\watchdog.h ****  *
 338:C:/GitHub/MobRob_Rover_NEW/Steering_Controller/MobRob_Steering_Controller/Dave/Generated/WATCHDOG\watchdog.h ****  *   status = DAVE_Init();        // Initialization of DAVE Apps
 339:C:/GitHub/MobRob_Rover_NEW/Steering_Controller/MobRob_Steering_Controller/Dave/Generated/WATCHDOG\watchdog.h ****  *
 340:C:/GitHub/MobRob_Rover_NEW/Steering_Controller/MobRob_Steering_Controller/Dave/Generated/WATCHDOG\watchdog.h ****  *   if(status == DAVE_STATUS_SUCCESS)
 341:C:/GitHub/MobRob_Rover_NEW/Steering_Controller/MobRob_Steering_Controller/Dave/Generated/WATCHDOG\watchdog.h ****  *   {
 342:C:/GitHub/MobRob_Rover_NEW/Steering_Controller/MobRob_Steering_Controller/Dave/Generated/WATCHDOG\watchdog.h ****  *     WATCHDOG_Start(); // Start the watchdog timer
 343:C:/GitHub/MobRob_Rover_NEW/Steering_Controller/MobRob_Steering_Controller/Dave/Generated/WATCHDOG\watchdog.h ****  *   }
 344:C:/GitHub/MobRob_Rover_NEW/Steering_Controller/MobRob_Steering_Controller/Dave/Generated/WATCHDOG\watchdog.h ****  *
 345:C:/GitHub/MobRob_Rover_NEW/Steering_Controller/MobRob_Steering_Controller/Dave/Generated/WATCHDOG\watchdog.h ****  *   while(1U)
 346:C:/GitHub/MobRob_Rover_NEW/Steering_Controller/MobRob_Steering_Controller/Dave/Generated/WATCHDOG\watchdog.h ****  *   {
 347:C:/GitHub/MobRob_Rover_NEW/Steering_Controller/MobRob_Steering_Controller/Dave/Generated/WATCHDOG\watchdog.h ****  *   }
 348:C:/GitHub/MobRob_Rover_NEW/Steering_Controller/MobRob_Steering_Controller/Dave/Generated/WATCHDOG\watchdog.h ****  *
 349:C:/GitHub/MobRob_Rover_NEW/Steering_Controller/MobRob_Steering_Controller/Dave/Generated/WATCHDOG\watchdog.h ****  *   return 1;
 350:C:/GitHub/MobRob_Rover_NEW/Steering_Controller/MobRob_Steering_Controller/Dave/Generated/WATCHDOG\watchdog.h ****  * }
 351:C:/GitHub/MobRob_Rover_NEW/Steering_Controller/MobRob_Steering_Controller/Dave/Generated/WATCHDOG\watchdog.h ****  *
 352:C:/GitHub/MobRob_Rover_NEW/Steering_Controller/MobRob_Steering_Controller/Dave/Generated/WATCHDOG\watchdog.h ****  * void Watchdog_Handler(void)
 353:C:/GitHub/MobRob_Rover_NEW/Steering_Controller/MobRob_Steering_Controller/Dave/Generated/WATCHDOG\watchdog.h ****  * {
 354:C:/GitHub/MobRob_Rover_NEW/Steering_Controller/MobRob_Steering_Controller/Dave/Generated/WATCHDOG\watchdog.h ****  *   WATCHDOG_ClearAlarm(); //clears the alarm flag
 355:C:/GitHub/MobRob_Rover_NEW/Steering_Controller/MobRob_Steering_Controller/Dave/Generated/WATCHDOG\watchdog.h ****  *   WATCHDOG_Service(); //service the watchdog timer.
 356:C:/GitHub/MobRob_Rover_NEW/Steering_Controller/MobRob_Steering_Controller/Dave/Generated/WATCHDOG\watchdog.h ****  *   WATCHDOG_Stop();
 357:C:/GitHub/MobRob_Rover_NEW/Steering_Controller/MobRob_Steering_Controller/Dave/Generated/WATCHDOG\watchdog.h ****  * }
 358:C:/GitHub/MobRob_Rover_NEW/Steering_Controller/MobRob_Steering_Controller/Dave/Generated/WATCHDOG\watchdog.h ****  *
 359:C:/GitHub/MobRob_Rover_NEW/Steering_Controller/MobRob_Steering_Controller/Dave/Generated/WATCHDOG\watchdog.h ****  * @endcode<BR> </p>
 360:C:/GitHub/MobRob_Rover_NEW/Steering_Controller/MobRob_Steering_Controller/Dave/Generated/WATCHDOG\watchdog.h ****  */
 361:C:/GitHub/MobRob_Rover_NEW/Steering_Controller/MobRob_Steering_Controller/Dave/Generated/WATCHDOG\watchdog.h **** __STATIC_INLINE void WATCHDOG_Service(void)
 362:C:/GitHub/MobRob_Rover_NEW/Steering_Controller/MobRob_Steering_Controller/Dave/Generated/WATCHDOG\watchdog.h **** {
 214              	 .loc 4 362 0
 215              	 .cfi_startproc
 216 0000 80B5     	 push {r7,lr}
 217              	.LCFI14:
 218              	 .cfi_def_cfa_offset 8
 219              	 .cfi_offset 7,-8
 220              	 .cfi_offset 14,-4
 221 0002 00AF     	 add r7,sp,#0
 222              	.LCFI15:
 223              	 .cfi_def_cfa_register 7
 363:C:/GitHub/MobRob_Rover_NEW/Steering_Controller/MobRob_Steering_Controller/Dave/Generated/WATCHDOG\watchdog.h ****   XMC_WDT_Service();
 224              	 .loc 4 363 0
 225 0004 FFF7FEFF 	 bl XMC_WDT_Service
 364:C:/GitHub/MobRob_Rover_NEW/Steering_Controller/MobRob_Steering_Controller/Dave/Generated/WATCHDOG\watchdog.h **** }
 226              	 .loc 4 364 0
 227 0008 BD46     	 mov sp,r7
 228              	 
 229 000a 80BD     	 pop {r7,pc}
 230              	 .cfi_endproc
 231              	.LFE221:
 233              	 .comm RC_controll,1,1
 234              	 .global distance_fl_act
 235              	 .section .bss.distance_fl_act,"aw",%nobits
 236              	 .align 2
 239              	distance_fl_act:
 240 0000 00000000 	 .space 4
 241              	 .global distance_fr_act
 242              	 .section .bss.distance_fr_act,"aw",%nobits
 243              	 .align 2
 246              	distance_fr_act:
 247 0000 00000000 	 .space 4
 248              	 .global distance_rl_act
 249              	 .section .bss.distance_rl_act,"aw",%nobits
 250              	 .align 2
 253              	distance_rl_act:
 254 0000 00000000 	 .space 4
 255              	 .global distance_rr_act
 256              	 .section .bss.distance_rr_act,"aw",%nobits
 257              	 .align 2
 260              	distance_rr_act:
 261 0000 00000000 	 .space 4
 262              	 .global Inveter_CAN_OK
 263              	 .section .bss.Inveter_CAN_OK,"aw",%nobits
 264              	 .align 2
 267              	Inveter_CAN_OK:
 268 0000 00000000 	 .space 4
 269              	 .global CAN_RX_Inverter_count
 270              	 .section .bss.CAN_RX_Inverter_count,"aw",%nobits
 273              	CAN_RX_Inverter_count:
 274 0000 00       	 .space 1
 275              	 .global CAN_Ultrasonic_No_messasge_count
 276              	 .section .data.CAN_Ultrasonic_No_messasge_count,"aw",%progbits
 279              	CAN_Ultrasonic_No_messasge_count:
 280 0000 64       	 .byte 100
 281              	 .global CAN_state_Ultrasonic
 282              	 .section .bss.CAN_state_Ultrasonic,"aw",%nobits
 285              	CAN_state_Ultrasonic:
 286 0000 00       	 .space 1
 287              	 .global Ultrasonic_cm_C
 288              	 .section .bss.Ultrasonic_cm_C,"aw",%nobits
 289              	 .align 1
 292              	Ultrasonic_cm_C:
 293 0000 0000     	 .space 2
 294              	 .global Ultrasonic_cm_L
 295              	 .section .bss.Ultrasonic_cm_L,"aw",%nobits
 296              	 .align 1
 299              	Ultrasonic_cm_L:
 300 0000 0000     	 .space 2
 301              	 .global Ultrasonic_cm_R
 302              	 .section .bss.Ultrasonic_cm_R,"aw",%nobits
 303              	 .align 1
 306              	Ultrasonic_cm_R:
 307 0000 0000     	 .space 2
 308              	 .section .text.CAN_reset_distance,"ax",%progbits
 309              	 .align 2
 310              	 .global CAN_reset_distance
 311              	 .code 16
 312              	 .thumb_func
 314              	CAN_reset_distance:
 315              	.LFB224:
 316              	 .file 5 "../CAN.c"
   1:../CAN.c      **** /*
   2:../CAN.c      ****  * CAN.c
   3:../CAN.c      **** 
   4:../CAN.c      ****  *
   5:../CAN.c      ****  *  Created on: 1 Jul 2022
   6:../CAN.c      ****  *      Author: lukas
   7:../CAN.c      ****  */
   8:../CAN.c      **** #include "CAN.h"
   9:../CAN.c      **** 
  10:../CAN.c      **** 
  11:../CAN.c      **** //float speed_fl_act = 0, speed_fr_act = 0, speed_rl_act = 0, speed_rr_act = 0; // in m/s
  12:../CAN.c      **** float distance_fl_act = 0, distance_fr_act = 0;
  13:../CAN.c      **** float distance_rl_act = 0;
  14:../CAN.c      **** float distance_rr_act = 0; // in m/s
  15:../CAN.c      **** 
  16:../CAN.c      **** volatile uint8_t Inveter_CAN_OK[4] = {0};
  17:../CAN.c      **** volatile uint8_t CAN_RX_Inverter_count = 0;
  18:../CAN.c      **** 
  19:../CAN.c      **** 
  20:../CAN.c      **** volatile uint8_t CAN_Ultrasonic_No_messasge_count = 100;
  21:../CAN.c      **** volatile uint8_t CAN_state_Ultrasonic = 0;
  22:../CAN.c      **** volatile uint16_t Ultrasonic_cm_C = 0;
  23:../CAN.c      **** volatile uint16_t Ultrasonic_cm_L = 0;
  24:../CAN.c      **** volatile uint16_t Ultrasonic_cm_R = 0;
  25:../CAN.c      **** 
  26:../CAN.c      **** void CAN_reset_distance(uint8_t distance_to_reset[4]){
 317              	 .loc 5 26 0
 318              	 .cfi_startproc
 319 0000 80B5     	 push {r7,lr}
 320              	.LCFI16:
 321              	 .cfi_def_cfa_offset 8
 322              	 .cfi_offset 7,-8
 323              	 .cfi_offset 14,-4
 324 0002 86B0     	 sub sp,sp,#24
 325              	.LCFI17:
 326              	 .cfi_def_cfa_offset 32
 327 0004 00AF     	 add r7,sp,#0
 328              	.LCFI18:
 329              	 .cfi_def_cfa_register 7
 330 0006 7860     	 str r0,[r7,#4]
  27:../CAN.c      **** 	uint8_t TX[8] ={0};
 331              	 .loc 5 27 0
 332 0008 0C23     	 mov r3,#12
 333 000a FB18     	 add r3,r7,r3
 334 000c 0022     	 mov r2,#0
 335 000e 1A60     	 str r2,[r3]
 336 0010 0022     	 mov r2,#0
 337 0012 5A60     	 str r2,[r3,#4]
  28:../CAN.c      **** 	uint8_t i;
  29:../CAN.c      **** 	for(i = 0; i < 4; i++){	TX[i] = distance_to_reset[i];}
 338              	 .loc 5 29 0
 339 0014 1723     	 mov r3,#23
 340 0016 FB18     	 add r3,r7,r3
 341 0018 0022     	 mov r2,#0
 342 001a 1A70     	 strb r2,[r3]
 343 001c 12E0     	 b .L10
 344              	.L11:
 345              	 .loc 5 29 0 is_stmt 0 discriminator 3
 346 001e 1723     	 mov r3,#23
 347 0020 FB18     	 add r3,r7,r3
 348 0022 1B78     	 ldrb r3,[r3]
 349 0024 1722     	 mov r2,#23
 350 0026 BA18     	 add r2,r7,r2
 351 0028 1278     	 ldrb r2,[r2]
 352 002a 7968     	 ldr r1,[r7,#4]
 353 002c 8A18     	 add r2,r1,r2
 354 002e 1178     	 ldrb r1,[r2]
 355 0030 0C22     	 mov r2,#12
 356 0032 BA18     	 add r2,r7,r2
 357 0034 D154     	 strb r1,[r2,r3]
 358 0036 1723     	 mov r3,#23
 359 0038 FB18     	 add r3,r7,r3
 360 003a 1A78     	 ldrb r2,[r3]
 361 003c 1723     	 mov r3,#23
 362 003e FB18     	 add r3,r7,r3
 363 0040 0132     	 add r2,r2,#1
 364 0042 1A70     	 strb r2,[r3]
 365              	.L10:
 366              	 .loc 5 29 0 discriminator 1
 367 0044 1723     	 mov r3,#23
 368 0046 FB18     	 add r3,r7,r3
 369 0048 1B78     	 ldrb r3,[r3]
 370 004a 032B     	 cmp r3,#3
 371 004c E7D9     	 bls .L11
  30:../CAN.c      **** 
  31:../CAN.c      **** 	CAN_NODE_MO_UpdateData((void*) CAN_NODE_0.lmobj_ptr[1], (uint8_t*)TX);
 372              	 .loc 5 31 0 is_stmt 1
 373 004e 084B     	 ldr r3,.L12
 374 0050 1A69     	 ldr r2,[r3,#16]
 375 0052 0C23     	 mov r3,#12
 376 0054 FB18     	 add r3,r7,r3
 377 0056 101C     	 mov r0,r2
 378 0058 191C     	 mov r1,r3
 379 005a FFF7FEFF 	 bl CAN_NODE_MO_UpdateData
  32:../CAN.c      **** 	CAN_NODE_MO_Transmit((void*) CAN_NODE_0.lmobj_ptr[1]); //Transmit the data of message object1
 380              	 .loc 5 32 0
 381 005e 044B     	 ldr r3,.L12
 382 0060 1B69     	 ldr r3,[r3,#16]
 383 0062 181C     	 mov r0,r3
 384 0064 FFF7FEFF 	 bl CAN_NODE_MO_Transmit
  33:../CAN.c      **** }
 385              	 .loc 5 33 0
 386 0068 BD46     	 mov sp,r7
 387 006a 06B0     	 add sp,sp,#24
 388              	 
 389 006c 80BD     	 pop {r7,pc}
 390              	.L13:
 391 006e C046     	 .align 2
 392              	.L12:
 393 0070 00000000 	 .word CAN_NODE_0
 394              	 .cfi_endproc
 395              	.LFE224:
 397              	 .global __aeabi_fmul
 398              	 .global __aeabi_f2iz
 399              	 .section .text.CAN_send_Speeds,"ax",%progbits
 400              	 .align 2
 401              	 .global CAN_send_Speeds
 402              	 .code 16
 403              	 .thumb_func
 405              	CAN_send_Speeds:
 406              	.LFB225:
  34:../CAN.c      **** 
  35:../CAN.c      **** void CAN_send_Speeds(float Speed_data[4]){
 407              	 .loc 5 35 0
 408              	 .cfi_startproc
 409 0000 80B5     	 push {r7,lr}
 410              	.LCFI19:
 411              	 .cfi_def_cfa_offset 8
 412              	 .cfi_offset 7,-8
 413              	 .cfi_offset 14,-4
 414 0002 84B0     	 sub sp,sp,#16
 415              	.LCFI20:
 416              	 .cfi_def_cfa_offset 24
 417 0004 00AF     	 add r7,sp,#0
 418              	.LCFI21:
 419              	 .cfi_def_cfa_register 7
 420 0006 7860     	 str r0,[r7,#4]
  36:../CAN.c      **** 
  37:../CAN.c      **** 	int16_t Speeds_int16[4] ={Speed_data[0] *1000, Speed_data[1] *1000, Speed_data[2] *1000, Speed_dat
 421              	 .loc 5 37 0
 422 0008 7B68     	 ldr r3,[r7,#4]
 423 000a 1B68     	 ldr r3,[r3]
 424 000c 181C     	 add r0,r3,#0
 425 000e 2649     	 ldr r1,.L15
 426 0010 FFF7FEFF 	 bl __aeabi_fmul
 427 0014 031C     	 add r3,r0,#0
 428 0016 181C     	 add r0,r3,#0
 429 0018 FFF7FEFF 	 bl __aeabi_f2iz
 430 001c 031C     	 mov r3,r0
 431 001e 9AB2     	 uxth r2,r3
 432 0020 0823     	 mov r3,#8
 433 0022 FB18     	 add r3,r7,r3
 434 0024 1A80     	 strh r2,[r3]
 435 0026 7B68     	 ldr r3,[r7,#4]
 436 0028 0433     	 add r3,r3,#4
 437 002a 1B68     	 ldr r3,[r3]
 438 002c 181C     	 add r0,r3,#0
 439 002e 1E49     	 ldr r1,.L15
 440 0030 FFF7FEFF 	 bl __aeabi_fmul
 441 0034 031C     	 add r3,r0,#0
 442 0036 181C     	 add r0,r3,#0
 443 0038 FFF7FEFF 	 bl __aeabi_f2iz
 444 003c 031C     	 mov r3,r0
 445 003e 9AB2     	 uxth r2,r3
 446 0040 0823     	 mov r3,#8
 447 0042 FB18     	 add r3,r7,r3
 448 0044 5A80     	 strh r2,[r3,#2]
 449 0046 7B68     	 ldr r3,[r7,#4]
 450 0048 0833     	 add r3,r3,#8
 451 004a 1B68     	 ldr r3,[r3]
 452 004c 181C     	 add r0,r3,#0
 453 004e 1649     	 ldr r1,.L15
 454 0050 FFF7FEFF 	 bl __aeabi_fmul
 455 0054 031C     	 add r3,r0,#0
 456 0056 181C     	 add r0,r3,#0
 457 0058 FFF7FEFF 	 bl __aeabi_f2iz
 458 005c 031C     	 mov r3,r0
 459 005e 9AB2     	 uxth r2,r3
 460 0060 0823     	 mov r3,#8
 461 0062 FB18     	 add r3,r7,r3
 462 0064 9A80     	 strh r2,[r3,#4]
 463 0066 7B68     	 ldr r3,[r7,#4]
 464 0068 0C33     	 add r3,r3,#12
 465 006a 1B68     	 ldr r3,[r3]
 466 006c 181C     	 add r0,r3,#0
 467 006e 0E49     	 ldr r1,.L15
 468 0070 FFF7FEFF 	 bl __aeabi_fmul
 469 0074 031C     	 add r3,r0,#0
 470 0076 181C     	 add r0,r3,#0
 471 0078 FFF7FEFF 	 bl __aeabi_f2iz
 472 007c 031C     	 mov r3,r0
 473 007e 9AB2     	 uxth r2,r3
 474 0080 0823     	 mov r3,#8
 475 0082 FB18     	 add r3,r7,r3
 476 0084 DA80     	 strh r2,[r3,#6]
  38:../CAN.c      **** 
  39:../CAN.c      **** 	CAN_NODE_MO_UpdateData((void*) CAN_NODE_0.lmobj_ptr[0], (uint8_t*)Speeds_int16);
 477              	 .loc 5 39 0
 478 0086 094B     	 ldr r3,.L15+4
 479 0088 DA68     	 ldr r2,[r3,#12]
 480 008a 0823     	 mov r3,#8
 481 008c FB18     	 add r3,r7,r3
 482 008e 101C     	 mov r0,r2
 483 0090 191C     	 mov r1,r3
 484 0092 FFF7FEFF 	 bl CAN_NODE_MO_UpdateData
  40:../CAN.c      **** 	CAN_NODE_MO_Transmit((void*) CAN_NODE_0.lmobj_ptr[0]); //Transmit the data of message object1
 485              	 .loc 5 40 0
 486 0096 054B     	 ldr r3,.L15+4
 487 0098 DB68     	 ldr r3,[r3,#12]
 488 009a 181C     	 mov r0,r3
 489 009c FFF7FEFF 	 bl CAN_NODE_MO_Transmit
  41:../CAN.c      **** 
  42:../CAN.c      **** }
 490              	 .loc 5 42 0
 491 00a0 BD46     	 mov sp,r7
 492 00a2 04B0     	 add sp,sp,#16
 493              	 
 494 00a4 80BD     	 pop {r7,pc}
 495              	.L16:
 496 00a6 C046     	 .align 2
 497              	.L15:
 498 00a8 00007A44 	 .word 1148846080
 499 00ac 00000000 	 .word CAN_NODE_0
 500              	 .cfi_endproc
 501              	.LFE225:
 503              	 .section .text.IRQ3_Handler,"ax",%progbits
 504              	 .align 2
 505              	 .global IRQ3_Handler
 506              	 .code 16
 507              	 .thumb_func
 509              	IRQ3_Handler:
 510              	.LFB226:
  43:../CAN.c      **** 
  44:../CAN.c      **** void CAN_RX_INVERTER_ISR(void) {
 511              	 .loc 5 44 0
 512              	 .cfi_startproc
 513 0000 80B5     	 push {r7,lr}
 514              	.LCFI22:
 515              	 .cfi_def_cfa_offset 8
 516              	 .cfi_offset 7,-8
 517              	 .cfi_offset 14,-4
 518 0002 00AF     	 add r7,sp,#0
 519              	.LCFI23:
 520              	 .cfi_def_cfa_register 7
  45:../CAN.c      **** 	WATCHDOG_Service();
 521              	 .loc 5 45 0
 522 0004 FFF7FEFF 	 bl WATCHDOG_Service
  46:../CAN.c      **** 	DIGITAL_IO_SetOutputLow(&WATCHDOG_LED_BLUE);
 523              	 .loc 5 46 0
 524 0008 094B     	 ldr r3,.L19
 525 000a 181C     	 mov r0,r3
 526 000c FFF7FEFF 	 bl DIGITAL_IO_SetOutputLow
  47:../CAN.c      **** 
  48:../CAN.c      **** 	CAN_RX_Inverter_count++;
 527              	 .loc 5 48 0
 528 0010 084B     	 ldr r3,.L19+4
 529 0012 1B78     	 ldrb r3,[r3]
 530 0014 DBB2     	 uxtb r3,r3
 531 0016 0133     	 add r3,r3,#1
 532 0018 DAB2     	 uxtb r2,r3
 533 001a 064B     	 ldr r3,.L19+4
 534 001c 1A70     	 strb r2,[r3]
  49:../CAN.c      **** 	if(CAN_RX_Inverter_count == 4) CAN_RX_Inverter_Read_Data(); // read data after all for have revice
 535              	 .loc 5 49 0
 536 001e 054B     	 ldr r3,.L19+4
 537 0020 1B78     	 ldrb r3,[r3]
 538 0022 DBB2     	 uxtb r3,r3
 539 0024 042B     	 cmp r3,#4
 540 0026 01D1     	 bne .L17
 541              	 .loc 5 49 0 is_stmt 0 discriminator 1
 542 0028 FFF7FEFF 	 bl CAN_RX_Inverter_Read_Data
 543              	.L17:
  50:../CAN.c      **** }
 544              	 .loc 5 50 0 is_stmt 1
 545 002c BD46     	 mov sp,r7
 546              	 
 547 002e 80BD     	 pop {r7,pc}
 548              	.L20:
 549              	 .align 2
 550              	.L19:
 551 0030 00000000 	 .word WATCHDOG_LED_BLUE
 552 0034 00000000 	 .word CAN_RX_Inverter_count
 553              	 .cfi_endproc
 554              	.LFE226:
 556              	 .global __aeabi_i2f
 557              	 .global __aeabi_fdiv
 558              	 .section .text.CAN_RX_Inverter_Read_Data,"ax",%progbits
 559              	 .align 2
 560              	 .global CAN_RX_Inverter_Read_Data
 561              	 .code 16
 562              	 .thumb_func
 564              	CAN_RX_Inverter_Read_Data:
 565              	.LFB227:
  51:../CAN.c      **** 
  52:../CAN.c      **** void CAN_RX_Inverter_Read_Data(){
 566              	 .loc 5 52 0
 567              	 .cfi_startproc
 568 0000 90B5     	 push {r4,r7,lr}
 569              	.LCFI24:
 570              	 .cfi_def_cfa_offset 12
 571              	 .cfi_offset 4,-12
 572              	 .cfi_offset 7,-8
 573              	 .cfi_offset 14,-4
 574 0002 89B0     	 sub sp,sp,#36
 575              	.LCFI25:
 576              	 .cfi_def_cfa_offset 48
 577 0004 00AF     	 add r7,sp,#0
 578              	.LCFI26:
 579              	 .cfi_def_cfa_register 7
  53:../CAN.c      **** 	uint8_t Motor_on_rover;
  54:../CAN.c      **** 	for(Motor_on_rover = 0; Motor_on_rover < 4; Motor_on_rover ++){
 580              	 .loc 5 54 0
 581 0006 1F23     	 mov r3,#31
 582 0008 FB18     	 add r3,r7,r3
 583 000a 0022     	 mov r2,#0
 584 000c 1A70     	 strb r2,[r3]
 585 000e 03E1     	 b .L22
 586              	.L32:
 587              	.LBB2:
  55:../CAN.c      **** 		XMC_CAN_MO_t* lmsgobjct_ptr_1 = CAN_NODE_0.lmobj_ptr[Motor_on_rover + 2]->mo_ptr;
 588              	 .loc 5 55 0
 589 0010 1F23     	 mov r3,#31
 590 0012 FB18     	 add r3,r7,r3
 591 0014 1B78     	 ldrb r3,[r3]
 592 0016 0233     	 add r3,r3,#2
 593 0018 844A     	 ldr r2,.L33
 594 001a 0233     	 add r3,r3,#2
 595 001c 9B00     	 lsl r3,r3,#2
 596 001e D318     	 add r3,r2,r3
 597 0020 5B68     	 ldr r3,[r3,#4]
 598 0022 1B68     	 ldr r3,[r3]
 599 0024 BB61     	 str r3,[r7,#24]
  56:../CAN.c      **** 		CAN_NODE_MO_Receive((void*) CAN_NODE_0.lmobj_ptr[Motor_on_rover + 2]);
 600              	 .loc 5 56 0
 601 0026 1F23     	 mov r3,#31
 602 0028 FB18     	 add r3,r7,r3
 603 002a 1B78     	 ldrb r3,[r3]
 604 002c 0233     	 add r3,r3,#2
 605 002e 7F4A     	 ldr r2,.L33
 606 0030 0233     	 add r3,r3,#2
 607 0032 9B00     	 lsl r3,r3,#2
 608 0034 D318     	 add r3,r2,r3
 609 0036 5B68     	 ldr r3,[r3,#4]
 610 0038 181C     	 mov r0,r3
 611 003a FFF7FEFF 	 bl CAN_NODE_MO_Receive
  57:../CAN.c      **** 
  58:../CAN.c      **** 		uint8_t data_RX[8];
  59:../CAN.c      **** 		uint8_t i;
  60:../CAN.c      **** 		for(i = 0 ; i < 8 ; i ++){
 612              	 .loc 5 60 0
 613 003e 1E23     	 mov r3,#30
 614 0040 FB18     	 add r3,r7,r3
 615 0042 0022     	 mov r2,#0
 616 0044 1A70     	 strb r2,[r3]
 617 0046 12E0     	 b .L23
 618              	.L24:
  61:../CAN.c      **** 			 data_RX[i] = lmsgobjct_ptr_1->can_data_byte[i];
 619              	 .loc 5 61 0 discriminator 3
 620 0048 1E23     	 mov r3,#30
 621 004a FB18     	 add r3,r7,r3
 622 004c 1B78     	 ldrb r3,[r3]
 623 004e 1E22     	 mov r2,#30
 624 0050 BA18     	 add r2,r7,r2
 625 0052 1278     	 ldrb r2,[r2]
 626 0054 B969     	 ldr r1,[r7,#24]
 627 0056 8A18     	 add r2,r1,r2
 628 0058 117C     	 ldrb r1,[r2,#16]
 629 005a 0C22     	 mov r2,#12
 630 005c BA18     	 add r2,r7,r2
 631 005e D154     	 strb r1,[r2,r3]
  60:../CAN.c      **** 			 data_RX[i] = lmsgobjct_ptr_1->can_data_byte[i];
 632              	 .loc 5 60 0 discriminator 3
 633 0060 1E23     	 mov r3,#30
 634 0062 FB18     	 add r3,r7,r3
 635 0064 1A78     	 ldrb r2,[r3]
 636 0066 1E23     	 mov r3,#30
 637 0068 FB18     	 add r3,r7,r3
 638 006a 0132     	 add r2,r2,#1
 639 006c 1A70     	 strb r2,[r3]
 640              	.L23:
  60:../CAN.c      **** 			 data_RX[i] = lmsgobjct_ptr_1->can_data_byte[i];
 641              	 .loc 5 60 0 is_stmt 0 discriminator 1
 642 006e 1E23     	 mov r3,#30
 643 0070 FB18     	 add r3,r7,r3
 644 0072 1B78     	 ldrb r3,[r3]
 645 0074 072B     	 cmp r3,#7
 646 0076 E7D9     	 bls .L24
  62:../CAN.c      **** 		}
  63:../CAN.c      **** 
  64:../CAN.c      **** 		uint8_t Motor_on_rover_RX = (data_RX[0 * 2 + 1] << 8) | data_RX[0 * 2];
 647              	 .loc 5 64 0 is_stmt 1
 648 0078 0C23     	 mov r3,#12
 649 007a FB18     	 add r3,r7,r3
 650 007c 5B78     	 ldrb r3,[r3,#1]
 651 007e 1B02     	 lsl r3,r3,#8
 652 0080 DAB2     	 uxtb r2,r3
 653 0082 0C23     	 mov r3,#12
 654 0084 FB18     	 add r3,r7,r3
 655 0086 1B78     	 ldrb r3,[r3]
 656 0088 DBB2     	 uxtb r3,r3
 657 008a 1343     	 orr r3,r2
 658 008c DAB2     	 uxtb r2,r3
 659 008e 1723     	 mov r3,#23
 660 0090 FB18     	 add r3,r7,r3
 661 0092 1A70     	 strb r2,[r3]
  65:../CAN.c      **** 		if(Motor_on_rover_RX == Motor_on_rover){
 662              	 .loc 5 65 0
 663 0094 1723     	 mov r3,#23
 664 0096 FA18     	 add r2,r7,r3
 665 0098 1F23     	 mov r3,#31
 666 009a FB18     	 add r3,r7,r3
 667 009c 1278     	 ldrb r2,[r2]
 668 009e 1B78     	 ldrb r3,[r3]
 669 00a0 9A42     	 cmp r2,r3
 670 00a2 00D0     	 beq .LCB512
 671 00a4 ADE0     	 b .L25
 672              	.LCB512:
 673              	.LBB3:
  66:../CAN.c      **** 			DIGITAL_IO_SetOutputLow(&LED_CAN_ERROR);
 674              	 .loc 5 66 0
 675 00a6 624B     	 ldr r3,.L33+4
 676 00a8 181C     	 mov r0,r3
 677 00aa FFF7FEFF 	 bl DIGITAL_IO_SetOutputLow
  67:../CAN.c      **** 
  68:../CAN.c      **** 			uint8_t i;
  69:../CAN.c      **** 			int16_t values_int16[3] = {0};
 678              	 .loc 5 69 0
 679 00ae 3B1D     	 add r3,r7,#4
 680 00b0 0022     	 mov r2,#0
 681 00b2 1A60     	 str r2,[r3]
 682 00b4 0022     	 mov r2,#0
 683 00b6 9A80     	 strh r2,[r3,#4]
  70:../CAN.c      **** 			for(i = 1 ; i < 4 ; i ++){
 684              	 .loc 5 70 0
 685 00b8 1D23     	 mov r3,#29
 686 00ba FB18     	 add r3,r7,r3
 687 00bc 0122     	 mov r2,#1
 688 00be 1A70     	 strb r2,[r3]
 689 00c0 6BE0     	 b .L26
 690              	.L30:
  71:../CAN.c      **** 				 if(i == 1) values_int16[i - 1] = (data_RX[i * 2 + 1] << 8) | data_RX[i * 2];
 691              	 .loc 5 71 0
 692 00c2 1D23     	 mov r3,#29
 693 00c4 FB18     	 add r3,r7,r3
 694 00c6 1B78     	 ldrb r3,[r3]
 695 00c8 012B     	 cmp r3,#1
 696 00ca 1CD1     	 bne .L27
 697              	 .loc 5 71 0 is_stmt 0 discriminator 1
 698 00cc 1D23     	 mov r3,#29
 699 00ce FB18     	 add r3,r7,r3
 700 00d0 1B78     	 ldrb r3,[r3]
 701 00d2 5A1E     	 sub r2,r3,#1
 702 00d4 1D23     	 mov r3,#29
 703 00d6 FB18     	 add r3,r7,r3
 704 00d8 1B78     	 ldrb r3,[r3]
 705 00da 5B00     	 lsl r3,r3,#1
 706 00dc 0133     	 add r3,r3,#1
 707 00de 0C21     	 mov r1,#12
 708 00e0 7918     	 add r1,r7,r1
 709 00e2 CB5C     	 ldrb r3,[r1,r3]
 710 00e4 1B02     	 lsl r3,r3,#8
 711 00e6 98B2     	 uxth r0,r3
 712 00e8 1D23     	 mov r3,#29
 713 00ea FB18     	 add r3,r7,r3
 714 00ec 1B78     	 ldrb r3,[r3]
 715 00ee 5B00     	 lsl r3,r3,#1
 716 00f0 0C21     	 mov r1,#12
 717 00f2 7918     	 add r1,r7,r1
 718 00f4 CB5C     	 ldrb r3,[r1,r3]
 719 00f6 9BB2     	 uxth r3,r3
 720 00f8 011C     	 add r1,r0,#0
 721 00fa 0B43     	 orr r3,r1
 722 00fc 99B2     	 uxth r1,r3
 723 00fe 3B1D     	 add r3,r7,#4
 724 0100 5200     	 lsl r2,r2,#1
 725 0102 D152     	 strh r1,[r2,r3]
 726 0104 42E0     	 b .L28
 727              	.L27:
  72:../CAN.c      **** 				 else if(i == 2) values_int16[i - 1] = (data_RX[i * 2 + 1] << 8) | data_RX[i * 2];
 728              	 .loc 5 72 0 is_stmt 1
 729 0106 1D23     	 mov r3,#29
 730 0108 FB18     	 add r3,r7,r3
 731 010a 1B78     	 ldrb r3,[r3]
 732 010c 022B     	 cmp r3,#2
 733 010e 1CD1     	 bne .L29
 734              	 .loc 5 72 0 is_stmt 0 discriminator 1
 735 0110 1D23     	 mov r3,#29
 736 0112 FB18     	 add r3,r7,r3
 737 0114 1B78     	 ldrb r3,[r3]
 738 0116 5A1E     	 sub r2,r3,#1
 739 0118 1D23     	 mov r3,#29
 740 011a FB18     	 add r3,r7,r3
 741 011c 1B78     	 ldrb r3,[r3]
 742 011e 5B00     	 lsl r3,r3,#1
 743 0120 0133     	 add r3,r3,#1
 744 0122 0C21     	 mov r1,#12
 745 0124 7918     	 add r1,r7,r1
 746 0126 CB5C     	 ldrb r3,[r1,r3]
 747 0128 1B02     	 lsl r3,r3,#8
 748 012a 98B2     	 uxth r0,r3
 749 012c 1D23     	 mov r3,#29
 750 012e FB18     	 add r3,r7,r3
 751 0130 1B78     	 ldrb r3,[r3]
 752 0132 5B00     	 lsl r3,r3,#1
 753 0134 0C21     	 mov r1,#12
 754 0136 7918     	 add r1,r7,r1
 755 0138 CB5C     	 ldrb r3,[r1,r3]
 756 013a 9BB2     	 uxth r3,r3
 757 013c 011C     	 add r1,r0,#0
 758 013e 0B43     	 orr r3,r1
 759 0140 99B2     	 uxth r1,r3
 760 0142 3B1D     	 add r3,r7,#4
 761 0144 5200     	 lsl r2,r2,#1
 762 0146 D152     	 strh r1,[r2,r3]
 763 0148 20E0     	 b .L28
 764              	.L29:
  73:../CAN.c      **** 				 else if(i == 3) values_int16[i - 1] = (data_RX[i * 2 + 1] << 8) | data_RX[i * 2];
 765              	 .loc 5 73 0 is_stmt 1
 766 014a 1D23     	 mov r3,#29
 767 014c FB18     	 add r3,r7,r3
 768 014e 1B78     	 ldrb r3,[r3]
 769 0150 032B     	 cmp r3,#3
 770 0152 1BD1     	 bne .L28
 771              	 .loc 5 73 0 is_stmt 0 discriminator 1
 772 0154 1D23     	 mov r3,#29
 773 0156 FB18     	 add r3,r7,r3
 774 0158 1B78     	 ldrb r3,[r3]
 775 015a 5A1E     	 sub r2,r3,#1
 776 015c 1D23     	 mov r3,#29
 777 015e FB18     	 add r3,r7,r3
 778 0160 1B78     	 ldrb r3,[r3]
 779 0162 5B00     	 lsl r3,r3,#1
 780 0164 0133     	 add r3,r3,#1
 781 0166 0C21     	 mov r1,#12
 782 0168 7918     	 add r1,r7,r1
 783 016a CB5C     	 ldrb r3,[r1,r3]
 784 016c 1B02     	 lsl r3,r3,#8
 785 016e 98B2     	 uxth r0,r3
 786 0170 1D23     	 mov r3,#29
 787 0172 FB18     	 add r3,r7,r3
 788 0174 1B78     	 ldrb r3,[r3]
 789 0176 5B00     	 lsl r3,r3,#1
 790 0178 0C21     	 mov r1,#12
 791 017a 7918     	 add r1,r7,r1
 792 017c CB5C     	 ldrb r3,[r1,r3]
 793 017e 9BB2     	 uxth r3,r3
 794 0180 011C     	 add r1,r0,#0
 795 0182 0B43     	 orr r3,r1
 796 0184 99B2     	 uxth r1,r3
 797 0186 3B1D     	 add r3,r7,#4
 798 0188 5200     	 lsl r2,r2,#1
 799 018a D152     	 strh r1,[r2,r3]
 800              	.L28:
  70:../CAN.c      **** 				 if(i == 1) values_int16[i - 1] = (data_RX[i * 2 + 1] << 8) | data_RX[i * 2];
 801              	 .loc 5 70 0 is_stmt 1 discriminator 2
 802 018c 1D23     	 mov r3,#29
 803 018e FB18     	 add r3,r7,r3
 804 0190 1A78     	 ldrb r2,[r3]
 805 0192 1D23     	 mov r3,#29
 806 0194 FB18     	 add r3,r7,r3
 807 0196 0132     	 add r2,r2,#1
 808 0198 1A70     	 strb r2,[r3]
 809              	.L26:
  70:../CAN.c      **** 				 if(i == 1) values_int16[i - 1] = (data_RX[i * 2 + 1] << 8) | data_RX[i * 2];
 810              	 .loc 5 70 0 is_stmt 0 discriminator 1
 811 019a 1D23     	 mov r3,#29
 812 019c FB18     	 add r3,r7,r3
 813 019e 1B78     	 ldrb r3,[r3]
 814 01a0 032B     	 cmp r3,#3
 815 01a2 8ED9     	 bls .L30
  74:../CAN.c      **** 			 }
  75:../CAN.c      **** 
  76:../CAN.c      **** 			Inveter_CAN_OK[Motor_on_rover] = values_int16[0];
 816              	 .loc 5 76 0 is_stmt 1
 817 01a4 1F23     	 mov r3,#31
 818 01a6 FB18     	 add r3,r7,r3
 819 01a8 1B78     	 ldrb r3,[r3]
 820 01aa 3A1D     	 add r2,r7,#4
 821 01ac 1288     	 ldrh r2,[r2]
 822 01ae D1B2     	 uxtb r1,r2
 823 01b0 204A     	 ldr r2,.L33+8
 824 01b2 D154     	 strb r1,[r2,r3]
  77:../CAN.c      **** 			Actual_Speeds[Motor_on_rover] = (float)values_int16[1] / 1000;
 825              	 .loc 5 77 0
 826 01b4 1F23     	 mov r3,#31
 827 01b6 FB18     	 add r3,r7,r3
 828 01b8 1C78     	 ldrb r4,[r3]
 829 01ba 3B1D     	 add r3,r7,#4
 830 01bc 5B88     	 ldrh r3,[r3,#2]
 831 01be 1BB2     	 sxth r3,r3
 832 01c0 181C     	 mov r0,r3
 833 01c2 FFF7FEFF 	 bl __aeabi_i2f
 834 01c6 031C     	 add r3,r0,#0
 835 01c8 181C     	 add r0,r3,#0
 836 01ca 1B49     	 ldr r1,.L33+12
 837 01cc FFF7FEFF 	 bl __aeabi_fdiv
 838 01d0 031C     	 add r3,r0,#0
 839 01d2 191C     	 add r1,r3,#0
 840 01d4 194B     	 ldr r3,.L33+16
 841 01d6 A200     	 lsl r2,r4,#2
 842 01d8 D150     	 str r1,[r2,r3]
  78:../CAN.c      **** 			Actual_Distance[Motor_on_rover] = (float)values_int16[2] / 1000;
 843              	 .loc 5 78 0
 844 01da 1F23     	 mov r3,#31
 845 01dc FB18     	 add r3,r7,r3
 846 01de 1C78     	 ldrb r4,[r3]
 847 01e0 3B1D     	 add r3,r7,#4
 848 01e2 9B88     	 ldrh r3,[r3,#4]
 849 01e4 1BB2     	 sxth r3,r3
 850 01e6 181C     	 mov r0,r3
 851 01e8 FFF7FEFF 	 bl __aeabi_i2f
 852 01ec 031C     	 add r3,r0,#0
 853 01ee 181C     	 add r0,r3,#0
 854 01f0 1149     	 ldr r1,.L33+12
 855 01f2 FFF7FEFF 	 bl __aeabi_fdiv
 856 01f6 031C     	 add r3,r0,#0
 857 01f8 191C     	 add r1,r3,#0
 858 01fa 114B     	 ldr r3,.L33+20
 859 01fc A200     	 lsl r2,r4,#2
 860 01fe D150     	 str r1,[r2,r3]
 861              	.LBE3:
 862 0200 03E0     	 b .L31
 863              	.L25:
  79:../CAN.c      **** 
  80:../CAN.c      **** 
  81:../CAN.c      **** 			}
  82:../CAN.c      **** 		else DIGITAL_IO_SetOutputHigh(&LED_CAN_ERROR);
 864              	 .loc 5 82 0
 865 0202 0B4B     	 ldr r3,.L33+4
 866 0204 181C     	 mov r0,r3
 867 0206 FFF7FEFF 	 bl DIGITAL_IO_SetOutputHigh
 868              	.L31:
 869              	.LBE2:
  54:../CAN.c      **** 		XMC_CAN_MO_t* lmsgobjct_ptr_1 = CAN_NODE_0.lmobj_ptr[Motor_on_rover + 2]->mo_ptr;
 870              	 .loc 5 54 0 discriminator 1
 871 020a 1F23     	 mov r3,#31
 872 020c FB18     	 add r3,r7,r3
 873 020e 1A78     	 ldrb r2,[r3]
 874 0210 1F23     	 mov r3,#31
 875 0212 FB18     	 add r3,r7,r3
 876 0214 0132     	 add r2,r2,#1
 877 0216 1A70     	 strb r2,[r3]
 878              	.L22:
  54:../CAN.c      **** 		XMC_CAN_MO_t* lmsgobjct_ptr_1 = CAN_NODE_0.lmobj_ptr[Motor_on_rover + 2]->mo_ptr;
 879              	 .loc 5 54 0 is_stmt 0 discriminator 2
 880 0218 1F23     	 mov r3,#31
 881 021a FB18     	 add r3,r7,r3
 882 021c 1B78     	 ldrb r3,[r3]
 883 021e 032B     	 cmp r3,#3
 884 0220 00D8     	 bhi .LCB719
 885 0222 F5E6     	 b .L32
 886              	.LCB719:
  83:../CAN.c      **** 	}
  84:../CAN.c      **** 
  85:../CAN.c      **** }
 887              	 .loc 5 85 0 is_stmt 1
 888 0224 BD46     	 mov sp,r7
 889 0226 09B0     	 add sp,sp,#36
 890              	 
 891 0228 90BD     	 pop {r4,r7,pc}
 892              	.L34:
 893 022a C046     	 .align 2
 894              	.L33:
 895 022c 00000000 	 .word CAN_NODE_0
 896 0230 00000000 	 .word LED_CAN_ERROR
 897 0234 00000000 	 .word Inveter_CAN_OK
 898 0238 00007A44 	 .word 1148846080
 899 023c 00000000 	 .word Actual_Speeds
 900 0240 00000000 	 .word Actual_Distance
 901              	 .cfi_endproc
 902              	.LFE227:
 904              	 .section .text.IRQ4_Handler,"ax",%progbits
 905              	 .align 2
 906              	 .global IRQ4_Handler
 907              	 .code 16
 908              	 .thumb_func
 910              	IRQ4_Handler:
 911              	.LFB228:
  86:../CAN.c      **** 
  87:../CAN.c      **** 
  88:../CAN.c      **** void CAN_RX_ULTRASONIC_ISR(void) { // recide data
 912              	 .loc 5 88 0
 913              	 .cfi_startproc
 914 0000 80B5     	 push {r7,lr}
 915              	.LCFI27:
 916              	 .cfi_def_cfa_offset 8
 917              	 .cfi_offset 7,-8
 918              	 .cfi_offset 14,-4
 919 0002 84B0     	 sub sp,sp,#16
 920              	.LCFI28:
 921              	 .cfi_def_cfa_offset 24
 922 0004 00AF     	 add r7,sp,#0
 923              	.LCFI29:
 924              	 .cfi_def_cfa_register 7
  89:../CAN.c      **** 	XMC_CAN_MO_t* lmsgobjct_ptr_1 = CAN_NODE_0.lmobj_ptr[6]->mo_ptr;
 925              	 .loc 5 89 0
 926 0006 3A4B     	 ldr r3,.L38
 927 0008 5B6A     	 ldr r3,[r3,#36]
 928 000a 1B68     	 ldr r3,[r3]
 929 000c BB60     	 str r3,[r7,#8]
  90:../CAN.c      **** 	CAN_NODE_MO_Receive((void*) CAN_NODE_0.lmobj_ptr[6]);
 930              	 .loc 5 90 0
 931 000e 384B     	 ldr r3,.L38
 932 0010 5B6A     	 ldr r3,[r3,#36]
 933 0012 181C     	 mov r0,r3
 934 0014 FFF7FEFF 	 bl CAN_NODE_MO_Receive
  91:../CAN.c      **** 
  92:../CAN.c      **** 	uint8_t data_RX[8];
  93:../CAN.c      **** 	uint8_t i;
  94:../CAN.c      **** 	for(i = 0 ; i < 8 ; i ++){
 935              	 .loc 5 94 0
 936 0018 0F23     	 mov r3,#15
 937 001a FB18     	 add r3,r7,r3
 938 001c 0022     	 mov r2,#0
 939 001e 1A70     	 strb r2,[r3]
 940 0020 11E0     	 b .L36
 941              	.L37:
  95:../CAN.c      **** 		 data_RX[i] = lmsgobjct_ptr_1->can_data_byte[i];
 942              	 .loc 5 95 0 discriminator 3
 943 0022 0F23     	 mov r3,#15
 944 0024 FB18     	 add r3,r7,r3
 945 0026 1B78     	 ldrb r3,[r3]
 946 0028 0F22     	 mov r2,#15
 947 002a BA18     	 add r2,r7,r2
 948 002c 1278     	 ldrb r2,[r2]
 949 002e B968     	 ldr r1,[r7,#8]
 950 0030 8A18     	 add r2,r1,r2
 951 0032 117C     	 ldrb r1,[r2,#16]
 952 0034 3A1C     	 mov r2,r7
 953 0036 D154     	 strb r1,[r2,r3]
  94:../CAN.c      **** 		 data_RX[i] = lmsgobjct_ptr_1->can_data_byte[i];
 954              	 .loc 5 94 0 discriminator 3
 955 0038 0F23     	 mov r3,#15
 956 003a FB18     	 add r3,r7,r3
 957 003c 1A78     	 ldrb r2,[r3]
 958 003e 0F23     	 mov r3,#15
 959 0040 FB18     	 add r3,r7,r3
 960 0042 0132     	 add r2,r2,#1
 961 0044 1A70     	 strb r2,[r3]
 962              	.L36:
  94:../CAN.c      **** 		 data_RX[i] = lmsgobjct_ptr_1->can_data_byte[i];
 963              	 .loc 5 94 0 is_stmt 0 discriminator 1
 964 0046 0F23     	 mov r3,#15
 965 0048 FB18     	 add r3,r7,r3
 966 004a 1B78     	 ldrb r3,[r3]
 967 004c 072B     	 cmp r3,#7
 968 004e E8D9     	 bls .L37
  96:../CAN.c      **** 	}
  97:../CAN.c      **** 
  98:../CAN.c      **** 	CAN_state_Ultrasonic = (data_RX[0 * 2 + 1] << 8) | data_RX[0 * 2];
 969              	 .loc 5 98 0 is_stmt 1
 970 0050 3B1C     	 mov r3,r7
 971 0052 5B78     	 ldrb r3,[r3,#1]
 972 0054 1B02     	 lsl r3,r3,#8
 973 0056 DAB2     	 uxtb r2,r3
 974 0058 3B1C     	 mov r3,r7
 975 005a 1B78     	 ldrb r3,[r3]
 976 005c DBB2     	 uxtb r3,r3
 977 005e 1343     	 orr r3,r2
 978 0060 DBB2     	 uxtb r3,r3
 979 0062 DAB2     	 uxtb r2,r3
 980 0064 234B     	 ldr r3,.L38+4
 981 0066 1A70     	 strb r2,[r3]
  99:../CAN.c      **** 	Ultrasonic_cm_C = (data_RX[1 * 2 + 1] << 8) | data_RX[1 * 2];
 982              	 .loc 5 99 0
 983 0068 3B1C     	 mov r3,r7
 984 006a DB78     	 ldrb r3,[r3,#3]
 985 006c 1B02     	 lsl r3,r3,#8
 986 006e 9AB2     	 uxth r2,r3
 987 0070 3B1C     	 mov r3,r7
 988 0072 9B78     	 ldrb r3,[r3,#2]
 989 0074 9BB2     	 uxth r3,r3
 990 0076 1343     	 orr r3,r2
 991 0078 9BB2     	 uxth r3,r3
 992 007a 9AB2     	 uxth r2,r3
 993 007c 1E4B     	 ldr r3,.L38+8
 994 007e 1A80     	 strh r2,[r3]
 100:../CAN.c      **** 	Ultrasonic_cm_L = (data_RX[2 * 2 + 1] << 8) | data_RX[2 * 2];
 995              	 .loc 5 100 0
 996 0080 3B1C     	 mov r3,r7
 997 0082 5B79     	 ldrb r3,[r3,#5]
 998 0084 1B02     	 lsl r3,r3,#8
 999 0086 9AB2     	 uxth r2,r3
 1000 0088 3B1C     	 mov r3,r7
 1001 008a 1B79     	 ldrb r3,[r3,#4]
 1002 008c 9BB2     	 uxth r3,r3
 1003 008e 1343     	 orr r3,r2
 1004 0090 9BB2     	 uxth r3,r3
