
MobRob_Steering_Controller.elf:     file format elf32-littlearm

Sections:
Idx Name          Size      VMA       LMA       File off  Algn
  0 .text         00009d68  10001000  10001000  00001000  2**3
                  CONTENTS, ALLOC, LOAD, READONLY, CODE
  1 .ARM.exidx    00000008  1000ad68  1000ad68  0000ad68  2**2
                  CONTENTS, ALLOC, LOAD, READONLY, DATA
  2 .VENEER_Code  00000144  2000000c  1000ad70  0001000c  2**2
                  CONTENTS, ALLOC, LOAD, READONLY, CODE
  3 Stack         00000400  20000150  00000000  00000150  2**0
                  ALLOC
  4 .data         00000300  20000550  1000aeb4  00010550  2**3
                  CONTENTS, ALLOC, LOAD, DATA
  5 .bss          00000200  20000850  00000700  00010850  2**2
                  ALLOC
  6 .no_init      00000004  20003ffc  00003eac  00000150  2**2
                  ALLOC
  7 .debug_aranges 00000e88  00000000  00000000  00010850  2**3
                  CONTENTS, READONLY, DEBUGGING
  8 .debug_info   0001ac01  00000000  00000000  000116d8  2**0
                  CONTENTS, READONLY, DEBUGGING
  9 .debug_abbrev 00003f72  00000000  00000000  0002c2d9  2**0
                  CONTENTS, READONLY, DEBUGGING
 10 .debug_line   0000988c  00000000  00000000  0003024b  2**0
                  CONTENTS, READONLY, DEBUGGING
 11 .debug_frame  00003530  00000000  00000000  00039ad8  2**2
                  CONTENTS, READONLY, DEBUGGING
 12 .debug_str    00009643  00000000  00000000  0003d008  2**0
                  CONTENTS, READONLY, DEBUGGING
 13 .debug_loc    00004a28  00000000  00000000  0004664b  2**0
                  CONTENTS, READONLY, DEBUGGING
 14 .debug_ranges 00000bc8  00000000  00000000  0004b078  2**3
                  CONTENTS, READONLY, DEBUGGING
 15 .build_attributes 00000e77  00000000  00000000  0004bc40  2**0
                  CONTENTS, READONLY

Disassembly of section .text:

10001000 <__Vectors>:
10001000:	50 05 00 20 1d 10 00 10 00 00 00 00 9d 10 00 10     P.. ............
10001010:	00 18 04 00 00 01 00 00 00 00 00 80                 ............

1000101c <Reset_Handler>:
    .thumb_func 
    .globl  Reset_Handler
    .type   Reset_Handler, %function
Reset_Handler: 
/* Initialize interrupt veneer */
	ldr	r1, =eROData
1000101c:	4911      	ldr	r1, [pc, #68]	; (10001064 <__copy_data+0xe>)
	ldr	r2, =VeneerStart
1000101e:	4a12      	ldr	r2, [pc, #72]	; (10001068 <__copy_data+0x12>)
	ldr	r3, =VeneerEnd
10001020:	4b12      	ldr	r3, [pc, #72]	; (1000106c <__copy_data+0x16>)
	bl  __copy_data
10001022:	f000 f818 	bl	10001056 <__copy_data>

    ldr  r0, =SystemInit
10001026:	4812      	ldr	r0, [pc, #72]	; (10001070 <__copy_data+0x1a>)
    blx  r0
10001028:	4780      	blx	r0
	
/* Initialize data */
	ldr	r1, =DataLoadAddr
1000102a:	4912      	ldr	r1, [pc, #72]	; (10001074 <__copy_data+0x1e>)
	ldr	r2, =__data_start
1000102c:	4a12      	ldr	r2, [pc, #72]	; (10001078 <__copy_data+0x22>)
	ldr	r3, =__data_end
1000102e:	4b13      	ldr	r3, [pc, #76]	; (1000107c <__copy_data+0x26>)
	bl  __copy_data
10001030:	f000 f811 	bl	10001056 <__copy_data>

/* RAM code */
	ldr	r1, =__ram_code_load
10001034:	4912      	ldr	r1, [pc, #72]	; (10001080 <__copy_data+0x2a>)
	ldr	r2, =__ram_code_start
10001036:	4a13      	ldr	r2, [pc, #76]	; (10001084 <__copy_data+0x2e>)
	ldr	r3, =__ram_code_end
10001038:	4b13      	ldr	r3, [pc, #76]	; (10001088 <__copy_data+0x32>)
	bl  __copy_data
1000103a:	f000 f80c 	bl	10001056 <__copy_data>
 *    __bss_end__: end of the BSS section.
 *
 *  Both addresses must be aligned to 4 bytes boundary.
 */
#ifndef __SKIP_BSS_CLEAR
	ldr	r1, =__bss_start
1000103e:	4913      	ldr	r1, [pc, #76]	; (1000108c <__copy_data+0x36>)
	ldr	r2, =__bss_end
10001040:	4a13      	ldr	r2, [pc, #76]	; (10001090 <__copy_data+0x3a>)

	movs	r0, 0
10001042:	2000      	movs	r0, #0

	subs	r2, r1
10001044:	1a52      	subs	r2, r2, r1
	ble	.L_loop3_done
10001046:	dd02      	ble.n	1000104e <Reset_Handler+0x32>

.L_loop3:
	subs	r2, #4
10001048:	3a04      	subs	r2, #4
	str	r0, [r1, r2]
1000104a:	5088      	str	r0, [r1, r2]
	bgt	.L_loop3
1000104c:	dcfc      	bgt.n	10001048 <Reset_Handler+0x2c>
.L_loop3_done:
#endif /* __SKIP_BSS_CLEAR */

#ifndef __SKIP_LIBC_INIT_ARRAY
    ldr  r0, =__libc_init_array
1000104e:	4811      	ldr	r0, [pc, #68]	; (10001094 <__copy_data+0x3e>)
    blx  r0
10001050:	4780      	blx	r0
#endif

    ldr  r0, =main
10001052:	4811      	ldr	r0, [pc, #68]	; (10001098 <__copy_data+0x42>)
    blx  r0
10001054:	4780      	blx	r0

10001056 <__copy_data>:
 *    r3: end of the section to copy to
 *
 *  All addresses must be aligned to 4 bytes boundary.
 *  Uses r0
 */
	subs	r3, r2
10001056:	1a9b      	subs	r3, r3, r2
	ble	.L_loop_done
10001058:	dd03      	ble.n	10001062 <__copy_data+0xc>

.L_loop:
	subs	r3, #4
1000105a:	3b04      	subs	r3, #4
	ldr	r0, [r1,r3]
1000105c:	58c8      	ldr	r0, [r1, r3]
	str	r0, [r2,r3]
1000105e:	50d0      	str	r0, [r2, r3]
	bgt	.L_loop
10001060:	dcfb      	bgt.n	1000105a <__copy_data+0x4>

.L_loop_done:
	bx  lr
10001062:	4770      	bx	lr
    .thumb_func 
    .globl  Reset_Handler
    .type   Reset_Handler, %function
Reset_Handler: 
/* Initialize interrupt veneer */
	ldr	r1, =eROData
10001064:	1000ad70 	.word	0x1000ad70
	ldr	r2, =VeneerStart
10001068:	2000000c 	.word	0x2000000c
	ldr	r3, =VeneerEnd
1000106c:	20000150 	.word	0x20000150
	bl  __copy_data

    ldr  r0, =SystemInit
10001070:	100010a1 	.word	0x100010a1
    blx  r0
	
/* Initialize data */
	ldr	r1, =DataLoadAddr
10001074:	1000aeb4 	.word	0x1000aeb4
	ldr	r2, =__data_start
10001078:	20000550 	.word	0x20000550
	ldr	r3, =__data_end
1000107c:	20000850 	.word	0x20000850
	bl  __copy_data

/* RAM code */
	ldr	r1, =__ram_code_load
10001080:	1000b1b4 	.word	0x1000b1b4
	ldr	r2, =__ram_code_start
10001084:	20000850 	.word	0x20000850
	ldr	r3, =__ram_code_end
10001088:	20000850 	.word	0x20000850
 *    __bss_end__: end of the BSS section.
 *
 *  Both addresses must be aligned to 4 bytes boundary.
 */
#ifndef __SKIP_BSS_CLEAR
	ldr	r1, =__bss_start
1000108c:	20000850 	.word	0x20000850
	ldr	r2, =__bss_end
10001090:	20000a50 	.word	0x20000a50
	bgt	.L_loop3
.L_loop3_done:
#endif /* __SKIP_BSS_CLEAR */

#ifndef __SKIP_LIBC_INIT_ARRAY
    ldr  r0, =__libc_init_array
10001094:	1000a6d1 	.word	0x1000a6d1
    blx  r0
#endif

    ldr  r0, =main
10001098:	10004329 	.word	0x10004329

1000109c <HardFault_Handler>:
    
    .thumb_func
    .weak Default_handler
    .type Default_handler, %function
Default_Handler:
    b  .
1000109c:	e7fe      	b.n	1000109c <HardFault_Handler>
	...

100010a0 <SystemInit>:
/*******************************************************************************
 * API IMPLEMENTATION
 *******************************************************************************/

__WEAK void SystemInit(void)
{
100010a0:	b580      	push	{r7, lr}
100010a2:	af00      	add	r7, sp, #0
  SystemCoreSetup();
100010a4:	f002 f992 	bl	100033cc <SystemCoreSetup>
  SystemCoreClockSetup();
100010a8:	f002 f9de 	bl	10003468 <SystemCoreClockSetup>
}
100010ac:	46bd      	mov	sp, r7
100010ae:	bd80      	pop	{r7, pc}

100010b0 <SystemCoreClockUpdate>:

  SystemCoreClockUpdate();
}

__WEAK void SystemCoreClockUpdate(void)
{
100010b0:	b580      	push	{r7, lr}
100010b2:	af00      	add	r7, sp, #0
  static uint32_t IDIV, FDIV;

  IDIV = ((SCU_CLK->CLKCR) & SCU_CLK_CLKCR_IDIV_Msk) >> SCU_CLK_CLKCR_IDIV_Pos;
100010b4:	4b2a      	ldr	r3, [pc, #168]	; (10001160 <SystemCoreClockUpdate+0xb0>)
100010b6:	681a      	ldr	r2, [r3, #0]
100010b8:	23ff      	movs	r3, #255	; 0xff
100010ba:	021b      	lsls	r3, r3, #8
100010bc:	4013      	ands	r3, r2
100010be:	0a1a      	lsrs	r2, r3, #8
100010c0:	4b28      	ldr	r3, [pc, #160]	; (10001164 <SystemCoreClockUpdate+0xb4>)
100010c2:	601a      	str	r2, [r3, #0]

  if (IDIV != 0)
100010c4:	4b27      	ldr	r3, [pc, #156]	; (10001164 <SystemCoreClockUpdate+0xb4>)
100010c6:	681b      	ldr	r3, [r3, #0]
100010c8:	2b00      	cmp	r3, #0
100010ca:	d037      	beq.n	1000113c <SystemCoreClockUpdate+0x8c>
  {
    FDIV = ((SCU_CLK->CLKCR) & SCU_CLK_CLKCR_FDIV_Msk) >> SCU_CLK_CLKCR_FDIV_Pos;
100010cc:	4b24      	ldr	r3, [pc, #144]	; (10001160 <SystemCoreClockUpdate+0xb0>)
100010ce:	681b      	ldr	r3, [r3, #0]
100010d0:	22ff      	movs	r2, #255	; 0xff
100010d2:	401a      	ands	r2, r3
100010d4:	4b24      	ldr	r3, [pc, #144]	; (10001168 <SystemCoreClockUpdate+0xb8>)
100010d6:	601a      	str	r2, [r3, #0]
    FDIV |= ((SCU_CLK->CLKCR1) & SCU_CLK_CLKCR1_FDIV_Msk) << 8;
100010d8:	4b21      	ldr	r3, [pc, #132]	; (10001160 <SystemCoreClockUpdate+0xb0>)
100010da:	69db      	ldr	r3, [r3, #28]
100010dc:	2203      	movs	r2, #3
100010de:	4013      	ands	r3, r2
100010e0:	021a      	lsls	r2, r3, #8
100010e2:	4b21      	ldr	r3, [pc, #132]	; (10001168 <SystemCoreClockUpdate+0xb8>)
100010e4:	681b      	ldr	r3, [r3, #0]
100010e6:	431a      	orrs	r2, r3
100010e8:	4b1f      	ldr	r3, [pc, #124]	; (10001168 <SystemCoreClockUpdate+0xb8>)
100010ea:	601a      	str	r2, [r3, #0]
    
    /* Fractional divider is enabled and used */
    if (((SCU_CLK->CLKCR1) & SCU_CLK_CLKCR1_DCLKSEL_Msk) == 0U)
100010ec:	4b1c      	ldr	r3, [pc, #112]	; (10001160 <SystemCoreClockUpdate+0xb0>)
100010ee:	69da      	ldr	r2, [r3, #28]
100010f0:	2380      	movs	r3, #128	; 0x80
100010f2:	009b      	lsls	r3, r3, #2
100010f4:	4013      	ands	r3, r2
100010f6:	d10e      	bne.n	10001116 <SystemCoreClockUpdate+0x66>
    {
       SystemCoreClock = ((uint32_t)((DCO1_FREQUENCY << 6U) / ((IDIV << 10) + FDIV))) << 4U;
100010f8:	4b1a      	ldr	r3, [pc, #104]	; (10001164 <SystemCoreClockUpdate+0xb4>)
100010fa:	681b      	ldr	r3, [r3, #0]
100010fc:	029a      	lsls	r2, r3, #10
100010fe:	4b1a      	ldr	r3, [pc, #104]	; (10001168 <SystemCoreClockUpdate+0xb8>)
10001100:	681b      	ldr	r3, [r3, #0]
10001102:	18d3      	adds	r3, r2, r3
10001104:	4819      	ldr	r0, [pc, #100]	; (1000116c <SystemCoreClockUpdate+0xbc>)
10001106:	1c19      	adds	r1, r3, #0
10001108:	f001 fa86 	bl	10002618 <__aeabi_uidiv>
1000110c:	1c03      	adds	r3, r0, #0
1000110e:	011a      	lsls	r2, r3, #4
10001110:	4b17      	ldr	r3, [pc, #92]	; (10001170 <SystemCoreClockUpdate+0xc0>)
10001112:	601a      	str	r2, [r3, #0]
10001114:	e021      	b.n	1000115a <SystemCoreClockUpdate+0xaa>
    }
    else
    {
       SystemCoreClock = ((uint32_t)((OSCHP_GetFrequency() << 6U) / ((IDIV << 10) + FDIV))) << 4U;
10001116:	f000 f82f 	bl	10001178 <OSCHP_GetFrequency>
1000111a:	1c03      	adds	r3, r0, #0
1000111c:	0199      	lsls	r1, r3, #6
1000111e:	4b11      	ldr	r3, [pc, #68]	; (10001164 <SystemCoreClockUpdate+0xb4>)
10001120:	681b      	ldr	r3, [r3, #0]
10001122:	029a      	lsls	r2, r3, #10
10001124:	4b10      	ldr	r3, [pc, #64]	; (10001168 <SystemCoreClockUpdate+0xb8>)
10001126:	681b      	ldr	r3, [r3, #0]
10001128:	18d3      	adds	r3, r2, r3
1000112a:	1c08      	adds	r0, r1, #0
1000112c:	1c19      	adds	r1, r3, #0
1000112e:	f001 fa73 	bl	10002618 <__aeabi_uidiv>
10001132:	1c03      	adds	r3, r0, #0
10001134:	011a      	lsls	r2, r3, #4
10001136:	4b0e      	ldr	r3, [pc, #56]	; (10001170 <SystemCoreClockUpdate+0xc0>)
10001138:	601a      	str	r2, [r3, #0]
1000113a:	e00e      	b.n	1000115a <SystemCoreClockUpdate+0xaa>
    }
  }
  else
  {
    /* Fractional divider bypassed. */
    if (((SCU_CLK->CLKCR1) & SCU_CLK_CLKCR1_DCLKSEL_Msk) == 0U)
1000113c:	4b08      	ldr	r3, [pc, #32]	; (10001160 <SystemCoreClockUpdate+0xb0>)
1000113e:	69da      	ldr	r2, [r3, #28]
10001140:	2380      	movs	r3, #128	; 0x80
10001142:	009b      	lsls	r3, r3, #2
10001144:	4013      	ands	r3, r2
10001146:	d103      	bne.n	10001150 <SystemCoreClockUpdate+0xa0>
    {
        SystemCoreClock = DCO1_FREQUENCY;
10001148:	4b09      	ldr	r3, [pc, #36]	; (10001170 <SystemCoreClockUpdate+0xc0>)
1000114a:	4a0a      	ldr	r2, [pc, #40]	; (10001174 <SystemCoreClockUpdate+0xc4>)
1000114c:	601a      	str	r2, [r3, #0]
1000114e:	e004      	b.n	1000115a <SystemCoreClockUpdate+0xaa>
    }
    else
    {
        SystemCoreClock = OSCHP_GetFrequency();
10001150:	f000 f812 	bl	10001178 <OSCHP_GetFrequency>
10001154:	1c02      	adds	r2, r0, #0
10001156:	4b06      	ldr	r3, [pc, #24]	; (10001170 <SystemCoreClockUpdate+0xc0>)
10001158:	601a      	str	r2, [r3, #0]
    }
  }
}
1000115a:	46bd      	mov	sp, r7
1000115c:	bd80      	pop	{r7, pc}
1000115e:	46c0      	nop			; (mov r8, r8)
10001160:	40010300 	.word	0x40010300
10001164:	20000850 	.word	0x20000850
10001168:	20000854 	.word	0x20000854
1000116c:	b71b0000 	.word	0xb71b0000
10001170:	20003ffc 	.word	0x20003ffc
10001174:	02dc6c00 	.word	0x02dc6c00

10001178 <OSCHP_GetFrequency>:

__WEAK uint32_t OSCHP_GetFrequency(void)
{
10001178:	b580      	push	{r7, lr}
1000117a:	af00      	add	r7, sp, #0
  return OSCHP_FREQUENCY;
1000117c:	4b01      	ldr	r3, [pc, #4]	; (10001184 <OSCHP_GetFrequency+0xc>)
}
1000117e:	1c18      	adds	r0, r3, #0
10001180:	46bd      	mov	sp, r7
10001182:	bd80      	pop	{r7, pc}
10001184:	01312d00 	.word	0x01312d00

10001188 <XMC_ERU_Enable>:
/*********************************************************************************************************************
 * API IMPLEMENTATION
 ********************************************************************************************************************/

void XMC_ERU_Enable(XMC_ERU_t *const eru)
{
10001188:	b580      	push	{r7, lr}
1000118a:	b082      	sub	sp, #8
1000118c:	af00      	add	r7, sp, #0
1000118e:	6078      	str	r0, [r7, #4]
  XMC_UNUSED_ARG(eru);
}
10001190:	46bd      	mov	sp, r7
10001192:	b002      	add	sp, #8
10001194:	bd80      	pop	{r7, pc}
10001196:	46c0      	nop			; (mov r8, r8)

10001198 <XMC_GPIO_Init>:
/*******************************************************************************
 * API IMPLEMENTATION
 *******************************************************************************/

void XMC_GPIO_Init(XMC_GPIO_PORT_t *const port, const uint8_t pin, const XMC_GPIO_CONFIG_t *const config)
{
10001198:	b590      	push	{r4, r7, lr}
1000119a:	b085      	sub	sp, #20
1000119c:	af00      	add	r7, sp, #0
1000119e:	60f8      	str	r0, [r7, #12]
100011a0:	607a      	str	r2, [r7, #4]
100011a2:	230b      	movs	r3, #11
100011a4:	18fb      	adds	r3, r7, r3
100011a6:	1c0a      	adds	r2, r1, #0
100011a8:	701a      	strb	r2, [r3, #0]
  XMC_ASSERT("XMC_GPIO_Init: Invalid port", XMC_GPIO_CHECK_PORT(port));
  XMC_ASSERT("XMC_GPIO_Init: Invalid mode", XMC_GPIO_IsModeValid(config->mode));
  XMC_ASSERT("XMC_GPIO_Init: Invalid input hysteresis", XMC_GPIO_CHECK_INPUT_HYSTERESIS(config->input_hysteresis));

  /* Switch to input */
  port->IOCR[pin >> 2U] &= ~(uint32_t)((uint32_t)PORT_IOCR_PC_Msk << (PORT_IOCR_PC_Size * (pin & 0x3U)));
100011aa:	230b      	movs	r3, #11
100011ac:	18fb      	adds	r3, r7, r3
100011ae:	781b      	ldrb	r3, [r3, #0]
100011b0:	089b      	lsrs	r3, r3, #2
100011b2:	b2db      	uxtb	r3, r3
100011b4:	1c18      	adds	r0, r3, #0
100011b6:	230b      	movs	r3, #11
100011b8:	18fb      	adds	r3, r7, r3
100011ba:	781b      	ldrb	r3, [r3, #0]
100011bc:	089b      	lsrs	r3, r3, #2
100011be:	b2db      	uxtb	r3, r3
100011c0:	1c1a      	adds	r2, r3, #0
100011c2:	68fb      	ldr	r3, [r7, #12]
100011c4:	3204      	adds	r2, #4
100011c6:	0092      	lsls	r2, r2, #2
100011c8:	58d3      	ldr	r3, [r2, r3]
100011ca:	220b      	movs	r2, #11
100011cc:	18ba      	adds	r2, r7, r2
100011ce:	7812      	ldrb	r2, [r2, #0]
100011d0:	2103      	movs	r1, #3
100011d2:	400a      	ands	r2, r1
100011d4:	00d2      	lsls	r2, r2, #3
100011d6:	1c11      	adds	r1, r2, #0
100011d8:	22fc      	movs	r2, #252	; 0xfc
100011da:	408a      	lsls	r2, r1
100011dc:	43d2      	mvns	r2, r2
100011de:	401a      	ands	r2, r3
100011e0:	1c11      	adds	r1, r2, #0
100011e2:	68fb      	ldr	r3, [r7, #12]
100011e4:	1d02      	adds	r2, r0, #4
100011e6:	0092      	lsls	r2, r2, #2
100011e8:	50d1      	str	r1, [r2, r3]

  /* HW port control is disabled */
  port->HWSEL &= ~(uint32_t)((uint32_t)PORT_HWSEL_Msk << ((uint32_t)pin << 1U));
100011ea:	68fb      	ldr	r3, [r7, #12]
100011ec:	6f5b      	ldr	r3, [r3, #116]	; 0x74
100011ee:	220b      	movs	r2, #11
100011f0:	18ba      	adds	r2, r7, r2
100011f2:	7812      	ldrb	r2, [r2, #0]
100011f4:	0052      	lsls	r2, r2, #1
100011f6:	1c11      	adds	r1, r2, #0
100011f8:	2203      	movs	r2, #3
100011fa:	408a      	lsls	r2, r1
100011fc:	43d2      	mvns	r2, r2
100011fe:	401a      	ands	r2, r3
10001200:	68fb      	ldr	r3, [r7, #12]
10001202:	675a      	str	r2, [r3, #116]	; 0x74

  /* Set input hysteresis */
  port->PHCR[(uint32_t)pin >> 3U] &= ~(uint32_t)((uint32_t)PORT_PHCR_Msk << ((uint32_t)PORT_PHCR_Size * ((uint32_t)pin & 0x7U)));
10001204:	230b      	movs	r3, #11
10001206:	18fb      	adds	r3, r7, r3
10001208:	781b      	ldrb	r3, [r3, #0]
1000120a:	08db      	lsrs	r3, r3, #3
1000120c:	b2db      	uxtb	r3, r3
1000120e:	1c18      	adds	r0, r3, #0
10001210:	230b      	movs	r3, #11
10001212:	18fb      	adds	r3, r7, r3
10001214:	781b      	ldrb	r3, [r3, #0]
10001216:	08db      	lsrs	r3, r3, #3
10001218:	b2db      	uxtb	r3, r3
1000121a:	1c1a      	adds	r2, r3, #0
1000121c:	68fb      	ldr	r3, [r7, #12]
1000121e:	3210      	adds	r2, #16
10001220:	0092      	lsls	r2, r2, #2
10001222:	58d3      	ldr	r3, [r2, r3]
10001224:	220b      	movs	r2, #11
10001226:	18ba      	adds	r2, r7, r2
10001228:	7812      	ldrb	r2, [r2, #0]
1000122a:	2107      	movs	r1, #7
1000122c:	400a      	ands	r2, r1
1000122e:	0092      	lsls	r2, r2, #2
10001230:	1c11      	adds	r1, r2, #0
10001232:	2204      	movs	r2, #4
10001234:	408a      	lsls	r2, r1
10001236:	43d2      	mvns	r2, r2
10001238:	401a      	ands	r2, r3
1000123a:	1c11      	adds	r1, r2, #0
1000123c:	68fb      	ldr	r3, [r7, #12]
1000123e:	1c02      	adds	r2, r0, #0
10001240:	3210      	adds	r2, #16
10001242:	0092      	lsls	r2, r2, #2
10001244:	50d1      	str	r1, [r2, r3]
  port->PHCR[(uint32_t)pin >> 3U] |= (uint32_t)config->input_hysteresis << ((uint32_t)PORT_PHCR_Size * ((uint32_t)pin & 0x7U));
10001246:	230b      	movs	r3, #11
10001248:	18fb      	adds	r3, r7, r3
1000124a:	781b      	ldrb	r3, [r3, #0]
1000124c:	08db      	lsrs	r3, r3, #3
1000124e:	b2db      	uxtb	r3, r3
10001250:	1c18      	adds	r0, r3, #0
10001252:	230b      	movs	r3, #11
10001254:	18fb      	adds	r3, r7, r3
10001256:	781b      	ldrb	r3, [r3, #0]
10001258:	08db      	lsrs	r3, r3, #3
1000125a:	b2db      	uxtb	r3, r3
1000125c:	1c1a      	adds	r2, r3, #0
1000125e:	68fb      	ldr	r3, [r7, #12]
10001260:	3210      	adds	r2, #16
10001262:	0092      	lsls	r2, r2, #2
10001264:	58d2      	ldr	r2, [r2, r3]
10001266:	687b      	ldr	r3, [r7, #4]
10001268:	785b      	ldrb	r3, [r3, #1]
1000126a:	1c1c      	adds	r4, r3, #0
1000126c:	230b      	movs	r3, #11
1000126e:	18fb      	adds	r3, r7, r3
10001270:	781b      	ldrb	r3, [r3, #0]
10001272:	2107      	movs	r1, #7
10001274:	400b      	ands	r3, r1
10001276:	009b      	lsls	r3, r3, #2
10001278:	409c      	lsls	r4, r3
1000127a:	1c23      	adds	r3, r4, #0
1000127c:	431a      	orrs	r2, r3
1000127e:	1c11      	adds	r1, r2, #0
10001280:	68fb      	ldr	r3, [r7, #12]
10001282:	1c02      	adds	r2, r0, #0
10001284:	3210      	adds	r2, #16
10001286:	0092      	lsls	r2, r2, #2
10001288:	50d1      	str	r1, [r2, r3]

  /* Enable digital input */
  if (XMC_GPIO_CHECK_ANALOG_PORT(port))
1000128a:	68fb      	ldr	r3, [r7, #12]
1000128c:	4a20      	ldr	r2, [pc, #128]	; (10001310 <XMC_GPIO_Init+0x178>)
1000128e:	4293      	cmp	r3, r2
10001290:	d10b      	bne.n	100012aa <XMC_GPIO_Init+0x112>
  {
    port->PDISC &= ~(uint32_t)((uint32_t)0x1U << pin);
10001292:	68fb      	ldr	r3, [r7, #12]
10001294:	6e1b      	ldr	r3, [r3, #96]	; 0x60
10001296:	220b      	movs	r2, #11
10001298:	18ba      	adds	r2, r7, r2
1000129a:	7812      	ldrb	r2, [r2, #0]
1000129c:	2101      	movs	r1, #1
1000129e:	4091      	lsls	r1, r2
100012a0:	1c0a      	adds	r2, r1, #0
100012a2:	43d2      	mvns	r2, r2
100012a4:	401a      	ands	r2, r3
100012a6:	68fb      	ldr	r3, [r7, #12]
100012a8:	661a      	str	r2, [r3, #96]	; 0x60
  }

  if ((config->mode & XMC_GPIO_MODE_OE) != 0)
100012aa:	687b      	ldr	r3, [r7, #4]
100012ac:	781b      	ldrb	r3, [r3, #0]
100012ae:	b2db      	uxtb	r3, r3
100012b0:	b25b      	sxtb	r3, r3
100012b2:	2b00      	cmp	r3, #0
100012b4:	da07      	bge.n	100012c6 <XMC_GPIO_Init+0x12e>
  {
    /* If output is enabled */

    /* Set output level */
    port->OMR = (uint32_t)config->output_level << pin;
100012b6:	687b      	ldr	r3, [r7, #4]
100012b8:	685a      	ldr	r2, [r3, #4]
100012ba:	230b      	movs	r3, #11
100012bc:	18fb      	adds	r3, r7, r3
100012be:	781b      	ldrb	r3, [r3, #0]
100012c0:	409a      	lsls	r2, r3
100012c2:	68fb      	ldr	r3, [r7, #12]
100012c4:	605a      	str	r2, [r3, #4]
  }

  /* Set mode */
  port->IOCR[pin >> 2U] |= (uint32_t)config->mode << (PORT_IOCR_PC_Size * (pin & 0x3U));
100012c6:	230b      	movs	r3, #11
100012c8:	18fb      	adds	r3, r7, r3
100012ca:	781b      	ldrb	r3, [r3, #0]
100012cc:	089b      	lsrs	r3, r3, #2
100012ce:	b2db      	uxtb	r3, r3
100012d0:	1c18      	adds	r0, r3, #0
100012d2:	230b      	movs	r3, #11
100012d4:	18fb      	adds	r3, r7, r3
100012d6:	781b      	ldrb	r3, [r3, #0]
100012d8:	089b      	lsrs	r3, r3, #2
100012da:	b2db      	uxtb	r3, r3
100012dc:	1c1a      	adds	r2, r3, #0
100012de:	68fb      	ldr	r3, [r7, #12]
100012e0:	3204      	adds	r2, #4
100012e2:	0092      	lsls	r2, r2, #2
100012e4:	58d2      	ldr	r2, [r2, r3]
100012e6:	687b      	ldr	r3, [r7, #4]
100012e8:	781b      	ldrb	r3, [r3, #0]
100012ea:	1c1c      	adds	r4, r3, #0
100012ec:	230b      	movs	r3, #11
100012ee:	18fb      	adds	r3, r7, r3
100012f0:	781b      	ldrb	r3, [r3, #0]
100012f2:	2103      	movs	r1, #3
100012f4:	400b      	ands	r3, r1
100012f6:	00db      	lsls	r3, r3, #3
100012f8:	409c      	lsls	r4, r3
100012fa:	1c23      	adds	r3, r4, #0
100012fc:	431a      	orrs	r2, r3
100012fe:	1c11      	adds	r1, r2, #0
10001300:	68fb      	ldr	r3, [r7, #12]
10001302:	1d02      	adds	r2, r0, #4
10001304:	0092      	lsls	r2, r2, #2
10001306:	50d1      	str	r1, [r2, r3]
}
10001308:	46bd      	mov	sp, r7
1000130a:	b005      	add	sp, #20
1000130c:	bd90      	pop	{r4, r7, pc}
1000130e:	46c0      	nop			; (mov r8, r8)
10001310:	40040200 	.word	0x40040200

10001314 <XMC_SCU_INTERRUPT_EnableEvent>:
}
#endif

/* API to enable the SCU event */
void XMC_SCU_INTERRUPT_EnableEvent(const XMC_SCU_INTERRUPT_EVENT_t event)
{
10001314:	b5b0      	push	{r4, r5, r7, lr}
10001316:	b082      	sub	sp, #8
10001318:	af00      	add	r7, sp, #0
1000131a:	6038      	str	r0, [r7, #0]
1000131c:	6079      	str	r1, [r7, #4]
  SCU_INTERRUPT->SRMSK |= (uint32_t)event;
1000131e:	4b09      	ldr	r3, [pc, #36]	; (10001344 <XMC_SCU_INTERRUPT_EnableEvent+0x30>)
10001320:	4a08      	ldr	r2, [pc, #32]	; (10001344 <XMC_SCU_INTERRUPT_EnableEvent+0x30>)
10001322:	6851      	ldr	r1, [r2, #4]
10001324:	683a      	ldr	r2, [r7, #0]
10001326:	430a      	orrs	r2, r1
10001328:	605a      	str	r2, [r3, #4]
#if UC_SERIES == XMC14
  SCU_INTERRUPT->SRMSK1 |= (uint32_t)(event >> 32U);
1000132a:	4b06      	ldr	r3, [pc, #24]	; (10001344 <XMC_SCU_INTERRUPT_EnableEvent+0x30>)
1000132c:	4a05      	ldr	r2, [pc, #20]	; (10001344 <XMC_SCU_INTERRUPT_EnableEvent+0x30>)
1000132e:	6a52      	ldr	r2, [r2, #36]	; 0x24
10001330:	6879      	ldr	r1, [r7, #4]
10001332:	000c      	movs	r4, r1
10001334:	2100      	movs	r1, #0
10001336:	1c0d      	adds	r5, r1, #0
10001338:	1c21      	adds	r1, r4, #0
1000133a:	430a      	orrs	r2, r1
1000133c:	625a      	str	r2, [r3, #36]	; 0x24
#endif
}
1000133e:	46bd      	mov	sp, r7
10001340:	b002      	add	sp, #8
10001342:	bdb0      	pop	{r4, r5, r7, pc}
10001344:	40010038 	.word	0x40010038

10001348 <XMC_SCU_INTERUPT_GetEventStatus>:
#endif
}

/* API to get the SCU event status */
XMC_SCU_INTERRUPT_EVENT_t XMC_SCU_INTERUPT_GetEventStatus(void)
{
10001348:	b5b0      	push	{r4, r5, r7, lr}
1000134a:	b082      	sub	sp, #8
1000134c:	af00      	add	r7, sp, #0
  XMC_SCU_INTERRUPT_EVENT_t tmp;

  tmp = SCU_INTERRUPT->SRRAW;
1000134e:	4b0e      	ldr	r3, [pc, #56]	; (10001388 <XMC_SCU_INTERUPT_GetEventStatus+0x40>)
10001350:	681b      	ldr	r3, [r3, #0]
10001352:	603b      	str	r3, [r7, #0]
10001354:	2300      	movs	r3, #0
10001356:	607b      	str	r3, [r7, #4]
#if UC_SERIES == XMC14
  tmp |= ((int64_t)SCU_INTERRUPT->SRRAW1 << 32U);
10001358:	4b0b      	ldr	r3, [pc, #44]	; (10001388 <XMC_SCU_INTERUPT_GetEventStatus+0x40>)
1000135a:	6a1b      	ldr	r3, [r3, #32]
1000135c:	1c1c      	adds	r4, r3, #0
1000135e:	2300      	movs	r3, #0
10001360:	1c1d      	adds	r5, r3, #0
10001362:	0022      	movs	r2, r4
10001364:	2300      	movs	r3, #0
10001366:	1c19      	adds	r1, r3, #0
10001368:	1c0b      	adds	r3, r1, #0
1000136a:	1c14      	adds	r4, r2, #0
1000136c:	683a      	ldr	r2, [r7, #0]
1000136e:	431a      	orrs	r2, r3
10001370:	603a      	str	r2, [r7, #0]
10001372:	687a      	ldr	r2, [r7, #4]
10001374:	4322      	orrs	r2, r4
10001376:	1c13      	adds	r3, r2, #0
10001378:	607b      	str	r3, [r7, #4]
#endif
  return (tmp);
1000137a:	683b      	ldr	r3, [r7, #0]
1000137c:	687c      	ldr	r4, [r7, #4]
}
1000137e:	1c18      	adds	r0, r3, #0
10001380:	1c21      	adds	r1, r4, #0
10001382:	46bd      	mov	sp, r7
10001384:	b002      	add	sp, #8
10001386:	bdb0      	pop	{r4, r5, r7, pc}
10001388:	40010038 	.word	0x40010038

1000138c <XMC_SCU_INTERRUPT_ClearEventStatus>:

/* API to clear the SCU event status */
void XMC_SCU_INTERRUPT_ClearEventStatus(const XMC_SCU_INTERRUPT_EVENT_t event)
{
1000138c:	b5b0      	push	{r4, r5, r7, lr}
1000138e:	b082      	sub	sp, #8
10001390:	af00      	add	r7, sp, #0
10001392:	6038      	str	r0, [r7, #0]
10001394:	6079      	str	r1, [r7, #4]
  SCU_INTERRUPT->SRCLR |= (uint32_t)event;
10001396:	4b09      	ldr	r3, [pc, #36]	; (100013bc <XMC_SCU_INTERRUPT_ClearEventStatus+0x30>)
10001398:	4a08      	ldr	r2, [pc, #32]	; (100013bc <XMC_SCU_INTERRUPT_ClearEventStatus+0x30>)
1000139a:	6891      	ldr	r1, [r2, #8]
1000139c:	683a      	ldr	r2, [r7, #0]
1000139e:	430a      	orrs	r2, r1
100013a0:	609a      	str	r2, [r3, #8]
#if UC_SERIES == XMC14
  SCU_INTERRUPT->SRCLR1 |= (uint32_t)(event >> 32U);
100013a2:	4b06      	ldr	r3, [pc, #24]	; (100013bc <XMC_SCU_INTERRUPT_ClearEventStatus+0x30>)
100013a4:	4a05      	ldr	r2, [pc, #20]	; (100013bc <XMC_SCU_INTERRUPT_ClearEventStatus+0x30>)
100013a6:	6a92      	ldr	r2, [r2, #40]	; 0x28
100013a8:	6879      	ldr	r1, [r7, #4]
100013aa:	000c      	movs	r4, r1
100013ac:	2100      	movs	r1, #0
100013ae:	1c0d      	adds	r5, r1, #0
100013b0:	1c21      	adds	r1, r4, #0
100013b2:	430a      	orrs	r2, r1
100013b4:	629a      	str	r2, [r3, #40]	; 0x28
#endif
}
100013b6:	46bd      	mov	sp, r7
100013b8:	b002      	add	sp, #8
100013ba:	bdb0      	pop	{r4, r5, r7, pc}
100013bc:	40010038 	.word	0x40010038

100013c0 <XMC_SCU_LockProtectedBits>:

/* API to lock protected bitfields from being modified */
void XMC_SCU_LockProtectedBits(void)
{
100013c0:	b580      	push	{r7, lr}
100013c2:	af00      	add	r7, sp, #0
  SCU_GENERAL->PASSWD = SCU_GCU_PASSWD_PROT_ENABLE;
100013c4:	4b02      	ldr	r3, [pc, #8]	; (100013d0 <XMC_SCU_LockProtectedBits+0x10>)
100013c6:	22c3      	movs	r2, #195	; 0xc3
100013c8:	625a      	str	r2, [r3, #36]	; 0x24
}
100013ca:	46bd      	mov	sp, r7
100013cc:	bd80      	pop	{r7, pc}
100013ce:	46c0      	nop			; (mov r8, r8)
100013d0:	40010000 	.word	0x40010000

100013d4 <XMC_SCU_UnlockProtectedBits>:

/* API to make protected bitfields available for modification */
void XMC_SCU_UnlockProtectedBits(void)
{
100013d4:	b580      	push	{r7, lr}
100013d6:	af00      	add	r7, sp, #0
  SCU_GENERAL->PASSWD = SCU_GCU_PASSWD_PROT_DISABLE;
100013d8:	4b05      	ldr	r3, [pc, #20]	; (100013f0 <XMC_SCU_UnlockProtectedBits+0x1c>)
100013da:	22c0      	movs	r2, #192	; 0xc0
100013dc:	625a      	str	r2, [r3, #36]	; 0x24

  while (((SCU_GENERAL->PASSWD) & SCU_GENERAL_PASSWD_PROTS_Msk))
100013de:	46c0      	nop			; (mov r8, r8)
100013e0:	4b03      	ldr	r3, [pc, #12]	; (100013f0 <XMC_SCU_UnlockProtectedBits+0x1c>)
100013e2:	6a5b      	ldr	r3, [r3, #36]	; 0x24
100013e4:	2204      	movs	r2, #4
100013e6:	4013      	ands	r3, r2
100013e8:	d1fa      	bne.n	100013e0 <XMC_SCU_UnlockProtectedBits+0xc>
  {
    /* Loop until the lock is removed */
  }
}
100013ea:	46bd      	mov	sp, r7
100013ec:	bd80      	pop	{r7, pc}
100013ee:	46c0      	nop			; (mov r8, r8)
100013f0:	40010000 	.word	0x40010000

100013f4 <XMC_SCU_CLOCK_Init>:
}


/* API which initializes the clock tree ofthe device */
void XMC_SCU_CLOCK_Init(const XMC_SCU_CLOCK_CONFIG_t *const config)
{
100013f4:	b580      	push	{r7, lr}
100013f6:	b086      	sub	sp, #24
100013f8:	af00      	add	r7, sp, #0
100013fa:	6078      	str	r0, [r7, #4]
  /* Remove protection */
  XMC_SCU_UnlockProtectedBits();
100013fc:	f7ff ffea 	bl	100013d4 <XMC_SCU_UnlockProtectedBits>

#if (UC_SERIES == XMC14)
  /* OSCHP source selection - OSC mode */

  if (config->oschp_mode != XMC_SCU_CLOCK_OSCHP_MODE_DISABLED)
10001400:	687b      	ldr	r3, [r7, #4]
10001402:	799b      	ldrb	r3, [r3, #6]
10001404:	2b30      	cmp	r3, #48	; 0x30
10001406:	d053      	beq.n	100014b0 <XMC_SCU_CLOCK_Init+0xbc>
  {
    if (OSCHP_GetFrequency() > 20000000U)
10001408:	f7ff feb6 	bl	10001178 <OSCHP_GetFrequency>
1000140c:	1e02      	subs	r2, r0, #0
1000140e:	4b49      	ldr	r3, [pc, #292]	; (10001534 <XMC_SCU_CLOCK_Init+0x140>)
10001410:	429a      	cmp	r2, r3
10001412:	d909      	bls.n	10001428 <XMC_SCU_CLOCK_Init+0x34>
    {
      SCU_ANALOG->ANAOSCHPCTRL |= (uint16_t)SCU_ANALOG_ANAOSCHPCTRL_HYSCTRL_Msk;
10001414:	4a48      	ldr	r2, [pc, #288]	; (10001538 <XMC_SCU_CLOCK_Init+0x144>)
10001416:	4948      	ldr	r1, [pc, #288]	; (10001538 <XMC_SCU_CLOCK_Init+0x144>)
10001418:	2390      	movs	r3, #144	; 0x90
1000141a:	5acb      	ldrh	r3, [r1, r3]
1000141c:	b29b      	uxth	r3, r3
1000141e:	2140      	movs	r1, #64	; 0x40
10001420:	430b      	orrs	r3, r1
10001422:	b299      	uxth	r1, r3
10001424:	2390      	movs	r3, #144	; 0x90
10001426:	52d1      	strh	r1, [r2, r3]
    }

    SCU_ANALOG->ANAOSCHPCTRL = (uint16_t)(SCU_ANALOG->ANAOSCHPCTRL & ~(SCU_ANALOG_ANAOSCHPCTRL_SHBY_Msk | SCU_ANALOG_ANAOSCHPCTRL_MODE_Msk)) |
10001428:	4a43      	ldr	r2, [pc, #268]	; (10001538 <XMC_SCU_CLOCK_Init+0x144>)
1000142a:	4943      	ldr	r1, [pc, #268]	; (10001538 <XMC_SCU_CLOCK_Init+0x144>)
1000142c:	2390      	movs	r3, #144	; 0x90
1000142e:	5acb      	ldrh	r3, [r1, r3]
10001430:	b29b      	uxth	r3, r3
10001432:	b29b      	uxth	r3, r3
10001434:	1c19      	adds	r1, r3, #0
10001436:	2332      	movs	r3, #50	; 0x32
10001438:	4399      	bics	r1, r3
1000143a:	1c0b      	adds	r3, r1, #0
1000143c:	b299      	uxth	r1, r3
                               config->oschp_mode;
1000143e:	687b      	ldr	r3, [r7, #4]
10001440:	799b      	ldrb	r3, [r3, #6]
    if (OSCHP_GetFrequency() > 20000000U)
    {
      SCU_ANALOG->ANAOSCHPCTRL |= (uint16_t)SCU_ANALOG_ANAOSCHPCTRL_HYSCTRL_Msk;
    }

    SCU_ANALOG->ANAOSCHPCTRL = (uint16_t)(SCU_ANALOG->ANAOSCHPCTRL & ~(SCU_ANALOG_ANAOSCHPCTRL_SHBY_Msk | SCU_ANALOG_ANAOSCHPCTRL_MODE_Msk)) |
10001442:	b29b      	uxth	r3, r3
10001444:	430b      	orrs	r3, r1
10001446:	b29b      	uxth	r3, r3
10001448:	b299      	uxth	r1, r3
1000144a:	2390      	movs	r3, #144	; 0x90
1000144c:	52d1      	strh	r1, [r2, r3]
                               config->oschp_mode;

    do
    {
      /* clear the status bit before restarting the detection. */
      SCU_INTERRUPT->SRCLR1 = SCU_INTERRUPT_SRCLR1_LOECI_Msk;
1000144e:	4b3b      	ldr	r3, [pc, #236]	; (1000153c <XMC_SCU_CLOCK_Init+0x148>)
10001450:	2202      	movs	r2, #2
10001452:	629a      	str	r2, [r3, #40]	; 0x28

      /* According to errata SCU_CM.023, to reset the XOWD it is needed to disable/enable the watchdog,
         keeping in between at least one DCO2 cycle */

      /* Disable XOWD */
      SCU_CLK->OSCCSR &= ~SCU_CLK_OSCCSR_XOWDEN_Msk;
10001454:	4b3a      	ldr	r3, [pc, #232]	; (10001540 <XMC_SCU_CLOCK_Init+0x14c>)
10001456:	4a3a      	ldr	r2, [pc, #232]	; (10001540 <XMC_SCU_CLOCK_Init+0x14c>)
10001458:	6952      	ldr	r2, [r2, #20]
1000145a:	493a      	ldr	r1, [pc, #232]	; (10001544 <XMC_SCU_CLOCK_Init+0x150>)
1000145c:	400a      	ands	r2, r1
1000145e:	615a      	str	r2, [r3, #20]
10001460:	4b39      	ldr	r3, [pc, #228]	; (10001548 <XMC_SCU_CLOCK_Init+0x154>)
10001462:	617b      	str	r3, [r7, #20]
10001464:	e000      	b.n	10001468 <XMC_SCU_CLOCK_Init+0x74>
/* This is a local function used to generate the delay until register get updated with new configured value.  */
__STATIC_FORCEINLINE void delay(uint32_t cycles)
{
  while (--cycles > 0U)
  {
    __NOP();
10001466:	46c0      	nop			; (mov r8, r8)

#if UC_SERIES == XMC14
/* This is a local function used to generate the delay until register get updated with new configured value.  */
__STATIC_FORCEINLINE void delay(uint32_t cycles)
{
  while (--cycles > 0U)
10001468:	697b      	ldr	r3, [r7, #20]
1000146a:	3b01      	subs	r3, #1
1000146c:	617b      	str	r3, [r7, #20]
1000146e:	697b      	ldr	r3, [r7, #20]
10001470:	2b00      	cmp	r3, #0
10001472:	d1f8      	bne.n	10001466 <XMC_SCU_CLOCK_Init+0x72>
      /* Clock domains synchronization, at least 1 DCO2 cycle */
      /* delay value calculation assuming worst case DCO1=48Mhz and 3cycles per delay iteration */
      delay(538);

      /* Enable XOWD */
      SCU_CLK->OSCCSR |= SCU_CLK_OSCCSR_XOWDEN_Msk | SCU_CLK_OSCCSR_XOWDRES_Msk;
10001474:	4b32      	ldr	r3, [pc, #200]	; (10001540 <XMC_SCU_CLOCK_Init+0x14c>)
10001476:	4a32      	ldr	r2, [pc, #200]	; (10001540 <XMC_SCU_CLOCK_Init+0x14c>)
10001478:	6952      	ldr	r2, [r2, #20]
1000147a:	21c0      	movs	r1, #192	; 0xc0
1000147c:	0489      	lsls	r1, r1, #18
1000147e:	430a      	orrs	r2, r1
10001480:	615a      	str	r2, [r3, #20]

      /* OSCCSR.XOWDRES bit will be automatically reset to 0 after XOWD is reset */
      while (SCU_CLK->OSCCSR & SCU_CLK_OSCCSR_XOWDRES_Msk);
10001482:	46c0      	nop			; (mov r8, r8)
10001484:	4b2e      	ldr	r3, [pc, #184]	; (10001540 <XMC_SCU_CLOCK_Init+0x14c>)
10001486:	695a      	ldr	r2, [r3, #20]
10001488:	2380      	movs	r3, #128	; 0x80
1000148a:	045b      	lsls	r3, r3, #17
1000148c:	4013      	ands	r3, r2
1000148e:	d1f9      	bne.n	10001484 <XMC_SCU_CLOCK_Init+0x90>
10001490:	4b2e      	ldr	r3, [pc, #184]	; (1000154c <XMC_SCU_CLOCK_Init+0x158>)
10001492:	613b      	str	r3, [r7, #16]
10001494:	e000      	b.n	10001498 <XMC_SCU_CLOCK_Init+0xa4>
/* This is a local function used to generate the delay until register get updated with new configured value.  */
__STATIC_FORCEINLINE void delay(uint32_t cycles)
{
  while (--cycles > 0U)
  {
    __NOP();
10001496:	46c0      	nop			; (mov r8, r8)

#if UC_SERIES == XMC14
/* This is a local function used to generate the delay until register get updated with new configured value.  */
__STATIC_FORCEINLINE void delay(uint32_t cycles)
{
  while (--cycles > 0U)
10001498:	693b      	ldr	r3, [r7, #16]
1000149a:	3b01      	subs	r3, #1
1000149c:	613b      	str	r3, [r7, #16]
1000149e:	693b      	ldr	r3, [r7, #16]
100014a0:	2b00      	cmp	r3, #0
100014a2:	d1f8      	bne.n	10001496 <XMC_SCU_CLOCK_Init+0xa2>
      /* Wait a at least 5 DCO2 cycles for the update of the XTAL OWD result */
      /* delay value calculation assuming worst case DCO1=48Mhz and 3cycles per delay iteration */
      delay(2685);

    }
    while (SCU_INTERRUPT->SRRAW1 & SCU_INTERRUPT_SRRAW1_LOECI_Msk);
100014a4:	4b25      	ldr	r3, [pc, #148]	; (1000153c <XMC_SCU_CLOCK_Init+0x148>)
100014a6:	6a1b      	ldr	r3, [r3, #32]
100014a8:	2202      	movs	r2, #2
100014aa:	4013      	ands	r3, r2
100014ac:	d1cf      	bne.n	1000144e <XMC_SCU_CLOCK_Init+0x5a>
100014ae:	e009      	b.n	100014c4 <XMC_SCU_CLOCK_Init+0xd0>
  }
  else /* (config->oschp_mode == XMC_SCU_CLOCK_OSCHP_MODE_DISABLED) */
  {
    SCU_ANALOG->ANAOSCHPCTRL |= SCU_ANALOG_ANAOSCHPCTRL_MODE_Msk;
100014b0:	4a21      	ldr	r2, [pc, #132]	; (10001538 <XMC_SCU_CLOCK_Init+0x144>)
100014b2:	4921      	ldr	r1, [pc, #132]	; (10001538 <XMC_SCU_CLOCK_Init+0x144>)
100014b4:	2390      	movs	r3, #144	; 0x90
100014b6:	5acb      	ldrh	r3, [r1, r3]
100014b8:	b29b      	uxth	r3, r3
100014ba:	2130      	movs	r1, #48	; 0x30
100014bc:	430b      	orrs	r3, r1
100014be:	b299      	uxth	r1, r3
100014c0:	2390      	movs	r3, #144	; 0x90
100014c2:	52d1      	strh	r1, [r2, r3]
  }

  SCU_ANALOG->ANAOSCLPCTRL = (uint16_t)config->osclp_mode;
100014c4:	4a1c      	ldr	r2, [pc, #112]	; (10001538 <XMC_SCU_CLOCK_Init+0x144>)
100014c6:	687b      	ldr	r3, [r7, #4]
100014c8:	79db      	ldrb	r3, [r3, #7]
100014ca:	b299      	uxth	r1, r3
100014cc:	238c      	movs	r3, #140	; 0x8c
100014ce:	52d1      	strh	r1, [r2, r3]
#ifndef DISABLE_WAIT_RTC_XTAL_OSC_STARTUP
  if (config->osclp_mode == XMC_SCU_CLOCK_OSCLP_MODE_OSC)
100014d0:	687b      	ldr	r3, [r7, #4]
100014d2:	79db      	ldrb	r3, [r3, #7]
100014d4:	2b00      	cmp	r3, #0
100014d6:	d109      	bne.n	100014ec <XMC_SCU_CLOCK_Init+0xf8>
100014d8:	4b1d      	ldr	r3, [pc, #116]	; (10001550 <XMC_SCU_CLOCK_Init+0x15c>)
100014da:	60fb      	str	r3, [r7, #12]
100014dc:	e000      	b.n	100014e0 <XMC_SCU_CLOCK_Init+0xec>
/* This is a local function used to generate the delay until register get updated with new configured value.  */
__STATIC_FORCEINLINE void delay(uint32_t cycles)
{
  while (--cycles > 0U)
  {
    __NOP();
100014de:	46c0      	nop			; (mov r8, r8)

#if UC_SERIES == XMC14
/* This is a local function used to generate the delay until register get updated with new configured value.  */
__STATIC_FORCEINLINE void delay(uint32_t cycles)
{
  while (--cycles > 0U)
100014e0:	68fb      	ldr	r3, [r7, #12]
100014e2:	3b01      	subs	r3, #1
100014e4:	60fb      	str	r3, [r7, #12]
100014e6:	68fb      	ldr	r3, [r7, #12]
100014e8:	2b00      	cmp	r3, #0
100014ea:	d1f8      	bne.n	100014de <XMC_SCU_CLOCK_Init+0xea>
    /* Wait oscillator startup time ~5s */
    delay(6500000);
  }
#endif

  SCU_CLK->CLKCR1 = (SCU_CLK->CLKCR1 & ~SCU_CLK_CLKCR1_DCLKSEL_Msk) |
100014ec:	4b14      	ldr	r3, [pc, #80]	; (10001540 <XMC_SCU_CLOCK_Init+0x14c>)
100014ee:	4a14      	ldr	r2, [pc, #80]	; (10001540 <XMC_SCU_CLOCK_Init+0x14c>)
100014f0:	69d2      	ldr	r2, [r2, #28]
100014f2:	4918      	ldr	r1, [pc, #96]	; (10001554 <XMC_SCU_CLOCK_Init+0x160>)
100014f4:	400a      	ands	r2, r1
                    config->dclk_src;
100014f6:	6879      	ldr	r1, [r7, #4]
100014f8:	8889      	ldrh	r1, [r1, #4]
    /* Wait oscillator startup time ~5s */
    delay(6500000);
  }
#endif

  SCU_CLK->CLKCR1 = (SCU_CLK->CLKCR1 & ~SCU_CLK_CLKCR1_DCLKSEL_Msk) |
100014fa:	430a      	orrs	r2, r1
100014fc:	61da      	str	r2, [r3, #28]
                    config->dclk_src;

#endif
  /* Update PCLK selection mux. */
  SCU_CLK->CLKCR = (SCU_CLK->CLKCR & (uint32_t)~(SCU_CLK_CLKCR_PCLKSEL_Msk | SCU_CLK_CLKCR_RTCCLKSEL_Msk)) |
100014fe:	4a10      	ldr	r2, [pc, #64]	; (10001540 <XMC_SCU_CLOCK_Init+0x14c>)
10001500:	4b0f      	ldr	r3, [pc, #60]	; (10001540 <XMC_SCU_CLOCK_Init+0x14c>)
10001502:	681b      	ldr	r3, [r3, #0]
10001504:	4914      	ldr	r1, [pc, #80]	; (10001558 <XMC_SCU_CLOCK_Init+0x164>)
10001506:	4019      	ands	r1, r3
                   config->rtc_src |
10001508:	687b      	ldr	r3, [r7, #4]
1000150a:	68db      	ldr	r3, [r3, #12]
  SCU_CLK->CLKCR1 = (SCU_CLK->CLKCR1 & ~SCU_CLK_CLKCR1_DCLKSEL_Msk) |
                    config->dclk_src;

#endif
  /* Update PCLK selection mux. */
  SCU_CLK->CLKCR = (SCU_CLK->CLKCR & (uint32_t)~(SCU_CLK_CLKCR_PCLKSEL_Msk | SCU_CLK_CLKCR_RTCCLKSEL_Msk)) |
1000150c:	4319      	orrs	r1, r3
                   config->rtc_src |
                   config->pclk_src;
1000150e:	687b      	ldr	r3, [r7, #4]
10001510:	689b      	ldr	r3, [r3, #8]
                    config->dclk_src;

#endif
  /* Update PCLK selection mux. */
  SCU_CLK->CLKCR = (SCU_CLK->CLKCR & (uint32_t)~(SCU_CLK_CLKCR_PCLKSEL_Msk | SCU_CLK_CLKCR_RTCCLKSEL_Msk)) |
                   config->rtc_src |
10001512:	430b      	orrs	r3, r1
  SCU_CLK->CLKCR1 = (SCU_CLK->CLKCR1 & ~SCU_CLK_CLKCR1_DCLKSEL_Msk) |
                    config->dclk_src;

#endif
  /* Update PCLK selection mux. */
  SCU_CLK->CLKCR = (SCU_CLK->CLKCR & (uint32_t)~(SCU_CLK_CLKCR_PCLKSEL_Msk | SCU_CLK_CLKCR_RTCCLKSEL_Msk)) |
10001514:	6013      	str	r3, [r2, #0]
                   config->rtc_src |
                   config->pclk_src;

  /* Close the lock opened above. */
  XMC_SCU_LockProtectedBits();
10001516:	f7ff ff53 	bl	100013c0 <XMC_SCU_LockProtectedBits>

  /* Update the dividers now */
  XMC_SCU_CLOCK_ScaleMCLKFrequency(config->idiv, config->fdiv);
1000151a:	687b      	ldr	r3, [r7, #4]
1000151c:	789b      	ldrb	r3, [r3, #2]
1000151e:	1c1a      	adds	r2, r3, #0
10001520:	687b      	ldr	r3, [r7, #4]
10001522:	881b      	ldrh	r3, [r3, #0]
10001524:	1c10      	adds	r0, r2, #0
10001526:	1c19      	adds	r1, r3, #0
10001528:	f000 f832 	bl	10001590 <XMC_SCU_CLOCK_ScaleMCLKFrequency>

}
1000152c:	46bd      	mov	sp, r7
1000152e:	b006      	add	sp, #24
10001530:	bd80      	pop	{r7, pc}
10001532:	46c0      	nop			; (mov r8, r8)
10001534:	01312d00 	.word	0x01312d00
10001538:	40011000 	.word	0x40011000
1000153c:	40010038 	.word	0x40010038
10001540:	40010300 	.word	0x40010300
10001544:	fdffffff 	.word	0xfdffffff
10001548:	0000021a 	.word	0x0000021a
1000154c:	00000a7d 	.word	0x00000a7d
10001550:	00632ea0 	.word	0x00632ea0
10001554:	fffffdff 	.word	0xfffffdff
10001558:	fff0ffff 	.word	0xfff0ffff

1000155c <XMC_SCU_CLOCK_UngatePeripheralClock>:
  XMC_SCU_LockProtectedBits();
}

/* API which ungates a clock note at its source */
void XMC_SCU_CLOCK_UngatePeripheralClock(const XMC_SCU_PERIPHERAL_CLOCK_t peripheral)
{
1000155c:	b580      	push	{r7, lr}
1000155e:	b082      	sub	sp, #8
10001560:	af00      	add	r7, sp, #0
10001562:	6078      	str	r0, [r7, #4]
  XMC_SCU_UnlockProtectedBits();
10001564:	f7ff ff36 	bl	100013d4 <XMC_SCU_UnlockProtectedBits>
  SCU_CLK->CGATCLR0 |= (uint32_t)peripheral;
10001568:	4b08      	ldr	r3, [pc, #32]	; (1000158c <XMC_SCU_CLOCK_UngatePeripheralClock+0x30>)
1000156a:	4a08      	ldr	r2, [pc, #32]	; (1000158c <XMC_SCU_CLOCK_UngatePeripheralClock+0x30>)
1000156c:	6911      	ldr	r1, [r2, #16]
1000156e:	687a      	ldr	r2, [r7, #4]
10001570:	430a      	orrs	r2, r1
10001572:	611a      	str	r2, [r3, #16]
  while ((SCU_CLK->CLKCR) & SCU_CLK_CLKCR_VDDC2LOW_Msk)
10001574:	46c0      	nop			; (mov r8, r8)
10001576:	4b05      	ldr	r3, [pc, #20]	; (1000158c <XMC_SCU_CLOCK_UngatePeripheralClock+0x30>)
10001578:	681a      	ldr	r2, [r3, #0]
1000157a:	2380      	movs	r3, #128	; 0x80
1000157c:	05db      	lsls	r3, r3, #23
1000157e:	4013      	ands	r3, r2
10001580:	d1f9      	bne.n	10001576 <XMC_SCU_CLOCK_UngatePeripheralClock+0x1a>
  {
    /* Wait voltage suply stabilization */
  }
  XMC_SCU_LockProtectedBits();
10001582:	f7ff ff1d 	bl	100013c0 <XMC_SCU_LockProtectedBits>
}
10001586:	46bd      	mov	sp, r7
10001588:	b002      	add	sp, #8
1000158a:	bd80      	pop	{r7, pc}
1000158c:	40010300 	.word	0x40010300

10001590 <XMC_SCU_CLOCK_ScaleMCLKFrequency>:
}


/* A utility routine which updates the fractional dividers in steps */
void XMC_SCU_CLOCK_ScaleMCLKFrequency(uint32_t idiv, uint32_t fdiv)
{
10001590:	b580      	push	{r7, lr}
10001592:	b084      	sub	sp, #16
10001594:	af00      	add	r7, sp, #0
10001596:	6078      	str	r0, [r7, #4]
10001598:	6039      	str	r1, [r7, #0]
  /* Find out current and target value of idiv */
  uint32_t curr_idiv;

  XMC_SCU_UnlockProtectedBits();
1000159a:	f7ff ff1b 	bl	100013d4 <XMC_SCU_UnlockProtectedBits>

  /* Take a snapshot of value already programmed into IDIV */
  curr_idiv = (SCU_CLK->CLKCR & SCU_CLK_CLKCR_IDIV_Msk) >> SCU_CLK_CLKCR_IDIV_Pos;
1000159e:	4b27      	ldr	r3, [pc, #156]	; (1000163c <XMC_SCU_CLOCK_ScaleMCLKFrequency+0xac>)
100015a0:	681a      	ldr	r2, [r3, #0]
100015a2:	23ff      	movs	r3, #255	; 0xff
100015a4:	021b      	lsls	r3, r3, #8
100015a6:	4013      	ands	r3, r2
100015a8:	0a1b      	lsrs	r3, r3, #8
100015aa:	60fb      	str	r3, [r7, #12]

#if (UC_SERIES == XMC14)
  SCU_CLK->CLKCR1 = (SCU_CLK->CLKCR1 & (uint32_t)~(SCU_CLK_CLKCR1_FDIV_Msk)) |
100015ac:	4b23      	ldr	r3, [pc, #140]	; (1000163c <XMC_SCU_CLOCK_ScaleMCLKFrequency+0xac>)
100015ae:	4a23      	ldr	r2, [pc, #140]	; (1000163c <XMC_SCU_CLOCK_ScaleMCLKFrequency+0xac>)
100015b0:	69d2      	ldr	r2, [r2, #28]
100015b2:	2103      	movs	r1, #3
100015b4:	438a      	bics	r2, r1
100015b6:	1c11      	adds	r1, r2, #0
                    (uint32_t)((fdiv >> 8U) << SCU_CLK_CLKCR1_FDIV_Pos);
100015b8:	683a      	ldr	r2, [r7, #0]
100015ba:	0a12      	lsrs	r2, r2, #8

  /* Take a snapshot of value already programmed into IDIV */
  curr_idiv = (SCU_CLK->CLKCR & SCU_CLK_CLKCR_IDIV_Msk) >> SCU_CLK_CLKCR_IDIV_Pos;

#if (UC_SERIES == XMC14)
  SCU_CLK->CLKCR1 = (SCU_CLK->CLKCR1 & (uint32_t)~(SCU_CLK_CLKCR1_FDIV_Msk)) |
100015bc:	430a      	orrs	r2, r1
100015be:	61da      	str	r2, [r3, #28]
                    (uint32_t)((fdiv >> 8U) << SCU_CLK_CLKCR1_FDIV_Pos);

  SCU_CLK->CLKCR = (SCU_CLK->CLKCR & (uint32_t)~(SCU_CLK_CLKCR_FDIV_Msk | SCU_CLK_CLKCR_CNTADJ_Msk)) |
100015c0:	4b1e      	ldr	r3, [pc, #120]	; (1000163c <XMC_SCU_CLOCK_ScaleMCLKFrequency+0xac>)
100015c2:	4a1e      	ldr	r2, [pc, #120]	; (1000163c <XMC_SCU_CLOCK_ScaleMCLKFrequency+0xac>)
100015c4:	6812      	ldr	r2, [r2, #0]
100015c6:	491e      	ldr	r1, [pc, #120]	; (10001640 <XMC_SCU_CLOCK_ScaleMCLKFrequency+0xb0>)
100015c8:	4011      	ands	r1, r2
                   (uint32_t)((fdiv & 0xffU) << SCU_CLK_CLKCR_FDIV_Pos) |
100015ca:	683a      	ldr	r2, [r7, #0]
100015cc:	20ff      	movs	r0, #255	; 0xff
100015ce:	4002      	ands	r2, r0

#if (UC_SERIES == XMC14)
  SCU_CLK->CLKCR1 = (SCU_CLK->CLKCR1 & (uint32_t)~(SCU_CLK_CLKCR1_FDIV_Msk)) |
                    (uint32_t)((fdiv >> 8U) << SCU_CLK_CLKCR1_FDIV_Pos);

  SCU_CLK->CLKCR = (SCU_CLK->CLKCR & (uint32_t)~(SCU_CLK_CLKCR_FDIV_Msk | SCU_CLK_CLKCR_CNTADJ_Msk)) |
100015d0:	430a      	orrs	r2, r1
                   (uint32_t)((fdiv & 0xffU) << SCU_CLK_CLKCR_FDIV_Pos) |
100015d2:	491c      	ldr	r1, [pc, #112]	; (10001644 <XMC_SCU_CLOCK_ScaleMCLKFrequency+0xb4>)
100015d4:	430a      	orrs	r2, r1

#if (UC_SERIES == XMC14)
  SCU_CLK->CLKCR1 = (SCU_CLK->CLKCR1 & (uint32_t)~(SCU_CLK_CLKCR1_FDIV_Msk)) |
                    (uint32_t)((fdiv >> 8U) << SCU_CLK_CLKCR1_FDIV_Pos);

  SCU_CLK->CLKCR = (SCU_CLK->CLKCR & (uint32_t)~(SCU_CLK_CLKCR_FDIV_Msk | SCU_CLK_CLKCR_CNTADJ_Msk)) |
100015d6:	601a      	str	r2, [r3, #0]
  SCU_CLK->CLKCR = (SCU_CLK->CLKCR & (uint32_t)~(SCU_CLK_CLKCR_FDIV_Msk | SCU_CLK_CLKCR_CNTADJ_Msk)) |
                   (uint32_t)(fdiv << SCU_CLK_CLKCR_FDIV_Pos) |
                   (uint32_t)(1023UL << SCU_CLK_CLKCR_CNTADJ_Pos);
#endif

  while ((SCU_CLK->CLKCR)& SCU_CLK_CLKCR_VDDC2LOW_Msk)
100015d8:	46c0      	nop			; (mov r8, r8)
100015da:	4b18      	ldr	r3, [pc, #96]	; (1000163c <XMC_SCU_CLOCK_ScaleMCLKFrequency+0xac>)
100015dc:	681a      	ldr	r2, [r3, #0]
100015de:	2380      	movs	r3, #128	; 0x80
100015e0:	05db      	lsls	r3, r3, #23
100015e2:	4013      	ands	r3, r2
100015e4:	d1f9      	bne.n	100015da <XMC_SCU_CLOCK_ScaleMCLKFrequency+0x4a>
  {
    /* Spin until the core supply stabilizes */
  }

  if (curr_idiv <= idiv)
100015e6:	68fa      	ldr	r2, [r7, #12]
100015e8:	687b      	ldr	r3, [r7, #4]
100015ea:	429a      	cmp	r2, r3
100015ec:	d806      	bhi.n	100015fc <XMC_SCU_CLOCK_ScaleMCLKFrequency+0x6c>
  {
    /* Requested IDIV is greater than currently programmed IDIV. So downscale the frequency */
    XMC_SCU_CLOCK_lFrequencyDownScaling(curr_idiv, idiv);
100015ee:	68fa      	ldr	r2, [r7, #12]
100015f0:	687b      	ldr	r3, [r7, #4]
100015f2:	1c10      	adds	r0, r2, #0
100015f4:	1c19      	adds	r1, r3, #0
100015f6:	f000 f853 	bl	100016a0 <XMC_SCU_CLOCK_lFrequencyDownScaling>
100015fa:	e005      	b.n	10001608 <XMC_SCU_CLOCK_ScaleMCLKFrequency+0x78>
  }
  else
  {
    /* Requested IDIV is lower than currently programmed IDIV. So upscale the frequency */
    XMC_SCU_CLOCK_lFrequencyUpScaling(curr_idiv, idiv);
100015fc:	68fa      	ldr	r2, [r7, #12]
100015fe:	687b      	ldr	r3, [r7, #4]
10001600:	1c10      	adds	r0, r2, #0
10001602:	1c19      	adds	r1, r3, #0
10001604:	f000 f822 	bl	1000164c <XMC_SCU_CLOCK_lFrequencyUpScaling>
  }

  SCU_CLK->CLKCR = (SCU_CLK->CLKCR & (uint32_t)~(SCU_CLK_CLKCR_IDIV_Msk | SCU_CLK_CLKCR_CNTADJ_Msk)) |
10001608:	4b0c      	ldr	r3, [pc, #48]	; (1000163c <XMC_SCU_CLOCK_ScaleMCLKFrequency+0xac>)
1000160a:	4a0c      	ldr	r2, [pc, #48]	; (1000163c <XMC_SCU_CLOCK_ScaleMCLKFrequency+0xac>)
1000160c:	6812      	ldr	r2, [r2, #0]
1000160e:	490e      	ldr	r1, [pc, #56]	; (10001648 <XMC_SCU_CLOCK_ScaleMCLKFrequency+0xb8>)
10001610:	4011      	ands	r1, r2
                   (uint32_t)(idiv << SCU_CLK_CLKCR_IDIV_Pos) | (uint32_t)(1023UL << SCU_CLK_CLKCR_CNTADJ_Pos);
10001612:	687a      	ldr	r2, [r7, #4]
10001614:	0212      	lsls	r2, r2, #8
  {
    /* Requested IDIV is lower than currently programmed IDIV. So upscale the frequency */
    XMC_SCU_CLOCK_lFrequencyUpScaling(curr_idiv, idiv);
  }

  SCU_CLK->CLKCR = (SCU_CLK->CLKCR & (uint32_t)~(SCU_CLK_CLKCR_IDIV_Msk | SCU_CLK_CLKCR_CNTADJ_Msk)) |
10001616:	430a      	orrs	r2, r1
                   (uint32_t)(idiv << SCU_CLK_CLKCR_IDIV_Pos) | (uint32_t)(1023UL << SCU_CLK_CLKCR_CNTADJ_Pos);
10001618:	490a      	ldr	r1, [pc, #40]	; (10001644 <XMC_SCU_CLOCK_ScaleMCLKFrequency+0xb4>)
1000161a:	430a      	orrs	r2, r1
  {
    /* Requested IDIV is lower than currently programmed IDIV. So upscale the frequency */
    XMC_SCU_CLOCK_lFrequencyUpScaling(curr_idiv, idiv);
  }

  SCU_CLK->CLKCR = (SCU_CLK->CLKCR & (uint32_t)~(SCU_CLK_CLKCR_IDIV_Msk | SCU_CLK_CLKCR_CNTADJ_Msk)) |
1000161c:	601a      	str	r2, [r3, #0]
                   (uint32_t)(idiv << SCU_CLK_CLKCR_IDIV_Pos) | (uint32_t)(1023UL << SCU_CLK_CLKCR_CNTADJ_Pos);

  while ((SCU_CLK->CLKCR) & SCU_CLK_CLKCR_VDDC2LOW_Msk)
1000161e:	46c0      	nop			; (mov r8, r8)
10001620:	4b06      	ldr	r3, [pc, #24]	; (1000163c <XMC_SCU_CLOCK_ScaleMCLKFrequency+0xac>)
10001622:	681a      	ldr	r2, [r3, #0]
10001624:	2380      	movs	r3, #128	; 0x80
10001626:	05db      	lsls	r3, r3, #23
10001628:	4013      	ands	r3, r2
1000162a:	d1f9      	bne.n	10001620 <XMC_SCU_CLOCK_ScaleMCLKFrequency+0x90>
  {
    /* Wait voltage suply stabilization */
  }

  XMC_SCU_LockProtectedBits();
1000162c:	f7ff fec8 	bl	100013c0 <XMC_SCU_LockProtectedBits>

  SystemCoreClockUpdate();
10001630:	f7ff fd3e 	bl	100010b0 <SystemCoreClockUpdate>

}
10001634:	46bd      	mov	sp, r7
10001636:	b004      	add	sp, #16
10001638:	bd80      	pop	{r7, pc}
1000163a:	46c0      	nop			; (mov r8, r8)
1000163c:	40010300 	.word	0x40010300
10001640:	c00fff00 	.word	0xc00fff00
10001644:	3ff00000 	.word	0x3ff00000
10001648:	c00f00ff 	.word	0xc00f00ff

1000164c <XMC_SCU_CLOCK_lFrequencyUpScaling>:

/* Utility routine to perform frequency up scaling */
static void XMC_SCU_CLOCK_lFrequencyUpScaling(uint32_t curr_idiv, uint32_t target_idiv)
{
1000164c:	b580      	push	{r7, lr}
1000164e:	b082      	sub	sp, #8
10001650:	af00      	add	r7, sp, #0
10001652:	6078      	str	r0, [r7, #4]
10001654:	6039      	str	r1, [r7, #0]
  while (curr_idiv > (target_idiv * 4UL))
10001656:	e014      	b.n	10001682 <XMC_SCU_CLOCK_lFrequencyUpScaling+0x36>
  {
    curr_idiv = (uint32_t)(curr_idiv >> 2UL);   /* Divide by 4. */
10001658:	687b      	ldr	r3, [r7, #4]
1000165a:	089b      	lsrs	r3, r3, #2
1000165c:	607b      	str	r3, [r7, #4]

    SCU_CLK->CLKCR = (SCU_CLK->CLKCR & (uint32_t)~(SCU_CLK_CLKCR_IDIV_Msk | SCU_CLK_CLKCR_CNTADJ_Msk)) |
1000165e:	4b0d      	ldr	r3, [pc, #52]	; (10001694 <XMC_SCU_CLOCK_lFrequencyUpScaling+0x48>)
10001660:	4a0c      	ldr	r2, [pc, #48]	; (10001694 <XMC_SCU_CLOCK_lFrequencyUpScaling+0x48>)
10001662:	6812      	ldr	r2, [r2, #0]
10001664:	490c      	ldr	r1, [pc, #48]	; (10001698 <XMC_SCU_CLOCK_lFrequencyUpScaling+0x4c>)
10001666:	4011      	ands	r1, r2
                     (uint32_t)(curr_idiv << SCU_CLK_CLKCR_IDIV_Pos) |
10001668:	687a      	ldr	r2, [r7, #4]
1000166a:	0212      	lsls	r2, r2, #8
{
  while (curr_idiv > (target_idiv * 4UL))
  {
    curr_idiv = (uint32_t)(curr_idiv >> 2UL);   /* Divide by 4. */

    SCU_CLK->CLKCR = (SCU_CLK->CLKCR & (uint32_t)~(SCU_CLK_CLKCR_IDIV_Msk | SCU_CLK_CLKCR_CNTADJ_Msk)) |
1000166c:	430a      	orrs	r2, r1
                     (uint32_t)(curr_idiv << SCU_CLK_CLKCR_IDIV_Pos) |
1000166e:	490b      	ldr	r1, [pc, #44]	; (1000169c <XMC_SCU_CLOCK_lFrequencyUpScaling+0x50>)
10001670:	430a      	orrs	r2, r1
{
  while (curr_idiv > (target_idiv * 4UL))
  {
    curr_idiv = (uint32_t)(curr_idiv >> 2UL);   /* Divide by 4. */

    SCU_CLK->CLKCR = (SCU_CLK->CLKCR & (uint32_t)~(SCU_CLK_CLKCR_IDIV_Msk | SCU_CLK_CLKCR_CNTADJ_Msk)) |
10001672:	601a      	str	r2, [r3, #0]
                     (uint32_t)(curr_idiv << SCU_CLK_CLKCR_IDIV_Pos) |
                     (uint32_t)(1023UL << SCU_CLK_CLKCR_CNTADJ_Pos);

    while (SCU_CLK->CLKCR & SCU_CLK_CLKCR_VDDC2LOW_Msk)
10001674:	46c0      	nop			; (mov r8, r8)
10001676:	4b07      	ldr	r3, [pc, #28]	; (10001694 <XMC_SCU_CLOCK_lFrequencyUpScaling+0x48>)
10001678:	681a      	ldr	r2, [r3, #0]
1000167a:	2380      	movs	r3, #128	; 0x80
1000167c:	05db      	lsls	r3, r3, #23
1000167e:	4013      	ands	r3, r2
10001680:	d1f9      	bne.n	10001676 <XMC_SCU_CLOCK_lFrequencyUpScaling+0x2a>
}

/* Utility routine to perform frequency up scaling */
static void XMC_SCU_CLOCK_lFrequencyUpScaling(uint32_t curr_idiv, uint32_t target_idiv)
{
  while (curr_idiv > (target_idiv * 4UL))
10001682:	683b      	ldr	r3, [r7, #0]
10001684:	009a      	lsls	r2, r3, #2
10001686:	687b      	ldr	r3, [r7, #4]
10001688:	429a      	cmp	r2, r3
1000168a:	d3e5      	bcc.n	10001658 <XMC_SCU_CLOCK_lFrequencyUpScaling+0xc>
    while (SCU_CLK->CLKCR & SCU_CLK_CLKCR_VDDC2LOW_Msk)
    {
      /* Wait voltage suply stabilization */
    }
  }
}
1000168c:	46bd      	mov	sp, r7
1000168e:	b002      	add	sp, #8
10001690:	bd80      	pop	{r7, pc}
10001692:	46c0      	nop			; (mov r8, r8)
10001694:	40010300 	.word	0x40010300
10001698:	c00f00ff 	.word	0xc00f00ff
1000169c:	3ff00000 	.word	0x3ff00000

100016a0 <XMC_SCU_CLOCK_lFrequencyDownScaling>:

/* Utility routine to perform frequency down scaling */
static void XMC_SCU_CLOCK_lFrequencyDownScaling(uint32_t curr_idiv, uint32_t target_idiv)
{
100016a0:	b580      	push	{r7, lr}
100016a2:	b082      	sub	sp, #8
100016a4:	af00      	add	r7, sp, #0
100016a6:	6078      	str	r0, [r7, #4]
100016a8:	6039      	str	r1, [r7, #0]

  while ((curr_idiv * 4UL) < target_idiv)
100016aa:	e019      	b.n	100016e0 <XMC_SCU_CLOCK_lFrequencyDownScaling+0x40>
  {
    if (0U == curr_idiv)
100016ac:	687b      	ldr	r3, [r7, #4]
100016ae:	2b00      	cmp	r3, #0
100016b0:	d101      	bne.n	100016b6 <XMC_SCU_CLOCK_lFrequencyDownScaling+0x16>
    {
      curr_idiv = 1U;
100016b2:	2301      	movs	r3, #1
100016b4:	607b      	str	r3, [r7, #4]
    }
    curr_idiv  = (uint32_t)(curr_idiv << 2UL);   /* Multiply by 4. */
100016b6:	687b      	ldr	r3, [r7, #4]
100016b8:	009b      	lsls	r3, r3, #2
100016ba:	607b      	str	r3, [r7, #4]
    SCU_CLK->CLKCR = (SCU_CLK->CLKCR & (uint32_t)~(SCU_CLK_CLKCR_IDIV_Msk | SCU_CLK_CLKCR_CNTADJ_Msk)) |
100016bc:	4b0c      	ldr	r3, [pc, #48]	; (100016f0 <XMC_SCU_CLOCK_lFrequencyDownScaling+0x50>)
100016be:	4a0c      	ldr	r2, [pc, #48]	; (100016f0 <XMC_SCU_CLOCK_lFrequencyDownScaling+0x50>)
100016c0:	6812      	ldr	r2, [r2, #0]
100016c2:	490c      	ldr	r1, [pc, #48]	; (100016f4 <XMC_SCU_CLOCK_lFrequencyDownScaling+0x54>)
100016c4:	4011      	ands	r1, r2
                     (uint32_t)(curr_idiv << SCU_CLK_CLKCR_IDIV_Pos) |
100016c6:	687a      	ldr	r2, [r7, #4]
100016c8:	0212      	lsls	r2, r2, #8
    if (0U == curr_idiv)
    {
      curr_idiv = 1U;
    }
    curr_idiv  = (uint32_t)(curr_idiv << 2UL);   /* Multiply by 4. */
    SCU_CLK->CLKCR = (SCU_CLK->CLKCR & (uint32_t)~(SCU_CLK_CLKCR_IDIV_Msk | SCU_CLK_CLKCR_CNTADJ_Msk)) |
100016ca:	430a      	orrs	r2, r1
                     (uint32_t)(curr_idiv << SCU_CLK_CLKCR_IDIV_Pos) |
100016cc:	490a      	ldr	r1, [pc, #40]	; (100016f8 <XMC_SCU_CLOCK_lFrequencyDownScaling+0x58>)
100016ce:	430a      	orrs	r2, r1
    if (0U == curr_idiv)
    {
      curr_idiv = 1U;
    }
    curr_idiv  = (uint32_t)(curr_idiv << 2UL);   /* Multiply by 4. */
    SCU_CLK->CLKCR = (SCU_CLK->CLKCR & (uint32_t)~(SCU_CLK_CLKCR_IDIV_Msk | SCU_CLK_CLKCR_CNTADJ_Msk)) |
100016d0:	601a      	str	r2, [r3, #0]
                     (uint32_t)(curr_idiv << SCU_CLK_CLKCR_IDIV_Pos) |
                     (uint32_t)(1023UL << SCU_CLK_CLKCR_CNTADJ_Pos);

    while (SCU_CLK->CLKCR & SCU_CLK_CLKCR_VDDC2LOW_Msk)
100016d2:	46c0      	nop			; (mov r8, r8)
100016d4:	4b06      	ldr	r3, [pc, #24]	; (100016f0 <XMC_SCU_CLOCK_lFrequencyDownScaling+0x50>)
100016d6:	681a      	ldr	r2, [r3, #0]
100016d8:	2380      	movs	r3, #128	; 0x80
100016da:	05db      	lsls	r3, r3, #23
100016dc:	4013      	ands	r3, r2
100016de:	d1f9      	bne.n	100016d4 <XMC_SCU_CLOCK_lFrequencyDownScaling+0x34>

/* Utility routine to perform frequency down scaling */
static void XMC_SCU_CLOCK_lFrequencyDownScaling(uint32_t curr_idiv, uint32_t target_idiv)
{

  while ((curr_idiv * 4UL) < target_idiv)
100016e0:	687b      	ldr	r3, [r7, #4]
100016e2:	009a      	lsls	r2, r3, #2
100016e4:	683b      	ldr	r3, [r7, #0]
100016e6:	429a      	cmp	r2, r3
100016e8:	d3e0      	bcc.n	100016ac <XMC_SCU_CLOCK_lFrequencyDownScaling+0xc>
    while (SCU_CLK->CLKCR & SCU_CLK_CLKCR_VDDC2LOW_Msk)
    {
      /* Wait voltage suply stabilization */
    }
  }
}
100016ea:	46bd      	mov	sp, r7
100016ec:	b002      	add	sp, #8
100016ee:	bd80      	pop	{r7, pc}
100016f0:	40010300 	.word	0x40010300
100016f4:	c00f00ff 	.word	0xc00f00ff
100016f8:	3ff00000 	.word	0x3ff00000

100016fc <XMC_SCU_CLOCK_GetPeripheralClockFrequency>:

/*
 * API to retrieve clock frequency of peripherals on the peripheral bus using a shared functional clock
 */
uint32_t XMC_SCU_CLOCK_GetPeripheralClockFrequency(void)
{
100016fc:	b580      	push	{r7, lr}
100016fe:	af00      	add	r7, sp, #0
  return (SystemCoreClock);
10001700:	4b02      	ldr	r3, [pc, #8]	; (1000170c <XMC_SCU_CLOCK_GetPeripheralClockFrequency+0x10>)
10001702:	681b      	ldr	r3, [r3, #0]
}
10001704:	1c18      	adds	r0, r3, #0
10001706:	46bd      	mov	sp, r7
10001708:	bd80      	pop	{r7, pc}
1000170a:	46c0      	nop			; (mov r8, r8)
1000170c:	20003ffc 	.word	0x20003ffc

10001710 <XMC_SCU_INTERRUPT_SetEventHandler>:

/*
 * API to assign the event handler function to be executed on occurrence of the selected event
 */
XMC_SCU_STATUS_t XMC_SCU_INTERRUPT_SetEventHandler(XMC_SCU_INTERRUPT_EVENT_t event, XMC_SCU_INTERRUPT_EVENT_HANDLER_t handler)
{
10001710:	b5f0      	push	{r4, r5, r6, r7, lr}
10001712:	b087      	sub	sp, #28
10001714:	af00      	add	r7, sp, #0
10001716:	60b8      	str	r0, [r7, #8]
10001718:	60f9      	str	r1, [r7, #12]
1000171a:	607a      	str	r2, [r7, #4]
  XMC_SCU_STATUS_t status;

  XMC_ASSERT("XMC_SCU_INTERRUPT_SetEventHandler: Invalid event", XMC_SCU_INTERRUPT_IsValidEvent(event));
  XMC_ASSERT("XMC_SCU_INTERRUPT_SetEventHandler: Invalid handler", handler != NULL);

  index = 0U;
1000171c:	2200      	movs	r2, #0
1000171e:	617a      	str	r2, [r7, #20]

  while (((event & ((XMC_SCU_INTERRUPT_EVENT_t)1 << index)) == 0U) && (index < XMC_SCU_INTERRUPT_EVENT_MAX))
10001720:	e002      	b.n	10001728 <XMC_SCU_INTERRUPT_SetEventHandler+0x18>
  {
    index++;
10001722:	697a      	ldr	r2, [r7, #20]
10001724:	3201      	adds	r2, #1
10001726:	617a      	str	r2, [r7, #20]
  XMC_ASSERT("XMC_SCU_INTERRUPT_SetEventHandler: Invalid event", XMC_SCU_INTERRUPT_IsValidEvent(event));
  XMC_ASSERT("XMC_SCU_INTERRUPT_SetEventHandler: Invalid handler", handler != NULL);

  index = 0U;

  while (((event & ((XMC_SCU_INTERRUPT_EVENT_t)1 << index)) == 0U) && (index < XMC_SCU_INTERRUPT_EVENT_MAX))
10001728:	697a      	ldr	r2, [r7, #20]
1000172a:	1c11      	adds	r1, r2, #0
1000172c:	3920      	subs	r1, #32
1000172e:	2900      	cmp	r1, #0
10001730:	db03      	blt.n	1000173a <XMC_SCU_INTERRUPT_SetEventHandler+0x2a>
10001732:	68f8      	ldr	r0, [r7, #12]
10001734:	40c8      	lsrs	r0, r1
10001736:	1c03      	adds	r3, r0, #0
10001738:	e008      	b.n	1000174c <XMC_SCU_INTERRUPT_SetEventHandler+0x3c>
1000173a:	2120      	movs	r1, #32
1000173c:	1a89      	subs	r1, r1, r2
1000173e:	68f8      	ldr	r0, [r7, #12]
10001740:	4088      	lsls	r0, r1
10001742:	1c01      	adds	r1, r0, #0
10001744:	68b8      	ldr	r0, [r7, #8]
10001746:	40d0      	lsrs	r0, r2
10001748:	1c03      	adds	r3, r0, #0
1000174a:	430b      	orrs	r3, r1
1000174c:	68f9      	ldr	r1, [r7, #12]
1000174e:	40d1      	lsrs	r1, r2
10001750:	1c0c      	adds	r4, r1, #0
10001752:	2201      	movs	r2, #1
10001754:	401a      	ands	r2, r3
10001756:	1c15      	adds	r5, r2, #0
10001758:	2200      	movs	r2, #0
1000175a:	4022      	ands	r2, r4
1000175c:	1c16      	adds	r6, r2, #0
1000175e:	1c2a      	adds	r2, r5, #0
10001760:	4332      	orrs	r2, r6
10001762:	d102      	bne.n	1000176a <XMC_SCU_INTERRUPT_SetEventHandler+0x5a>
10001764:	697a      	ldr	r2, [r7, #20]
10001766:	2a3f      	cmp	r2, #63	; 0x3f
10001768:	d9db      	bls.n	10001722 <XMC_SCU_INTERRUPT_SetEventHandler+0x12>
  {
    index++;
  }

  if (index == XMC_SCU_INTERRUPT_EVENT_MAX)
1000176a:	697b      	ldr	r3, [r7, #20]
1000176c:	2b40      	cmp	r3, #64	; 0x40
1000176e:	d104      	bne.n	1000177a <XMC_SCU_INTERRUPT_SetEventHandler+0x6a>
  {
    status = XMC_SCU_STATUS_ERROR;
10001770:	2313      	movs	r3, #19
10001772:	18fb      	adds	r3, r7, r3
10001774:	2201      	movs	r2, #1
10001776:	701a      	strb	r2, [r3, #0]
10001778:	e008      	b.n	1000178c <XMC_SCU_INTERRUPT_SetEventHandler+0x7c>
  }
  else
  {
    event_handler_list[index] = handler;
1000177a:	4b08      	ldr	r3, [pc, #32]	; (1000179c <XMC_SCU_INTERRUPT_SetEventHandler+0x8c>)
1000177c:	697a      	ldr	r2, [r7, #20]
1000177e:	0092      	lsls	r2, r2, #2
10001780:	6879      	ldr	r1, [r7, #4]
10001782:	50d1      	str	r1, [r2, r3]
    status = XMC_SCU_STATUS_OK;
10001784:	2313      	movs	r3, #19
10001786:	18fb      	adds	r3, r7, r3
10001788:	2200      	movs	r2, #0
1000178a:	701a      	strb	r2, [r3, #0]
  }

  return (status);
1000178c:	2313      	movs	r3, #19
1000178e:	18fb      	adds	r3, r7, r3
10001790:	781b      	ldrb	r3, [r3, #0]
}
10001792:	1c18      	adds	r0, r3, #0
10001794:	46bd      	mov	sp, r7
10001796:	b007      	add	sp, #28
10001798:	bdf0      	pop	{r4, r5, r6, r7, pc}
1000179a:	46c0      	nop			; (mov r8, r8)
1000179c:	20000858 	.word	0x20000858

100017a0 <XMC_SCU_IRQHandler>:

/*
 * A common function to execute callback functions for multiple events
 */
void XMC_SCU_IRQHandler(uint32_t sr_num)
{
100017a0:	b5f0      	push	{r4, r5, r6, r7, lr}
100017a2:	b08f      	sub	sp, #60	; 0x3c
100017a4:	af00      	add	r7, sp, #0
100017a6:	61f8      	str	r0, [r7, #28]

  uint32_t index;
  XMC_SCU_INTERRUPT_EVENT_t event;
  XMC_SCU_INTERRUPT_EVENT_HANDLER_t event_handler;

  index = 0U;
100017a8:	2300      	movs	r3, #0
100017aa:	637b      	str	r3, [r7, #52]	; 0x34
  event = XMC_SCU_INTERUPT_GetEventStatus() & event_masks[sr_num];
100017ac:	f7ff fdcc 	bl	10001348 <XMC_SCU_INTERUPT_GetEventStatus>
100017b0:	4a38      	ldr	r2, [pc, #224]	; (10001894 <XMC_SCU_IRQHandler+0xf4>)
100017b2:	69fb      	ldr	r3, [r7, #28]
100017b4:	00db      	lsls	r3, r3, #3
100017b6:	18d3      	adds	r3, r2, r3
100017b8:	681a      	ldr	r2, [r3, #0]
100017ba:	685b      	ldr	r3, [r3, #4]
100017bc:	1c16      	adds	r6, r2, #0
100017be:	4006      	ands	r6, r0
100017c0:	62be      	str	r6, [r7, #40]	; 0x28
100017c2:	400b      	ands	r3, r1
100017c4:	62fb      	str	r3, [r7, #44]	; 0x2c
  XMC_SCU_INTERRUPT_ClearEventStatus(event);
100017c6:	6aba      	ldr	r2, [r7, #40]	; 0x28
100017c8:	6afb      	ldr	r3, [r7, #44]	; 0x2c
100017ca:	1c10      	adds	r0, r2, #0
100017cc:	1c19      	adds	r1, r3, #0
100017ce:	f7ff fddd 	bl	1000138c <XMC_SCU_INTERRUPT_ClearEventStatus>

  while ((event != 0) && (index < XMC_SCU_INTERRUPT_EVENT_MAX))
100017d2:	e055      	b.n	10001880 <XMC_SCU_IRQHandler+0xe0>
  {
    if ((event & ((XMC_SCU_INTERRUPT_EVENT_t)1 << index)) != 0U)
100017d4:	6b7b      	ldr	r3, [r7, #52]	; 0x34
100017d6:	1c1a      	adds	r2, r3, #0
100017d8:	3a20      	subs	r2, #32
100017da:	2a00      	cmp	r2, #0
100017dc:	db03      	blt.n	100017e6 <XMC_SCU_IRQHandler+0x46>
100017de:	6af9      	ldr	r1, [r7, #44]	; 0x2c
100017e0:	40d1      	lsrs	r1, r2
100017e2:	1c0c      	adds	r4, r1, #0
100017e4:	e008      	b.n	100017f8 <XMC_SCU_IRQHandler+0x58>
100017e6:	2220      	movs	r2, #32
100017e8:	1ad2      	subs	r2, r2, r3
100017ea:	6af9      	ldr	r1, [r7, #44]	; 0x2c
100017ec:	4091      	lsls	r1, r2
100017ee:	1c0a      	adds	r2, r1, #0
100017f0:	6ab9      	ldr	r1, [r7, #40]	; 0x28
100017f2:	40d9      	lsrs	r1, r3
100017f4:	1c0c      	adds	r4, r1, #0
100017f6:	4314      	orrs	r4, r2
100017f8:	6afa      	ldr	r2, [r7, #44]	; 0x2c
100017fa:	40da      	lsrs	r2, r3
100017fc:	1c15      	adds	r5, r2, #0
100017fe:	2301      	movs	r3, #1
10001800:	4023      	ands	r3, r4
10001802:	60bb      	str	r3, [r7, #8]
10001804:	2300      	movs	r3, #0
10001806:	402b      	ands	r3, r5
10001808:	60fb      	str	r3, [r7, #12]
1000180a:	68b9      	ldr	r1, [r7, #8]
1000180c:	68fa      	ldr	r2, [r7, #12]
1000180e:	1c0b      	adds	r3, r1, #0
10001810:	4313      	orrs	r3, r2
10001812:	d032      	beq.n	1000187a <XMC_SCU_IRQHandler+0xda>
    {
      event &= ~((XMC_SCU_INTERRUPT_EVENT_t)1 << index);
10001814:	6b7b      	ldr	r3, [r7, #52]	; 0x34
10001816:	1c1a      	adds	r2, r3, #0
10001818:	3a20      	subs	r2, #32
1000181a:	2a00      	cmp	r2, #0
1000181c:	db03      	blt.n	10001826 <XMC_SCU_IRQHandler+0x86>
1000181e:	2101      	movs	r1, #1
10001820:	4091      	lsls	r1, r2
10001822:	6179      	str	r1, [r7, #20]
10001824:	e00a      	b.n	1000183c <XMC_SCU_IRQHandler+0x9c>
10001826:	2220      	movs	r2, #32
10001828:	1ad2      	subs	r2, r2, r3
1000182a:	2101      	movs	r1, #1
1000182c:	40d1      	lsrs	r1, r2
1000182e:	1c0a      	adds	r2, r1, #0
10001830:	2100      	movs	r1, #0
10001832:	4099      	lsls	r1, r3
10001834:	6179      	str	r1, [r7, #20]
10001836:	6979      	ldr	r1, [r7, #20]
10001838:	4311      	orrs	r1, r2
1000183a:	6179      	str	r1, [r7, #20]
1000183c:	2201      	movs	r2, #1
1000183e:	409a      	lsls	r2, r3
10001840:	613a      	str	r2, [r7, #16]
10001842:	6939      	ldr	r1, [r7, #16]
10001844:	697a      	ldr	r2, [r7, #20]
10001846:	1c0b      	adds	r3, r1, #0
10001848:	43db      	mvns	r3, r3
1000184a:	603b      	str	r3, [r7, #0]
1000184c:	1c13      	adds	r3, r2, #0
1000184e:	43db      	mvns	r3, r3
10001850:	607b      	str	r3, [r7, #4]
10001852:	6abb      	ldr	r3, [r7, #40]	; 0x28
10001854:	6838      	ldr	r0, [r7, #0]
10001856:	6879      	ldr	r1, [r7, #4]
10001858:	1c02      	adds	r2, r0, #0
1000185a:	4013      	ands	r3, r2
1000185c:	62bb      	str	r3, [r7, #40]	; 0x28
1000185e:	6afb      	ldr	r3, [r7, #44]	; 0x2c
10001860:	1c0a      	adds	r2, r1, #0
10001862:	4013      	ands	r3, r2
10001864:	62fb      	str	r3, [r7, #44]	; 0x2c
      event_handler = event_handler_list[index];
10001866:	4b0c      	ldr	r3, [pc, #48]	; (10001898 <XMC_SCU_IRQHandler+0xf8>)
10001868:	6b7a      	ldr	r2, [r7, #52]	; 0x34
1000186a:	0092      	lsls	r2, r2, #2
1000186c:	58d3      	ldr	r3, [r2, r3]
1000186e:	627b      	str	r3, [r7, #36]	; 0x24
      if (event_handler != NULL)
10001870:	6a7b      	ldr	r3, [r7, #36]	; 0x24
10001872:	2b00      	cmp	r3, #0
10001874:	d001      	beq.n	1000187a <XMC_SCU_IRQHandler+0xda>
      {
        event_handler();
10001876:	6a7b      	ldr	r3, [r7, #36]	; 0x24
10001878:	4798      	blx	r3
      }

      /* break; XMC1: Only PULSE interrupts */
    }
    index++;
1000187a:	6b7b      	ldr	r3, [r7, #52]	; 0x34
1000187c:	3301      	adds	r3, #1
1000187e:	637b      	str	r3, [r7, #52]	; 0x34

  index = 0U;
  event = XMC_SCU_INTERUPT_GetEventStatus() & event_masks[sr_num];
  XMC_SCU_INTERRUPT_ClearEventStatus(event);

  while ((event != 0) && (index < XMC_SCU_INTERRUPT_EVENT_MAX))
10001880:	6abb      	ldr	r3, [r7, #40]	; 0x28
10001882:	6afa      	ldr	r2, [r7, #44]	; 0x2c
10001884:	4313      	orrs	r3, r2
10001886:	d002      	beq.n	1000188e <XMC_SCU_IRQHandler+0xee>
10001888:	6b7b      	ldr	r3, [r7, #52]	; 0x34
1000188a:	2b3f      	cmp	r3, #63	; 0x3f
1000188c:	d9a2      	bls.n	100017d4 <XMC_SCU_IRQHandler+0x34>

      /* break; XMC1: Only PULSE interrupts */
    }
    index++;
  }
}
1000188e:	46bd      	mov	sp, r7
10001890:	b00f      	add	sp, #60	; 0x3c
10001892:	bdf0      	pop	{r4, r5, r6, r7, pc}
10001894:	20000550 	.word	0x20000550
10001898:	20000858 	.word	0x20000858

1000189c <XMC_SCU_SetInterruptControl>:
  return (bool)((SCU_ANALOG->ANASYNC2 & SCU_ANALOG_ANASYNC2_SYNC_READY_Msk) != 0U);
}

/* This function selects service request source for a NVIC interrupt node */
void XMC_SCU_SetInterruptControl(uint8_t irq_number, XMC_SCU_IRQCTRL_t source)
{
1000189c:	b580      	push	{r7, lr}
1000189e:	b082      	sub	sp, #8
100018a0:	af00      	add	r7, sp, #0
100018a2:	1c02      	adds	r2, r0, #0
100018a4:	1dfb      	adds	r3, r7, #7
100018a6:	701a      	strb	r2, [r3, #0]
100018a8:	1d3b      	adds	r3, r7, #4
100018aa:	1c0a      	adds	r2, r1, #0
100018ac:	801a      	strh	r2, [r3, #0]
  XMC_ASSERT("XMC_SCU_SetInterruptControl: Invalid irq_number", irq_number < 32);
  XMC_ASSERT("XMC_SCU_SetInterruptControl: Invalid source", (source >> 8) == irq_number);

  source &= 0x3U;
100018ae:	1d3b      	adds	r3, r7, #4
100018b0:	1d3a      	adds	r2, r7, #4
100018b2:	8812      	ldrh	r2, [r2, #0]
100018b4:	2103      	movs	r1, #3
100018b6:	400a      	ands	r2, r1
100018b8:	801a      	strh	r2, [r3, #0]
  if (irq_number < 16U)
100018ba:	1dfb      	adds	r3, r7, #7
100018bc:	781b      	ldrb	r3, [r3, #0]
100018be:	2b0f      	cmp	r3, #15
100018c0:	d813      	bhi.n	100018ea <XMC_SCU_SetInterruptControl+0x4e>
  {
    SCU_GENERAL->INTCR0 = (SCU_GENERAL->INTCR0 & ~(SCU_GENERAL_INTCR_INTSEL_Msk << (irq_number * SCU_GENERAL_INTCR_INTSEL_Size))) |
100018c2:	4b18      	ldr	r3, [pc, #96]	; (10001924 <XMC_SCU_SetInterruptControl+0x88>)
100018c4:	4a17      	ldr	r2, [pc, #92]	; (10001924 <XMC_SCU_SetInterruptControl+0x88>)
100018c6:	6ed2      	ldr	r2, [r2, #108]	; 0x6c
100018c8:	1df9      	adds	r1, r7, #7
100018ca:	7809      	ldrb	r1, [r1, #0]
100018cc:	0049      	lsls	r1, r1, #1
100018ce:	1c08      	adds	r0, r1, #0
100018d0:	2103      	movs	r1, #3
100018d2:	4081      	lsls	r1, r0
100018d4:	43c9      	mvns	r1, r1
100018d6:	400a      	ands	r2, r1
                          (source << (irq_number * SCU_GENERAL_INTCR_INTSEL_Size));
100018d8:	1d39      	adds	r1, r7, #4
100018da:	8809      	ldrh	r1, [r1, #0]
100018dc:	1df8      	adds	r0, r7, #7
100018de:	7800      	ldrb	r0, [r0, #0]
100018e0:	0040      	lsls	r0, r0, #1
100018e2:	4081      	lsls	r1, r0
  XMC_ASSERT("XMC_SCU_SetInterruptControl: Invalid source", (source >> 8) == irq_number);

  source &= 0x3U;
  if (irq_number < 16U)
  {
    SCU_GENERAL->INTCR0 = (SCU_GENERAL->INTCR0 & ~(SCU_GENERAL_INTCR_INTSEL_Msk << (irq_number * SCU_GENERAL_INTCR_INTSEL_Size))) |
100018e4:	430a      	orrs	r2, r1
100018e6:	66da      	str	r2, [r3, #108]	; 0x6c
100018e8:	e018      	b.n	1000191c <XMC_SCU_SetInterruptControl+0x80>
                          (source << (irq_number * SCU_GENERAL_INTCR_INTSEL_Size));
  }
  else
  {
    irq_number &= 0x0fU;
100018ea:	1dfb      	adds	r3, r7, #7
100018ec:	1dfa      	adds	r2, r7, #7
100018ee:	7812      	ldrb	r2, [r2, #0]
100018f0:	210f      	movs	r1, #15
100018f2:	400a      	ands	r2, r1
100018f4:	701a      	strb	r2, [r3, #0]
    SCU_GENERAL->INTCR1 = (SCU_GENERAL->INTCR1 & ~(SCU_GENERAL_INTCR_INTSEL_Msk << (irq_number  * SCU_GENERAL_INTCR_INTSEL_Size))) |
100018f6:	4b0b      	ldr	r3, [pc, #44]	; (10001924 <XMC_SCU_SetInterruptControl+0x88>)
100018f8:	4a0a      	ldr	r2, [pc, #40]	; (10001924 <XMC_SCU_SetInterruptControl+0x88>)
100018fa:	6f12      	ldr	r2, [r2, #112]	; 0x70
100018fc:	1df9      	adds	r1, r7, #7
100018fe:	7809      	ldrb	r1, [r1, #0]
10001900:	0049      	lsls	r1, r1, #1
10001902:	1c08      	adds	r0, r1, #0
10001904:	2103      	movs	r1, #3
10001906:	4081      	lsls	r1, r0
10001908:	43c9      	mvns	r1, r1
1000190a:	400a      	ands	r2, r1
                          (source << (irq_number  * SCU_GENERAL_INTCR_INTSEL_Size));
1000190c:	1d39      	adds	r1, r7, #4
1000190e:	8809      	ldrh	r1, [r1, #0]
10001910:	1df8      	adds	r0, r7, #7
10001912:	7800      	ldrb	r0, [r0, #0]
10001914:	0040      	lsls	r0, r0, #1
10001916:	4081      	lsls	r1, r0
                          (source << (irq_number * SCU_GENERAL_INTCR_INTSEL_Size));
  }
  else
  {
    irq_number &= 0x0fU;
    SCU_GENERAL->INTCR1 = (SCU_GENERAL->INTCR1 & ~(SCU_GENERAL_INTCR_INTSEL_Msk << (irq_number  * SCU_GENERAL_INTCR_INTSEL_Size))) |
10001918:	430a      	orrs	r2, r1
1000191a:	671a      	str	r2, [r3, #112]	; 0x70
                          (source << (irq_number  * SCU_GENERAL_INTCR_INTSEL_Size));
  }
}
1000191c:	46bd      	mov	sp, r7
1000191e:	b002      	add	sp, #8
10001920:	bd80      	pop	{r7, pc}
10001922:	46c0      	nop			; (mov r8, r8)
10001924:	40010000 	.word	0x40010000

10001928 <XMC_CAN_IsPanelControlReady>:
 * \par<b>Related APIs:</b><BR>
 *  XMC_CAN_PanelControl()
 *
 */
__STATIC_INLINE bool XMC_CAN_IsPanelControlReady(XMC_CAN_t *const obj)
{
10001928:	b580      	push	{r7, lr}
1000192a:	b082      	sub	sp, #8
1000192c:	af00      	add	r7, sp, #0
1000192e:	6078      	str	r0, [r7, #4]
  return (bool)((obj->PANCTR & (CAN_PANCTR_BUSY_Msk | CAN_PANCTR_RBUSY_Msk)) == 0);
10001930:	687a      	ldr	r2, [r7, #4]
10001932:	23e2      	movs	r3, #226	; 0xe2
10001934:	005b      	lsls	r3, r3, #1
10001936:	58d2      	ldr	r2, [r2, r3]
10001938:	23c0      	movs	r3, #192	; 0xc0
1000193a:	009b      	lsls	r3, r3, #2
1000193c:	4013      	ands	r3, r2
1000193e:	425a      	negs	r2, r3
10001940:	4153      	adcs	r3, r2
10001942:	b2db      	uxtb	r3, r3
}
10001944:	1c18      	adds	r0, r3, #0
10001946:	46bd      	mov	sp, r7
10001948:	b002      	add	sp, #8
1000194a:	bd80      	pop	{r7, pc}

1000194c <XMC_CAN_PanelControl>:

__STATIC_INLINE void XMC_CAN_PanelControl(XMC_CAN_t *const obj,
    const XMC_CAN_PANCMD_t pancmd,
    const uint8_t arg1,
    const uint8_t arg2)
{
1000194c:	b590      	push	{r4, r7, lr}
1000194e:	b083      	sub	sp, #12
10001950:	af00      	add	r7, sp, #0
10001952:	6078      	str	r0, [r7, #4]
10001954:	1c0c      	adds	r4, r1, #0
10001956:	1c10      	adds	r0, r2, #0
10001958:	1c19      	adds	r1, r3, #0
1000195a:	1cfb      	adds	r3, r7, #3
1000195c:	1c22      	adds	r2, r4, #0
1000195e:	701a      	strb	r2, [r3, #0]
10001960:	1cbb      	adds	r3, r7, #2
10001962:	1c02      	adds	r2, r0, #0
10001964:	701a      	strb	r2, [r3, #0]
10001966:	1c7b      	adds	r3, r7, #1
10001968:	1c0a      	adds	r2, r1, #0
1000196a:	701a      	strb	r2, [r3, #0]
  obj->PANCTR = (((uint32_t)pancmd << CAN_PANCTR_PANCMD_Pos) & (uint32_t)CAN_PANCTR_PANCMD_Msk) |
1000196c:	1cfb      	adds	r3, r7, #3
1000196e:	781a      	ldrb	r2, [r3, #0]
                (((uint32_t)arg1 << CAN_PANCTR_PANAR1_Pos) & (uint32_t)CAN_PANCTR_PANAR1_Msk) |
10001970:	1cbb      	adds	r3, r7, #2
10001972:	781b      	ldrb	r3, [r3, #0]
10001974:	0419      	lsls	r1, r3, #16
10001976:	23ff      	movs	r3, #255	; 0xff
10001978:	041b      	lsls	r3, r3, #16
1000197a:	400b      	ands	r3, r1
__STATIC_INLINE void XMC_CAN_PanelControl(XMC_CAN_t *const obj,
    const XMC_CAN_PANCMD_t pancmd,
    const uint8_t arg1,
    const uint8_t arg2)
{
  obj->PANCTR = (((uint32_t)pancmd << CAN_PANCTR_PANCMD_Pos) & (uint32_t)CAN_PANCTR_PANCMD_Msk) |
1000197c:	431a      	orrs	r2, r3
                (((uint32_t)arg1 << CAN_PANCTR_PANAR1_Pos) & (uint32_t)CAN_PANCTR_PANAR1_Msk) |
                (((uint32_t)arg2 << CAN_PANCTR_PANAR2_Pos) & (uint32_t)CAN_PANCTR_PANAR2_Msk);
1000197e:	1c7b      	adds	r3, r7, #1
10001980:	781b      	ldrb	r3, [r3, #0]
10001982:	061b      	lsls	r3, r3, #24
    const XMC_CAN_PANCMD_t pancmd,
    const uint8_t arg1,
    const uint8_t arg2)
{
  obj->PANCTR = (((uint32_t)pancmd << CAN_PANCTR_PANCMD_Pos) & (uint32_t)CAN_PANCTR_PANCMD_Msk) |
                (((uint32_t)arg1 << CAN_PANCTR_PANAR1_Pos) & (uint32_t)CAN_PANCTR_PANAR1_Msk) |
10001984:	431a      	orrs	r2, r3
10001986:	1c11      	adds	r1, r2, #0
__STATIC_INLINE void XMC_CAN_PanelControl(XMC_CAN_t *const obj,
    const XMC_CAN_PANCMD_t pancmd,
    const uint8_t arg1,
    const uint8_t arg2)
{
  obj->PANCTR = (((uint32_t)pancmd << CAN_PANCTR_PANCMD_Pos) & (uint32_t)CAN_PANCTR_PANCMD_Msk) |
10001988:	687a      	ldr	r2, [r7, #4]
1000198a:	23e2      	movs	r3, #226	; 0xe2
1000198c:	005b      	lsls	r3, r3, #1
1000198e:	50d1      	str	r1, [r2, r3]
                (((uint32_t)arg1 << CAN_PANCTR_PANAR1_Pos) & (uint32_t)CAN_PANCTR_PANAR1_Msk) |
                (((uint32_t)arg2 << CAN_PANCTR_PANAR2_Pos) & (uint32_t)CAN_PANCTR_PANAR2_Msk);
}
10001990:	46bd      	mov	sp, r7
10001992:	b003      	add	sp, #12
10001994:	bd90      	pop	{r4, r7, pc}
10001996:	46c0      	nop			; (mov r8, r8)

10001998 <XMC_CAN_NODE_EnableConfigurationChange>:
 * XMC_CAN_NODE_DisableConfigurationChange()
 *
 */

__STATIC_INLINE void XMC_CAN_NODE_EnableConfigurationChange(XMC_CAN_NODE_t *const can_node)
{
10001998:	b580      	push	{r7, lr}
1000199a:	b082      	sub	sp, #8
1000199c:	af00      	add	r7, sp, #0
1000199e:	6078      	str	r0, [r7, #4]
  can_node->NCR |= (uint32_t)CAN_NODE_NCR_CCE_Msk;
100019a0:	687b      	ldr	r3, [r7, #4]
100019a2:	681b      	ldr	r3, [r3, #0]
100019a4:	2240      	movs	r2, #64	; 0x40
100019a6:	431a      	orrs	r2, r3
100019a8:	687b      	ldr	r3, [r7, #4]
100019aa:	601a      	str	r2, [r3, #0]
}
100019ac:	46bd      	mov	sp, r7
100019ae:	b002      	add	sp, #8
100019b0:	bd80      	pop	{r7, pc}
100019b2:	46c0      	nop			; (mov r8, r8)

100019b4 <XMC_CAN_NODE_DisableConfigurationChange>:
 * XMC_CAN_NODE_EnableConfigurationChange()
 *
 */

__STATIC_INLINE void XMC_CAN_NODE_DisableConfigurationChange(XMC_CAN_NODE_t *const can_node)
{
100019b4:	b580      	push	{r7, lr}
100019b6:	b082      	sub	sp, #8
100019b8:	af00      	add	r7, sp, #0
100019ba:	6078      	str	r0, [r7, #4]
  can_node->NCR &= ~(uint32_t)CAN_NODE_NCR_CCE_Msk;
100019bc:	687b      	ldr	r3, [r7, #4]
100019be:	681b      	ldr	r3, [r3, #0]
100019c0:	2240      	movs	r2, #64	; 0x40
100019c2:	4393      	bics	r3, r2
100019c4:	1c1a      	adds	r2, r3, #0
100019c6:	687b      	ldr	r3, [r7, #4]
100019c8:	601a      	str	r2, [r3, #0]
}
100019ca:	46bd      	mov	sp, r7
100019cc:	b002      	add	sp, #8
100019ce:	bd80      	pop	{r7, pc}

100019d0 <max>:

#if defined(CAN)
#include "xmc_scu.h"

__STATIC_INLINE uint32_t max(uint32_t a, uint32_t b)
{
100019d0:	b580      	push	{r7, lr}
100019d2:	b082      	sub	sp, #8
100019d4:	af00      	add	r7, sp, #0
100019d6:	6078      	str	r0, [r7, #4]
100019d8:	6039      	str	r1, [r7, #0]
  return (a > b) ? a : b;
100019da:	687a      	ldr	r2, [r7, #4]
100019dc:	683b      	ldr	r3, [r7, #0]
100019de:	4293      	cmp	r3, r2
100019e0:	d200      	bcs.n	100019e4 <max+0x14>
100019e2:	1c13      	adds	r3, r2, #0
}
100019e4:	1c18      	adds	r0, r3, #0
100019e6:	46bd      	mov	sp, r7
100019e8:	b002      	add	sp, #8
100019ea:	bd80      	pop	{r7, pc}

100019ec <min>:

__STATIC_INLINE uint32_t min(uint32_t a, uint32_t b)
{
100019ec:	b580      	push	{r7, lr}
100019ee:	b082      	sub	sp, #8
100019f0:	af00      	add	r7, sp, #0
100019f2:	6078      	str	r0, [r7, #4]
100019f4:	6039      	str	r1, [r7, #0]
  return (a < b) ? a : b;
100019f6:	687a      	ldr	r2, [r7, #4]
100019f8:	683b      	ldr	r3, [r7, #0]
100019fa:	4293      	cmp	r3, r2
100019fc:	d900      	bls.n	10001a00 <min+0x14>
100019fe:	1c13      	adds	r3, r2, #0
}
10001a00:	1c18      	adds	r0, r3, #0
10001a02:	46bd      	mov	sp, r7
10001a04:	b002      	add	sp, #8
10001a06:	bd80      	pop	{r7, pc}

10001a08 <XMC_CAN_NODE_NominalBitTimeConfigureEx>:
#define XMC_CAN_NODE_MAX_TSEG2 7


int32_t XMC_CAN_NODE_NominalBitTimeConfigureEx(XMC_CAN_NODE_t *const can_node,
    const XMC_CAN_NODE_NOMINAL_BIT_TIME_CONFIG_t *const bit_time_config)
{
10001a08:	b580      	push	{r7, lr}
10001a0a:	b088      	sub	sp, #32
10001a0c:	af00      	add	r7, sp, #0
10001a0e:	6078      	str	r0, [r7, #4]
10001a10:	6039      	str	r1, [r7, #0]
  /* Check that the CAN frequency is a multiple of the required baudrate */
  if ((bit_time_config->can_frequency % bit_time_config->baudrate) == 0)
10001a12:	683b      	ldr	r3, [r7, #0]
10001a14:	681a      	ldr	r2, [r3, #0]
10001a16:	683b      	ldr	r3, [r7, #0]
10001a18:	685b      	ldr	r3, [r3, #4]
10001a1a:	1c10      	adds	r0, r2, #0
10001a1c:	1c19      	adds	r1, r3, #0
10001a1e:	f000 fe4b 	bl	100026b8 <__aeabi_uidivmod>
10001a22:	1e0b      	subs	r3, r1, #0
10001a24:	d000      	beq.n	10001a28 <XMC_CAN_NODE_NominalBitTimeConfigureEx+0x20>
10001a26:	e096      	b.n	10001b56 <XMC_CAN_NODE_NominalBitTimeConfigureEx+0x14e>
  {
    uint32_t prescaler = 0;
10001a28:	2300      	movs	r3, #0
10001a2a:	61fb      	str	r3, [r7, #28]
    uint32_t div8 = 0;
10001a2c:	2300      	movs	r3, #0
10001a2e:	61bb      	str	r3, [r7, #24]

    /* Calculate the factor between can frequency and required baudrate, this is equal to (prescaler x ntq) */
    uint32_t fcan_div = bit_time_config->can_frequency / bit_time_config->baudrate;
10001a30:	683b      	ldr	r3, [r7, #0]
10001a32:	681a      	ldr	r2, [r3, #0]
10001a34:	683b      	ldr	r3, [r7, #0]
10001a36:	685b      	ldr	r3, [r3, #4]
10001a38:	1c10      	adds	r0, r2, #0
10001a3a:	1c19      	adds	r1, r3, #0
10001a3c:	f000 fdec 	bl	10002618 <__aeabi_uidiv>
10001a40:	1c03      	adds	r3, r0, #0
10001a42:	60bb      	str	r3, [r7, #8]

    /* start with highest ntq, i.e as much as possible time quanta should be used to construct a bit time */
    uint32_t ntq = XMC_CAN_NODE_MAX_NTQ;
10001a44:	2319      	movs	r3, #25
10001a46:	617b      	str	r3, [r7, #20]
    uint32_t tseg1 = 0;
10001a48:	2300      	movs	r3, #0
10001a4a:	613b      	str	r3, [r7, #16]
    uint32_t tseg2 = 0;
10001a4c:	2300      	movs	r3, #0
10001a4e:	60fb      	str	r3, [r7, #12]
    while (ntq >= XMC_CAN_NODE_MIN_NTQ)
10001a50:	e049      	b.n	10001ae6 <XMC_CAN_NODE_NominalBitTimeConfigureEx+0xde>
    {
      /* consider this ntq, only if fcan_div is multiple of ntq */
      if ((fcan_div % ntq) == 0)
10001a52:	68bb      	ldr	r3, [r7, #8]
10001a54:	1c18      	adds	r0, r3, #0
10001a56:	6979      	ldr	r1, [r7, #20]
10001a58:	f000 fe2e 	bl	100026b8 <__aeabi_uidivmod>
10001a5c:	1e0b      	subs	r3, r1, #0
10001a5e:	d13f      	bne.n	10001ae0 <XMC_CAN_NODE_NominalBitTimeConfigureEx+0xd8>
      {
        div8 = 0;
10001a60:	2300      	movs	r3, #0
10001a62:	61bb      	str	r3, [r7, #24]
        prescaler = fcan_div / ntq;
10001a64:	68b8      	ldr	r0, [r7, #8]
10001a66:	6979      	ldr	r1, [r7, #20]
10001a68:	f000 fdd6 	bl	10002618 <__aeabi_uidiv>
10001a6c:	1c03      	adds	r3, r0, #0
10001a6e:	61fb      	str	r3, [r7, #28]
        if ((prescaler > 0) && (prescaler <= XMC_CAN_NODE_MAX_PRESCALER))
10001a70:	69fb      	ldr	r3, [r7, #28]
10001a72:	2b00      	cmp	r3, #0
10001a74:	d034      	beq.n	10001ae0 <XMC_CAN_NODE_NominalBitTimeConfigureEx+0xd8>
10001a76:	69fa      	ldr	r2, [r7, #28]
10001a78:	2380      	movs	r3, #128	; 0x80
10001a7a:	009b      	lsls	r3, r3, #2
10001a7c:	429a      	cmp	r2, r3
10001a7e:	d82f      	bhi.n	10001ae0 <XMC_CAN_NODE_NominalBitTimeConfigureEx+0xd8>
        {
          if (prescaler >= 64)
10001a80:	69fb      	ldr	r3, [r7, #28]
10001a82:	2b3f      	cmp	r3, #63	; 0x3f
10001a84:	d909      	bls.n	10001a9a <XMC_CAN_NODE_NominalBitTimeConfigureEx+0x92>
          {
            /* consider prescaler >=64, if it is integer divisible by 8*/
            if ((prescaler & 0x7U) != 0)
10001a86:	69fb      	ldr	r3, [r7, #28]
10001a88:	2207      	movs	r2, #7
10001a8a:	4013      	ands	r3, r2
10001a8c:	d003      	beq.n	10001a96 <XMC_CAN_NODE_NominalBitTimeConfigureEx+0x8e>
            {
              --ntq;
10001a8e:	697b      	ldr	r3, [r7, #20]
10001a90:	3b01      	subs	r3, #1
10001a92:	617b      	str	r3, [r7, #20]
              continue;
10001a94:	e027      	b.n	10001ae6 <XMC_CAN_NODE_NominalBitTimeConfigureEx+0xde>
            }
            else
            {
              div8 = 1;
10001a96:	2301      	movs	r3, #1
10001a98:	61bb      	str	r3, [r7, #24]
            }
          }

          tseg1 = ((ntq - 1) * bit_time_config->sample_point) / 10000;
10001a9a:	697b      	ldr	r3, [r7, #20]
10001a9c:	3b01      	subs	r3, #1
10001a9e:	683a      	ldr	r2, [r7, #0]
10001aa0:	8912      	ldrh	r2, [r2, #8]
10001aa2:	4353      	muls	r3, r2
10001aa4:	1c18      	adds	r0, r3, #0
10001aa6:	492e      	ldr	r1, [pc, #184]	; (10001b60 <XMC_CAN_NODE_NominalBitTimeConfigureEx+0x158>)
10001aa8:	f000 fdb6 	bl	10002618 <__aeabi_uidiv>
10001aac:	1c03      	adds	r3, r0, #0
10001aae:	613b      	str	r3, [r7, #16]
          tseg2 = ntq - tseg1 - 1;
10001ab0:	697a      	ldr	r2, [r7, #20]
10001ab2:	693b      	ldr	r3, [r7, #16]
10001ab4:	1ad3      	subs	r3, r2, r3
10001ab6:	3b01      	subs	r3, #1
10001ab8:	60fb      	str	r3, [r7, #12]

          if ((XMC_CAN_NODE_MIN_TSEG1 <= tseg1) && (tseg1 <= XMC_CAN_NODE_MAX_TSEG1) &&
10001aba:	693b      	ldr	r3, [r7, #16]
10001abc:	2b02      	cmp	r3, #2
10001abe:	d90f      	bls.n	10001ae0 <XMC_CAN_NODE_NominalBitTimeConfigureEx+0xd8>
10001ac0:	693b      	ldr	r3, [r7, #16]
10001ac2:	2b0f      	cmp	r3, #15
10001ac4:	d80c      	bhi.n	10001ae0 <XMC_CAN_NODE_NominalBitTimeConfigureEx+0xd8>
10001ac6:	68fb      	ldr	r3, [r7, #12]
10001ac8:	2b01      	cmp	r3, #1
10001aca:	d909      	bls.n	10001ae0 <XMC_CAN_NODE_NominalBitTimeConfigureEx+0xd8>
              (XMC_CAN_NODE_MIN_TSEG2 <= tseg2) && (tseg2 < XMC_CAN_NODE_MAX_TSEG2) && (tseg2 >= bit_time_config->sjw))
10001acc:	68fb      	ldr	r3, [r7, #12]
10001ace:	2b06      	cmp	r3, #6
10001ad0:	d806      	bhi.n	10001ae0 <XMC_CAN_NODE_NominalBitTimeConfigureEx+0xd8>
10001ad2:	683b      	ldr	r3, [r7, #0]
10001ad4:	895b      	ldrh	r3, [r3, #10]
10001ad6:	1e1a      	subs	r2, r3, #0
10001ad8:	68fb      	ldr	r3, [r7, #12]
10001ada:	429a      	cmp	r2, r3
10001adc:	d800      	bhi.n	10001ae0 <XMC_CAN_NODE_NominalBitTimeConfigureEx+0xd8>
          {
            break;
10001ade:	e005      	b.n	10001aec <XMC_CAN_NODE_NominalBitTimeConfigureEx+0xe4>
          }


        }
      }
      --ntq;
10001ae0:	697b      	ldr	r3, [r7, #20]
10001ae2:	3b01      	subs	r3, #1
10001ae4:	617b      	str	r3, [r7, #20]

    /* start with highest ntq, i.e as much as possible time quanta should be used to construct a bit time */
    uint32_t ntq = XMC_CAN_NODE_MAX_NTQ;
    uint32_t tseg1 = 0;
    uint32_t tseg2 = 0;
    while (ntq >= XMC_CAN_NODE_MIN_NTQ)
10001ae6:	697b      	ldr	r3, [r7, #20]
10001ae8:	2b07      	cmp	r3, #7
10001aea:	d8b2      	bhi.n	10001a52 <XMC_CAN_NODE_NominalBitTimeConfigureEx+0x4a>
        }
      }
      --ntq;
    }

    if (ntq >= XMC_CAN_NODE_MIN_NTQ)
10001aec:	697b      	ldr	r3, [r7, #20]
10001aee:	2b07      	cmp	r3, #7
10001af0:	d931      	bls.n	10001b56 <XMC_CAN_NODE_NominalBitTimeConfigureEx+0x14e>

      XMC_ASSERT("XMC_CAN_NODE_NominalBitTimeConfigureEx: prescaler", (prescaler != 0));
      XMC_ASSERT("XMC_CAN_NODE_NominalBitTimeConfigureEx: tseg1", (tseg1 != 0));
      XMC_ASSERT("XMC_CAN_NODE_NominalBitTimeConfigureEx: tseg2", (tseg2 != 0));

      XMC_CAN_NODE_EnableConfigurationChange(can_node);
10001af2:	687b      	ldr	r3, [r7, #4]
10001af4:	1c18      	adds	r0, r3, #0
10001af6:	f7ff ff4f 	bl	10001998 <XMC_CAN_NODE_EnableConfigurationChange>

      /* Configure bit timing register */
      can_node->NBTR = (((tseg2 - 1u) << CAN_NODE_NBTR_TSEG2_Pos) & (uint32_t)CAN_NODE_NBTR_TSEG2_Msk) |
10001afa:	68fb      	ldr	r3, [r7, #12]
10001afc:	3b01      	subs	r3, #1
10001afe:	031a      	lsls	r2, r3, #12
10001b00:	23e0      	movs	r3, #224	; 0xe0
10001b02:	01db      	lsls	r3, r3, #7
10001b04:	401a      	ands	r2, r3
                       (((bit_time_config->sjw - 1U) << CAN_NODE_NBTR_SJW_Pos) & (uint32_t)CAN_NODE_NBTR_SJW_Msk) |
10001b06:	683b      	ldr	r3, [r7, #0]
10001b08:	895b      	ldrh	r3, [r3, #10]
10001b0a:	3b01      	subs	r3, #1
10001b0c:	019b      	lsls	r3, r3, #6
10001b0e:	21ff      	movs	r1, #255	; 0xff
10001b10:	400b      	ands	r3, r1
      XMC_ASSERT("XMC_CAN_NODE_NominalBitTimeConfigureEx: tseg2", (tseg2 != 0));

      XMC_CAN_NODE_EnableConfigurationChange(can_node);

      /* Configure bit timing register */
      can_node->NBTR = (((tseg2 - 1u) << CAN_NODE_NBTR_TSEG2_Pos) & (uint32_t)CAN_NODE_NBTR_TSEG2_Msk) |
10001b12:	431a      	orrs	r2, r3
                       (((bit_time_config->sjw - 1U) << CAN_NODE_NBTR_SJW_Pos) & (uint32_t)CAN_NODE_NBTR_SJW_Msk) |
                       (((tseg1 - 1U) << CAN_NODE_NBTR_TSEG1_Pos) & (uint32_t)CAN_NODE_NBTR_TSEG1_Msk) |
10001b14:	693b      	ldr	r3, [r7, #16]
10001b16:	3b01      	subs	r3, #1
10001b18:	0219      	lsls	r1, r3, #8
10001b1a:	23f0      	movs	r3, #240	; 0xf0
10001b1c:	011b      	lsls	r3, r3, #4
10001b1e:	400b      	ands	r3, r1

      XMC_CAN_NODE_EnableConfigurationChange(can_node);

      /* Configure bit timing register */
      can_node->NBTR = (((tseg2 - 1u) << CAN_NODE_NBTR_TSEG2_Pos) & (uint32_t)CAN_NODE_NBTR_TSEG2_Msk) |
                       (((bit_time_config->sjw - 1U) << CAN_NODE_NBTR_SJW_Pos) & (uint32_t)CAN_NODE_NBTR_SJW_Msk) |
10001b20:	431a      	orrs	r2, r3
10001b22:	1c11      	adds	r1, r2, #0
                       (((tseg1 - 1U) << CAN_NODE_NBTR_TSEG1_Pos) & (uint32_t)CAN_NODE_NBTR_TSEG1_Msk) |
                       ((((prescaler >> (3 * div8)) - 1U) << CAN_NODE_NBTR_BRP_Pos) & (uint32_t)CAN_NODE_NBTR_BRP_Msk) |
10001b24:	69ba      	ldr	r2, [r7, #24]
10001b26:	1c13      	adds	r3, r2, #0
10001b28:	005b      	lsls	r3, r3, #1
10001b2a:	189b      	adds	r3, r3, r2
10001b2c:	1c1a      	adds	r2, r3, #0
10001b2e:	69fb      	ldr	r3, [r7, #28]
10001b30:	40d3      	lsrs	r3, r2
10001b32:	3b01      	subs	r3, #1
10001b34:	223f      	movs	r2, #63	; 0x3f
10001b36:	4013      	ands	r3, r2
      XMC_CAN_NODE_EnableConfigurationChange(can_node);

      /* Configure bit timing register */
      can_node->NBTR = (((tseg2 - 1u) << CAN_NODE_NBTR_TSEG2_Pos) & (uint32_t)CAN_NODE_NBTR_TSEG2_Msk) |
                       (((bit_time_config->sjw - 1U) << CAN_NODE_NBTR_SJW_Pos) & (uint32_t)CAN_NODE_NBTR_SJW_Msk) |
                       (((tseg1 - 1U) << CAN_NODE_NBTR_TSEG1_Pos) & (uint32_t)CAN_NODE_NBTR_TSEG1_Msk) |
10001b38:	1c0a      	adds	r2, r1, #0
10001b3a:	431a      	orrs	r2, r3
                       ((((prescaler >> (3 * div8)) - 1U) << CAN_NODE_NBTR_BRP_Pos) & (uint32_t)CAN_NODE_NBTR_BRP_Msk) |
                       ((div8 << CAN_NODE_NBTR_DIV8_Pos) & (uint32_t)CAN_NODE_NBTR_DIV8_Msk);
10001b3c:	69bb      	ldr	r3, [r7, #24]
10001b3e:	03db      	lsls	r3, r3, #15
10001b40:	041b      	lsls	r3, r3, #16
10001b42:	0c1b      	lsrs	r3, r3, #16

      /* Configure bit timing register */
      can_node->NBTR = (((tseg2 - 1u) << CAN_NODE_NBTR_TSEG2_Pos) & (uint32_t)CAN_NODE_NBTR_TSEG2_Msk) |
                       (((bit_time_config->sjw - 1U) << CAN_NODE_NBTR_SJW_Pos) & (uint32_t)CAN_NODE_NBTR_SJW_Msk) |
                       (((tseg1 - 1U) << CAN_NODE_NBTR_TSEG1_Pos) & (uint32_t)CAN_NODE_NBTR_TSEG1_Msk) |
                       ((((prescaler >> (3 * div8)) - 1U) << CAN_NODE_NBTR_BRP_Pos) & (uint32_t)CAN_NODE_NBTR_BRP_Msk) |
10001b44:	431a      	orrs	r2, r3
      XMC_ASSERT("XMC_CAN_NODE_NominalBitTimeConfigureEx: tseg2", (tseg2 != 0));

      XMC_CAN_NODE_EnableConfigurationChange(can_node);

      /* Configure bit timing register */
      can_node->NBTR = (((tseg2 - 1u) << CAN_NODE_NBTR_TSEG2_Pos) & (uint32_t)CAN_NODE_NBTR_TSEG2_Msk) |
10001b46:	687b      	ldr	r3, [r7, #4]
10001b48:	611a      	str	r2, [r3, #16]
                       (((bit_time_config->sjw - 1U) << CAN_NODE_NBTR_SJW_Pos) & (uint32_t)CAN_NODE_NBTR_SJW_Msk) |
                       (((tseg1 - 1U) << CAN_NODE_NBTR_TSEG1_Pos) & (uint32_t)CAN_NODE_NBTR_TSEG1_Msk) |
                       ((((prescaler >> (3 * div8)) - 1U) << CAN_NODE_NBTR_BRP_Pos) & (uint32_t)CAN_NODE_NBTR_BRP_Msk) |
                       ((div8 << CAN_NODE_NBTR_DIV8_Pos) & (uint32_t)CAN_NODE_NBTR_DIV8_Msk);

      XMC_CAN_NODE_DisableConfigurationChange(can_node);
10001b4a:	687b      	ldr	r3, [r7, #4]
10001b4c:	1c18      	adds	r0, r3, #0
10001b4e:	f7ff ff31 	bl	100019b4 <XMC_CAN_NODE_DisableConfigurationChange>

      return XMC_CAN_STATUS_SUCCESS;
10001b52:	2300      	movs	r3, #0
10001b54:	e000      	b.n	10001b58 <XMC_CAN_NODE_NominalBitTimeConfigureEx+0x150>
    }
  }

  return XMC_CAN_STATUS_ERROR;
10001b56:	2301      	movs	r3, #1
}
10001b58:	1c18      	adds	r0, r3, #0
10001b5a:	46bd      	mov	sp, r7
10001b5c:	b008      	add	sp, #32
10001b5e:	bd80      	pop	{r7, pc}
10001b60:	00002710 	.word	0x00002710

10001b64 <XMC_CAN_AllocateMOtoNodeList>:
                   (((uint32_t)0U << CAN_NODE_NBTR_DIV8_Pos) & (uint32_t)CAN_NODE_NBTR_DIV8_Msk);
  XMC_CAN_NODE_DisableConfigurationChange(can_node);
}
/* Function to allocate message object from free list to node list */
void XMC_CAN_AllocateMOtoNodeList(XMC_CAN_t *const obj, const uint8_t node_num, const uint8_t mo_num)
{
10001b64:	b590      	push	{r4, r7, lr}
10001b66:	b083      	sub	sp, #12
10001b68:	af00      	add	r7, sp, #0
10001b6a:	6078      	str	r0, [r7, #4]
10001b6c:	1c08      	adds	r0, r1, #0
10001b6e:	1c11      	adds	r1, r2, #0
10001b70:	1cfb      	adds	r3, r7, #3
10001b72:	1c02      	adds	r2, r0, #0
10001b74:	701a      	strb	r2, [r3, #0]
10001b76:	1cbb      	adds	r3, r7, #2
10001b78:	1c0a      	adds	r2, r1, #0
10001b7a:	701a      	strb	r2, [r3, #0]
  /* wait while panel operation is in progress. */
  while (XMC_CAN_IsPanelControlReady(obj) == false)
10001b7c:	46c0      	nop			; (mov r8, r8)
10001b7e:	687b      	ldr	r3, [r7, #4]
10001b80:	1c18      	adds	r0, r3, #0
10001b82:	f7ff fed1 	bl	10001928 <XMC_CAN_IsPanelControlReady>
10001b86:	1c03      	adds	r3, r0, #0
10001b88:	1c1a      	adds	r2, r3, #0
10001b8a:	2301      	movs	r3, #1
10001b8c:	4053      	eors	r3, r2
10001b8e:	b2db      	uxtb	r3, r3
10001b90:	2b00      	cmp	r3, #0
10001b92:	d1f4      	bne.n	10001b7e <XMC_CAN_AllocateMOtoNodeList+0x1a>
  {
    /*Do nothing*/
  };

  /* Panel Command for  allocation of MO to node list */
  XMC_CAN_PanelControl(obj, XMC_CAN_PANCMD_STATIC_ALLOCATE, mo_num, (node_num + 1U));
10001b94:	1cfb      	adds	r3, r7, #3
10001b96:	781b      	ldrb	r3, [r3, #0]
10001b98:	3301      	adds	r3, #1
10001b9a:	b2dc      	uxtb	r4, r3
10001b9c:	687a      	ldr	r2, [r7, #4]
10001b9e:	1cbb      	adds	r3, r7, #2
10001ba0:	781b      	ldrb	r3, [r3, #0]
10001ba2:	1c10      	adds	r0, r2, #0
10001ba4:	2102      	movs	r1, #2
10001ba6:	1c1a      	adds	r2, r3, #0
10001ba8:	1c23      	adds	r3, r4, #0
10001baa:	f7ff fecf 	bl	1000194c <XMC_CAN_PanelControl>
}
10001bae:	46bd      	mov	sp, r7
10001bb0:	b003      	add	sp, #12
10001bb2:	bd90      	pop	{r4, r7, pc}

10001bb4 <XMC_CAN_Enable>:
#endif
}

/* Enable XMC_CAN Peripheral */
void XMC_CAN_Enable(XMC_CAN_t *const obj)
{
10001bb4:	b580      	push	{r7, lr}
10001bb6:	b082      	sub	sp, #8
10001bb8:	af00      	add	r7, sp, #0
10001bba:	6078      	str	r0, [r7, #4]
#if defined(CLOCK_GATING_SUPPORTED)
  XMC_SCU_CLOCK_UngatePeripheralClock(XMC_SCU_PERIPHERAL_CLOCK_MCAN);
10001bbc:	2380      	movs	r3, #128	; 0x80
10001bbe:	039b      	lsls	r3, r3, #14
10001bc0:	1c18      	adds	r0, r3, #0
10001bc2:	f7ff fccb 	bl	1000155c <XMC_SCU_CLOCK_UngatePeripheralClock>
#endif
#if defined(PERIPHERAL_RESET_SUPPORTED)
  XMC_SCU_RESET_DeassertPeripheralReset(XMC_SCU_PERIPHERAL_RESET_MCAN);
#endif
  /* Enable CAN Module */
  obj->CLC &= ~(uint32_t)CAN_CLC_DISR_Msk;
10001bc6:	687b      	ldr	r3, [r7, #4]
10001bc8:	681b      	ldr	r3, [r3, #0]
10001bca:	2201      	movs	r2, #1
10001bcc:	4393      	bics	r3, r2
10001bce:	1c1a      	adds	r2, r3, #0
10001bd0:	687b      	ldr	r3, [r7, #4]
10001bd2:	601a      	str	r2, [r3, #0]
  while (obj->CLC & CAN_CLC_DISS_Msk)
10001bd4:	46c0      	nop			; (mov r8, r8)
10001bd6:	687b      	ldr	r3, [r7, #4]
10001bd8:	681b      	ldr	r3, [r3, #0]
10001bda:	2202      	movs	r2, #2
10001bdc:	4013      	ands	r3, r2
10001bde:	d1fa      	bne.n	10001bd6 <XMC_CAN_Enable+0x22>
  {
    /*Do nothing*/
  };
}
10001be0:	46bd      	mov	sp, r7
10001be2:	b002      	add	sp, #8
10001be4:	bd80      	pop	{r7, pc}
10001be6:	46c0      	nop			; (mov r8, r8)

10001be8 <XMC_CAN_SetBaudrateClockSource>:
  obj->FDR |= ((uint32_t)can_divider_mode << CAN_FDR_DM_Pos) | ((uint32_t)step << CAN_FDR_STEP_Pos);
}
#endif

void XMC_CAN_SetBaudrateClockSource(XMC_CAN_t *const obj, const XMC_CAN_CANCLKSRC_t source)
{
10001be8:	b580      	push	{r7, lr}
10001bea:	b082      	sub	sp, #8
10001bec:	af00      	add	r7, sp, #0
10001bee:	6078      	str	r0, [r7, #4]
10001bf0:	1c0a      	adds	r2, r1, #0
10001bf2:	1cfb      	adds	r3, r7, #3
10001bf4:	701a      	strb	r2, [r3, #0]
#if defined(MULTICAN_PLUS)
  obj->MCR = (obj->MCR & ~CAN_MCR_CLKSEL_Msk) | source ;
10001bf6:	687a      	ldr	r2, [r7, #4]
10001bf8:	23e4      	movs	r3, #228	; 0xe4
10001bfa:	005b      	lsls	r3, r3, #1
10001bfc:	58d3      	ldr	r3, [r2, r3]
10001bfe:	220f      	movs	r2, #15
10001c00:	4393      	bics	r3, r2
10001c02:	1c1a      	adds	r2, r3, #0
10001c04:	1cfb      	adds	r3, r7, #3
10001c06:	781b      	ldrb	r3, [r3, #0]
10001c08:	431a      	orrs	r2, r3
10001c0a:	1c11      	adds	r1, r2, #0
10001c0c:	687a      	ldr	r2, [r7, #4]
10001c0e:	23e4      	movs	r3, #228	; 0xe4
10001c10:	005b      	lsls	r3, r3, #1
10001c12:	50d1      	str	r1, [r2, r3]
#else
  XMC_UNUSED_ARG(obj);
  XMC_UNUSED_ARG(source);
#endif
}
10001c14:	46bd      	mov	sp, r7
10001c16:	b002      	add	sp, #8
10001c18:	bd80      	pop	{r7, pc}
10001c1a:	46c0      	nop			; (mov r8, r8)

10001c1c <XMC_CAN_GetBaudrateClockSource>:

XMC_CAN_CANCLKSRC_t XMC_CAN_GetBaudrateClockSource(XMC_CAN_t *const obj)
{
10001c1c:	b580      	push	{r7, lr}
10001c1e:	b082      	sub	sp, #8
10001c20:	af00      	add	r7, sp, #0
10001c22:	6078      	str	r0, [r7, #4]
#if defined(MULTICAN_PLUS)
  return ((XMC_CAN_CANCLKSRC_t)((obj->MCR & CAN_MCR_CLKSEL_Msk) >> CAN_MCR_CLKSEL_Pos));
10001c24:	687a      	ldr	r2, [r7, #4]
10001c26:	23e4      	movs	r3, #228	; 0xe4
10001c28:	005b      	lsls	r3, r3, #1
10001c2a:	58d3      	ldr	r3, [r2, r3]
10001c2c:	b2db      	uxtb	r3, r3
10001c2e:	220f      	movs	r2, #15
10001c30:	4013      	ands	r3, r2
10001c32:	b2db      	uxtb	r3, r3
#elif (UC_FAMILY == XMC4)
  XMC_UNUSED_ARG(obj);
  return XMC_CAN_CANCLKSRC_FPERI;
#endif
}
10001c34:	1c18      	adds	r0, r3, #0
10001c36:	46bd      	mov	sp, r7
10001c38:	b002      	add	sp, #8
10001c3a:	bd80      	pop	{r7, pc}

10001c3c <XMC_CAN_GetBaudrateClockFrequency>:

uint32_t XMC_CAN_GetBaudrateClockFrequency(XMC_CAN_t *const obj)
{
10001c3c:	b580      	push	{r7, lr}
10001c3e:	b084      	sub	sp, #16
10001c40:	af00      	add	r7, sp, #0
10001c42:	6078      	str	r0, [r7, #4]
  uint32_t frequency = 0;
10001c44:	2300      	movs	r3, #0
10001c46:	60fb      	str	r3, [r7, #12]

#if defined(MULTICAN_PLUS)
  switch (XMC_CAN_GetBaudrateClockSource(obj))
10001c48:	687b      	ldr	r3, [r7, #4]
10001c4a:	1c18      	adds	r0, r3, #0
10001c4c:	f7ff ffe6 	bl	10001c1c <XMC_CAN_GetBaudrateClockSource>
10001c50:	1e03      	subs	r3, r0, #0
10001c52:	2b01      	cmp	r3, #1
10001c54:	d002      	beq.n	10001c5c <XMC_CAN_GetBaudrateClockFrequency+0x20>
10001c56:	2b02      	cmp	r3, #2
10001c58:	d005      	beq.n	10001c66 <XMC_CAN_GetBaudrateClockFrequency+0x2a>
10001c5a:	e009      	b.n	10001c70 <XMC_CAN_GetBaudrateClockFrequency+0x34>
    case XMC_CAN_CANCLKSRC_FPERI:
      frequency = XMC_SCU_CLOCK_GetPeripheralClockFrequency();
      break;
#else
    case XMC_CAN_CANCLKSRC_MCLK:
      frequency = XMC_SCU_CLOCK_GetPeripheralClockFrequency();
10001c5c:	f7ff fd4e 	bl	100016fc <XMC_SCU_CLOCK_GetPeripheralClockFrequency>
10001c60:	1c03      	adds	r3, r0, #0
10001c62:	60fb      	str	r3, [r7, #12]
      break;
10001c64:	e004      	b.n	10001c70 <XMC_CAN_GetBaudrateClockFrequency+0x34>
#endif
    case XMC_CAN_CANCLKSRC_FOHP:
      frequency = OSCHP_GetFrequency();
10001c66:	f7ff fa87 	bl	10001178 <OSCHP_GetFrequency>
10001c6a:	1c03      	adds	r3, r0, #0
10001c6c:	60fb      	str	r3, [r7, #12]
      break;
10001c6e:	46c0      	nop			; (mov r8, r8)
#else
  XMC_UNUSED_ARG(obj);
  frequency = XMC_SCU_CLOCK_GetPeripheralClockFrequency();
#endif

  return frequency;
10001c70:	68fb      	ldr	r3, [r7, #12]
}
10001c72:	1c18      	adds	r0, r3, #0
10001c74:	46bd      	mov	sp, r7
10001c76:	b004      	add	sp, #16
10001c78:	bd80      	pop	{r7, pc}
10001c7a:	46c0      	nop			; (mov r8, r8)

10001c7c <XMC_CAN_InitEx>:

uint32_t XMC_CAN_InitEx(XMC_CAN_t *const obj, XMC_CAN_CANCLKSRC_t clksrc, uint32_t can_frequency)
{
10001c7c:	b580      	push	{r7, lr}
10001c7e:	b088      	sub	sp, #32
10001c80:	af00      	add	r7, sp, #0
10001c82:	60f8      	str	r0, [r7, #12]
10001c84:	607a      	str	r2, [r7, #4]
10001c86:	230b      	movs	r3, #11
10001c88:	18fb      	adds	r3, r7, r3
10001c8a:	1c0a      	adds	r2, r1, #0
10001c8c:	701a      	strb	r2, [r3, #0]
  uint32_t step_n;
  uint32_t freq_n;
  uint32_t peripheral_frequency;

  /*Enabling the module*/
  XMC_CAN_Enable(obj);
10001c8e:	68fb      	ldr	r3, [r7, #12]
10001c90:	1c18      	adds	r0, r3, #0
10001c92:	f7ff ff8f 	bl	10001bb4 <XMC_CAN_Enable>

  XMC_CAN_SetBaudrateClockSource(obj, clksrc);
10001c96:	68fa      	ldr	r2, [r7, #12]
10001c98:	230b      	movs	r3, #11
10001c9a:	18fb      	adds	r3, r7, r3
10001c9c:	781b      	ldrb	r3, [r3, #0]
10001c9e:	1c10      	adds	r0, r2, #0
10001ca0:	1c19      	adds	r1, r3, #0
10001ca2:	f7ff ffa1 	bl	10001be8 <XMC_CAN_SetBaudrateClockSource>
  peripheral_frequency = XMC_CAN_GetBaudrateClockFrequency(obj);
10001ca6:	68fb      	ldr	r3, [r7, #12]
10001ca8:	1c18      	adds	r0, r3, #0
10001caa:	f7ff ffc7 	bl	10001c3c <XMC_CAN_GetBaudrateClockFrequency>
10001cae:	1c03      	adds	r3, r0, #0
10001cb0:	61fb      	str	r3, [r7, #28]
  XMC_ASSERT("XMC_CAN_Init: frequency not supported", can_frequency <= peripheral_frequency);

  /* Normal divider mode */
  step_n = (uint32_t)min(max(0U, (1024U - (peripheral_frequency / can_frequency))), 1023U);
10001cb2:	69f8      	ldr	r0, [r7, #28]
10001cb4:	6879      	ldr	r1, [r7, #4]
10001cb6:	f000 fcaf 	bl	10002618 <__aeabi_uidiv>
10001cba:	1c03      	adds	r3, r0, #0
10001cbc:	1c1a      	adds	r2, r3, #0
10001cbe:	2380      	movs	r3, #128	; 0x80
10001cc0:	00db      	lsls	r3, r3, #3
10001cc2:	1a9b      	subs	r3, r3, r2
10001cc4:	2000      	movs	r0, #0
10001cc6:	1c19      	adds	r1, r3, #0
10001cc8:	f7ff fe82 	bl	100019d0 <max>
10001ccc:	1c02      	adds	r2, r0, #0
10001cce:	4b12      	ldr	r3, [pc, #72]	; (10001d18 <XMC_CAN_InitEx+0x9c>)
10001cd0:	1c10      	adds	r0, r2, #0
10001cd2:	1c19      	adds	r1, r3, #0
10001cd4:	f7ff fe8a 	bl	100019ec <min>
10001cd8:	1c03      	adds	r3, r0, #0
10001cda:	61bb      	str	r3, [r7, #24]
  freq_n = (uint32_t)(peripheral_frequency / (1024U - step_n));
10001cdc:	69bb      	ldr	r3, [r7, #24]
10001cde:	2280      	movs	r2, #128	; 0x80
10001ce0:	00d2      	lsls	r2, r2, #3
10001ce2:	1ad3      	subs	r3, r2, r3
10001ce4:	69f8      	ldr	r0, [r7, #28]
10001ce6:	1c19      	adds	r1, r3, #0
10001ce8:	f000 fc96 	bl	10002618 <__aeabi_uidiv>
10001cec:	1c03      	adds	r3, r0, #0
10001cee:	617b      	str	r3, [r7, #20]

  obj->FDR &= (uint32_t) ~(CAN_FDR_DM_Msk | CAN_FDR_STEP_Msk);
10001cf0:	68fb      	ldr	r3, [r7, #12]
10001cf2:	68db      	ldr	r3, [r3, #12]
10001cf4:	4a09      	ldr	r2, [pc, #36]	; (10001d1c <XMC_CAN_InitEx+0xa0>)
10001cf6:	401a      	ands	r2, r3
10001cf8:	68fb      	ldr	r3, [r7, #12]
10001cfa:	60da      	str	r2, [r3, #12]
  obj->FDR |= ((uint32_t)XMC_CAN_DM_NORMAL << CAN_FDR_DM_Pos) | ((uint32_t)step_n << CAN_FDR_STEP_Pos);
10001cfc:	68fb      	ldr	r3, [r7, #12]
10001cfe:	68da      	ldr	r2, [r3, #12]
10001d00:	69bb      	ldr	r3, [r7, #24]
10001d02:	4313      	orrs	r3, r2
10001d04:	2280      	movs	r2, #128	; 0x80
10001d06:	01d2      	lsls	r2, r2, #7
10001d08:	431a      	orrs	r2, r3
10001d0a:	68fb      	ldr	r3, [r7, #12]
10001d0c:	60da      	str	r2, [r3, #12]

  return freq_n;
10001d0e:	697b      	ldr	r3, [r7, #20]
}
10001d10:	1c18      	adds	r0, r3, #0
10001d12:	46bd      	mov	sp, r7
10001d14:	b008      	add	sp, #32
10001d16:	bd80      	pop	{r7, pc}
10001d18:	000003ff 	.word	0x000003ff
10001d1c:	ffff3c00 	.word	0xffff3c00

10001d20 <XMC_CAN_MO_Config>:
  can_mo->can_id_mask = can_id_mask;
}

/* Initialization of XMC_CAN MO Object */
void XMC_CAN_MO_Config(const XMC_CAN_MO_t *const can_mo)
{
10001d20:	b580      	push	{r7, lr}
10001d22:	b086      	sub	sp, #24
10001d24:	af00      	add	r7, sp, #0
10001d26:	6078      	str	r0, [r7, #4]
  uint32_t reg;

  /* Configure MPN */
  uint32_t num = ((uint32_t)(can_mo->can_mo_ptr) - CAN_BASE - 0x1000U) / 0x0020U;
10001d28:	687b      	ldr	r3, [r7, #4]
10001d2a:	681b      	ldr	r3, [r3, #0]
10001d2c:	4a48      	ldr	r2, [pc, #288]	; (10001e50 <XMC_CAN_MO_Config+0x130>)
10001d2e:	4694      	mov	ip, r2
10001d30:	4463      	add	r3, ip
10001d32:	095b      	lsrs	r3, r3, #5
10001d34:	617b      	str	r3, [r7, #20]
  uint32_t set = (((uint32_t)(num / 32) << (CAN_MO_MOIPR_MPN_Pos + 5U)) | ((uint32_t)(num % 32) << CAN_MO_MOIPR_MPN_Pos));
10001d36:	697b      	ldr	r3, [r7, #20]
10001d38:	095b      	lsrs	r3, r3, #5
10001d3a:	035a      	lsls	r2, r3, #13
10001d3c:	697b      	ldr	r3, [r7, #20]
10001d3e:	211f      	movs	r1, #31
10001d40:	400b      	ands	r3, r1
10001d42:	021b      	lsls	r3, r3, #8
10001d44:	4313      	orrs	r3, r2
10001d46:	613b      	str	r3, [r7, #16]
  can_mo->can_mo_ptr->MOIPR &= ~(CAN_MO_MOIPR_MPN_Msk);
10001d48:	687b      	ldr	r3, [r7, #4]
10001d4a:	681b      	ldr	r3, [r3, #0]
10001d4c:	687a      	ldr	r2, [r7, #4]
10001d4e:	6812      	ldr	r2, [r2, #0]
10001d50:	6892      	ldr	r2, [r2, #8]
10001d52:	4940      	ldr	r1, [pc, #256]	; (10001e54 <XMC_CAN_MO_Config+0x134>)
10001d54:	400a      	ands	r2, r1
10001d56:	609a      	str	r2, [r3, #8]
  can_mo->can_mo_ptr->MOIPR |= set;
10001d58:	687b      	ldr	r3, [r7, #4]
10001d5a:	681b      	ldr	r3, [r3, #0]
10001d5c:	687a      	ldr	r2, [r7, #4]
10001d5e:	6812      	ldr	r2, [r2, #0]
10001d60:	6891      	ldr	r1, [r2, #8]
10001d62:	693a      	ldr	r2, [r7, #16]
10001d64:	430a      	orrs	r2, r1
10001d66:	609a      	str	r2, [r3, #8]

  if (((can_mo->can_id_mode != (uint32_t) XMC_CAN_FRAME_TYPE_STANDARD_11BITS) &&
10001d68:	687b      	ldr	r3, [r7, #4]
10001d6a:	79db      	ldrb	r3, [r3, #7]
10001d6c:	2220      	movs	r2, #32
10001d6e:	4013      	ands	r3, r2
10001d70:	b2db      	uxtb	r3, r3
10001d72:	2b00      	cmp	r3, #0
10001d74:	d007      	beq.n	10001d86 <XMC_CAN_MO_Config+0x66>
       (can_mo->can_id_mode != (uint32_t) XMC_CAN_FRAME_TYPE_EXTENDED_29BITS)) ||
10001d76:	687b      	ldr	r3, [r7, #4]
10001d78:	79db      	ldrb	r3, [r3, #7]
10001d7a:	2220      	movs	r2, #32
10001d7c:	4013      	ands	r3, r2
10001d7e:	b2db      	uxtb	r3, r3
  uint32_t num = ((uint32_t)(can_mo->can_mo_ptr) - CAN_BASE - 0x1000U) / 0x0020U;
  uint32_t set = (((uint32_t)(num / 32) << (CAN_MO_MOIPR_MPN_Pos + 5U)) | ((uint32_t)(num % 32) << CAN_MO_MOIPR_MPN_Pos));
  can_mo->can_mo_ptr->MOIPR &= ~(CAN_MO_MOIPR_MPN_Msk);
  can_mo->can_mo_ptr->MOIPR |= set;

  if (((can_mo->can_id_mode != (uint32_t) XMC_CAN_FRAME_TYPE_STANDARD_11BITS) &&
10001d80:	2b00      	cmp	r3, #0
10001d82:	d100      	bne.n	10001d86 <XMC_CAN_MO_Config+0x66>
10001d84:	e061      	b.n	10001e4a <XMC_CAN_MO_Config+0x12a>
       (can_mo->can_id_mode != (uint32_t) XMC_CAN_FRAME_TYPE_EXTENDED_29BITS)) ||
      ((can_mo->can_mo_type != XMC_CAN_MO_TYPE_RECMSGOBJ) &&
10001d86:	687b      	ldr	r3, [r7, #4]
10001d88:	7e1b      	ldrb	r3, [r3, #24]
  uint32_t set = (((uint32_t)(num / 32) << (CAN_MO_MOIPR_MPN_Pos + 5U)) | ((uint32_t)(num % 32) << CAN_MO_MOIPR_MPN_Pos));
  can_mo->can_mo_ptr->MOIPR &= ~(CAN_MO_MOIPR_MPN_Msk);
  can_mo->can_mo_ptr->MOIPR |= set;

  if (((can_mo->can_id_mode != (uint32_t) XMC_CAN_FRAME_TYPE_STANDARD_11BITS) &&
       (can_mo->can_id_mode != (uint32_t) XMC_CAN_FRAME_TYPE_EXTENDED_29BITS)) ||
10001d8a:	2b00      	cmp	r3, #0
10001d8c:	d004      	beq.n	10001d98 <XMC_CAN_MO_Config+0x78>
      ((can_mo->can_mo_type != XMC_CAN_MO_TYPE_RECMSGOBJ) &&
       (can_mo->can_mo_type != XMC_CAN_MO_TYPE_TRANSMSGOBJ)))
10001d8e:	687b      	ldr	r3, [r7, #4]
10001d90:	7e1b      	ldrb	r3, [r3, #24]
  can_mo->can_mo_ptr->MOIPR &= ~(CAN_MO_MOIPR_MPN_Msk);
  can_mo->can_mo_ptr->MOIPR |= set;

  if (((can_mo->can_id_mode != (uint32_t) XMC_CAN_FRAME_TYPE_STANDARD_11BITS) &&
       (can_mo->can_id_mode != (uint32_t) XMC_CAN_FRAME_TYPE_EXTENDED_29BITS)) ||
      ((can_mo->can_mo_type != XMC_CAN_MO_TYPE_RECMSGOBJ) &&
10001d92:	2b01      	cmp	r3, #1
10001d94:	d000      	beq.n	10001d98 <XMC_CAN_MO_Config+0x78>
10001d96:	e058      	b.n	10001e4a <XMC_CAN_MO_Config+0x12a>
  }
  else
  {

    /* Disable Message object */
    can_mo->can_mo_ptr->MOCTR = CAN_MO_MOCTR_RESMSGVAL_Msk;
10001d98:	687b      	ldr	r3, [r7, #4]
10001d9a:	681b      	ldr	r3, [r3, #0]
10001d9c:	2220      	movs	r2, #32
10001d9e:	61da      	str	r2, [r3, #28]
    if (can_mo->can_id_mode == (uint32_t)XMC_CAN_FRAME_TYPE_STANDARD_11BITS)
10001da0:	687b      	ldr	r3, [r7, #4]
10001da2:	79db      	ldrb	r3, [r3, #7]
10001da4:	2220      	movs	r2, #32
10001da6:	4013      	ands	r3, r2
10001da8:	b2db      	uxtb	r3, r3
10001daa:	2b00      	cmp	r3, #0
10001dac:	d128      	bne.n	10001e00 <XMC_CAN_MO_Config+0xe0>
    {
      reg = can_mo->mo_ar;
10001dae:	687b      	ldr	r3, [r7, #4]
10001db0:	685b      	ldr	r3, [r3, #4]
10001db2:	60fb      	str	r3, [r7, #12]
      reg &= (uint32_t) ~(CAN_MO_MOAR_ID_Msk);
10001db4:	68fb      	ldr	r3, [r7, #12]
10001db6:	0f5b      	lsrs	r3, r3, #29
10001db8:	075b      	lsls	r3, r3, #29
10001dba:	60fb      	str	r3, [r7, #12]
      reg |= (can_mo->can_identifier << XMC_CAN_MO_MOAR_STDID_Pos);
10001dbc:	687b      	ldr	r3, [r7, #4]
10001dbe:	685b      	ldr	r3, [r3, #4]
10001dc0:	00db      	lsls	r3, r3, #3
10001dc2:	08db      	lsrs	r3, r3, #3
10001dc4:	049b      	lsls	r3, r3, #18
10001dc6:	1c1a      	adds	r2, r3, #0
10001dc8:	68fb      	ldr	r3, [r7, #12]
10001dca:	4313      	orrs	r3, r2
10001dcc:	60fb      	str	r3, [r7, #12]
      can_mo->can_mo_ptr->MOAR = reg;
10001dce:	687b      	ldr	r3, [r7, #4]
10001dd0:	681b      	ldr	r3, [r3, #0]
10001dd2:	68fa      	ldr	r2, [r7, #12]
10001dd4:	619a      	str	r2, [r3, #24]

      reg = can_mo->mo_amr;
10001dd6:	687b      	ldr	r3, [r7, #4]
10001dd8:	689b      	ldr	r3, [r3, #8]
10001dda:	60fb      	str	r3, [r7, #12]
      reg &= (uint32_t) ~(CAN_MO_MOAMR_AM_Msk);
10001ddc:	68fb      	ldr	r3, [r7, #12]
10001dde:	0f5b      	lsrs	r3, r3, #29
10001de0:	075b      	lsls	r3, r3, #29
10001de2:	60fb      	str	r3, [r7, #12]
      reg |= (can_mo->can_id_mask << XMC_CAN_MO_MOAR_STDID_Pos);
10001de4:	687b      	ldr	r3, [r7, #4]
10001de6:	689b      	ldr	r3, [r3, #8]
10001de8:	00db      	lsls	r3, r3, #3
10001dea:	08db      	lsrs	r3, r3, #3
10001dec:	049b      	lsls	r3, r3, #18
10001dee:	1c1a      	adds	r2, r3, #0
10001df0:	68fb      	ldr	r3, [r7, #12]
10001df2:	4313      	orrs	r3, r2
10001df4:	60fb      	str	r3, [r7, #12]
      can_mo->can_mo_ptr->MOAMR = reg;
10001df6:	687b      	ldr	r3, [r7, #4]
10001df8:	681b      	ldr	r3, [r3, #0]
10001dfa:	68fa      	ldr	r2, [r7, #12]
10001dfc:	60da      	str	r2, [r3, #12]
10001dfe:	e009      	b.n	10001e14 <XMC_CAN_MO_Config+0xf4>
    }
    else
    {
      can_mo->can_mo_ptr->MOAR = can_mo->mo_ar;
10001e00:	687b      	ldr	r3, [r7, #4]
10001e02:	681b      	ldr	r3, [r3, #0]
10001e04:	687a      	ldr	r2, [r7, #4]
10001e06:	6852      	ldr	r2, [r2, #4]
10001e08:	619a      	str	r2, [r3, #24]
      can_mo->can_mo_ptr->MOAMR = can_mo->mo_amr;
10001e0a:	687b      	ldr	r3, [r7, #4]
10001e0c:	681b      	ldr	r3, [r3, #0]
10001e0e:	687a      	ldr	r2, [r7, #4]
10001e10:	6892      	ldr	r2, [r2, #8]
10001e12:	60da      	str	r2, [r3, #12]
    }
    /* Check whether message object is transmit message object */
    if (can_mo->can_mo_type == XMC_CAN_MO_TYPE_TRANSMSGOBJ)
10001e14:	687b      	ldr	r3, [r7, #4]
10001e16:	7e1b      	ldrb	r3, [r3, #24]
10001e18:	2b01      	cmp	r3, #1
10001e1a:	d10d      	bne.n	10001e38 <XMC_CAN_MO_Config+0x118>
    {
      /* Set MO as Transmit message object  */
      XMC_CAN_MO_UpdateData(can_mo);
10001e1c:	687b      	ldr	r3, [r7, #4]
10001e1e:	1c18      	adds	r0, r3, #0
10001e20:	f000 f81e 	bl	10001e60 <XMC_CAN_MO_UpdateData>
      can_mo->can_mo_ptr->MOCTR = CAN_MO_MOCTR_SETDIR_Msk;
10001e24:	687b      	ldr	r3, [r7, #4]
10001e26:	681b      	ldr	r3, [r3, #0]
10001e28:	2280      	movs	r2, #128	; 0x80
10001e2a:	0512      	lsls	r2, r2, #20
10001e2c:	61da      	str	r2, [r3, #28]

      /* Reset RTSEL and Set MSGVAL, TXEN0 and TXEN1 bits */
      can_mo->can_mo_ptr->MOCTR = (CAN_MO_MOCTR_SETTXEN0_Msk | CAN_MO_MOCTR_SETTXEN1_Msk | CAN_MO_MOCTR_SETMSGVAL_Msk |
10001e2e:	687b      	ldr	r3, [r7, #4]
10001e30:	681b      	ldr	r3, [r3, #0]
10001e32:	4a09      	ldr	r2, [pc, #36]	; (10001e58 <XMC_CAN_MO_Config+0x138>)
10001e34:	61da      	str	r2, [r3, #28]
10001e36:	e008      	b.n	10001e4a <XMC_CAN_MO_Config+0x12a>
                                   CAN_MO_MOCTR_RESRXEN_Msk  | CAN_MO_MOCTR_RESRTSEL_Msk);
    }
    else
    {
      /* Set MO as Receive message object and set RXEN bit */
      can_mo->can_mo_ptr->MOCTR = CAN_MO_MOCTR_RESDIR_Msk;
10001e38:	687b      	ldr	r3, [r7, #4]
10001e3a:	681b      	ldr	r3, [r3, #0]
10001e3c:	2280      	movs	r2, #128	; 0x80
10001e3e:	0112      	lsls	r2, r2, #4
10001e40:	61da      	str	r2, [r3, #28]

      /* Reset RTSEL, TXEN1 and TXEN2 and Set MSGVAL and RXEN bits */
      can_mo->can_mo_ptr->MOCTR = (CAN_MO_MOCTR_RESTXEN0_Msk | CAN_MO_MOCTR_RESTXEN1_Msk | CAN_MO_MOCTR_SETMSGVAL_Msk |
10001e42:	687b      	ldr	r3, [r7, #4]
10001e44:	681b      	ldr	r3, [r3, #0]
10001e46:	4a05      	ldr	r2, [pc, #20]	; (10001e5c <XMC_CAN_MO_Config+0x13c>)
10001e48:	61da      	str	r2, [r3, #28]
                                   CAN_MO_MOCTR_SETRXEN_Msk | CAN_MO_MOCTR_RESRTSEL_Msk);
    }

  }
}
10001e4a:	46bd      	mov	sp, r7
10001e4c:	b006      	add	sp, #24
10001e4e:	bd80      	pop	{r7, pc}
10001e50:	affbf000 	.word	0xaffbf000
10001e54:	ffff00ff 	.word	0xffff00ff
10001e58:	062000c0 	.word	0x062000c0
10001e5c:	00a00640 	.word	0x00a00640

10001e60 <XMC_CAN_MO_UpdateData>:

/* Update of XMC_CAN Object */
XMC_CAN_STATUS_t XMC_CAN_MO_UpdateData(const XMC_CAN_MO_t *const can_mo)
{
10001e60:	b580      	push	{r7, lr}
10001e62:	b084      	sub	sp, #16
10001e64:	af00      	add	r7, sp, #0
10001e66:	6078      	str	r0, [r7, #4]
  XMC_CAN_STATUS_t error = XMC_CAN_STATUS_MO_NOT_ACCEPTABLE;
10001e68:	230f      	movs	r3, #15
10001e6a:	18fb      	adds	r3, r7, r3
10001e6c:	2203      	movs	r2, #3
10001e6e:	701a      	strb	r2, [r3, #0]
  /* Check whether message object is transmit message object */
  if (can_mo->can_mo_type == XMC_CAN_MO_TYPE_TRANSMSGOBJ)
10001e70:	687b      	ldr	r3, [r7, #4]
10001e72:	7e1b      	ldrb	r3, [r3, #24]
10001e74:	2b01      	cmp	r3, #1
10001e76:	d125      	bne.n	10001ec4 <XMC_CAN_MO_UpdateData+0x64>
  {
    can_mo->can_mo_ptr->MOCTR = CAN_MO_MOCTR_RESMSGVAL_Msk;
10001e78:	687b      	ldr	r3, [r7, #4]
10001e7a:	681b      	ldr	r3, [r3, #0]
10001e7c:	2220      	movs	r2, #32
10001e7e:	61da      	str	r2, [r3, #28]
    /* Configure data length */
    can_mo->can_mo_ptr->MOFCR = ((can_mo->can_mo_ptr->MOFCR) & ~(uint32_t)(CAN_MO_MOFCR_DLC_Msk)) |
10001e80:	687b      	ldr	r3, [r7, #4]
10001e82:	681b      	ldr	r3, [r3, #0]
10001e84:	687a      	ldr	r2, [r7, #4]
10001e86:	6812      	ldr	r2, [r2, #0]
10001e88:	6812      	ldr	r2, [r2, #0]
10001e8a:	4914      	ldr	r1, [pc, #80]	; (10001edc <XMC_CAN_MO_UpdateData+0x7c>)
10001e8c:	4011      	ands	r1, r2
                                (((uint32_t) can_mo->can_data_length << CAN_MO_MOFCR_DLC_Pos) & (uint32_t)CAN_MO_MOFCR_DLC_Msk);
10001e8e:	687a      	ldr	r2, [r7, #4]
10001e90:	7b12      	ldrb	r2, [r2, #12]
10001e92:	0610      	lsls	r0, r2, #24
10001e94:	22f0      	movs	r2, #240	; 0xf0
10001e96:	0512      	lsls	r2, r2, #20
10001e98:	4002      	ands	r2, r0
  /* Check whether message object is transmit message object */
  if (can_mo->can_mo_type == XMC_CAN_MO_TYPE_TRANSMSGOBJ)
  {
    can_mo->can_mo_ptr->MOCTR = CAN_MO_MOCTR_RESMSGVAL_Msk;
    /* Configure data length */
    can_mo->can_mo_ptr->MOFCR = ((can_mo->can_mo_ptr->MOFCR) & ~(uint32_t)(CAN_MO_MOFCR_DLC_Msk)) |
10001e9a:	430a      	orrs	r2, r1
10001e9c:	601a      	str	r2, [r3, #0]
                                (((uint32_t) can_mo->can_data_length << CAN_MO_MOFCR_DLC_Pos) & (uint32_t)CAN_MO_MOFCR_DLC_Msk);
    /* Configure Data registers*/
    can_mo->can_mo_ptr->MODATAL = can_mo->can_data[0];
10001e9e:	687b      	ldr	r3, [r7, #4]
10001ea0:	681b      	ldr	r3, [r3, #0]
10001ea2:	687a      	ldr	r2, [r7, #4]
10001ea4:	6912      	ldr	r2, [r2, #16]
10001ea6:	611a      	str	r2, [r3, #16]
    can_mo->can_mo_ptr->MODATAH = can_mo->can_data[1];
10001ea8:	687b      	ldr	r3, [r7, #4]
10001eaa:	681b      	ldr	r3, [r3, #0]
10001eac:	687a      	ldr	r2, [r7, #4]
10001eae:	6952      	ldr	r2, [r2, #20]
10001eb0:	615a      	str	r2, [r3, #20]
    /* Reset RTSEL and Set MSGVAL ,TXEN0 and TXEN1 bits */
    can_mo->can_mo_ptr->MOCTR = (CAN_MO_MOCTR_SETNEWDAT_Msk | CAN_MO_MOCTR_SETMSGVAL_Msk | CAN_MO_MOCTR_RESRTSEL_Msk);
10001eb2:	687b      	ldr	r3, [r7, #4]
10001eb4:	681b      	ldr	r3, [r3, #0]
10001eb6:	4a0a      	ldr	r2, [pc, #40]	; (10001ee0 <XMC_CAN_MO_UpdateData+0x80>)
10001eb8:	61da      	str	r2, [r3, #28]
    error = XMC_CAN_STATUS_SUCCESS;
10001eba:	230f      	movs	r3, #15
10001ebc:	18fb      	adds	r3, r7, r3
10001ebe:	2200      	movs	r2, #0
10001ec0:	701a      	strb	r2, [r3, #0]
10001ec2:	e003      	b.n	10001ecc <XMC_CAN_MO_UpdateData+0x6c>
  }
  else
  {
    error = XMC_CAN_STATUS_MO_NOT_ACCEPTABLE;
10001ec4:	230f      	movs	r3, #15
10001ec6:	18fb      	adds	r3, r7, r3
10001ec8:	2203      	movs	r2, #3
10001eca:	701a      	strb	r2, [r3, #0]
  }
  return error;
10001ecc:	230f      	movs	r3, #15
10001ece:	18fb      	adds	r3, r7, r3
10001ed0:	781b      	ldrb	r3, [r3, #0]
}
10001ed2:	1c18      	adds	r0, r3, #0
10001ed4:	46bd      	mov	sp, r7
10001ed6:	b004      	add	sp, #16
10001ed8:	bd80      	pop	{r7, pc}
10001eda:	46c0      	nop			; (mov r8, r8)
10001edc:	f0ffffff 	.word	0xf0ffffff
10001ee0:	00280040 	.word	0x00280040

10001ee4 <XMC_CAN_MO_Transmit>:

/* This function is will put a transmit request to transmit message object */
XMC_CAN_STATUS_t XMC_CAN_MO_Transmit(const XMC_CAN_MO_t *const can_mo)
{
10001ee4:	b580      	push	{r7, lr}
10001ee6:	b086      	sub	sp, #24
10001ee8:	af00      	add	r7, sp, #0
10001eea:	6078      	str	r0, [r7, #4]
  XMC_CAN_STATUS_t error = XMC_CAN_STATUS_ERROR;
10001eec:	2317      	movs	r3, #23
10001eee:	18fb      	adds	r3, r7, r3
10001ef0:	2201      	movs	r2, #1
10001ef2:	701a      	strb	r2, [r3, #0]
  uint32_t mo_type = (uint32_t)(((can_mo->can_mo_ptr->MOSTAT) & CAN_MO_MOSTAT_MSGVAL_Msk) >> CAN_MO_MOSTAT_MSGVAL_Pos);
10001ef4:	687b      	ldr	r3, [r7, #4]
10001ef6:	681b      	ldr	r3, [r3, #0]
10001ef8:	69db      	ldr	r3, [r3, #28]
10001efa:	2220      	movs	r2, #32
10001efc:	4013      	ands	r3, r2
10001efe:	095b      	lsrs	r3, r3, #5
10001f00:	613b      	str	r3, [r7, #16]
  uint32_t mo_transmission_ongoing = (uint32_t) ((can_mo->can_mo_ptr->MOSTAT) & CAN_MO_MOSTAT_TXRQ_Msk) >> CAN_MO_MOSTAT_TXRQ_Pos;
10001f02:	687b      	ldr	r3, [r7, #4]
10001f04:	681b      	ldr	r3, [r3, #0]
10001f06:	69da      	ldr	r2, [r3, #28]
10001f08:	2380      	movs	r3, #128	; 0x80
10001f0a:	005b      	lsls	r3, r3, #1
10001f0c:	4013      	ands	r3, r2
10001f0e:	0a1b      	lsrs	r3, r3, #8
10001f10:	60fb      	str	r3, [r7, #12]
  /* check if message is disabled */
  if (mo_type == 0U)
10001f12:	693b      	ldr	r3, [r7, #16]
10001f14:	2b00      	cmp	r3, #0
10001f16:	d104      	bne.n	10001f22 <XMC_CAN_MO_Transmit+0x3e>
  {
    error = XMC_CAN_STATUS_MO_DISABLED;
10001f18:	2317      	movs	r3, #23
10001f1a:	18fb      	adds	r3, r7, r3
10001f1c:	2204      	movs	r2, #4
10001f1e:	701a      	strb	r2, [r3, #0]
10001f20:	e010      	b.n	10001f44 <XMC_CAN_MO_Transmit+0x60>
  }
  /* check if transmission is ongoing on message object */
  else if (mo_transmission_ongoing == 1U)
10001f22:	68fb      	ldr	r3, [r7, #12]
10001f24:	2b01      	cmp	r3, #1
10001f26:	d104      	bne.n	10001f32 <XMC_CAN_MO_Transmit+0x4e>
  {
    error = XMC_CAN_STATUS_BUSY;
10001f28:	2317      	movs	r3, #23
10001f2a:	18fb      	adds	r3, r7, r3
10001f2c:	2202      	movs	r2, #2
10001f2e:	701a      	strb	r2, [r3, #0]
10001f30:	e008      	b.n	10001f44 <XMC_CAN_MO_Transmit+0x60>
  }
  else
  {
    /* set TXRQ bit */
    can_mo->can_mo_ptr-> MOCTR = CAN_MO_MOCTR_SETTXRQ_Msk | CAN_MO_MOCTR_SETTXEN0_Msk | CAN_MO_MOCTR_SETTXEN1_Msk;
10001f32:	687b      	ldr	r3, [r7, #4]
10001f34:	681b      	ldr	r3, [r3, #0]
10001f36:	22e0      	movs	r2, #224	; 0xe0
10001f38:	04d2      	lsls	r2, r2, #19
10001f3a:	61da      	str	r2, [r3, #28]
    error = XMC_CAN_STATUS_SUCCESS;
10001f3c:	2317      	movs	r3, #23
10001f3e:	18fb      	adds	r3, r7, r3
10001f40:	2200      	movs	r2, #0
10001f42:	701a      	strb	r2, [r3, #0]
  }
  return error;
10001f44:	2317      	movs	r3, #23
10001f46:	18fb      	adds	r3, r7, r3
10001f48:	781b      	ldrb	r3, [r3, #0]
}
10001f4a:	1c18      	adds	r0, r3, #0
10001f4c:	46bd      	mov	sp, r7
10001f4e:	b006      	add	sp, #24
10001f50:	bd80      	pop	{r7, pc}
10001f52:	46c0      	nop			; (mov r8, r8)

10001f54 <XMC_CAN_MO_Receive>:
}


/* This function is will read the message object data bytes */
XMC_CAN_STATUS_t XMC_CAN_MO_Receive (XMC_CAN_MO_t *can_mo)
{
10001f54:	b580      	push	{r7, lr}
10001f56:	b086      	sub	sp, #24
10001f58:	af00      	add	r7, sp, #0
10001f5a:	6078      	str	r0, [r7, #4]
  XMC_CAN_STATUS_t error = XMC_CAN_STATUS_ERROR;
10001f5c:	2317      	movs	r3, #23
10001f5e:	18fb      	adds	r3, r7, r3
10001f60:	2201      	movs	r2, #1
10001f62:	701a      	strb	r2, [r3, #0]
  uint8_t rx_pnd = 0U;
10001f64:	2316      	movs	r3, #22
10001f66:	18fb      	adds	r3, r7, r3
10001f68:	2200      	movs	r2, #0
10001f6a:	701a      	strb	r2, [r3, #0]
  uint8_t new_data = 0U;
10001f6c:	2315      	movs	r3, #21
10001f6e:	18fb      	adds	r3, r7, r3
10001f70:	2200      	movs	r2, #0
10001f72:	701a      	strb	r2, [r3, #0]
  uint32_t mo_type = (uint32_t)((can_mo->can_mo_ptr->MOSTAT) & CAN_MO_MOSTAT_DIR_Msk) >> CAN_MO_MOSTAT_DIR_Pos;
10001f74:	687b      	ldr	r3, [r7, #4]
10001f76:	681b      	ldr	r3, [r3, #0]
10001f78:	69da      	ldr	r2, [r3, #28]
10001f7a:	2380      	movs	r3, #128	; 0x80
10001f7c:	011b      	lsls	r3, r3, #4
10001f7e:	4013      	ands	r3, r2
10001f80:	0adb      	lsrs	r3, r3, #11
10001f82:	613b      	str	r3, [r7, #16]
  uint32_t mo_recepcion_ongoing = (uint32_t)((can_mo->can_mo_ptr->MOSTAT) & CAN_MO_MOSTAT_RXUPD_Msk) >> CAN_MO_MOSTAT_RXUPD_Pos;
10001f84:	687b      	ldr	r3, [r7, #4]
10001f86:	681b      	ldr	r3, [r3, #0]
10001f88:	69db      	ldr	r3, [r3, #28]
10001f8a:	2204      	movs	r2, #4
10001f8c:	4013      	ands	r3, r2
10001f8e:	089b      	lsrs	r3, r3, #2
10001f90:	60fb      	str	r3, [r7, #12]
  /* check if message object is a receive message object */
  if (mo_type != (uint32_t)XMC_CAN_MO_TYPE_RECMSGOBJ)
10001f92:	693b      	ldr	r3, [r7, #16]
10001f94:	2b00      	cmp	r3, #0
10001f96:	d004      	beq.n	10001fa2 <XMC_CAN_MO_Receive+0x4e>
  {
    error = XMC_CAN_STATUS_MO_NOT_ACCEPTABLE;
10001f98:	2317      	movs	r3, #23
10001f9a:	18fb      	adds	r3, r7, r3
10001f9c:	2203      	movs	r2, #3
10001f9e:	701a      	strb	r2, [r3, #0]
10001fa0:	e0d3      	b.n	1000214a <XMC_CAN_MO_Receive+0x1f6>
  }
  /* check if reception is ongoing on message object */
  else if (mo_recepcion_ongoing == 1U)
10001fa2:	68fb      	ldr	r3, [r7, #12]
10001fa4:	2b01      	cmp	r3, #1
10001fa6:	d104      	bne.n	10001fb2 <XMC_CAN_MO_Receive+0x5e>
  {
    error = XMC_CAN_STATUS_BUSY;
10001fa8:	2317      	movs	r3, #23
10001faa:	18fb      	adds	r3, r7, r3
10001fac:	2202      	movs	r2, #2
10001fae:	701a      	strb	r2, [r3, #0]
10001fb0:	e0cb      	b.n	1000214a <XMC_CAN_MO_Receive+0x1f6>
  else
  {
    /* read message parameters */
    do
    {
      can_mo->can_mo_ptr->MOCTR = CAN_MO_MOCTR_RESNEWDAT_Msk;
10001fb2:	687b      	ldr	r3, [r7, #4]
10001fb4:	681b      	ldr	r3, [r3, #0]
10001fb6:	2208      	movs	r2, #8
10001fb8:	61da      	str	r2, [r3, #28]
      if ((((can_mo->can_mo_ptr->MOAR) & CAN_MO_MOAR_IDE_Msk) >> CAN_MO_MOAR_IDE_Pos) == 0U)
10001fba:	687b      	ldr	r3, [r7, #4]
10001fbc:	681b      	ldr	r3, [r3, #0]
10001fbe:	699a      	ldr	r2, [r3, #24]
10001fc0:	2380      	movs	r3, #128	; 0x80
10001fc2:	059b      	lsls	r3, r3, #22
10001fc4:	4013      	ands	r3, r2
10001fc6:	0f5b      	lsrs	r3, r3, #29
10001fc8:	d151      	bne.n	1000206e <XMC_CAN_MO_Receive+0x11a>
      {
        can_mo->can_id_mode = (uint32_t)XMC_CAN_FRAME_TYPE_STANDARD_11BITS;
10001fca:	687b      	ldr	r3, [r7, #4]
10001fcc:	79da      	ldrb	r2, [r3, #7]
10001fce:	2120      	movs	r1, #32
10001fd0:	438a      	bics	r2, r1
10001fd2:	71da      	strb	r2, [r3, #7]
        can_mo->can_identifier = (can_mo->can_mo_ptr->MOAR & XMC_CAN_MO_MOAR_STDID_Msk) >> XMC_CAN_MO_MOAR_STDID_Pos;
10001fd4:	687b      	ldr	r3, [r7, #4]
10001fd6:	681b      	ldr	r3, [r3, #0]
10001fd8:	699b      	ldr	r3, [r3, #24]
10001fda:	4a5f      	ldr	r2, [pc, #380]	; (10002158 <XMC_CAN_MO_Receive+0x204>)
10001fdc:	4013      	ands	r3, r2
10001fde:	0c9b      	lsrs	r3, r3, #18
10001fe0:	00db      	lsls	r3, r3, #3
10001fe2:	08da      	lsrs	r2, r3, #3
10001fe4:	687b      	ldr	r3, [r7, #4]
10001fe6:	00d2      	lsls	r2, r2, #3
10001fe8:	08d2      	lsrs	r2, r2, #3
10001fea:	6859      	ldr	r1, [r3, #4]
10001fec:	0f49      	lsrs	r1, r1, #29
10001fee:	0749      	lsls	r1, r1, #29
10001ff0:	430a      	orrs	r2, r1
10001ff2:	605a      	str	r2, [r3, #4]
        can_mo->can_ide_mask = (uint32_t)(can_mo->can_mo_ptr->MOAMR & CAN_MO_MOAMR_MIDE_Msk) >> CAN_MO_MOAMR_MIDE_Pos;
10001ff4:	687b      	ldr	r3, [r7, #4]
10001ff6:	681b      	ldr	r3, [r3, #0]
10001ff8:	68da      	ldr	r2, [r3, #12]
10001ffa:	2380      	movs	r3, #128	; 0x80
10001ffc:	059b      	lsls	r3, r3, #22
10001ffe:	4013      	ands	r3, r2
10002000:	0f5b      	lsrs	r3, r3, #29
10002002:	b2db      	uxtb	r3, r3
10002004:	1c1a      	adds	r2, r3, #0
10002006:	2301      	movs	r3, #1
10002008:	4013      	ands	r3, r2
1000200a:	b2da      	uxtb	r2, r3
1000200c:	687b      	ldr	r3, [r7, #4]
1000200e:	2101      	movs	r1, #1
10002010:	400a      	ands	r2, r1
10002012:	0150      	lsls	r0, r2, #5
10002014:	7ada      	ldrb	r2, [r3, #11]
10002016:	2120      	movs	r1, #32
10002018:	438a      	bics	r2, r1
1000201a:	1c11      	adds	r1, r2, #0
1000201c:	1c02      	adds	r2, r0, #0
1000201e:	430a      	orrs	r2, r1
10002020:	72da      	strb	r2, [r3, #11]
        if (can_mo->can_ide_mask == 1U)
10002022:	687b      	ldr	r3, [r7, #4]
10002024:	7adb      	ldrb	r3, [r3, #11]
10002026:	2220      	movs	r2, #32
10002028:	4013      	ands	r3, r2
1000202a:	b2db      	uxtb	r3, r3
1000202c:	2b00      	cmp	r3, #0
1000202e:	d010      	beq.n	10002052 <XMC_CAN_MO_Receive+0xfe>
        {
          can_mo->can_id_mask = (uint32_t)(can_mo->can_mo_ptr->MOAMR & XMC_CAN_MO_MOAR_STDID_Msk) >> XMC_CAN_MO_MOAR_STDID_Pos;
10002030:	687b      	ldr	r3, [r7, #4]
10002032:	681b      	ldr	r3, [r3, #0]
10002034:	68db      	ldr	r3, [r3, #12]
10002036:	4a48      	ldr	r2, [pc, #288]	; (10002158 <XMC_CAN_MO_Receive+0x204>)
10002038:	4013      	ands	r3, r2
1000203a:	0c9b      	lsrs	r3, r3, #18
1000203c:	00db      	lsls	r3, r3, #3
1000203e:	08da      	lsrs	r2, r3, #3
10002040:	687b      	ldr	r3, [r7, #4]
10002042:	00d2      	lsls	r2, r2, #3
10002044:	08d2      	lsrs	r2, r2, #3
10002046:	6899      	ldr	r1, [r3, #8]
10002048:	0f49      	lsrs	r1, r1, #29
1000204a:	0749      	lsls	r1, r1, #29
1000204c:	430a      	orrs	r2, r1
1000204e:	609a      	str	r2, [r3, #8]
10002050:	e043      	b.n	100020da <XMC_CAN_MO_Receive+0x186>
        }
        else
        {
          can_mo->can_id_mask = (uint32_t)(can_mo->can_mo_ptr->MOAMR & CAN_MO_MOAMR_AM_Msk);
10002052:	687b      	ldr	r3, [r7, #4]
10002054:	681b      	ldr	r3, [r3, #0]
10002056:	68db      	ldr	r3, [r3, #12]
10002058:	00db      	lsls	r3, r3, #3
1000205a:	08da      	lsrs	r2, r3, #3
1000205c:	687b      	ldr	r3, [r7, #4]
1000205e:	00d2      	lsls	r2, r2, #3
10002060:	08d2      	lsrs	r2, r2, #3
10002062:	6899      	ldr	r1, [r3, #8]
10002064:	0f49      	lsrs	r1, r1, #29
10002066:	0749      	lsls	r1, r1, #29
10002068:	430a      	orrs	r2, r1
1000206a:	609a      	str	r2, [r3, #8]
1000206c:	e035      	b.n	100020da <XMC_CAN_MO_Receive+0x186>
        }
      }
      else
      {
        can_mo->can_id_mode = (uint32_t)XMC_CAN_FRAME_TYPE_EXTENDED_29BITS;
1000206e:	687b      	ldr	r3, [r7, #4]
10002070:	79da      	ldrb	r2, [r3, #7]
10002072:	2120      	movs	r1, #32
10002074:	430a      	orrs	r2, r1
10002076:	71da      	strb	r2, [r3, #7]
        can_mo->can_identifier = (can_mo->can_mo_ptr->MOAR & CAN_MO_MOAR_ID_Msk);
10002078:	687b      	ldr	r3, [r7, #4]
1000207a:	681b      	ldr	r3, [r3, #0]
1000207c:	699b      	ldr	r3, [r3, #24]
1000207e:	00db      	lsls	r3, r3, #3
10002080:	08da      	lsrs	r2, r3, #3
10002082:	687b      	ldr	r3, [r7, #4]
10002084:	00d2      	lsls	r2, r2, #3
10002086:	08d2      	lsrs	r2, r2, #3
10002088:	6859      	ldr	r1, [r3, #4]
1000208a:	0f49      	lsrs	r1, r1, #29
1000208c:	0749      	lsls	r1, r1, #29
1000208e:	430a      	orrs	r2, r1
10002090:	605a      	str	r2, [r3, #4]
        can_mo->can_id_mask = (uint32_t)(can_mo->can_mo_ptr->MOAMR & CAN_MO_MOAMR_AM_Msk);
10002092:	687b      	ldr	r3, [r7, #4]
10002094:	681b      	ldr	r3, [r3, #0]
10002096:	68db      	ldr	r3, [r3, #12]
10002098:	00db      	lsls	r3, r3, #3
1000209a:	08da      	lsrs	r2, r3, #3
1000209c:	687b      	ldr	r3, [r7, #4]
1000209e:	00d2      	lsls	r2, r2, #3
100020a0:	08d2      	lsrs	r2, r2, #3
100020a2:	6899      	ldr	r1, [r3, #8]
100020a4:	0f49      	lsrs	r1, r1, #29
100020a6:	0749      	lsls	r1, r1, #29
100020a8:	430a      	orrs	r2, r1
100020aa:	609a      	str	r2, [r3, #8]
        can_mo->can_ide_mask = (uint32_t)(can_mo->can_mo_ptr->MOAMR & CAN_MO_MOAMR_MIDE_Msk) >> CAN_MO_MOAMR_MIDE_Pos;
100020ac:	687b      	ldr	r3, [r7, #4]
100020ae:	681b      	ldr	r3, [r3, #0]
100020b0:	68da      	ldr	r2, [r3, #12]
100020b2:	2380      	movs	r3, #128	; 0x80
100020b4:	059b      	lsls	r3, r3, #22
100020b6:	4013      	ands	r3, r2
100020b8:	0f5b      	lsrs	r3, r3, #29
100020ba:	b2db      	uxtb	r3, r3
100020bc:	1c1a      	adds	r2, r3, #0
100020be:	2301      	movs	r3, #1
100020c0:	4013      	ands	r3, r2
100020c2:	b2da      	uxtb	r2, r3
100020c4:	687b      	ldr	r3, [r7, #4]
100020c6:	2101      	movs	r1, #1
100020c8:	400a      	ands	r2, r1
100020ca:	0150      	lsls	r0, r2, #5
100020cc:	7ada      	ldrb	r2, [r3, #11]
100020ce:	2120      	movs	r1, #32
100020d0:	438a      	bics	r2, r1
100020d2:	1c11      	adds	r1, r2, #0
100020d4:	1c02      	adds	r2, r0, #0
100020d6:	430a      	orrs	r2, r1
100020d8:	72da      	strb	r2, [r3, #11]
      }
      can_mo->can_data_length = (uint8_t)((uint32_t)((can_mo->can_mo_ptr->MOFCR) & CAN_MO_MOFCR_DLC_Msk) >> CAN_MO_MOFCR_DLC_Pos);
100020da:	687b      	ldr	r3, [r7, #4]
100020dc:	681b      	ldr	r3, [r3, #0]
100020de:	681a      	ldr	r2, [r3, #0]
100020e0:	23f0      	movs	r3, #240	; 0xf0
100020e2:	051b      	lsls	r3, r3, #20
100020e4:	4013      	ands	r3, r2
100020e6:	0e1b      	lsrs	r3, r3, #24
100020e8:	b2da      	uxtb	r2, r3
100020ea:	687b      	ldr	r3, [r7, #4]
100020ec:	731a      	strb	r2, [r3, #12]

      can_mo->can_data[0] = can_mo->can_mo_ptr->MODATAL;
100020ee:	687b      	ldr	r3, [r7, #4]
100020f0:	681b      	ldr	r3, [r3, #0]
100020f2:	691a      	ldr	r2, [r3, #16]
100020f4:	687b      	ldr	r3, [r7, #4]
100020f6:	611a      	str	r2, [r3, #16]
      can_mo->can_data[1] = can_mo->can_mo_ptr->MODATAH;
100020f8:	687b      	ldr	r3, [r7, #4]
100020fa:	681b      	ldr	r3, [r3, #0]
100020fc:	695a      	ldr	r2, [r3, #20]
100020fe:	687b      	ldr	r3, [r7, #4]
10002100:	615a      	str	r2, [r3, #20]

      rx_pnd = (uint8_t)((uint32_t)((can_mo->can_mo_ptr->MOSTAT) & CAN_MO_MOSTAT_RXUPD_Msk) >> CAN_MO_MOSTAT_RXUPD_Pos);
10002102:	687b      	ldr	r3, [r7, #4]
10002104:	681b      	ldr	r3, [r3, #0]
10002106:	69db      	ldr	r3, [r3, #28]
10002108:	2204      	movs	r2, #4
1000210a:	4013      	ands	r3, r2
1000210c:	089a      	lsrs	r2, r3, #2
1000210e:	2316      	movs	r3, #22
10002110:	18fb      	adds	r3, r7, r3
10002112:	701a      	strb	r2, [r3, #0]
      new_data = (uint8_t)((uint32_t)((can_mo->can_mo_ptr->MOSTAT) & CAN_MO_MOSTAT_NEWDAT_Msk) >> CAN_MO_MOSTAT_NEWDAT_Pos);
10002114:	687b      	ldr	r3, [r7, #4]
10002116:	681b      	ldr	r3, [r3, #0]
10002118:	69db      	ldr	r3, [r3, #28]
1000211a:	2208      	movs	r2, #8
1000211c:	4013      	ands	r3, r2
1000211e:	08da      	lsrs	r2, r3, #3
10002120:	2315      	movs	r3, #21
10002122:	18fb      	adds	r3, r7, r3
10002124:	701a      	strb	r2, [r3, #0]
    }
    while ((rx_pnd != 0U) && (new_data != 0U));
10002126:	2316      	movs	r3, #22
10002128:	18fb      	adds	r3, r7, r3
1000212a:	781b      	ldrb	r3, [r3, #0]
1000212c:	2b00      	cmp	r3, #0
1000212e:	d005      	beq.n	1000213c <XMC_CAN_MO_Receive+0x1e8>
10002130:	2315      	movs	r3, #21
10002132:	18fb      	adds	r3, r7, r3
10002134:	781b      	ldrb	r3, [r3, #0]
10002136:	2b00      	cmp	r3, #0
10002138:	d000      	beq.n	1000213c <XMC_CAN_MO_Receive+0x1e8>
1000213a:	e73a      	b.n	10001fb2 <XMC_CAN_MO_Receive+0x5e>

    can_mo->can_mo_type = XMC_CAN_MO_TYPE_RECMSGOBJ;
1000213c:	687b      	ldr	r3, [r7, #4]
1000213e:	2200      	movs	r2, #0
10002140:	761a      	strb	r2, [r3, #24]
    error = XMC_CAN_STATUS_SUCCESS;
10002142:	2317      	movs	r3, #23
10002144:	18fb      	adds	r3, r7, r3
10002146:	2200      	movs	r2, #0
10002148:	701a      	strb	r2, [r3, #0]
  }
  return error;
1000214a:	2317      	movs	r3, #23
1000214c:	18fb      	adds	r3, r7, r3
1000214e:	781b      	ldrb	r3, [r3, #0]
}
10002150:	1c18      	adds	r0, r3, #0
10002152:	46bd      	mov	sp, r7
10002154:	b006      	add	sp, #24
10002156:	bd80      	pop	{r7, pc}
10002158:	1ffc0000 	.word	0x1ffc0000

1000215c <XMC_CAN_NODE_EnableEvent>:

/* Function to enable node event */
void XMC_CAN_NODE_EnableEvent(XMC_CAN_NODE_t *const can_node, const XMC_CAN_NODE_EVENT_t event)
{
1000215c:	b580      	push	{r7, lr}
1000215e:	b082      	sub	sp, #8
10002160:	af00      	add	r7, sp, #0
10002162:	6078      	str	r0, [r7, #4]
10002164:	6039      	str	r1, [r7, #0]
  if (event != XMC_CAN_NODE_EVENT_CFCIE)
10002166:	683a      	ldr	r2, [r7, #0]
10002168:	2380      	movs	r3, #128	; 0x80
1000216a:	03db      	lsls	r3, r3, #15
1000216c:	429a      	cmp	r2, r3
1000216e:	d006      	beq.n	1000217e <XMC_CAN_NODE_EnableEvent+0x22>
  {
    can_node->NCR |= (uint32_t)event;
10002170:	687b      	ldr	r3, [r7, #4]
10002172:	681a      	ldr	r2, [r3, #0]
10002174:	683b      	ldr	r3, [r7, #0]
10002176:	431a      	orrs	r2, r3
10002178:	687b      	ldr	r3, [r7, #4]
1000217a:	601a      	str	r2, [r3, #0]
1000217c:	e005      	b.n	1000218a <XMC_CAN_NODE_EnableEvent+0x2e>
  }
  else
  {
    can_node->NFCR |= (uint32_t)event;
1000217e:	687b      	ldr	r3, [r7, #4]
10002180:	699a      	ldr	r2, [r3, #24]
10002182:	683b      	ldr	r3, [r7, #0]
10002184:	431a      	orrs	r2, r3
10002186:	687b      	ldr	r3, [r7, #4]
10002188:	619a      	str	r2, [r3, #24]
  }
}
1000218a:	46bd      	mov	sp, r7
1000218c:	b002      	add	sp, #8
1000218e:	bd80      	pop	{r7, pc}

10002190 <XMC_CCU4_StartPrescaler>:
 * \par<b>Related APIs:</b><br>
 * XMC_CCU4_Init()<BR> XMC_CCU4_EnableClock()<BR> XMC_CCU4_DisableClock()<BR> XMC_CCU4_StartPrescaler()<BR>
 * XMC_CCU4_StopPrescaler().
 */
__STATIC_INLINE void XMC_CCU4_StartPrescaler(XMC_CCU4_MODULE_t *const module)
{
10002190:	b580      	push	{r7, lr}
10002192:	b082      	sub	sp, #8
10002194:	af00      	add	r7, sp, #0
10002196:	6078      	str	r0, [r7, #4]
  XMC_ASSERT("XMC_CCU4_StartPrescaler:Invalid Module Pointer", XMC_CCU4_IsValidModule(module));
  module->GIDLC = (uint32_t) CCU4_GIDLC_SPRB_Msk;
10002198:	687b      	ldr	r3, [r7, #4]
1000219a:	2280      	movs	r2, #128	; 0x80
1000219c:	0052      	lsls	r2, r2, #1
1000219e:	60da      	str	r2, [r3, #12]
}
100021a0:	46bd      	mov	sp, r7
100021a2:	b002      	add	sp, #8
100021a4:	bd80      	pop	{r7, pc}
100021a6:	46c0      	nop			; (mov r8, r8)

100021a8 <XMC_CCU4_lUngateClock>:
    XMC_ASSERT("XMC_CCU4_lGateClock:Invalid Module Pointer", 0);
  }
}

__STATIC_INLINE void XMC_CCU4_lUngateClock(const XMC_CCU4_MODULE_t *const module)
{
100021a8:	b580      	push	{r7, lr}
100021aa:	b082      	sub	sp, #8
100021ac:	af00      	add	r7, sp, #0
100021ae:	6078      	str	r0, [r7, #4]
  if (module == CCU40)
100021b0:	687b      	ldr	r3, [r7, #4]
100021b2:	4a09      	ldr	r2, [pc, #36]	; (100021d8 <XMC_CCU4_lUngateClock+0x30>)
100021b4:	4293      	cmp	r3, r2
100021b6:	d103      	bne.n	100021c0 <XMC_CCU4_lUngateClock+0x18>
  {
    XMC_SCU_CLOCK_UngatePeripheralClock(XMC_SCU_PERIPHERAL_CLOCK_CCU40);
100021b8:	2004      	movs	r0, #4
100021ba:	f7ff f9cf 	bl	1000155c <XMC_SCU_CLOCK_UngatePeripheralClock>
100021be:	e008      	b.n	100021d2 <XMC_CCU4_lUngateClock+0x2a>
  }
#if defined(CCU41)
  else if (module == CCU41)
100021c0:	687b      	ldr	r3, [r7, #4]
100021c2:	4a06      	ldr	r2, [pc, #24]	; (100021dc <XMC_CCU4_lUngateClock+0x34>)
100021c4:	4293      	cmp	r3, r2
100021c6:	d104      	bne.n	100021d2 <XMC_CCU4_lUngateClock+0x2a>
  {
    XMC_SCU_CLOCK_UngatePeripheralClock(XMC_SCU_PERIPHERAL_CLOCK_CCU41);
100021c8:	2380      	movs	r3, #128	; 0x80
100021ca:	029b      	lsls	r3, r3, #10
100021cc:	1c18      	adds	r0, r3, #0
100021ce:	f7ff f9c5 	bl	1000155c <XMC_SCU_CLOCK_UngatePeripheralClock>
#endif
  else
  {
    XMC_ASSERT("XMC_CCU4_lUngateClock:Invalid Module Pointer", 0);
  }
}
100021d2:	46bd      	mov	sp, r7
100021d4:	b002      	add	sp, #8
100021d6:	bd80      	pop	{r7, pc}
100021d8:	48040000 	.word	0x48040000
100021dc:	48044000 	.word	0x48044000

100021e0 <XMC_CCU4_EnableModule>:
/*********************************************************************************************************************
 * API IMPLEMENTATION
 ********************************************************************************************************************/

void XMC_CCU4_EnableModule(XMC_CCU4_MODULE_t *const module)
{
100021e0:	b580      	push	{r7, lr}
100021e2:	b082      	sub	sp, #8
100021e4:	af00      	add	r7, sp, #0
100021e6:	6078      	str	r0, [r7, #4]
  /* Enable CCU4 module clock */
  XMC_SCU_CLOCK_EnableClock(XMC_SCU_CLOCK_CCU);
#endif

#if defined(CLOCK_GATING_SUPPORTED)
  XMC_CCU4_lUngateClock(module);
100021e8:	687b      	ldr	r3, [r7, #4]
100021ea:	1c18      	adds	r0, r3, #0
100021ec:	f7ff ffdc 	bl	100021a8 <XMC_CCU4_lUngateClock>
#endif

#if defined(PERIPHERAL_RESET_SUPPORTED)
  XMC_CCU4_lDeassertReset(module);
#endif
}
100021f0:	46bd      	mov	sp, r7
100021f2:	b002      	add	sp, #8
100021f4:	bd80      	pop	{r7, pc}
100021f6:	46c0      	nop			; (mov r8, r8)

100021f8 <XMC_CCU4_Init>:
#endif
}

/* API to initialize CCU4 global resources  */
void XMC_CCU4_Init(XMC_CCU4_MODULE_t *const module, const XMC_CCU4_SLICE_MCMS_ACTION_t mcs_action)
{
100021f8:	b580      	push	{r7, lr}
100021fa:	b084      	sub	sp, #16
100021fc:	af00      	add	r7, sp, #0
100021fe:	6078      	str	r0, [r7, #4]
10002200:	1c0a      	adds	r2, r1, #0
10002202:	1cfb      	adds	r3, r7, #3
10002204:	701a      	strb	r2, [r3, #0]

  XMC_ASSERT("XMC_CCU4_Init:Invalid module pointer", XMC_CCU4_IsValidModule(module));
  XMC_ASSERT("XMC_CCU4_Init:Invalid mcs action", XMC_CCU4_SLICE_CHECK_MCS_ACTION(mcs_action));

  /* Enable CCU4 module */
  XMC_CCU4_EnableModule(module);
10002206:	687b      	ldr	r3, [r7, #4]
10002208:	1c18      	adds	r0, r3, #0
1000220a:	f7ff ffe9 	bl	100021e0 <XMC_CCU4_EnableModule>
  /* Start the prescaler */
  XMC_CCU4_StartPrescaler(module);
1000220e:	687b      	ldr	r3, [r7, #4]
10002210:	1c18      	adds	r0, r3, #0
10002212:	f7ff ffbd 	bl	10002190 <XMC_CCU4_StartPrescaler>

  gctrl = module->GCTRL;
10002216:	687b      	ldr	r3, [r7, #4]
10002218:	681b      	ldr	r3, [r3, #0]
1000221a:	60fb      	str	r3, [r7, #12]
  gctrl &= ~((uint32_t) CCU4_GCTRL_MSDE_Msk);
1000221c:	68fb      	ldr	r3, [r7, #12]
1000221e:	4a07      	ldr	r2, [pc, #28]	; (1000223c <XMC_CCU4_Init+0x44>)
10002220:	4013      	ands	r3, r2
10002222:	60fb      	str	r3, [r7, #12]
  gctrl |= ((uint32_t) mcs_action) << CCU4_GCTRL_MSDE_Pos;
10002224:	1cfb      	adds	r3, r7, #3
10002226:	781b      	ldrb	r3, [r3, #0]
10002228:	039b      	lsls	r3, r3, #14
1000222a:	68fa      	ldr	r2, [r7, #12]
1000222c:	4313      	orrs	r3, r2
1000222e:	60fb      	str	r3, [r7, #12]

  module->GCTRL = gctrl;
10002230:	687b      	ldr	r3, [r7, #4]
10002232:	68fa      	ldr	r2, [r7, #12]
10002234:	601a      	str	r2, [r3, #0]
}
10002236:	46bd      	mov	sp, r7
10002238:	b004      	add	sp, #16
1000223a:	bd80      	pop	{r7, pc}
1000223c:	ffff3fff 	.word	0xffff3fff

10002240 <XMC_CCU4_SLICE_CompareInit>:
}

/* API to configure CC4 Slice as Timer */
void XMC_CCU4_SLICE_CompareInit(XMC_CCU4_SLICE_t *const slice,
                                const XMC_CCU4_SLICE_COMPARE_CONFIG_t *const compare_init)
{
10002240:	b580      	push	{r7, lr}
10002242:	b082      	sub	sp, #8
10002244:	af00      	add	r7, sp, #0
10002246:	6078      	str	r0, [r7, #4]
10002248:	6039      	str	r1, [r7, #0]
  XMC_ASSERT("XMC_CCU4_SLICE_CompareInit:Invalid Slice Pointer", XMC_CCU4_IsValidSlice(slice));
  XMC_ASSERT("XMC_CCU4_SLICE_CompareInit:Compare Init Pointer is NULL",
             (XMC_CCU4_SLICE_COMPARE_CONFIG_t *) NULL != compare_init);

  /* Program the timer mode */
  slice->TC = compare_init->tc;
1000224a:	683b      	ldr	r3, [r7, #0]
1000224c:	681a      	ldr	r2, [r3, #0]
1000224e:	687b      	ldr	r3, [r7, #4]
10002250:	615a      	str	r2, [r3, #20]
  /* Enable the timer concatenation */
  slice->CMC = ((uint32_t) compare_init->timer_concatenation << CCU4_CC4_CMC_TCE_Pos);
10002252:	683b      	ldr	r3, [r7, #0]
10002254:	795b      	ldrb	r3, [r3, #5]
10002256:	069b      	lsls	r3, r3, #26
10002258:	0fdb      	lsrs	r3, r3, #31
1000225a:	b2db      	uxtb	r3, r3
1000225c:	051a      	lsls	r2, r3, #20
1000225e:	687b      	ldr	r3, [r7, #4]
10002260:	605a      	str	r2, [r3, #4]
  /* Program initial prescaler divider value */
  slice->PSC = (uint32_t) compare_init->prescaler_initval;
10002262:	683b      	ldr	r3, [r7, #0]
10002264:	791b      	ldrb	r3, [r3, #4]
10002266:	071b      	lsls	r3, r3, #28
10002268:	0f1b      	lsrs	r3, r3, #28
1000226a:	b2db      	uxtb	r3, r3
1000226c:	1c1a      	adds	r2, r3, #0
1000226e:	687b      	ldr	r3, [r7, #4]
10002270:	625a      	str	r2, [r3, #36]	; 0x24
  /* Program the dither compare value */
  slice->DITS = (uint32_t) compare_init->dither_limit;
10002272:	683b      	ldr	r3, [r7, #0]
10002274:	795b      	ldrb	r3, [r3, #5]
10002276:	071b      	lsls	r3, r3, #28
10002278:	0f1b      	lsrs	r3, r3, #28
1000227a:	b2db      	uxtb	r3, r3
1000227c:	1c1a      	adds	r2, r3, #0
1000227e:	687b      	ldr	r3, [r7, #4]
10002280:	621a      	str	r2, [r3, #32]
  /* Program timer output passive level */
  slice->PSL = (uint32_t) compare_init->passive_level;
10002282:	683b      	ldr	r3, [r7, #0]
10002284:	795b      	ldrb	r3, [r3, #5]
10002286:	06db      	lsls	r3, r3, #27
10002288:	0fdb      	lsrs	r3, r3, #31
1000228a:	b2db      	uxtb	r3, r3
1000228c:	1c1a      	adds	r2, r3, #0
1000228e:	687b      	ldr	r3, [r7, #4]
10002290:	619a      	str	r2, [r3, #24]
  /* Program floating prescaler compare value */
  slice->FPCS = (uint32_t) compare_init->float_limit;
10002292:	683b      	ldr	r3, [r7, #0]
10002294:	791b      	ldrb	r3, [r3, #4]
10002296:	061b      	lsls	r3, r3, #24
10002298:	0f1b      	lsrs	r3, r3, #28
1000229a:	b2db      	uxtb	r3, r3
1000229c:	1c1a      	adds	r2, r3, #0
1000229e:	687b      	ldr	r3, [r7, #4]
100022a0:	62da      	str	r2, [r3, #44]	; 0x2c
}
100022a2:	46bd      	mov	sp, r7
100022a4:	b002      	add	sp, #8
100022a6:	bd80      	pop	{r7, pc}

100022a8 <XMC_CCU4_SLICE_CaptureInit>:

/* API to configure CC4 Slice for Capture */
void XMC_CCU4_SLICE_CaptureInit(XMC_CCU4_SLICE_t *const slice,
                                const XMC_CCU4_SLICE_CAPTURE_CONFIG_t *const capture_init)
{
100022a8:	b580      	push	{r7, lr}
100022aa:	b082      	sub	sp, #8
100022ac:	af00      	add	r7, sp, #0
100022ae:	6078      	str	r0, [r7, #4]
100022b0:	6039      	str	r1, [r7, #0]
  XMC_ASSERT("XMC_CCU4_SLICE_CaptureInit:Invalid Slice Pointer", XMC_CCU4_IsValidSlice(slice));
  XMC_ASSERT("XMC_CCU4_SLICE_CaptureInit:Capture Init Pointer is NULL",
             (XMC_CCU4_SLICE_CAPTURE_CONFIG_t *) NULL != capture_init);

  /* Program the capture mode */
  slice->TC = capture_init->tc;
100022b2:	683b      	ldr	r3, [r7, #0]
100022b4:	681a      	ldr	r2, [r3, #0]
100022b6:	687b      	ldr	r3, [r7, #4]
100022b8:	615a      	str	r2, [r3, #20]
  /* Enable the timer concatenation */
  slice->CMC = ((uint32_t)capture_init->timer_concatenation << CCU4_CC4_CMC_TCE_Pos);
100022ba:	683b      	ldr	r3, [r7, #0]
100022bc:	795b      	ldrb	r3, [r3, #5]
100022be:	07db      	lsls	r3, r3, #31
100022c0:	0fdb      	lsrs	r3, r3, #31
100022c2:	b2db      	uxtb	r3, r3
100022c4:	051a      	lsls	r2, r3, #20
100022c6:	687b      	ldr	r3, [r7, #4]
100022c8:	605a      	str	r2, [r3, #4]
  /* Program initial prescaler divider value */
  slice->PSC = (uint32_t) capture_init->prescaler_initval;
100022ca:	683b      	ldr	r3, [r7, #0]
100022cc:	791b      	ldrb	r3, [r3, #4]
100022ce:	071b      	lsls	r3, r3, #28
100022d0:	0f1b      	lsrs	r3, r3, #28
100022d2:	b2db      	uxtb	r3, r3
100022d4:	1c1a      	adds	r2, r3, #0
100022d6:	687b      	ldr	r3, [r7, #4]
100022d8:	625a      	str	r2, [r3, #36]	; 0x24
  /* Program initial floating prescaler compare value */
  slice->FPCS = (uint32_t) capture_init->float_limit;
100022da:	683b      	ldr	r3, [r7, #0]
100022dc:	791b      	ldrb	r3, [r3, #4]
100022de:	061b      	lsls	r3, r3, #24
100022e0:	0f1b      	lsrs	r3, r3, #28
100022e2:	b2db      	uxtb	r3, r3
100022e4:	1c1a      	adds	r2, r3, #0
100022e6:	687b      	ldr	r3, [r7, #4]
100022e8:	62da      	str	r2, [r3, #44]	; 0x2c
}
100022ea:	46bd      	mov	sp, r7
100022ec:	b002      	add	sp, #8
100022ee:	bd80      	pop	{r7, pc}

100022f0 <XMC_CCU4_SLICE_Capture0Config>:
  slice->CMC = cmc;
}

/* API to configure Capture-0 function */
void XMC_CCU4_SLICE_Capture0Config(XMC_CCU4_SLICE_t *const slice, const XMC_CCU4_SLICE_EVENT_t event)
{
100022f0:	b580      	push	{r7, lr}
100022f2:	b084      	sub	sp, #16
100022f4:	af00      	add	r7, sp, #0
100022f6:	6078      	str	r0, [r7, #4]
100022f8:	1c0a      	adds	r2, r1, #0
100022fa:	1cfb      	adds	r3, r7, #3
100022fc:	701a      	strb	r2, [r3, #0]

  XMC_ASSERT("XMC_CCU4_SLICE_Capture0Config:Invalid Slice Pointer", XMC_CCU4_IsValidSlice(slice));
  XMC_ASSERT("XMC_CCU4_SLICE_Capture0Config:Invalid Event ID", XMC_CCU4_SLICE_CHECK_EVENT_ID(event));

  /* Bind the event with the gate function */
  cmc = slice->CMC;
100022fe:	687b      	ldr	r3, [r7, #4]
10002300:	685b      	ldr	r3, [r3, #4]
10002302:	60fb      	str	r3, [r7, #12]
  cmc &= ~((uint32_t) CCU4_CC4_CMC_CAP0S_Msk);
10002304:	68fb      	ldr	r3, [r7, #12]
10002306:	2230      	movs	r2, #48	; 0x30
10002308:	4393      	bics	r3, r2
1000230a:	60fb      	str	r3, [r7, #12]
  cmc |= ((uint32_t) event) << CCU4_CC4_CMC_CAP0S_Pos;
1000230c:	1cfb      	adds	r3, r7, #3
1000230e:	781b      	ldrb	r3, [r3, #0]
10002310:	011b      	lsls	r3, r3, #4
10002312:	68fa      	ldr	r2, [r7, #12]
10002314:	4313      	orrs	r3, r2
10002316:	60fb      	str	r3, [r7, #12]

  slice->CMC = cmc;
10002318:	687b      	ldr	r3, [r7, #4]
1000231a:	68fa      	ldr	r2, [r7, #12]
1000231c:	605a      	str	r2, [r3, #4]
}
1000231e:	46bd      	mov	sp, r7
10002320:	b004      	add	sp, #16
10002322:	bd80      	pop	{r7, pc}

10002324 <XMC_CCU4_SLICE_Capture1Config>:

/* API to configure Capture-1 function */
void XMC_CCU4_SLICE_Capture1Config(XMC_CCU4_SLICE_t *const slice, const XMC_CCU4_SLICE_EVENT_t event)
{
10002324:	b580      	push	{r7, lr}
10002326:	b084      	sub	sp, #16
10002328:	af00      	add	r7, sp, #0
1000232a:	6078      	str	r0, [r7, #4]
1000232c:	1c0a      	adds	r2, r1, #0
1000232e:	1cfb      	adds	r3, r7, #3
10002330:	701a      	strb	r2, [r3, #0]

  XMC_ASSERT("XMC_CCU4_SLICE_Capture1Config:Invalid Slice Pointer", XMC_CCU4_IsValidSlice(slice));
  XMC_ASSERT("XMC_CCU4_SLICE_Capture1Config:Invalid Event ID", XMC_CCU4_SLICE_CHECK_EVENT_ID(event));

  /* Bind the event with the gate function */
  cmc = slice->CMC;
10002332:	687b      	ldr	r3, [r7, #4]
10002334:	685b      	ldr	r3, [r3, #4]
10002336:	60fb      	str	r3, [r7, #12]
  cmc &= ~((uint32_t) CCU4_CC4_CMC_CAP1S_Msk);
10002338:	68fb      	ldr	r3, [r7, #12]
1000233a:	22c0      	movs	r2, #192	; 0xc0
1000233c:	4393      	bics	r3, r2
1000233e:	60fb      	str	r3, [r7, #12]
  cmc |= ((uint32_t) event) << CCU4_CC4_CMC_CAP1S_Pos;
10002340:	1cfb      	adds	r3, r7, #3
10002342:	781b      	ldrb	r3, [r3, #0]
10002344:	019b      	lsls	r3, r3, #6
10002346:	68fa      	ldr	r2, [r7, #12]
10002348:	4313      	orrs	r3, r2
1000234a:	60fb      	str	r3, [r7, #12]

  slice->CMC = cmc;
1000234c:	687b      	ldr	r3, [r7, #4]
1000234e:	68fa      	ldr	r2, [r7, #12]
10002350:	605a      	str	r2, [r3, #4]
}
10002352:	46bd      	mov	sp, r7
10002354:	b004      	add	sp, #16
10002356:	bd80      	pop	{r7, pc}

10002358 <XMC_CCU4_SLICE_ConfigureEvent>:

/* API to configure a slice trigger event */
void XMC_CCU4_SLICE_ConfigureEvent(XMC_CCU4_SLICE_t *const slice,
                                   const XMC_CCU4_SLICE_EVENT_t event,
                                   const XMC_CCU4_SLICE_EVENT_CONFIG_t *const config)
{
10002358:	b580      	push	{r7, lr}
1000235a:	b088      	sub	sp, #32
1000235c:	af00      	add	r7, sp, #0
1000235e:	60f8      	str	r0, [r7, #12]
10002360:	607a      	str	r2, [r7, #4]
10002362:	230b      	movs	r3, #11
10002364:	18fb      	adds	r3, r7, r3
10002366:	1c0a      	adds	r2, r1, #0
10002368:	701a      	strb	r2, [r3, #0]
             ((config->level == XMC_CCU4_SLICE_EVENT_LEVEL_SENSITIVITY_ACTIVE_HIGH) || \
              (config->level == XMC_CCU4_SLICE_EVENT_LEVEL_SENSITIVITY_ACTIVE_LOW)));
  XMC_ASSERT("XMC_CCU4_SLICE_ConfigureEvent:Invalid Debounce Period",
             XMC_CCU4_SLICE_CHECK_EVENT_FILTER(config->duration));
  /* Calculate offset with reference to event */
  offset = ((uint8_t) event) - 1U;
1000236a:	231f      	movs	r3, #31
1000236c:	18fb      	adds	r3, r7, r3
1000236e:	220b      	movs	r2, #11
10002370:	18ba      	adds	r2, r7, r2
10002372:	7812      	ldrb	r2, [r2, #0]
10002374:	3a01      	subs	r2, #1
10002376:	701a      	strb	r2, [r3, #0]

#if defined(CCU4V3) /* Defined for XMC1400 devices only */
  ins = slice->INS2;
10002378:	68fb      	ldr	r3, [r7, #12]
1000237a:	681b      	ldr	r3, [r3, #0]
1000237c:	61bb      	str	r3, [r7, #24]

  /* First, configure the edge sensitivity */
  pos = ((uint8_t) CCU4_CC4_INS2_EV0EM_Pos) + (uint8_t)(offset << 2U);
1000237e:	2317      	movs	r3, #23
10002380:	18fb      	adds	r3, r7, r3
10002382:	221f      	movs	r2, #31
10002384:	18ba      	adds	r2, r7, r2
10002386:	7812      	ldrb	r2, [r2, #0]
10002388:	0092      	lsls	r2, r2, #2
1000238a:	701a      	strb	r2, [r3, #0]
  ins &= ~(((uint32_t) XMC_CCU4_SLICE_EVENT_EDGE_CONFIG_MASK) << pos);
1000238c:	2317      	movs	r3, #23
1000238e:	18fb      	adds	r3, r7, r3
10002390:	781b      	ldrb	r3, [r3, #0]
10002392:	2203      	movs	r2, #3
10002394:	409a      	lsls	r2, r3
10002396:	1c13      	adds	r3, r2, #0
10002398:	43da      	mvns	r2, r3
1000239a:	69bb      	ldr	r3, [r7, #24]
1000239c:	4013      	ands	r3, r2
1000239e:	61bb      	str	r3, [r7, #24]
  ins |= ((uint32_t) config->edge) << pos;
100023a0:	687b      	ldr	r3, [r7, #4]
100023a2:	785b      	ldrb	r3, [r3, #1]
100023a4:	1c1a      	adds	r2, r3, #0
100023a6:	2317      	movs	r3, #23
100023a8:	18fb      	adds	r3, r7, r3
100023aa:	781b      	ldrb	r3, [r3, #0]
100023ac:	409a      	lsls	r2, r3
100023ae:	1c13      	adds	r3, r2, #0
100023b0:	69ba      	ldr	r2, [r7, #24]
100023b2:	4313      	orrs	r3, r2
100023b4:	61bb      	str	r3, [r7, #24]

  /* Next, the level */
  pos = ((uint8_t) CCU4_CC4_INS2_EV0LM_Pos) + (uint8_t)(offset << 2U);
100023b6:	231f      	movs	r3, #31
100023b8:	18fb      	adds	r3, r7, r3
100023ba:	781b      	ldrb	r3, [r3, #0]
100023bc:	009b      	lsls	r3, r3, #2
100023be:	b2da      	uxtb	r2, r3
100023c0:	2317      	movs	r3, #23
100023c2:	18fb      	adds	r3, r7, r3
100023c4:	3202      	adds	r2, #2
100023c6:	701a      	strb	r2, [r3, #0]
  ins &= ~(((uint32_t) XMC_CCU4_SLICE_EVENT_LEVEL_CONFIG_MASK) << pos);
100023c8:	2317      	movs	r3, #23
100023ca:	18fb      	adds	r3, r7, r3
100023cc:	781b      	ldrb	r3, [r3, #0]
100023ce:	2201      	movs	r2, #1
100023d0:	409a      	lsls	r2, r3
100023d2:	1c13      	adds	r3, r2, #0
100023d4:	43da      	mvns	r2, r3
100023d6:	69bb      	ldr	r3, [r7, #24]
100023d8:	4013      	ands	r3, r2
100023da:	61bb      	str	r3, [r7, #24]
  ins |= ((uint32_t) config->level) << pos;
100023dc:	687b      	ldr	r3, [r7, #4]
100023de:	789b      	ldrb	r3, [r3, #2]
100023e0:	1c1a      	adds	r2, r3, #0
100023e2:	2317      	movs	r3, #23
100023e4:	18fb      	adds	r3, r7, r3
100023e6:	781b      	ldrb	r3, [r3, #0]
100023e8:	409a      	lsls	r2, r3
100023ea:	1c13      	adds	r3, r2, #0
100023ec:	69ba      	ldr	r2, [r7, #24]
100023ee:	4313      	orrs	r3, r2
100023f0:	61bb      	str	r3, [r7, #24]

  /* Next, the debounce filter */
  pos = ((uint8_t) CCU4_CC4_INS2_LPF0M_Pos) + (uint8_t)(offset << 2U);
100023f2:	231f      	movs	r3, #31
100023f4:	18fb      	adds	r3, r7, r3
100023f6:	781b      	ldrb	r3, [r3, #0]
100023f8:	009b      	lsls	r3, r3, #2
100023fa:	b2da      	uxtb	r2, r3
100023fc:	2317      	movs	r3, #23
100023fe:	18fb      	adds	r3, r7, r3
10002400:	3210      	adds	r2, #16
10002402:	701a      	strb	r2, [r3, #0]
  ins &= ~(((uint32_t) XMC_CCU4_SLICE_EVENT_FILTER_CONFIG_MASK) << pos);
10002404:	2317      	movs	r3, #23
10002406:	18fb      	adds	r3, r7, r3
10002408:	781b      	ldrb	r3, [r3, #0]
1000240a:	2203      	movs	r2, #3
1000240c:	409a      	lsls	r2, r3
1000240e:	1c13      	adds	r3, r2, #0
10002410:	43da      	mvns	r2, r3
10002412:	69bb      	ldr	r3, [r7, #24]
10002414:	4013      	ands	r3, r2
10002416:	61bb      	str	r3, [r7, #24]
  ins |= ((uint32_t) config->duration) << pos;
10002418:	687b      	ldr	r3, [r7, #4]
1000241a:	78db      	ldrb	r3, [r3, #3]
1000241c:	1c1a      	adds	r2, r3, #0
1000241e:	2317      	movs	r3, #23
10002420:	18fb      	adds	r3, r7, r3
10002422:	781b      	ldrb	r3, [r3, #0]
10002424:	409a      	lsls	r2, r3
10002426:	1c13      	adds	r3, r2, #0
10002428:	69ba      	ldr	r2, [r7, #24]
1000242a:	4313      	orrs	r3, r2
1000242c:	61bb      	str	r3, [r7, #24]

  slice->INS2 = ins;
1000242e:	68fb      	ldr	r3, [r7, #12]
10002430:	69ba      	ldr	r2, [r7, #24]
10002432:	601a      	str	r2, [r3, #0]

  ins = slice->INS1;
10002434:	68fb      	ldr	r3, [r7, #12]
10002436:	22d8      	movs	r2, #216	; 0xd8
10002438:	589b      	ldr	r3, [r3, r2]
1000243a:	61bb      	str	r3, [r7, #24]

  /* Finally the input */
  pos = ((uint8_t) CCU4_CC4_INS1_EV0IS_Pos) + (uint8_t)(offset << 3U);
1000243c:	2317      	movs	r3, #23
1000243e:	18fb      	adds	r3, r7, r3
10002440:	221f      	movs	r2, #31
10002442:	18ba      	adds	r2, r7, r2
10002444:	7812      	ldrb	r2, [r2, #0]
10002446:	00d2      	lsls	r2, r2, #3
10002448:	701a      	strb	r2, [r3, #0]
  ins &= ~(((uint32_t) XMC_CCU4_SLICE_EVENT_INPUT_CONFIG_MASK) << pos);
1000244a:	2317      	movs	r3, #23
1000244c:	18fb      	adds	r3, r7, r3
1000244e:	781b      	ldrb	r3, [r3, #0]
10002450:	223f      	movs	r2, #63	; 0x3f
10002452:	409a      	lsls	r2, r3
10002454:	1c13      	adds	r3, r2, #0
10002456:	43da      	mvns	r2, r3
10002458:	69bb      	ldr	r3, [r7, #24]
1000245a:	4013      	ands	r3, r2
1000245c:	61bb      	str	r3, [r7, #24]
  ins |= ((uint32_t) config->mapped_input) << pos;
1000245e:	687b      	ldr	r3, [r7, #4]
10002460:	781b      	ldrb	r3, [r3, #0]
10002462:	1c1a      	adds	r2, r3, #0
10002464:	2317      	movs	r3, #23
10002466:	18fb      	adds	r3, r7, r3
10002468:	781b      	ldrb	r3, [r3, #0]
1000246a:	409a      	lsls	r2, r3
1000246c:	1c13      	adds	r3, r2, #0
1000246e:	69ba      	ldr	r2, [r7, #24]
10002470:	4313      	orrs	r3, r2
10002472:	61bb      	str	r3, [r7, #24]

  slice->INS1 = ins;
10002474:	68fb      	ldr	r3, [r7, #12]
10002476:	21d8      	movs	r1, #216	; 0xd8
10002478:	69ba      	ldr	r2, [r7, #24]
1000247a:	505a      	str	r2, [r3, r1]
  ins &= ~(((uint32_t) XMC_CCU4_SLICE_EVENT_INPUT_CONFIG_MASK) << pos);
  ins |= ((uint32_t) config->mapped_input) << pos;

  slice->INS = ins;
#endif
}
1000247c:	46bd      	mov	sp, r7
1000247e:	b008      	add	sp, #32
10002480:	bd80      	pop	{r7, pc}
10002482:	46c0      	nop			; (mov r8, r8)

10002484 <XMC_CCU4_SLICE_SetInterruptNode>:

/* Binds a capcom event to an NVIC node  */
void XMC_CCU4_SLICE_SetInterruptNode(XMC_CCU4_SLICE_t *const slice,
                                     const XMC_CCU4_SLICE_IRQ_ID_t event,
                                     const XMC_CCU4_SLICE_SR_ID_t sr)
{
10002484:	b580      	push	{r7, lr}
10002486:	b086      	sub	sp, #24
10002488:	af00      	add	r7, sp, #0
1000248a:	6078      	str	r0, [r7, #4]
1000248c:	1c08      	adds	r0, r1, #0
1000248e:	1c11      	adds	r1, r2, #0
10002490:	1cfb      	adds	r3, r7, #3
10002492:	1c02      	adds	r2, r0, #0
10002494:	701a      	strb	r2, [r3, #0]
10002496:	1cbb      	adds	r3, r7, #2
10002498:	1c0a      	adds	r2, r1, #0
1000249a:	701a      	strb	r2, [r3, #0]

  XMC_ASSERT("XMC_CCU4_SLICE_SetInterruptNode:Invalid Slice Pointer", XMC_CCU4_IsValidSlice(slice));
  XMC_ASSERT("XMC_CCU4_SLICE_SetInterruptNode:Invalid SR ID ", XMC_CCU4_SLICE_CHECK_SR_ID(sr));
  XMC_ASSERT("XMC_CCU4_SLICE_SetInterruptNode:Invalid event", XMC_CCU4_SLICE_CHECK_INTERRUPT(event));

  switch (event)
1000249c:	1cfb      	adds	r3, r7, #3
1000249e:	781b      	ldrb	r3, [r3, #0]
100024a0:	2b0b      	cmp	r3, #11
100024a2:	d820      	bhi.n	100024e6 <XMC_CCU4_SLICE_SetInterruptNode+0x62>
100024a4:	009a      	lsls	r2, r3, #2
100024a6:	4b20      	ldr	r3, [pc, #128]	; (10002528 <XMC_CCU4_SLICE_SetInterruptNode+0xa4>)
100024a8:	18d3      	adds	r3, r2, r3
100024aa:	681b      	ldr	r3, [r3, #0]
100024ac:	469f      	mov	pc, r3
  {
    case XMC_CCU4_SLICE_IRQ_ID_PERIOD_MATCH:
    case XMC_CCU4_SLICE_IRQ_ID_ONE_MATCH:
      mask = ((uint32_t) CCU4_CC4_SRS_POSR_Msk);
100024ae:	2303      	movs	r3, #3
100024b0:	613b      	str	r3, [r7, #16]
      pos  = CCU4_CC4_SRS_POSR_Pos;
100024b2:	2300      	movs	r3, #0
100024b4:	617b      	str	r3, [r7, #20]
      break;
100024b6:	e01b      	b.n	100024f0 <XMC_CCU4_SLICE_SetInterruptNode+0x6c>

    case XMC_CCU4_SLICE_IRQ_ID_COMPARE_MATCH_UP:
    case XMC_CCU4_SLICE_IRQ_ID_COMPARE_MATCH_DOWN:
      mask = ((uint32_t) CCU4_CC4_SRS_CMSR_Msk);
100024b8:	230c      	movs	r3, #12
100024ba:	613b      	str	r3, [r7, #16]
      pos  = CCU4_CC4_SRS_CMSR_Pos;
100024bc:	2302      	movs	r3, #2
100024be:	617b      	str	r3, [r7, #20]
      break;
100024c0:	e016      	b.n	100024f0 <XMC_CCU4_SLICE_SetInterruptNode+0x6c>

    case XMC_CCU4_SLICE_IRQ_ID_EVENT0:
      mask = ((uint32_t) CCU4_CC4_SRS_E0SR_Msk);
100024c2:	23c0      	movs	r3, #192	; 0xc0
100024c4:	009b      	lsls	r3, r3, #2
100024c6:	613b      	str	r3, [r7, #16]
      pos  = CCU4_CC4_SRS_E0SR_Pos;
100024c8:	2308      	movs	r3, #8
100024ca:	617b      	str	r3, [r7, #20]
      break;
100024cc:	e010      	b.n	100024f0 <XMC_CCU4_SLICE_SetInterruptNode+0x6c>

    case XMC_CCU4_SLICE_IRQ_ID_EVENT1:
      mask = ((uint32_t) CCU4_CC4_SRS_E1SR_Msk);
100024ce:	23c0      	movs	r3, #192	; 0xc0
100024d0:	011b      	lsls	r3, r3, #4
100024d2:	613b      	str	r3, [r7, #16]
      pos  = CCU4_CC4_SRS_E1SR_Pos;
100024d4:	230a      	movs	r3, #10
100024d6:	617b      	str	r3, [r7, #20]
      break;
100024d8:	e00a      	b.n	100024f0 <XMC_CCU4_SLICE_SetInterruptNode+0x6c>

    case XMC_CCU4_SLICE_IRQ_ID_EVENT2:
    case XMC_CCU4_SLICE_IRQ_ID_TRAP:
      mask = ((uint32_t) CCU4_CC4_SRS_E2SR_Msk);
100024da:	23c0      	movs	r3, #192	; 0xc0
100024dc:	019b      	lsls	r3, r3, #6
100024de:	613b      	str	r3, [r7, #16]
      pos  = CCU4_CC4_SRS_E2SR_Pos;
100024e0:	230c      	movs	r3, #12
100024e2:	617b      	str	r3, [r7, #20]
      break;
100024e4:	e004      	b.n	100024f0 <XMC_CCU4_SLICE_SetInterruptNode+0x6c>
	  
	default:
	  mask = 0;
100024e6:	2300      	movs	r3, #0
100024e8:	613b      	str	r3, [r7, #16]
	  pos = 0;
100024ea:	2300      	movs	r3, #0
100024ec:	617b      	str	r3, [r7, #20]
	  break;
100024ee:	46c0      	nop			; (mov r8, r8)
  }

  if (mask != 0)
100024f0:	693b      	ldr	r3, [r7, #16]
100024f2:	2b00      	cmp	r3, #0
100024f4:	d014      	beq.n	10002520 <XMC_CCU4_SLICE_SetInterruptNode+0x9c>
  {
    srs = slice->SRS;
100024f6:	687b      	ldr	r3, [r7, #4]
100024f8:	22a8      	movs	r2, #168	; 0xa8
100024fa:	589b      	ldr	r3, [r3, r2]
100024fc:	60fb      	str	r3, [r7, #12]
    srs &= ~mask;
100024fe:	693b      	ldr	r3, [r7, #16]
10002500:	43da      	mvns	r2, r3
10002502:	68fb      	ldr	r3, [r7, #12]
10002504:	4013      	ands	r3, r2
10002506:	60fb      	str	r3, [r7, #12]
    srs |= (uint32_t)sr << pos;
10002508:	1cbb      	adds	r3, r7, #2
1000250a:	781a      	ldrb	r2, [r3, #0]
1000250c:	697b      	ldr	r3, [r7, #20]
1000250e:	409a      	lsls	r2, r3
10002510:	1c13      	adds	r3, r2, #0
10002512:	68fa      	ldr	r2, [r7, #12]
10002514:	4313      	orrs	r3, r2
10002516:	60fb      	str	r3, [r7, #12]
    slice->SRS = srs;
10002518:	687b      	ldr	r3, [r7, #4]
1000251a:	21a8      	movs	r1, #168	; 0xa8
1000251c:	68fa      	ldr	r2, [r7, #12]
1000251e:	505a      	str	r2, [r3, r1]
  }
}
10002520:	46bd      	mov	sp, r7
10002522:	b006      	add	sp, #24
10002524:	bd80      	pop	{r7, pc}
10002526:	46c0      	nop			; (mov r8, r8)
10002528:	1000a730 	.word	0x1000a730

1000252c <XMC_ERU_ETL_Init>:
 ********************************************************************************************************************/
/* Initializes the selected ERU_ETLx channel with the config structure.  */
void XMC_ERU_ETL_Init(XMC_ERU_t *const eru,
                      const uint8_t channel,
                      const XMC_ERU_ETL_CONFIG_t *const config)
{
1000252c:	b580      	push	{r7, lr}
1000252e:	b084      	sub	sp, #16
10002530:	af00      	add	r7, sp, #0
10002532:	60f8      	str	r0, [r7, #12]
10002534:	607a      	str	r2, [r7, #4]
10002536:	230b      	movs	r3, #11
10002538:	18fb      	adds	r3, r7, r3
1000253a:	1c0a      	adds	r2, r1, #0
1000253c:	701a      	strb	r2, [r3, #0]
  XMC_ASSERT("XMC_ERU_ETL_Init:Invalid Module Pointer", XMC_ERU_CHECK_MODULE_PTR(eru));
  XMC_ASSERT("XMC_ERU_ETL_Init:Invalid Channel Number", (channel < 4U));

  XMC_ERU_Enable(eru);
1000253e:	68fb      	ldr	r3, [r7, #12]
10002540:	1c18      	adds	r0, r3, #0
10002542:	f7fe fe21 	bl	10001188 <XMC_ERU_Enable>

  eru->EXISEL = (eru->EXISEL &
10002546:	68fb      	ldr	r3, [r7, #12]
10002548:	681b      	ldr	r3, [r3, #0]
                 ~((uint32_t)(ERU_EXISEL_EXS0A_Msk | ERU_EXISEL_EXS0B_Msk) << (channel * ERU_EXISEL_BITSIZE))) |
1000254a:	220b      	movs	r2, #11
1000254c:	18ba      	adds	r2, r7, r2
1000254e:	7812      	ldrb	r2, [r2, #0]
10002550:	0092      	lsls	r2, r2, #2
10002552:	1c11      	adds	r1, r2, #0
10002554:	220f      	movs	r2, #15
10002556:	408a      	lsls	r2, r1
10002558:	43d2      	mvns	r2, r2
  XMC_ASSERT("XMC_ERU_ETL_Init:Invalid Module Pointer", XMC_ERU_CHECK_MODULE_PTR(eru));
  XMC_ASSERT("XMC_ERU_ETL_Init:Invalid Channel Number", (channel < 4U));

  XMC_ERU_Enable(eru);

  eru->EXISEL = (eru->EXISEL &
1000255a:	401a      	ands	r2, r3
                 ~((uint32_t)(ERU_EXISEL_EXS0A_Msk | ERU_EXISEL_EXS0B_Msk) << (channel * ERU_EXISEL_BITSIZE))) |
                (config->input << (channel * (uint32_t)ERU_EXISEL_BITSIZE));
1000255c:	687b      	ldr	r3, [r7, #4]
1000255e:	681b      	ldr	r3, [r3, #0]
10002560:	210b      	movs	r1, #11
10002562:	1879      	adds	r1, r7, r1
10002564:	7809      	ldrb	r1, [r1, #0]
10002566:	0089      	lsls	r1, r1, #2
10002568:	408b      	lsls	r3, r1
  XMC_ASSERT("XMC_ERU_ETL_Init:Invalid Channel Number", (channel < 4U));

  XMC_ERU_Enable(eru);

  eru->EXISEL = (eru->EXISEL &
                 ~((uint32_t)(ERU_EXISEL_EXS0A_Msk | ERU_EXISEL_EXS0B_Msk) << (channel * ERU_EXISEL_BITSIZE))) |
1000256a:	431a      	orrs	r2, r3
  XMC_ASSERT("XMC_ERU_ETL_Init:Invalid Module Pointer", XMC_ERU_CHECK_MODULE_PTR(eru));
  XMC_ASSERT("XMC_ERU_ETL_Init:Invalid Channel Number", (channel < 4U));

  XMC_ERU_Enable(eru);

  eru->EXISEL = (eru->EXISEL &
1000256c:	68fb      	ldr	r3, [r7, #12]
1000256e:	601a      	str	r2, [r3, #0]
                 ~((uint32_t)(ERU_EXISEL_EXS0A_Msk | ERU_EXISEL_EXS0B_Msk) << (channel * ERU_EXISEL_BITSIZE))) |
                (config->input << (channel * (uint32_t)ERU_EXISEL_BITSIZE));

  eru->EXICON[channel] = config->raw;
10002570:	230b      	movs	r3, #11
10002572:	18fb      	adds	r3, r7, r3
10002574:	781a      	ldrb	r2, [r3, #0]
10002576:	687b      	ldr	r3, [r7, #4]
10002578:	6859      	ldr	r1, [r3, #4]
1000257a:	68fb      	ldr	r3, [r7, #12]
1000257c:	3204      	adds	r2, #4
1000257e:	0092      	lsls	r2, r2, #2
10002580:	50d1      	str	r1, [r2, r3]
}
10002582:	46bd      	mov	sp, r7
10002584:	b004      	add	sp, #16
10002586:	bd80      	pop	{r7, pc}

10002588 <XMC_ERU_OGU_SetServiceRequestMode>:

/* Configures the gating scheme for service request generation by setting (GP) bit. */
void XMC_ERU_OGU_SetServiceRequestMode(XMC_ERU_t *const eru,
                                       const uint8_t channel,
                                       const XMC_ERU_OGU_SERVICE_REQUEST_t mode)
{
10002588:	b590      	push	{r4, r7, lr}
1000258a:	b083      	sub	sp, #12
1000258c:	af00      	add	r7, sp, #0
1000258e:	6078      	str	r0, [r7, #4]
10002590:	1c08      	adds	r0, r1, #0
10002592:	1c11      	adds	r1, r2, #0
10002594:	1cfb      	adds	r3, r7, #3
10002596:	1c02      	adds	r2, r0, #0
10002598:	701a      	strb	r2, [r3, #0]
1000259a:	1cbb      	adds	r3, r7, #2
1000259c:	1c0a      	adds	r2, r1, #0
1000259e:	701a      	strb	r2, [r3, #0]
  XMC_ASSERT("XMC_ERU_OGU_SetServiceRequestMode:Invalid Module Pointer", XMC_ERU_CHECK_MODULE_PTR(eru));
  XMC_ASSERT("XMC_ERU_OGU_SetServiceRequestMode:Invalid Channel Number", (channel < 4U));
  XMC_ASSERT("XMC_ERU_OGU_SetServiceRequestMode:Invalid Service Request Mode", XMC_ERU_OGU_CHECK_SERIVCE_REQUEST(mode));

  eru->EXOCON_b[channel].GP = (uint8_t)mode;
100025a0:	1cfb      	adds	r3, r7, #3
100025a2:	781a      	ldrb	r2, [r3, #0]
100025a4:	1cbb      	adds	r3, r7, #2
100025a6:	781b      	ldrb	r3, [r3, #0]
100025a8:	2103      	movs	r1, #3
100025aa:	400b      	ands	r3, r1
100025ac:	b2d9      	uxtb	r1, r3
100025ae:	687b      	ldr	r3, [r7, #4]
100025b0:	3208      	adds	r2, #8
100025b2:	0092      	lsls	r2, r2, #2
100025b4:	2003      	movs	r0, #3
100025b6:	4001      	ands	r1, r0
100025b8:	0109      	lsls	r1, r1, #4
100025ba:	58d0      	ldr	r0, [r2, r3]
100025bc:	2430      	movs	r4, #48	; 0x30
100025be:	43a0      	bics	r0, r4
100025c0:	4301      	orrs	r1, r0
100025c2:	50d1      	str	r1, [r2, r3]

}
100025c4:	46bd      	mov	sp, r7
100025c6:	b003      	add	sp, #12
100025c8:	bd90      	pop	{r4, r7, pc}
100025ca:	46c0      	nop			; (mov r8, r8)

100025cc <XMC_GPIO_SetHardwareControl>:
  port->IOCR[(uint32_t)pin >> 2U] &= ~(uint32_t)((uint32_t)PORT_IOCR_PC_Msk << ((uint32_t)PORT_IOCR_PC_Size * ((uint32_t)pin & 0x3U)));
  port->IOCR[(uint32_t)pin >> 2U] |= (uint32_t)mode << ((uint32_t)PORT_IOCR_PC_Size * ((uint32_t)pin & 0x3U));
}

void XMC_GPIO_SetHardwareControl(XMC_GPIO_PORT_t *const port, const uint8_t pin, const XMC_GPIO_HWCTRL_t hwctrl)
{
100025cc:	b580      	push	{r7, lr}
100025ce:	b082      	sub	sp, #8
100025d0:	af00      	add	r7, sp, #0
100025d2:	6078      	str	r0, [r7, #4]
100025d4:	1c08      	adds	r0, r1, #0
100025d6:	1c11      	adds	r1, r2, #0
100025d8:	1cfb      	adds	r3, r7, #3
100025da:	1c02      	adds	r2, r0, #0
100025dc:	701a      	strb	r2, [r3, #0]
100025de:	1cbb      	adds	r3, r7, #2
100025e0:	1c0a      	adds	r2, r1, #0
100025e2:	701a      	strb	r2, [r3, #0]
  XMC_ASSERT("XMC_GPIO_SetHardwareControl: Invalid port", XMC_GPIO_CHECK_PORT(port));
  XMC_ASSERT("XMC_GPIO_SetHardwareControl: Invalid hwctrl", XMC_GPIO_CHECK_HWCTRL(hwctrl));

  port->HWSEL &= ~(uint32_t)((uint32_t)PORT_HWSEL_Msk << ((uint32_t)pin << 1U));
100025e4:	687b      	ldr	r3, [r7, #4]
100025e6:	6f5b      	ldr	r3, [r3, #116]	; 0x74
100025e8:	1cfa      	adds	r2, r7, #3
100025ea:	7812      	ldrb	r2, [r2, #0]
100025ec:	0052      	lsls	r2, r2, #1
100025ee:	1c11      	adds	r1, r2, #0
100025f0:	2203      	movs	r2, #3
100025f2:	408a      	lsls	r2, r1
100025f4:	43d2      	mvns	r2, r2
100025f6:	401a      	ands	r2, r3
100025f8:	687b      	ldr	r3, [r7, #4]
100025fa:	675a      	str	r2, [r3, #116]	; 0x74
  port->HWSEL |= (uint32_t)hwctrl << ((uint32_t)pin << 1U);
100025fc:	687b      	ldr	r3, [r7, #4]
100025fe:	6f5a      	ldr	r2, [r3, #116]	; 0x74
10002600:	1cbb      	adds	r3, r7, #2
10002602:	781b      	ldrb	r3, [r3, #0]
10002604:	1cf9      	adds	r1, r7, #3
10002606:	7809      	ldrb	r1, [r1, #0]
10002608:	0049      	lsls	r1, r1, #1
1000260a:	408b      	lsls	r3, r1
1000260c:	431a      	orrs	r2, r3
1000260e:	687b      	ldr	r3, [r7, #4]
10002610:	675a      	str	r2, [r3, #116]	; 0x74
}
10002612:	46bd      	mov	sp, r7
10002614:	b002      	add	sp, #8
10002616:	bd80      	pop	{r7, pc}

10002618 <__aeabi_uidiv>:
/***********************************************************************************************************************
 * API IMPLEMENTATION - aeabi routines
 **********************************************************************************************************************/
/* This function performs unsigned integer division */
uint32_t __aeabi_uidiv(uint32_t dividend, uint32_t divisor)
{
10002618:	b580      	push	{r7, lr}
1000261a:	b088      	sub	sp, #32
1000261c:	af00      	add	r7, sp, #0
1000261e:	6078      	str	r0, [r7, #4]
10002620:	6039      	str	r1, [r7, #0]
 */
__STATIC_FORCEINLINE uint32_t __get_PRIMASK(void)
{
  uint32_t result;

  __ASM volatile ("MRS %0, primask" : "=r" (result) );
10002622:	f3ef 8310 	mrs	r3, PRIMASK
10002626:	617b      	str	r3, [r7, #20]
  return(result);
10002628:	697b      	ldr	r3, [r7, #20]
 * API IMPLEMENTATION - Utility functions
 ********************************************************************************************************************/
__attribute__((always_inline)) __STATIC_INLINE uint32_t critical_section_enter(void)
{
  uint32_t status;
  status = __get_PRIMASK();
1000262a:	613b      	str	r3, [r7, #16]
  \details Disables IRQ interrupts by setting the I-bit in the CPSR.
           Can only be executed in Privileged modes.
 */
__STATIC_FORCEINLINE void __disable_irq(void)
{
  __ASM volatile ("cpsid i" : : : "memory");
1000262c:	b672      	cpsid	i
  __disable_irq ();
  return status;
1000262e:	693b      	ldr	r3, [r7, #16]
/* This function performs unsigned integer division */
uint32_t __aeabi_uidiv(uint32_t dividend, uint32_t divisor)
{
  uint32_t result;
  uint32_t ics;
  ics = critical_section_enter();
10002630:	61fb      	str	r3, [r7, #28]

  MATH->DIVCON  = XMC_MATH_UNSIGNED_DIVISION;
10002632:	4b0c      	ldr	r3, [pc, #48]	; (10002664 <__aeabi_uidiv+0x4c>)
10002634:	2204      	movs	r2, #4
10002636:	635a      	str	r2, [r3, #52]	; 0x34
  MATH->DVD     = dividend;
10002638:	4b0a      	ldr	r3, [pc, #40]	; (10002664 <__aeabi_uidiv+0x4c>)
1000263a:	687a      	ldr	r2, [r7, #4]
1000263c:	621a      	str	r2, [r3, #32]
  MATH->DVS     = divisor;
1000263e:	4b09      	ldr	r3, [pc, #36]	; (10002664 <__aeabi_uidiv+0x4c>)
10002640:	683a      	ldr	r2, [r7, #0]
10002642:	625a      	str	r2, [r3, #36]	; 0x24

  result = MATH->QUOT;
10002644:	4b07      	ldr	r3, [pc, #28]	; (10002664 <__aeabi_uidiv+0x4c>)
10002646:	6a9b      	ldr	r3, [r3, #40]	; 0x28
10002648:	61bb      	str	r3, [r7, #24]
1000264a:	69fb      	ldr	r3, [r7, #28]
1000264c:	60fb      	str	r3, [r7, #12]
1000264e:	68fb      	ldr	r3, [r7, #12]
10002650:	60bb      	str	r3, [r7, #8]
  \details Assigns the given value to the Priority Mask Register.
  \param [in]    priMask  Priority Mask
 */
__STATIC_FORCEINLINE void __set_PRIMASK(uint32_t priMask)
{
  __ASM volatile ("MSR primask, %0" : : "r" (priMask) : "memory");
10002652:	68bb      	ldr	r3, [r7, #8]
10002654:	f383 8810 	msr	PRIMASK, r3

  critical_section_exit(ics);

  return result;
10002658:	69bb      	ldr	r3, [r7, #24]
}
1000265a:	1c18      	adds	r0, r3, #0
1000265c:	46bd      	mov	sp, r7
1000265e:	b008      	add	sp, #32
10002660:	bd80      	pop	{r7, pc}
10002662:	46c0      	nop			; (mov r8, r8)
10002664:	40030000 	.word	0x40030000

10002668 <__aeabi_idiv>:

/* This function performs signed integer division */
int32_t __aeabi_idiv(int32_t dividend, int32_t divisor)
{
10002668:	b580      	push	{r7, lr}
1000266a:	b088      	sub	sp, #32
1000266c:	af00      	add	r7, sp, #0
1000266e:	6078      	str	r0, [r7, #4]
10002670:	6039      	str	r1, [r7, #0]
 */
__STATIC_FORCEINLINE uint32_t __get_PRIMASK(void)
{
  uint32_t result;

  __ASM volatile ("MRS %0, primask" : "=r" (result) );
10002672:	f3ef 8310 	mrs	r3, PRIMASK
10002676:	617b      	str	r3, [r7, #20]
  return(result);
10002678:	697b      	ldr	r3, [r7, #20]
 * API IMPLEMENTATION - Utility functions
 ********************************************************************************************************************/
__attribute__((always_inline)) __STATIC_INLINE uint32_t critical_section_enter(void)
{
  uint32_t status;
  status = __get_PRIMASK();
1000267a:	613b      	str	r3, [r7, #16]
  \details Disables IRQ interrupts by setting the I-bit in the CPSR.
           Can only be executed in Privileged modes.
 */
__STATIC_FORCEINLINE void __disable_irq(void)
{
  __ASM volatile ("cpsid i" : : : "memory");
1000267c:	b672      	cpsid	i
  __disable_irq ();
  return status;
1000267e:	693b      	ldr	r3, [r7, #16]
/* This function performs signed integer division */
int32_t __aeabi_idiv(int32_t dividend, int32_t divisor)
{
  uint32_t result;
  uint32_t ics;
  ics = critical_section_enter();
10002680:	61fb      	str	r3, [r7, #28]

  MATH->DIVCON  = XMC_MATH_SIGNED_DIVISION;
10002682:	4b0c      	ldr	r3, [pc, #48]	; (100026b4 <__aeabi_idiv+0x4c>)
10002684:	2200      	movs	r2, #0
10002686:	635a      	str	r2, [r3, #52]	; 0x34
  MATH->DVD     = dividend;
10002688:	4b0a      	ldr	r3, [pc, #40]	; (100026b4 <__aeabi_idiv+0x4c>)
1000268a:	687a      	ldr	r2, [r7, #4]
1000268c:	621a      	str	r2, [r3, #32]
  MATH->DVS     = divisor;
1000268e:	4b09      	ldr	r3, [pc, #36]	; (100026b4 <__aeabi_idiv+0x4c>)
10002690:	683a      	ldr	r2, [r7, #0]
10002692:	625a      	str	r2, [r3, #36]	; 0x24

  result = MATH->QUOT;
10002694:	4b07      	ldr	r3, [pc, #28]	; (100026b4 <__aeabi_idiv+0x4c>)
10002696:	6a9b      	ldr	r3, [r3, #40]	; 0x28
10002698:	61bb      	str	r3, [r7, #24]
1000269a:	69fb      	ldr	r3, [r7, #28]
1000269c:	60fb      	str	r3, [r7, #12]
1000269e:	68fb      	ldr	r3, [r7, #12]
100026a0:	60bb      	str	r3, [r7, #8]
  \details Assigns the given value to the Priority Mask Register.
  \param [in]    priMask  Priority Mask
 */
__STATIC_FORCEINLINE void __set_PRIMASK(uint32_t priMask)
{
  __ASM volatile ("MSR primask, %0" : : "r" (priMask) : "memory");
100026a2:	68bb      	ldr	r3, [r7, #8]
100026a4:	f383 8810 	msr	PRIMASK, r3

  critical_section_exit(ics);

  return result;
100026a8:	69bb      	ldr	r3, [r7, #24]
}
100026aa:	1c18      	adds	r0, r3, #0
100026ac:	46bd      	mov	sp, r7
100026ae:	b008      	add	sp, #32
100026b0:	bd80      	pop	{r7, pc}
100026b2:	46c0      	nop			; (mov r8, r8)
100026b4:	40030000 	.word	0x40030000

100026b8 <__aeabi_uidivmod>:

/* This function performs unsigned integer division modulo */
uint64_t __aeabi_uidivmod(uint32_t dividend, uint32_t divisor)
{
100026b8:	b5f0      	push	{r4, r5, r6, r7, lr}
100026ba:	b08d      	sub	sp, #52	; 0x34
100026bc:	af00      	add	r7, sp, #0
100026be:	6078      	str	r0, [r7, #4]
100026c0:	6039      	str	r1, [r7, #0]
 */
__STATIC_FORCEINLINE uint32_t __get_PRIMASK(void)
{
  uint32_t result;

  __ASM volatile ("MRS %0, primask" : "=r" (result) );
100026c2:	f3ef 8210 	mrs	r2, PRIMASK
100026c6:	617a      	str	r2, [r7, #20]
  return(result);
100026c8:	697a      	ldr	r2, [r7, #20]
 * API IMPLEMENTATION - Utility functions
 ********************************************************************************************************************/
__attribute__((always_inline)) __STATIC_INLINE uint32_t critical_section_enter(void)
{
  uint32_t status;
  status = __get_PRIMASK();
100026ca:	613a      	str	r2, [r7, #16]
  \details Disables IRQ interrupts by setting the I-bit in the CPSR.
           Can only be executed in Privileged modes.
 */
__STATIC_FORCEINLINE void __disable_irq(void)
{
  __ASM volatile ("cpsid i" : : : "memory");
100026cc:	b672      	cpsid	i
  __disable_irq ();
  return status;
100026ce:	693a      	ldr	r2, [r7, #16]
uint64_t __aeabi_uidivmod(uint32_t dividend, uint32_t divisor)
{
  uint64_t remainder;
  uint64_t quot;
  uint32_t ics;
  ics = critical_section_enter();
100026d0:	62fa      	str	r2, [r7, #44]	; 0x2c

  MATH->DIVCON  = XMC_MATH_UNSIGNED_DIVISION;
100026d2:	4a15      	ldr	r2, [pc, #84]	; (10002728 <__aeabi_uidivmod+0x70>)
100026d4:	2104      	movs	r1, #4
100026d6:	6351      	str	r1, [r2, #52]	; 0x34
  MATH->DVD     = dividend;
100026d8:	4a13      	ldr	r2, [pc, #76]	; (10002728 <__aeabi_uidivmod+0x70>)
100026da:	6879      	ldr	r1, [r7, #4]
100026dc:	6211      	str	r1, [r2, #32]
  MATH->DVS     = divisor;
100026de:	4a12      	ldr	r2, [pc, #72]	; (10002728 <__aeabi_uidivmod+0x70>)
100026e0:	6839      	ldr	r1, [r7, #0]
100026e2:	6251      	str	r1, [r2, #36]	; 0x24

  remainder = (uint64_t)MATH->RMD;
100026e4:	4a10      	ldr	r2, [pc, #64]	; (10002728 <__aeabi_uidivmod+0x70>)
100026e6:	6ad2      	ldr	r2, [r2, #44]	; 0x2c
100026e8:	623a      	str	r2, [r7, #32]
100026ea:	2200      	movs	r2, #0
100026ec:	627a      	str	r2, [r7, #36]	; 0x24
  quot = (uint64_t)MATH->QUOT;
100026ee:	4a0e      	ldr	r2, [pc, #56]	; (10002728 <__aeabi_uidivmod+0x70>)
100026f0:	6a92      	ldr	r2, [r2, #40]	; 0x28
100026f2:	61ba      	str	r2, [r7, #24]
100026f4:	2200      	movs	r2, #0
100026f6:	61fa      	str	r2, [r7, #28]
100026f8:	6afa      	ldr	r2, [r7, #44]	; 0x2c
100026fa:	60fa      	str	r2, [r7, #12]
100026fc:	68fa      	ldr	r2, [r7, #12]
100026fe:	60ba      	str	r2, [r7, #8]
  \details Assigns the given value to the Priority Mask Register.
  \param [in]    priMask  Priority Mask
 */
__STATIC_FORCEINLINE void __set_PRIMASK(uint32_t priMask)
{
  __ASM volatile ("MSR primask, %0" : : "r" (priMask) : "memory");
10002700:	68ba      	ldr	r2, [r7, #8]
10002702:	f382 8810 	msr	PRIMASK, r2

  critical_section_exit(ics);

  return ((remainder << 32) | quot);
10002706:	6a3a      	ldr	r2, [r7, #32]
10002708:	0014      	movs	r4, r2
1000270a:	2200      	movs	r2, #0
1000270c:	1c13      	adds	r3, r2, #0
1000270e:	69ba      	ldr	r2, [r7, #24]
10002710:	431a      	orrs	r2, r3
10002712:	1c15      	adds	r5, r2, #0
10002714:	69fa      	ldr	r2, [r7, #28]
10002716:	4322      	orrs	r2, r4
10002718:	1c16      	adds	r6, r2, #0
1000271a:	1c2b      	adds	r3, r5, #0
1000271c:	1c34      	adds	r4, r6, #0
}
1000271e:	1c18      	adds	r0, r3, #0
10002720:	1c21      	adds	r1, r4, #0
10002722:	46bd      	mov	sp, r7
10002724:	b00d      	add	sp, #52	; 0x34
10002726:	bdf0      	pop	{r4, r5, r6, r7, pc}
10002728:	40030000 	.word	0x40030000

1000272c <XMC_WDT_Enable>:
 * API IMPLEMENTATION
  ********************************************************************************************************************/

/* Enables watchdog clock and releases watchdog reset. */
void XMC_WDT_Enable(void)
{
1000272c:	b580      	push	{r7, lr}
1000272e:	af00      	add	r7, sp, #0
#if UC_FAMILY == XMC4
  XMC_SCU_CLOCK_EnableClock(XMC_SCU_CLOCK_WDT);
#endif

#if defined(CLOCK_GATING_SUPPORTED)
  XMC_SCU_CLOCK_UngatePeripheralClock(XMC_SCU_PERIPHERAL_CLOCK_WDT);
10002730:	2380      	movs	r3, #128	; 0x80
10002732:	009b      	lsls	r3, r3, #2
10002734:	1c18      	adds	r0, r3, #0
10002736:	f7fe ff11 	bl	1000155c <XMC_SCU_CLOCK_UngatePeripheralClock>
#endif
#if defined(PERIPHERAL_RESET_SUPPORTED)
  XMC_SCU_RESET_DeassertPeripheralReset(XMC_SCU_PERIPHERAL_RESET_WDT);
#endif
}
1000273a:	46bd      	mov	sp, r7
1000273c:	bd80      	pop	{r7, pc}
1000273e:	46c0      	nop			; (mov r8, r8)

10002740 <XMC_WDT_Init>:
  XMC_SCU_CLOCK_DisableClock(XMC_SCU_CLOCK_WDT);
#endif
}
/* Initializes and configures watchdog with configuration data pointed by \a config. */
void XMC_WDT_Init(const XMC_WDT_CONFIG_t *const config)
{
10002740:	b580      	push	{r7, lr}
10002742:	b082      	sub	sp, #8
10002744:	af00      	add	r7, sp, #0
10002746:	6078      	str	r0, [r7, #4]
  XMC_WDT_Enable();
10002748:	f7ff fff0 	bl	1000272c <XMC_WDT_Enable>
  WDT->CTR = config->wdt_ctr;
1000274c:	4a07      	ldr	r2, [pc, #28]	; (1000276c <XMC_WDT_Init+0x2c>)
1000274e:	687b      	ldr	r3, [r7, #4]
10002750:	689b      	ldr	r3, [r3, #8]
10002752:	6053      	str	r3, [r2, #4]
  WDT->WLB = config->window_lower_bound;
10002754:	4a05      	ldr	r2, [pc, #20]	; (1000276c <XMC_WDT_Init+0x2c>)
10002756:	687b      	ldr	r3, [r7, #4]
10002758:	685b      	ldr	r3, [r3, #4]
1000275a:	6113      	str	r3, [r2, #16]
  WDT->WUB = config->window_upper_bound;
1000275c:	4a03      	ldr	r2, [pc, #12]	; (1000276c <XMC_WDT_Init+0x2c>)
1000275e:	687b      	ldr	r3, [r7, #4]
10002760:	681b      	ldr	r3, [r3, #0]
10002762:	6153      	str	r3, [r2, #20]
}
10002764:	46bd      	mov	sp, r7
10002766:	b002      	add	sp, #8
10002768:	bd80      	pop	{r7, pc}
1000276a:	46c0      	nop			; (mov r8, r8)
1000276c:	40020000 	.word	0x40020000

10002770 <_init>:
  }
}

/* Init */
void _init(void)
{}
10002770:	b580      	push	{r7, lr}
10002772:	af00      	add	r7, sp, #0
10002774:	46bd      	mov	sp, r7
10002776:	bd80      	pop	{r7, pc}

10002778 <WATCHDOG_Init>:
  return (version);
}

/* Initializes the watchdog timer with the generated configuration */
WATCHDOG_STATUS_t WATCHDOG_Init(WATCHDOG_t *handle)
{
10002778:	b590      	push	{r4, r7, lr}
1000277a:	b085      	sub	sp, #20
1000277c:	af00      	add	r7, sp, #0
1000277e:	6078      	str	r0, [r7, #4]
  WATCHDOG_STATUS_t status;

  XMC_ASSERT("WATCHDOG_Init:handle NULL" , (handle != NULL));

  status = WATCHDOG_STATUS_SUCCESS;
10002780:	230f      	movs	r3, #15
10002782:	18fb      	adds	r3, r7, r3
10002784:	2200      	movs	r2, #0
10002786:	701a      	strb	r2, [r3, #0]

  /* Check for app instance is initialized or not */
  if (false == handle->initialized)
10002788:	687b      	ldr	r3, [r7, #4]
1000278a:	7b1b      	ldrb	r3, [r3, #12]
1000278c:	2201      	movs	r2, #1
1000278e:	4053      	eors	r3, r2
10002790:	b2db      	uxtb	r3, r3
10002792:	2b00      	cmp	r3, #0
10002794:	d014      	beq.n	100027c0 <WATCHDOG_Init+0x48>
  {
#if (WATCHDOG_PREWARNING_CHECK == 1U)
      /* Service Event Handling */
      status = WATCHDOG_lPrewarning_Configure(handle);
10002796:	230f      	movs	r3, #15
10002798:	18fc      	adds	r4, r7, r3
1000279a:	687b      	ldr	r3, [r7, #4]
1000279c:	1c18      	adds	r0, r3, #0
1000279e:	f000 f817 	bl	100027d0 <WATCHDOG_lPrewarning_Configure>
100027a2:	1c03      	adds	r3, r0, #0
100027a4:	7023      	strb	r3, [r4, #0]
      if(WATCHDOG_STATUS_FAILURE != status)
100027a6:	230f      	movs	r3, #15
100027a8:	18fb      	adds	r3, r7, r3
100027aa:	781b      	ldrb	r3, [r3, #0]
100027ac:	2b01      	cmp	r3, #1
100027ae:	d007      	beq.n	100027c0 <WATCHDOG_Init+0x48>
      {
#endif
        /* Initialize the WDT peripheral */
        XMC_WDT_Init(handle->config);
100027b0:	687b      	ldr	r3, [r7, #4]
100027b2:	681b      	ldr	r3, [r3, #0]
100027b4:	1c18      	adds	r0, r3, #0
100027b6:	f7ff ffc3 	bl	10002740 <XMC_WDT_Init>
        /* Update the initialization flag */
        handle->initialized = true;
100027ba:	687b      	ldr	r3, [r7, #4]
100027bc:	2201      	movs	r2, #1
100027be:	731a      	strb	r2, [r3, #12]
#if (WATCHDOG_PREWARNING_CHECK == 1U)
      }
#endif
  }

  return (status);
100027c0:	230f      	movs	r3, #15
100027c2:	18fb      	adds	r3, r7, r3
100027c4:	781b      	ldrb	r3, [r3, #0]
}
100027c6:	1c18      	adds	r0, r3, #0
100027c8:	46bd      	mov	sp, r7
100027ca:	b005      	add	sp, #20
100027cc:	bd90      	pop	{r4, r7, pc}
100027ce:	46c0      	nop			; (mov r8, r8)

100027d0 <WATCHDOG_lPrewarning_Configure>:
#if (WATCHDOG_PREWARNING_CHECK == 1U)
/*
 * Register the Pre-warning event with GLOBAL_SCU APP
 */
WATCHDOG_STATUS_t WATCHDOG_lPrewarning_Configure(WATCHDOG_t *handle)
{
100027d0:	b590      	push	{r4, r7, lr}
100027d2:	b085      	sub	sp, #20
100027d4:	af00      	add	r7, sp, #0
100027d6:	6078      	str	r0, [r7, #4]
  WATCHDOG_STATUS_t status;
  status = WATCHDOG_STATUS_SUCCESS;
100027d8:	230f      	movs	r3, #15
100027da:	18fb      	adds	r3, r7, r3
100027dc:	2200      	movs	r2, #0
100027de:	701a      	strb	r2, [r3, #0]
  /* Normal interrupt generation */
#if (WATCHDOG_EVENT_VIA_SCU == 1U)
  #if(UC_FAMILY == XMC4)
    status = (WATCHDOG_STATUS_t)GLOBAL_SCU_XMC4_Init(handle->scu_global_handler);
  #else
    status = (WATCHDOG_STATUS_t)GLOBAL_SCU_XMC1_Init(handle->scu_global_handler);
100027e0:	687b      	ldr	r3, [r7, #4]
100027e2:	685b      	ldr	r3, [r3, #4]
100027e4:	220f      	movs	r2, #15
100027e6:	18bc      	adds	r4, r7, r2
100027e8:	1c18      	adds	r0, r3, #0
100027ea:	f000 fcef 	bl	100031cc <GLOBAL_SCU_XMC1_Init>
100027ee:	1c03      	adds	r3, r0, #0
100027f0:	7023      	strb	r3, [r4, #0]
  #endif
    if ((handle->callback_func_ptr != NULL) &&  (status != WATCHDOG_STATUS_FAILURE))
100027f2:	687b      	ldr	r3, [r7, #4]
100027f4:	689b      	ldr	r3, [r3, #8]
100027f6:	2b00      	cmp	r3, #0
100027f8:	d014      	beq.n	10002824 <WATCHDOG_lPrewarning_Configure+0x54>
100027fa:	230f      	movs	r3, #15
100027fc:	18fb      	adds	r3, r7, r3
100027fe:	781b      	ldrb	r3, [r3, #0]
10002800:	2b01      	cmp	r3, #1
10002802:	d00f      	beq.n	10002824 <WATCHDOG_lPrewarning_Configure+0x54>
    {
      /* Enable the pre-warn event */
      XMC_SCU_INTERRUPT_EnableEvent((uint32_t)XMC_SCU_INTERRUPT_EVENT_WDT_WARN);
10002804:	2001      	movs	r0, #1
10002806:	2100      	movs	r1, #0
10002808:	f7fe fd84 	bl	10001314 <XMC_SCU_INTERRUPT_EnableEvent>
      /* Register User defined Event Handler function */
	  #if(UC_FAMILY == XMC4)
      status = (WATCHDOG_STATUS_t)GLOBAL_SCU_XMC4_RegisterCallback(GLOBAL_SCU_XMC4_EVENT_WDT_WARNING,
    		                                                       handle->callback_func_ptr);
	  #else
      status = (WATCHDOG_STATUS_t)GLOBAL_SCU_XMC1_RegisterCallback(GLOBAL_SCU_XMC1_EVENT_WDT_WARNING,
1000280c:	687b      	ldr	r3, [r7, #4]
1000280e:	689b      	ldr	r3, [r3, #8]
10002810:	220f      	movs	r2, #15
10002812:	18bc      	adds	r4, r7, r2
10002814:	2001      	movs	r0, #1
10002816:	2100      	movs	r1, #0
10002818:	1c1a      	adds	r2, r3, #0
1000281a:	f000 fd4b 	bl	100032b4 <GLOBAL_SCU_XMC1_RegisterCallback>
1000281e:	1c03      	adds	r3, r0, #0
10002820:	7023      	strb	r3, [r4, #0]
10002822:	e003      	b.n	1000282c <WATCHDOG_lPrewarning_Configure+0x5c>
    		                                                       handle->callback_func_ptr);
	  #endif
    }
    else
    {
      status = WATCHDOG_STATUS_FAILURE;
10002824:	230f      	movs	r3, #15
10002826:	18fb      	adds	r3, r7, r3
10002828:	2201      	movs	r2, #1
1000282a:	701a      	strb	r2, [r3, #0]
#if (WATCHDOG_EVENT_VIA_NMI == 1U)
    XMC_SCU_INTERRUPT_EnableEvent((uint32_t)XMC_SCU_INTERRUPT_EVENT_WDT_WARN);
    XMC_SCU_INTERRUPT_EnableNmiRequest((uint32_t)XMC_SCU_INTERRUPT_EVENT_WDT_WARN);
#endif

  return (status);
1000282c:	230f      	movs	r3, #15
1000282e:	18fb      	adds	r3, r7, r3
10002830:	781b      	ldrb	r3, [r3, #0]
}
10002832:	1c18      	adds	r0, r3, #0
10002834:	46bd      	mov	sp, r7
10002836:	b005      	add	sp, #20
10002838:	bd90      	pop	{r4, r7, pc}
1000283a:	46c0      	nop			; (mov r8, r8)

1000283c <XMC_CCU4_EnableClock>:
 *
 * \par<b>Related APIs:</b><br>
 * XMC_CCU4_DisableClock()<BR> XMC_CCU4_EnableMultipleClocks()<BR> XMC_CCU4_StartPrescaler()<BR> XMC_CCU4_StopPrescaler().
 */
__STATIC_INLINE void XMC_CCU4_EnableClock(XMC_CCU4_MODULE_t *const module, const uint8_t slice_number)
{
1000283c:	b580      	push	{r7, lr}
1000283e:	b082      	sub	sp, #8
10002840:	af00      	add	r7, sp, #0
10002842:	6078      	str	r0, [r7, #4]
10002844:	1c0a      	adds	r2, r1, #0
10002846:	1cfb      	adds	r3, r7, #3
10002848:	701a      	strb	r2, [r3, #0]
  XMC_ASSERT("XMC_CCU4_EnableClock:Invalid Module Pointer", XMC_CCU4_IsValidModule(module));
  XMC_ASSERT("XMC_CCU4_EnableClock:Invalid Slice Number", (slice_number < 4U));

  module->GIDLC = ((uint32_t) 1) << slice_number;
1000284a:	1cfb      	adds	r3, r7, #3
1000284c:	781b      	ldrb	r3, [r3, #0]
1000284e:	2201      	movs	r2, #1
10002850:	409a      	lsls	r2, r3
10002852:	687b      	ldr	r3, [r7, #4]
10002854:	60da      	str	r2, [r3, #12]
}
10002856:	46bd      	mov	sp, r7
10002858:	b002      	add	sp, #8
1000285a:	bd80      	pop	{r7, pc}

1000285c <XMC_CCU4_SLICE_StartTimer>:
 *
 * \par<b>Related APIs:</b><br>
 *  XMC_CCU4_SLICE_StopTimer().
 */
__STATIC_INLINE void XMC_CCU4_SLICE_StartTimer(XMC_CCU4_SLICE_t *const slice)
{
1000285c:	b580      	push	{r7, lr}
1000285e:	b082      	sub	sp, #8
10002860:	af00      	add	r7, sp, #0
10002862:	6078      	str	r0, [r7, #4]
  XMC_ASSERT("XMC_CCU4_SLICE_StartTimer:Invalid Slice Pointer", XMC_CCU4_IsValidSlice(slice));
  slice->TCSET = CCU4_CC4_TCSET_TRBS_Msk;
10002864:	687b      	ldr	r3, [r7, #4]
10002866:	2201      	movs	r2, #1
10002868:	60da      	str	r2, [r3, #12]
}
1000286a:	46bd      	mov	sp, r7
1000286c:	b002      	add	sp, #8
1000286e:	bd80      	pop	{r7, pc}

10002870 <XMC_CCU4_SLICE_ClearTimer>:
 *
 * \par<b>Related APIs:</b><br>
 *  XMC_CCU4_SLICE_StartTimer().
 */
__STATIC_INLINE void XMC_CCU4_SLICE_ClearTimer(XMC_CCU4_SLICE_t *const slice)
{
10002870:	b580      	push	{r7, lr}
10002872:	b082      	sub	sp, #8
10002874:	af00      	add	r7, sp, #0
10002876:	6078      	str	r0, [r7, #4]
  XMC_ASSERT("XMC_CCU4_SLICE_ClearTimer:Invalid Slice Pointer", XMC_CCU4_IsValidSlice(slice));
  slice->TCCLR = (uint32_t) CCU4_CC4_TCCLR_TCC_Msk;
10002878:	687b      	ldr	r3, [r7, #4]
1000287a:	2202      	movs	r2, #2
1000287c:	611a      	str	r2, [r3, #16]
}
1000287e:	46bd      	mov	sp, r7
10002880:	b002      	add	sp, #8
10002882:	bd80      	pop	{r7, pc}

10002884 <XMC_CCU4_SLICE_SetTimerPeriodMatch>:
 *
 * \par<b>Related APIs:</b><br>
 *  XMC_CCU4_SLICE_GetTimerPeriodMatch().
 */
__STATIC_INLINE void XMC_CCU4_SLICE_SetTimerPeriodMatch(XMC_CCU4_SLICE_t *const slice, const uint16_t period_val)
{
10002884:	b580      	push	{r7, lr}
10002886:	b082      	sub	sp, #8
10002888:	af00      	add	r7, sp, #0
1000288a:	6078      	str	r0, [r7, #4]
1000288c:	1c0a      	adds	r2, r1, #0
1000288e:	1cbb      	adds	r3, r7, #2
10002890:	801a      	strh	r2, [r3, #0]
  XMC_ASSERT("XMC_CCU4_SLICE_SetTimerPeriodMatch:Invalid Slice Pointer", XMC_CCU4_IsValidSlice(slice));
  slice->PRS = (uint32_t) period_val;
10002892:	1cbb      	adds	r3, r7, #2
10002894:	881a      	ldrh	r2, [r3, #0]
10002896:	687b      	ldr	r3, [r7, #4]
10002898:	635a      	str	r2, [r3, #52]	; 0x34
}
1000289a:	46bd      	mov	sp, r7
1000289c:	b002      	add	sp, #8
1000289e:	bd80      	pop	{r7, pc}

100028a0 <XMC_CCU4_SLICE_SetTimerCompareMatch>:
 *
 * \par<b>Related APIs:</b><br>
 *  XMC_CCU4_SLICE_GetTimerPeriodMatch().
 */
__STATIC_INLINE void XMC_CCU4_SLICE_SetTimerCompareMatch(XMC_CCU4_SLICE_t *const slice, const uint16_t compare_val)
{
100028a0:	b580      	push	{r7, lr}
100028a2:	b082      	sub	sp, #8
100028a4:	af00      	add	r7, sp, #0
100028a6:	6078      	str	r0, [r7, #4]
100028a8:	1c0a      	adds	r2, r1, #0
100028aa:	1cbb      	adds	r3, r7, #2
100028ac:	801a      	strh	r2, [r3, #0]
  XMC_ASSERT("XMC_CCU4_SLICE_SetTimerCompareMatch:Invalid Slice Pointer", XMC_CCU4_IsValidSlice(slice));
  slice->CRS = (uint32_t) compare_val;
100028ae:	1cbb      	adds	r3, r7, #2
100028b0:	881a      	ldrh	r2, [r3, #0]
100028b2:	687b      	ldr	r3, [r7, #4]
100028b4:	63da      	str	r2, [r3, #60]	; 0x3c
}
100028b6:	46bd      	mov	sp, r7
100028b8:	b002      	add	sp, #8
100028ba:	bd80      	pop	{r7, pc}

100028bc <XMC_CCU4_EnableShadowTransfer>:
 *
 * \par<b>Related APIs:</b><br>
 *  None.
 */
__STATIC_INLINE void XMC_CCU4_EnableShadowTransfer(XMC_CCU4_MODULE_t *const module, const uint32_t shadow_transfer_msk)
{
100028bc:	b580      	push	{r7, lr}
100028be:	b082      	sub	sp, #8
100028c0:	af00      	add	r7, sp, #0
100028c2:	6078      	str	r0, [r7, #4]
100028c4:	6039      	str	r1, [r7, #0]
  XMC_ASSERT("XMC_CCU4_EnableShadowTransfer:Invalid Slice Pointer", XMC_CCU4_IsValidModule(module));
  module->GCSS = (uint32_t)shadow_transfer_msk;
100028c6:	687b      	ldr	r3, [r7, #4]
100028c8:	683a      	ldr	r2, [r7, #0]
100028ca:	611a      	str	r2, [r3, #16]
}
100028cc:	46bd      	mov	sp, r7
100028ce:	b002      	add	sp, #8
100028d0:	bd80      	pop	{r7, pc}
100028d2:	46c0      	nop			; (mov r8, r8)

100028d4 <XMC_CCU4_SLICE_EnableEvent>:
 *  XMC_CCU4_SLICE_SetInterruptNode()<BR> XMC_CCU4_SLICE_EnableMultipleEvents()<BR> XMC_CCU4_SLICE_DisableEvent()<BR>
 *  XMC_CCU4_SLICE_DisableMultipleEvents().
 */
__STATIC_INLINE void XMC_CCU4_SLICE_EnableEvent(XMC_CCU4_SLICE_t *const slice,
    const XMC_CCU4_SLICE_IRQ_ID_t event)
{
100028d4:	b580      	push	{r7, lr}
100028d6:	b082      	sub	sp, #8
100028d8:	af00      	add	r7, sp, #0
100028da:	6078      	str	r0, [r7, #4]
100028dc:	1c0a      	adds	r2, r1, #0
100028de:	1cfb      	adds	r3, r7, #3
100028e0:	701a      	strb	r2, [r3, #0]
  XMC_ASSERT("XMC_CCU4_SLICE_EnableEvent:Invalid Slice Pointer", XMC_CCU4_IsValidSlice(slice));
  XMC_ASSERT("XMC_CCU4_SLICE_EnableEvent:Invalid SR event", XMC_CCU4_SLICE_CHECK_INTERRUPT(event));
  slice->INTE |= ((uint32_t) 1) << ((uint32_t) event);
100028e2:	687b      	ldr	r3, [r7, #4]
100028e4:	22a4      	movs	r2, #164	; 0xa4
100028e6:	589a      	ldr	r2, [r3, r2]
100028e8:	1cfb      	adds	r3, r7, #3
100028ea:	781b      	ldrb	r3, [r3, #0]
100028ec:	2101      	movs	r1, #1
100028ee:	4099      	lsls	r1, r3
100028f0:	1c0b      	adds	r3, r1, #0
100028f2:	431a      	orrs	r2, r3
100028f4:	687b      	ldr	r3, [r7, #4]
100028f6:	21a4      	movs	r1, #164	; 0xa4
100028f8:	505a      	str	r2, [r3, r1]
}
100028fa:	46bd      	mov	sp, r7
100028fc:	b002      	add	sp, #8
100028fe:	bd80      	pop	{r7, pc}

10002900 <TIMER_Init>:
/*
 * This function initializes a TIMER APP based on user configuration.
 *
 */
TIMER_STATUS_t TIMER_Init(TIMER_t* const handle_ptr)
{
10002900:	b590      	push	{r4, r7, lr}
10002902:	b085      	sub	sp, #20
10002904:	af00      	add	r7, sp, #0
10002906:	6078      	str	r0, [r7, #4]
  TIMER_STATUS_t status;

  XMC_ASSERT("TIMER_Init:handle_ptr NULL" , (handle_ptr != NULL));

  status = TIMER_STATUS_SUCCESS;
10002908:	230f      	movs	r3, #15
1000290a:	18fb      	adds	r3, r7, r3
1000290c:	2200      	movs	r2, #0
1000290e:	701a      	strb	r2, [r3, #0]
  /* Check for APP instance is initialized or not */
  if (false == handle_ptr->initialized)
10002910:	687b      	ldr	r3, [r7, #4]
10002912:	2226      	movs	r2, #38	; 0x26
10002914:	5c9b      	ldrb	r3, [r3, r2]
10002916:	2201      	movs	r2, #1
10002918:	4053      	eors	r3, r2
1000291a:	b2db      	uxtb	r3, r3
1000291c:	2b00      	cmp	r3, #0
1000291e:	d00c      	beq.n	1000293a <TIMER_Init+0x3a>
  {
#ifdef TIMER_CCU4_USED
    if (TIMER_MODULE_CCU4 == handle_ptr->timer_module)
10002920:	687b      	ldr	r3, [r7, #4]
10002922:	2221      	movs	r2, #33	; 0x21
10002924:	5c9b      	ldrb	r3, [r3, r2]
10002926:	2b00      	cmp	r3, #0
10002928:	d107      	bne.n	1000293a <TIMER_Init+0x3a>
    {
      /* Configure CCU4 timer for the required time tick settings */
      status = TIMER_CCU4_lInit(handle_ptr);
1000292a:	230f      	movs	r3, #15
1000292c:	18fc      	adds	r4, r7, r3
1000292e:	687b      	ldr	r3, [r7, #4]
10002930:	1c18      	adds	r0, r3, #0
10002932:	f000 f809 	bl	10002948 <TIMER_CCU4_lInit>
10002936:	1c03      	adds	r3, r0, #0
10002938:	7023      	strb	r3, [r4, #0]
      status = TIMER_CCU8_lInit(handle_ptr);
    }
#endif
  }

  return (status);
1000293a:	230f      	movs	r3, #15
1000293c:	18fb      	adds	r3, r7, r3
1000293e:	781b      	ldrb	r3, [r3, #0]
}
10002940:	1c18      	adds	r0, r3, #0
10002942:	46bd      	mov	sp, r7
10002944:	b005      	add	sp, #20
10002946:	bd90      	pop	{r4, r7, pc}

10002948 <TIMER_CCU4_lInit>:
#ifdef TIMER_CCU4_USED
/*
 * This function configures timer ccu4 timer with required time tick value
 */
TIMER_STATUS_t TIMER_CCU4_lInit(TIMER_t* const handle_ptr)
{
10002948:	b590      	push	{r4, r7, lr}
1000294a:	b085      	sub	sp, #20
1000294c:	af00      	add	r7, sp, #0
1000294e:	6078      	str	r0, [r7, #4]
  TIMER_STATUS_t status;
  /* Initialize the global registers */
  status = (TIMER_STATUS_t)GLOBAL_CCU4_Init(handle_ptr->global_ccu4_handler);
10002950:	687b      	ldr	r3, [r7, #4]
10002952:	691b      	ldr	r3, [r3, #16]
10002954:	220f      	movs	r2, #15
10002956:	18bc      	adds	r4, r7, r2
10002958:	1c18      	adds	r0, r3, #0
1000295a:	f000 fccf 	bl	100032fc <GLOBAL_CCU4_Init>
1000295e:	1c03      	adds	r3, r0, #0
10002960:	7023      	strb	r3, [r4, #0]

  /* Enable the clock for selected timer */
  XMC_CCU4_EnableClock(handle_ptr->global_ccu4_handler->module_ptr, handle_ptr->ccu4_slice_number);
10002962:	687b      	ldr	r3, [r7, #4]
10002964:	691b      	ldr	r3, [r3, #16]
10002966:	689a      	ldr	r2, [r3, #8]
10002968:	687b      	ldr	r3, [r7, #4]
1000296a:	7e1b      	ldrb	r3, [r3, #24]
1000296c:	1c10      	adds	r0, r2, #0
1000296e:	1c19      	adds	r1, r3, #0
10002970:	f7ff ff64 	bl	1000283c <XMC_CCU4_EnableClock>
  /* Configure the timer with required settings */
  XMC_CCU4_SLICE_CompareInit(handle_ptr->ccu4_slice_ptr, handle_ptr->ccu4_slice_config_ptr);
10002974:	687b      	ldr	r3, [r7, #4]
10002976:	695a      	ldr	r2, [r3, #20]
10002978:	687b      	ldr	r3, [r7, #4]
1000297a:	69db      	ldr	r3, [r3, #28]
1000297c:	1c10      	adds	r0, r2, #0
1000297e:	1c19      	adds	r1, r3, #0
10002980:	f7ff fc5e 	bl	10002240 <XMC_CCU4_SLICE_CompareInit>
  /* programs the timer period and compare register according to time interval value and do the shadow transfer */
  TIMER_CCU4_lShadowTransfer(handle_ptr);
10002984:	687b      	ldr	r3, [r7, #4]
10002986:	1c18      	adds	r0, r3, #0
10002988:	f000 f830 	bl	100029ec <TIMER_CCU4_lShadowTransfer>

#ifdef  TIMER_INTERRUPT
  if (true == handle_ptr->period_match_enable)
1000298c:	687b      	ldr	r3, [r7, #4]
1000298e:	2225      	movs	r2, #37	; 0x25
10002990:	5c9b      	ldrb	r3, [r3, r2]
10002992:	2b00      	cmp	r3, #0
10002994:	d00f      	beq.n	100029b6 <TIMER_CCU4_lInit+0x6e>
  {
    /* Binds a period match event to an NVIC node  */
    XMC_CCU4_SLICE_SetInterruptNode(handle_ptr->ccu4_slice_ptr, XMC_CCU4_SLICE_IRQ_ID_PERIOD_MATCH,
10002996:	687b      	ldr	r3, [r7, #4]
10002998:	6959      	ldr	r1, [r3, #20]
1000299a:	687b      	ldr	r3, [r7, #4]
1000299c:	2220      	movs	r2, #32
1000299e:	5c9b      	ldrb	r3, [r3, r2]
100029a0:	1c08      	adds	r0, r1, #0
100029a2:	2100      	movs	r1, #0
100029a4:	1c1a      	adds	r2, r3, #0
100029a6:	f7ff fd6d 	bl	10002484 <XMC_CCU4_SLICE_SetInterruptNode>
                                    handle_ptr->ccu4_period_match_node);
    /* Enables a timer(period match) event  */
    XMC_CCU4_SLICE_EnableEvent(handle_ptr->ccu4_slice_ptr, XMC_CCU4_SLICE_IRQ_ID_PERIOD_MATCH);
100029aa:	687b      	ldr	r3, [r7, #4]
100029ac:	695b      	ldr	r3, [r3, #20]
100029ae:	1c18      	adds	r0, r3, #0
100029b0:	2100      	movs	r1, #0
100029b2:	f7ff ff8f 	bl	100028d4 <XMC_CCU4_SLICE_EnableEvent>
  }
#endif
  /* Clears the timer register */
  XMC_CCU4_SLICE_ClearTimer(handle_ptr->ccu4_slice_ptr);
100029b6:	687b      	ldr	r3, [r7, #4]
100029b8:	695b      	ldr	r3, [r3, #20]
100029ba:	1c18      	adds	r0, r3, #0
100029bc:	f7ff ff58 	bl	10002870 <XMC_CCU4_SLICE_ClearTimer>

  /* update the initialization flag as true for particular instance*/
  handle_ptr->initialized = true;
100029c0:	687b      	ldr	r3, [r7, #4]
100029c2:	2226      	movs	r2, #38	; 0x26
100029c4:	2101      	movs	r1, #1
100029c6:	5499      	strb	r1, [r3, r2]

  /* Check whether the start of the timer is enabled during initialization or not */
  if (handle_ptr->start_control == true)
100029c8:	687b      	ldr	r3, [r7, #4]
100029ca:	2224      	movs	r2, #36	; 0x24
100029cc:	5c9b      	ldrb	r3, [r3, r2]
100029ce:	2b00      	cmp	r3, #0
100029d0:	d004      	beq.n	100029dc <TIMER_CCU4_lInit+0x94>
  {
    /* Start the timer */
    XMC_CCU4_SLICE_StartTimer(handle_ptr->ccu4_slice_ptr);
100029d2:	687b      	ldr	r3, [r7, #4]
100029d4:	695b      	ldr	r3, [r3, #20]
100029d6:	1c18      	adds	r0, r3, #0
100029d8:	f7ff ff40 	bl	1000285c <XMC_CCU4_SLICE_StartTimer>
  }

  return (status);
100029dc:	230f      	movs	r3, #15
100029de:	18fb      	adds	r3, r7, r3
100029e0:	781b      	ldrb	r3, [r3, #0]
}
100029e2:	1c18      	adds	r0, r3, #0
100029e4:	46bd      	mov	sp, r7
100029e6:	b005      	add	sp, #20
100029e8:	bd90      	pop	{r4, r7, pc}
100029ea:	46c0      	nop			; (mov r8, r8)

100029ec <TIMER_CCU4_lShadowTransfer>:

/*
 * This function configures timer period and compare values and triggers the shadow transfer operation
 */
void TIMER_CCU4_lShadowTransfer(TIMER_t* const handle_ptr)
{
100029ec:	b580      	push	{r7, lr}
100029ee:	b082      	sub	sp, #8
100029f0:	af00      	add	r7, sp, #0
100029f2:	6078      	str	r0, [r7, #4]
  /* programs the timer period register according to time interval value */
  XMC_CCU4_SLICE_SetTimerPeriodMatch(handle_ptr->ccu4_slice_ptr, handle_ptr->period_value);
100029f4:	687b      	ldr	r3, [r7, #4]
100029f6:	695a      	ldr	r2, [r3, #20]
100029f8:	687b      	ldr	r3, [r7, #4]
100029fa:	8c5b      	ldrh	r3, [r3, #34]	; 0x22
100029fc:	1c10      	adds	r0, r2, #0
100029fe:	1c19      	adds	r1, r3, #0
10002a00:	f7ff ff40 	bl	10002884 <XMC_CCU4_SLICE_SetTimerPeriodMatch>
  /* programs the timer compare register for 50% duty cycle */
  XMC_CCU4_SLICE_SetTimerCompareMatch(handle_ptr->ccu4_slice_ptr, TIMER_CMP_100_DUTY);
10002a04:	687b      	ldr	r3, [r7, #4]
10002a06:	695b      	ldr	r3, [r3, #20]
10002a08:	1c18      	adds	r0, r3, #0
10002a0a:	2100      	movs	r1, #0
10002a0c:	f7ff ff48 	bl	100028a0 <XMC_CCU4_SLICE_SetTimerCompareMatch>
  /* Transfers value from shadow timer registers to actual timer registers */
  XMC_CCU4_EnableShadowTransfer(handle_ptr->global_ccu4_handler->module_ptr, handle_ptr->shadow_mask);
10002a10:	687b      	ldr	r3, [r7, #4]
10002a12:	691b      	ldr	r3, [r3, #16]
10002a14:	689a      	ldr	r2, [r3, #8]
10002a16:	687b      	ldr	r3, [r7, #4]
10002a18:	68db      	ldr	r3, [r3, #12]
10002a1a:	1c10      	adds	r0, r2, #0
10002a1c:	1c19      	adds	r1, r3, #0
10002a1e:	f7ff ff4d 	bl	100028bc <XMC_CCU4_EnableShadowTransfer>
}
10002a22:	46bd      	mov	sp, r7
10002a24:	b002      	add	sp, #8
10002a26:	bd80      	pop	{r7, pc}

10002a28 <XMC_CCU4_EnableClock>:
 *
 * \par<b>Related APIs:</b><br>
 * XMC_CCU4_DisableClock()<BR> XMC_CCU4_EnableMultipleClocks()<BR> XMC_CCU4_StartPrescaler()<BR> XMC_CCU4_StopPrescaler().
 */
__STATIC_INLINE void XMC_CCU4_EnableClock(XMC_CCU4_MODULE_t *const module, const uint8_t slice_number)
{
10002a28:	b580      	push	{r7, lr}
10002a2a:	b082      	sub	sp, #8
10002a2c:	af00      	add	r7, sp, #0
10002a2e:	6078      	str	r0, [r7, #4]
10002a30:	1c0a      	adds	r2, r1, #0
10002a32:	1cfb      	adds	r3, r7, #3
10002a34:	701a      	strb	r2, [r3, #0]
  XMC_ASSERT("XMC_CCU4_EnableClock:Invalid Module Pointer", XMC_CCU4_IsValidModule(module));
  XMC_ASSERT("XMC_CCU4_EnableClock:Invalid Slice Number", (slice_number < 4U));

  module->GIDLC = ((uint32_t) 1) << slice_number;
10002a36:	1cfb      	adds	r3, r7, #3
10002a38:	781b      	ldrb	r3, [r3, #0]
10002a3a:	2201      	movs	r2, #1
10002a3c:	409a      	lsls	r2, r3
10002a3e:	687b      	ldr	r3, [r7, #4]
10002a40:	60da      	str	r2, [r3, #12]
}
10002a42:	46bd      	mov	sp, r7
10002a44:	b002      	add	sp, #8
10002a46:	bd80      	pop	{r7, pc}

10002a48 <XMC_CCU4_SLICE_StartTimer>:
 *
 * \par<b>Related APIs:</b><br>
 *  XMC_CCU4_SLICE_StopTimer().
 */
__STATIC_INLINE void XMC_CCU4_SLICE_StartTimer(XMC_CCU4_SLICE_t *const slice)
{
10002a48:	b580      	push	{r7, lr}
10002a4a:	b082      	sub	sp, #8
10002a4c:	af00      	add	r7, sp, #0
10002a4e:	6078      	str	r0, [r7, #4]
  XMC_ASSERT("XMC_CCU4_SLICE_StartTimer:Invalid Slice Pointer", XMC_CCU4_IsValidSlice(slice));
  slice->TCSET = CCU4_CC4_TCSET_TRBS_Msk;
10002a50:	687b      	ldr	r3, [r7, #4]
10002a52:	2201      	movs	r2, #1
10002a54:	60da      	str	r2, [r3, #12]
}
10002a56:	46bd      	mov	sp, r7
10002a58:	b002      	add	sp, #8
10002a5a:	bd80      	pop	{r7, pc}

10002a5c <XMC_CCU4_SLICE_SetTimerPeriodMatch>:
 *
 * \par<b>Related APIs:</b><br>
 *  XMC_CCU4_SLICE_GetTimerPeriodMatch().
 */
__STATIC_INLINE void XMC_CCU4_SLICE_SetTimerPeriodMatch(XMC_CCU4_SLICE_t *const slice, const uint16_t period_val)
{
10002a5c:	b580      	push	{r7, lr}
10002a5e:	b082      	sub	sp, #8
10002a60:	af00      	add	r7, sp, #0
10002a62:	6078      	str	r0, [r7, #4]
10002a64:	1c0a      	adds	r2, r1, #0
10002a66:	1cbb      	adds	r3, r7, #2
10002a68:	801a      	strh	r2, [r3, #0]
  XMC_ASSERT("XMC_CCU4_SLICE_SetTimerPeriodMatch:Invalid Slice Pointer", XMC_CCU4_IsValidSlice(slice));
  slice->PRS = (uint32_t) period_val;
10002a6a:	1cbb      	adds	r3, r7, #2
10002a6c:	881a      	ldrh	r2, [r3, #0]
10002a6e:	687b      	ldr	r3, [r7, #4]
10002a70:	635a      	str	r2, [r3, #52]	; 0x34
}
10002a72:	46bd      	mov	sp, r7
10002a74:	b002      	add	sp, #8
10002a76:	bd80      	pop	{r7, pc}

10002a78 <XMC_CCU4_SLICE_SetTimerCompareMatch>:
 *
 * \par<b>Related APIs:</b><br>
 *  XMC_CCU4_SLICE_GetTimerPeriodMatch().
 */
__STATIC_INLINE void XMC_CCU4_SLICE_SetTimerCompareMatch(XMC_CCU4_SLICE_t *const slice, const uint16_t compare_val)
{
10002a78:	b580      	push	{r7, lr}
10002a7a:	b082      	sub	sp, #8
10002a7c:	af00      	add	r7, sp, #0
10002a7e:	6078      	str	r0, [r7, #4]
10002a80:	1c0a      	adds	r2, r1, #0
10002a82:	1cbb      	adds	r3, r7, #2
10002a84:	801a      	strh	r2, [r3, #0]
  XMC_ASSERT("XMC_CCU4_SLICE_SetTimerCompareMatch:Invalid Slice Pointer", XMC_CCU4_IsValidSlice(slice));
  slice->CRS = (uint32_t) compare_val;
10002a86:	1cbb      	adds	r3, r7, #2
10002a88:	881a      	ldrh	r2, [r3, #0]
10002a8a:	687b      	ldr	r3, [r7, #4]
10002a8c:	63da      	str	r2, [r3, #60]	; 0x3c
}
10002a8e:	46bd      	mov	sp, r7
10002a90:	b002      	add	sp, #8
10002a92:	bd80      	pop	{r7, pc}

10002a94 <XMC_CCU4_EnableShadowTransfer>:
 *
 * \par<b>Related APIs:</b><br>
 *  None.
 */
__STATIC_INLINE void XMC_CCU4_EnableShadowTransfer(XMC_CCU4_MODULE_t *const module, const uint32_t shadow_transfer_msk)
{
10002a94:	b580      	push	{r7, lr}
10002a96:	b082      	sub	sp, #8
10002a98:	af00      	add	r7, sp, #0
10002a9a:	6078      	str	r0, [r7, #4]
10002a9c:	6039      	str	r1, [r7, #0]
  XMC_ASSERT("XMC_CCU4_EnableShadowTransfer:Invalid Slice Pointer", XMC_CCU4_IsValidModule(module));
  module->GCSS = (uint32_t)shadow_transfer_msk;
10002a9e:	687b      	ldr	r3, [r7, #4]
10002aa0:	683a      	ldr	r2, [r7, #0]
10002aa2:	611a      	str	r2, [r3, #16]
}
10002aa4:	46bd      	mov	sp, r7
10002aa6:	b002      	add	sp, #8
10002aa8:	bd80      	pop	{r7, pc}
10002aaa:	46c0      	nop			; (mov r8, r8)

10002aac <XMC_CCU4_SLICE_EnableEvent>:
 *  XMC_CCU4_SLICE_SetInterruptNode()<BR> XMC_CCU4_SLICE_EnableMultipleEvents()<BR> XMC_CCU4_SLICE_DisableEvent()<BR>
 *  XMC_CCU4_SLICE_DisableMultipleEvents().
 */
__STATIC_INLINE void XMC_CCU4_SLICE_EnableEvent(XMC_CCU4_SLICE_t *const slice,
    const XMC_CCU4_SLICE_IRQ_ID_t event)
{
10002aac:	b580      	push	{r7, lr}
10002aae:	b082      	sub	sp, #8
10002ab0:	af00      	add	r7, sp, #0
10002ab2:	6078      	str	r0, [r7, #4]
10002ab4:	1c0a      	adds	r2, r1, #0
10002ab6:	1cfb      	adds	r3, r7, #3
10002ab8:	701a      	strb	r2, [r3, #0]
  XMC_ASSERT("XMC_CCU4_SLICE_EnableEvent:Invalid Slice Pointer", XMC_CCU4_IsValidSlice(slice));
  XMC_ASSERT("XMC_CCU4_SLICE_EnableEvent:Invalid SR event", XMC_CCU4_SLICE_CHECK_INTERRUPT(event));
  slice->INTE |= ((uint32_t) 1) << ((uint32_t) event);
10002aba:	687b      	ldr	r3, [r7, #4]
10002abc:	22a4      	movs	r2, #164	; 0xa4
10002abe:	589a      	ldr	r2, [r3, r2]
10002ac0:	1cfb      	adds	r3, r7, #3
10002ac2:	781b      	ldrb	r3, [r3, #0]
10002ac4:	2101      	movs	r1, #1
10002ac6:	4099      	lsls	r1, r3
10002ac8:	1c0b      	adds	r3, r1, #0
10002aca:	431a      	orrs	r2, r3
10002acc:	687b      	ldr	r3, [r7, #4]
10002ace:	21a4      	movs	r1, #164	; 0xa4
10002ad0:	505a      	str	r2, [r3, r1]
}
10002ad2:	46bd      	mov	sp, r7
10002ad4:	b002      	add	sp, #8
10002ad6:	bd80      	pop	{r7, pc}

10002ad8 <PWM_lCCU4_Init>:

#ifdef PWM_SLICE_USED_CCU4

/*Initialize the APP and CCU4 slice. */
PWM_STATUS_t PWM_lCCU4_Init(PWM_t *const handle_ptr)
{
10002ad8:	b590      	push	{r4, r7, lr}
10002ada:	b085      	sub	sp, #20
10002adc:	af00      	add	r7, sp, #0
10002ade:	6078      	str	r0, [r7, #4]
  PWM_STATUS_t status = PWM_STATUS_FAILURE;
10002ae0:	230f      	movs	r3, #15
10002ae2:	18fb      	adds	r3, r7, r3
10002ae4:	2201      	movs	r2, #1
10002ae6:	701a      	strb	r2, [r3, #0]

  XMC_ASSERT("PWM_lCCU4_Init:Invalid handle_ptr" , (handle_ptr != NULL));

  if (PWM_STATUS_UNINITIALIZED == handle_ptr->state)
10002ae8:	687b      	ldr	r3, [r7, #4]
10002aea:	2229      	movs	r2, #41	; 0x29
10002aec:	5c9b      	ldrb	r3, [r3, r2]
10002aee:	2b02      	cmp	r3, #2
10002af0:	d155      	bne.n	10002b9e <PWM_lCCU4_Init+0xc6>
  {
    /* Initialize consumed Apps */
    status = (PWM_STATUS_t)GLOBAL_CCU4_Init(handle_ptr->global_ccu4_handle);
10002af2:	687b      	ldr	r3, [r7, #4]
10002af4:	681b      	ldr	r3, [r3, #0]
10002af6:	220f      	movs	r2, #15
10002af8:	18bc      	adds	r4, r7, r2
10002afa:	1c18      	adds	r0, r3, #0
10002afc:	f000 fbfe 	bl	100032fc <GLOBAL_CCU4_Init>
10002b00:	1c03      	adds	r3, r0, #0
10002b02:	7023      	strb	r3, [r4, #0]

    /*Initialize CCU4 slice */
    if (PWM_STATUS_SUCCESS == status)/*check GLOBAL_CCU4_Init status*/
10002b04:	230f      	movs	r3, #15
10002b06:	18fb      	adds	r3, r7, r3
10002b08:	781b      	ldrb	r3, [r3, #0]
10002b0a:	2b00      	cmp	r3, #0
10002b0c:	d143      	bne.n	10002b96 <PWM_lCCU4_Init+0xbe>
    {
      XMC_DEBUG("PWM_lCCU4_Init:Initilizing Slice")
      XMC_CCU4_SLICE_CompareInit(handle_ptr->ccu4_slice_ptr, handle_ptr->ccu4_slice_config_ptr);
10002b0e:	687b      	ldr	r3, [r7, #4]
10002b10:	689a      	ldr	r2, [r3, #8]
10002b12:	687b      	ldr	r3, [r7, #4]
10002b14:	68db      	ldr	r3, [r3, #12]
10002b16:	1c10      	adds	r0, r2, #0
10002b18:	1c19      	adds	r1, r3, #0
10002b1a:	f7ff fb91 	bl	10002240 <XMC_CCU4_SLICE_CompareInit>

      /* Set the period and compare register values */
      XMC_CCU4_SLICE_SetTimerPeriodMatch(handle_ptr->ccu4_slice_ptr,
10002b1e:	687b      	ldr	r3, [r7, #4]
10002b20:	689a      	ldr	r2, [r3, #8]
    		                             (uint16_t)handle_ptr->period_value);
10002b22:	687b      	ldr	r3, [r7, #4]
10002b24:	69db      	ldr	r3, [r3, #28]
    {
      XMC_DEBUG("PWM_lCCU4_Init:Initilizing Slice")
      XMC_CCU4_SLICE_CompareInit(handle_ptr->ccu4_slice_ptr, handle_ptr->ccu4_slice_config_ptr);

      /* Set the period and compare register values */
      XMC_CCU4_SLICE_SetTimerPeriodMatch(handle_ptr->ccu4_slice_ptr,
10002b26:	b29b      	uxth	r3, r3
10002b28:	1c10      	adds	r0, r2, #0
10002b2a:	1c19      	adds	r1, r3, #0
10002b2c:	f7ff ff96 	bl	10002a5c <XMC_CCU4_SLICE_SetTimerPeriodMatch>
    		                             (uint16_t)handle_ptr->period_value);

      XMC_CCU4_SLICE_SetTimerCompareMatch(handle_ptr->ccu4_slice_ptr,
10002b30:	687b      	ldr	r3, [r7, #4]
10002b32:	689a      	ldr	r2, [r3, #8]
    		                              (uint16_t)handle_ptr->compare_value);
10002b34:	687b      	ldr	r3, [r7, #4]
10002b36:	699b      	ldr	r3, [r3, #24]

      /* Set the period and compare register values */
      XMC_CCU4_SLICE_SetTimerPeriodMatch(handle_ptr->ccu4_slice_ptr,
    		                             (uint16_t)handle_ptr->period_value);

      XMC_CCU4_SLICE_SetTimerCompareMatch(handle_ptr->ccu4_slice_ptr,
10002b38:	b29b      	uxth	r3, r3
10002b3a:	1c10      	adds	r0, r2, #0
10002b3c:	1c19      	adds	r1, r3, #0
10002b3e:	f7ff ff9b 	bl	10002a78 <XMC_CCU4_SLICE_SetTimerCompareMatch>
    		                              (uint16_t)handle_ptr->compare_value);

      XMC_CCU4_EnableShadowTransfer(handle_ptr->ccu4_kernel_ptr, handle_ptr->shadow_mask);
10002b42:	687b      	ldr	r3, [r7, #4]
10002b44:	685a      	ldr	r2, [r3, #4]
10002b46:	687b      	ldr	r3, [r7, #4]
10002b48:	6a5b      	ldr	r3, [r3, #36]	; 0x24
10002b4a:	1c10      	adds	r0, r2, #0
10002b4c:	1c19      	adds	r1, r3, #0
10002b4e:	f7ff ffa1 	bl	10002a94 <XMC_CCU4_EnableShadowTransfer>

      /* Initialize interrupts */
      PWM_lCCU4_ConfigInterrupts(handle_ptr);
10002b52:	687b      	ldr	r3, [r7, #4]
10002b54:	1c18      	adds	r0, r3, #0
10002b56:	f000 f829 	bl	10002bac <PWM_lCCU4_ConfigInterrupts>

      XMC_GPIO_Init(handle_ptr->gpio_out_port,handle_ptr->gpio_out_pin,
10002b5a:	687b      	ldr	r3, [r7, #4]
10002b5c:	6919      	ldr	r1, [r3, #16]
10002b5e:	687b      	ldr	r3, [r7, #4]
10002b60:	222c      	movs	r2, #44	; 0x2c
10002b62:	5c9a      	ldrb	r2, [r3, r2]
10002b64:	687b      	ldr	r3, [r7, #4]
10002b66:	695b      	ldr	r3, [r3, #20]
10002b68:	1c08      	adds	r0, r1, #0
10002b6a:	1c11      	adds	r1, r2, #0
10002b6c:	1c1a      	adds	r2, r3, #0
10002b6e:	f7fe fb13 	bl	10001198 <XMC_GPIO_Init>
    		        handle_ptr->gpio_out_config);

      handle_ptr->state = PWM_STATUS_SUCCESS;
10002b72:	687b      	ldr	r3, [r7, #4]
10002b74:	2229      	movs	r2, #41	; 0x29
10002b76:	2100      	movs	r1, #0
10002b78:	5499      	strb	r1, [r3, r2]

      /* Start the PWM generation if start at initialization is enabled */
      if ((bool) true == handle_ptr->start_control)
10002b7a:	687b      	ldr	r3, [r7, #4]
10002b7c:	222f      	movs	r2, #47	; 0x2f
10002b7e:	5c9b      	ldrb	r3, [r3, r2]
10002b80:	2b00      	cmp	r3, #0
10002b82:	d003      	beq.n	10002b8c <PWM_lCCU4_Init+0xb4>
      {
        PWM_Start(handle_ptr);
10002b84:	687b      	ldr	r3, [r7, #4]
10002b86:	1c18      	adds	r0, r3, #0
10002b88:	f000 f8c6 	bl	10002d18 <PWM_Start>
      }
      status = PWM_STATUS_SUCCESS;
10002b8c:	230f      	movs	r3, #15
10002b8e:	18fb      	adds	r3, r7, r3
10002b90:	2200      	movs	r2, #0
10002b92:	701a      	strb	r2, [r3, #0]
10002b94:	e003      	b.n	10002b9e <PWM_lCCU4_Init+0xc6>
    }
    else
    {
      handle_ptr->state = PWM_STATUS_UNINITIALIZED;
10002b96:	687b      	ldr	r3, [r7, #4]
10002b98:	2229      	movs	r2, #41	; 0x29
10002b9a:	2102      	movs	r1, #2
10002b9c:	5499      	strb	r1, [r3, r2]
    }

  }
  return (status);
10002b9e:	230f      	movs	r3, #15
10002ba0:	18fb      	adds	r3, r7, r3
10002ba2:	781b      	ldrb	r3, [r3, #0]
} /* end of PWM_lCCU4_Init() api */
10002ba4:	1c18      	adds	r0, r3, #0
10002ba6:	46bd      	mov	sp, r7
10002ba8:	b005      	add	sp, #20
10002baa:	bd90      	pop	{r4, r7, pc}

10002bac <PWM_lCCU4_ConfigInterrupts>:

/*~~~~~~~~~~~~~~~~~~~~~~~~~~~~~~~~~~~~~~~~~~~~~~~~~~~~~~~~~~~~~~~~~~~~~~~~~~~~~~~~~~~~~~~~~~~~~~~~~~~~~~~~~~~~~~~~~~*/
/* Initialize interrupts */
void PWM_lCCU4_ConfigInterrupts(PWM_t *const handle_ptr)
{
10002bac:	b580      	push	{r7, lr}
10002bae:	b082      	sub	sp, #8
10002bb0:	af00      	add	r7, sp, #0
10002bb2:	6078      	str	r0, [r7, #4]
  if ((bool) true == handle_ptr->period_match_enable)
10002bb4:	687b      	ldr	r3, [r7, #4]
10002bb6:	2230      	movs	r2, #48	; 0x30
10002bb8:	5c9b      	ldrb	r3, [r3, r2]
10002bba:	2b00      	cmp	r3, #0
10002bbc:	d00f      	beq.n	10002bde <PWM_lCCU4_ConfigInterrupts+0x32>
  {
    XMC_DEBUG("PWM_lCCU4_ConfigInterrupts:period match enable")
    XMC_CCU4_SLICE_EnableEvent(handle_ptr->ccu4_slice_ptr, XMC_CCU4_SLICE_IRQ_ID_PERIOD_MATCH);
10002bbe:	687b      	ldr	r3, [r7, #4]
10002bc0:	689b      	ldr	r3, [r3, #8]
10002bc2:	1c18      	adds	r0, r3, #0
10002bc4:	2100      	movs	r1, #0
10002bc6:	f7ff ff71 	bl	10002aac <XMC_CCU4_SLICE_EnableEvent>

    /* Bind event to Service Request Node to period match event*/
    XMC_CCU4_SLICE_SetInterruptNode(handle_ptr->ccu4_slice_ptr, XMC_CCU4_SLICE_IRQ_ID_PERIOD_MATCH,
10002bca:	687b      	ldr	r3, [r7, #4]
10002bcc:	6899      	ldr	r1, [r3, #8]
10002bce:	687b      	ldr	r3, [r7, #4]
10002bd0:	222a      	movs	r2, #42	; 0x2a
10002bd2:	5c9b      	ldrb	r3, [r3, r2]
10002bd4:	1c08      	adds	r0, r1, #0
10002bd6:	2100      	movs	r1, #0
10002bd8:	1c1a      	adds	r2, r3, #0
10002bda:	f7ff fc53 	bl	10002484 <XMC_CCU4_SLICE_SetInterruptNode>
                                    handle_ptr->ccu4_slice_period_match_node);
  }

  if ((bool) true == handle_ptr->compare_match_enable)
10002bde:	687b      	ldr	r3, [r7, #4]
10002be0:	2231      	movs	r2, #49	; 0x31
10002be2:	5c9b      	ldrb	r3, [r3, r2]
10002be4:	2b00      	cmp	r3, #0
10002be6:	d00f      	beq.n	10002c08 <PWM_lCCU4_ConfigInterrupts+0x5c>
  {
    XMC_DEBUG("PWM_lCCU4_ConfigInterrupts:compare match enable")
    XMC_CCU4_SLICE_EnableEvent(handle_ptr->ccu4_slice_ptr, XMC_CCU4_SLICE_IRQ_ID_COMPARE_MATCH_UP);
10002be8:	687b      	ldr	r3, [r7, #4]
10002bea:	689b      	ldr	r3, [r3, #8]
10002bec:	1c18      	adds	r0, r3, #0
10002bee:	2102      	movs	r1, #2
10002bf0:	f7ff ff5c 	bl	10002aac <XMC_CCU4_SLICE_EnableEvent>

    /* Bind event to Service Request Node to compare match event */
    XMC_CCU4_SLICE_SetInterruptNode(handle_ptr->ccu4_slice_ptr, XMC_CCU4_SLICE_IRQ_ID_COMPARE_MATCH_UP,
10002bf4:	687b      	ldr	r3, [r7, #4]
10002bf6:	6899      	ldr	r1, [r3, #8]
10002bf8:	687b      	ldr	r3, [r7, #4]
10002bfa:	222b      	movs	r2, #43	; 0x2b
10002bfc:	5c9b      	ldrb	r3, [r3, r2]
10002bfe:	1c08      	adds	r0, r1, #0
10002c00:	2102      	movs	r1, #2
10002c02:	1c1a      	adds	r2, r3, #0
10002c04:	f7ff fc3e 	bl	10002484 <XMC_CCU4_SLICE_SetInterruptNode>
                                    handle_ptr->ccu4_slice_compare_match_node);
  }
}
10002c08:	46bd      	mov	sp, r7
10002c0a:	b002      	add	sp, #8
10002c0c:	bd80      	pop	{r7, pc}
10002c0e:	46c0      	nop			; (mov r8, r8)

10002c10 <PWM_lCCU4_Start>:

/*~~~~~~~~~~~~~~~~~~~~~~~~~~~~~~~~~~~~~~~~~~~~~~~~~~~~~~~~~~~~~~~~~~~~~~~~~~~~~~~~~~~~~~~~~~~~~~~~~~~~~~~~~~~~~~~~~~*/
/*Starts the CCU4 slice. */
void PWM_lCCU4_Start(PWM_t *const handle_ptr)
{
10002c10:	b580      	push	{r7, lr}
10002c12:	b082      	sub	sp, #8
10002c14:	af00      	add	r7, sp, #0
10002c16:	6078      	str	r0, [r7, #4]
  if ((PWM_STATUS_SUCCESS == handle_ptr->state) || (PWM_STATUS_STOPPED == handle_ptr->state))
10002c18:	687b      	ldr	r3, [r7, #4]
10002c1a:	2229      	movs	r2, #41	; 0x29
10002c1c:	5c9b      	ldrb	r3, [r3, r2]
10002c1e:	2b00      	cmp	r3, #0
10002c20:	d004      	beq.n	10002c2c <PWM_lCCU4_Start+0x1c>
10002c22:	687b      	ldr	r3, [r7, #4]
10002c24:	2229      	movs	r2, #41	; 0x29
10002c26:	5c9b      	ldrb	r3, [r3, r2]
10002c28:	2b04      	cmp	r3, #4
10002c2a:	d111      	bne.n	10002c50 <PWM_lCCU4_Start+0x40>
  {
    /* Clears the IDLE mode for the slice */
    XMC_CCU4_EnableClock(handle_ptr->ccu4_kernel_ptr,handle_ptr->slice_number);
10002c2c:	687b      	ldr	r3, [r7, #4]
10002c2e:	6859      	ldr	r1, [r3, #4]
10002c30:	687b      	ldr	r3, [r7, #4]
10002c32:	222e      	movs	r2, #46	; 0x2e
10002c34:	5c9b      	ldrb	r3, [r3, r2]
10002c36:	1c08      	adds	r0, r1, #0
10002c38:	1c19      	adds	r1, r3, #0
10002c3a:	f7ff fef5 	bl	10002a28 <XMC_CCU4_EnableClock>
    XMC_CCU4_SLICE_StartTimer(handle_ptr->ccu4_slice_ptr);
10002c3e:	687b      	ldr	r3, [r7, #4]
10002c40:	689b      	ldr	r3, [r3, #8]
10002c42:	1c18      	adds	r0, r3, #0
10002c44:	f7ff ff00 	bl	10002a48 <XMC_CCU4_SLICE_StartTimer>

    handle_ptr->state = PWM_STATUS_RUNNING;
10002c48:	687b      	ldr	r3, [r7, #4]
10002c4a:	2229      	movs	r2, #41	; 0x29
10002c4c:	2103      	movs	r1, #3
10002c4e:	5499      	strb	r1, [r3, r2]
    XMC_DEBUG("PWM_lCCU4_Start:start PWM")
  }
} /* end of PWM_lCCU4_Start() api */
10002c50:	46bd      	mov	sp, r7
10002c52:	b002      	add	sp, #8
10002c54:	bd80      	pop	{r7, pc}
10002c56:	46c0      	nop			; (mov r8, r8)

10002c58 <PWM_lCCU4_SetDutyCycle>:
} /* end of PWM_lCCU4_Stop() api */

/*~~~~~~~~~~~~~~~~~~~~~~~~~~~~~~~~~~~~~~~~~~~~~~~~~~~~~~~~~~~~~~~~~~~~~~~~~~~~~~~~~~~~~~~~~~~~~~~~~~~~~~~~~~~~~~~~~~*/
/*Sets the duty cycle for CCU4 slice. */
PWM_STATUS_t PWM_lCCU4_SetDutyCycle(PWM_t *const handle_ptr, uint32_t duty_cycle)
{
10002c58:	b580      	push	{r7, lr}
10002c5a:	b086      	sub	sp, #24
10002c5c:	af00      	add	r7, sp, #0
10002c5e:	6078      	str	r0, [r7, #4]
10002c60:	6039      	str	r1, [r7, #0]
  uint32_t compare;
  PWM_STATUS_t status;

  XMC_ASSERT("PWM_lCCU4_SetDutyCycle:Invalid duty_cycle " , ((duty_cycle >= 0) && (duty_cycle <= PWM_MAX_DUTY_CYCLE)));

  status = PWM_STATUS_FAILURE;
10002c62:	2317      	movs	r3, #23
10002c64:	18fb      	adds	r3, r7, r3
10002c66:	2201      	movs	r2, #1
10002c68:	701a      	strb	r2, [r3, #0]
  if (PWM_STATUS_UNINITIALIZED != handle_ptr->state)
10002c6a:	687b      	ldr	r3, [r7, #4]
10002c6c:	2229      	movs	r2, #41	; 0x29
10002c6e:	5c9b      	ldrb	r3, [r3, r2]
10002c70:	2b02      	cmp	r3, #2
10002c72:	d02c      	beq.n	10002cce <PWM_lCCU4_SetDutyCycle+0x76>
  {
    /* Duty cycle needs between 0 and 10000 */
    if (duty_cycle <= PWM_MAX_DUTY_CYCLE)
10002c74:	683b      	ldr	r3, [r7, #0]
10002c76:	4a19      	ldr	r2, [pc, #100]	; (10002cdc <PWM_lCCU4_SetDutyCycle+0x84>)
10002c78:	4293      	cmp	r3, r2
10002c7a:	d828      	bhi.n	10002cce <PWM_lCCU4_SetDutyCycle+0x76>
    {
      /* period = (PR + 1) */
      period = (uint32_t)handle_ptr->period_value + 1U;
10002c7c:	687b      	ldr	r3, [r7, #4]
10002c7e:	69db      	ldr	r3, [r3, #28]
10002c80:	3301      	adds	r3, #1
10002c82:	613b      	str	r3, [r7, #16]

      /* Duty Cycle(symmetric) = (PR-CR1)+1 / period */
      compare = ((period * (PWM_MAX_DUTY_CYCLE - duty_cycle)) / ((uint32_t) 100 * PWM_DUTY_CYCLE_SCALE));
10002c84:	683b      	ldr	r3, [r7, #0]
10002c86:	4a15      	ldr	r2, [pc, #84]	; (10002cdc <PWM_lCCU4_SetDutyCycle+0x84>)
10002c88:	1ad3      	subs	r3, r2, r3
10002c8a:	693a      	ldr	r2, [r7, #16]
10002c8c:	4353      	muls	r3, r2
10002c8e:	1c18      	adds	r0, r3, #0
10002c90:	4912      	ldr	r1, [pc, #72]	; (10002cdc <PWM_lCCU4_SetDutyCycle+0x84>)
10002c92:	f7ff fcc1 	bl	10002618 <__aeabi_uidiv>
10002c96:	1c03      	adds	r3, r0, #0
10002c98:	60fb      	str	r3, [r7, #12]

      handle_ptr->compare_value = compare;
10002c9a:	687b      	ldr	r3, [r7, #4]
10002c9c:	68fa      	ldr	r2, [r7, #12]
10002c9e:	619a      	str	r2, [r3, #24]
      handle_ptr->duty_cycle = duty_cycle;
10002ca0:	687b      	ldr	r3, [r7, #4]
10002ca2:	683a      	ldr	r2, [r7, #0]
10002ca4:	621a      	str	r2, [r3, #32]

      XMC_CCU4_SLICE_SetTimerCompareMatch(handle_ptr->ccu4_slice_ptr, (uint16_t)compare);
10002ca6:	687b      	ldr	r3, [r7, #4]
10002ca8:	689a      	ldr	r2, [r3, #8]
10002caa:	68fb      	ldr	r3, [r7, #12]
10002cac:	b29b      	uxth	r3, r3
10002cae:	1c10      	adds	r0, r2, #0
10002cb0:	1c19      	adds	r1, r3, #0
10002cb2:	f7ff fee1 	bl	10002a78 <XMC_CCU4_SLICE_SetTimerCompareMatch>
      XMC_CCU4_EnableShadowTransfer(handle_ptr->ccu4_kernel_ptr, handle_ptr->shadow_mask);
10002cb6:	687b      	ldr	r3, [r7, #4]
10002cb8:	685a      	ldr	r2, [r3, #4]
10002cba:	687b      	ldr	r3, [r7, #4]
10002cbc:	6a5b      	ldr	r3, [r3, #36]	; 0x24
10002cbe:	1c10      	adds	r0, r2, #0
10002cc0:	1c19      	adds	r1, r3, #0
10002cc2:	f7ff fee7 	bl	10002a94 <XMC_CCU4_EnableShadowTransfer>
      status = PWM_STATUS_SUCCESS;
10002cc6:	2317      	movs	r3, #23
10002cc8:	18fb      	adds	r3, r7, r3
10002cca:	2200      	movs	r2, #0
10002ccc:	701a      	strb	r2, [r3, #0]
    }
  }

  XMC_DEBUG("PWM_lCCU4_SetDutyCycle:dutycycle set")
  return (status);
10002cce:	2317      	movs	r3, #23
10002cd0:	18fb      	adds	r3, r7, r3
10002cd2:	781b      	ldrb	r3, [r3, #0]
} /* end of PWM_lCCU4_SetDutyCycle() api */
10002cd4:	1c18      	adds	r0, r3, #0
10002cd6:	46bd      	mov	sp, r7
10002cd8:	b006      	add	sp, #24
10002cda:	bd80      	pop	{r7, pc}
10002cdc:	00002710 	.word	0x00002710

10002ce0 <PWM_Init>:
}

/*~~~~~~~~~~~~~~~~~~~~~~~~~~~~~~~~~~~~~~~~~~~~~~~~~~~~~~~~~~~~~~~~~~~~~~~~~~~~~~~~~~~~~~~~~~~~~~~~~~~~~~~~~~~~~~~~~~*/
/* This function initializes the app */
PWM_STATUS_t PWM_Init(PWM_t *const handle_ptr)
{
10002ce0:	b590      	push	{r4, r7, lr}
10002ce2:	b085      	sub	sp, #20
10002ce4:	af00      	add	r7, sp, #0
10002ce6:	6078      	str	r0, [r7, #4]
  PWM_STATUS_t status;
  status = PWM_STATUS_FAILURE;
10002ce8:	230f      	movs	r3, #15
10002cea:	18fb      	adds	r3, r7, r3
10002cec:	2201      	movs	r2, #1
10002cee:	701a      	strb	r2, [r3, #0]

  XMC_ASSERT("PWM_Init:Invalid handle_ptr" , (handle_ptr != NULL));

#ifdef PWM_SLICE_USED_CCU4
  if (PWM_TIMER_SLICE_CCU4 == handle_ptr->timer_type)
10002cf0:	687b      	ldr	r3, [r7, #4]
10002cf2:	2228      	movs	r2, #40	; 0x28
10002cf4:	5c9b      	ldrb	r3, [r3, r2]
10002cf6:	2b00      	cmp	r3, #0
10002cf8:	d107      	bne.n	10002d0a <PWM_Init+0x2a>
  {
    status = PWM_lCCU4_Init(handle_ptr);
10002cfa:	230f      	movs	r3, #15
10002cfc:	18fc      	adds	r4, r7, r3
10002cfe:	687b      	ldr	r3, [r7, #4]
10002d00:	1c18      	adds	r0, r3, #0
10002d02:	f7ff fee9 	bl	10002ad8 <PWM_lCCU4_Init>
10002d06:	1c03      	adds	r3, r0, #0
10002d08:	7023      	strb	r3, [r4, #0]
  {
    status = PWM_lCCU8_Init(handle_ptr);
  }
#endif

  return (status);
10002d0a:	230f      	movs	r3, #15
10002d0c:	18fb      	adds	r3, r7, r3
10002d0e:	781b      	ldrb	r3, [r3, #0]
}
10002d10:	1c18      	adds	r0, r3, #0
10002d12:	46bd      	mov	sp, r7
10002d14:	b005      	add	sp, #20
10002d16:	bd90      	pop	{r4, r7, pc}

10002d18 <PWM_Start>:

/*~~~~~~~~~~~~~~~~~~~~~~~~~~~~~~~~~~~~~~~~~~~~~~~~~~~~~~~~~~~~~~~~~~~~~~~~~~~~~~~~~~~~~~~~~~~~~~~~~~~~~~~~~~~~~~~~~~*/
/* This function starts the PWM generation. This needs to be called even if external start is configured.*/
void PWM_Start(PWM_t *const handle_ptr)
{
10002d18:	b580      	push	{r7, lr}
10002d1a:	b082      	sub	sp, #8
10002d1c:	af00      	add	r7, sp, #0
10002d1e:	6078      	str	r0, [r7, #4]
  XMC_ASSERT("PWM_Start:Invalid handle_ptr" , (handle_ptr != NULL));

#ifdef PWM_SLICE_USED_CCU4
  if (PWM_TIMER_SLICE_CCU4 == handle_ptr->timer_type)
10002d20:	687b      	ldr	r3, [r7, #4]
10002d22:	2228      	movs	r2, #40	; 0x28
10002d24:	5c9b      	ldrb	r3, [r3, r2]
10002d26:	2b00      	cmp	r3, #0
10002d28:	d103      	bne.n	10002d32 <PWM_Start+0x1a>
  {
    PWM_lCCU4_Start(handle_ptr);
10002d2a:	687b      	ldr	r3, [r7, #4]
10002d2c:	1c18      	adds	r0, r3, #0
10002d2e:	f7ff ff6f 	bl	10002c10 <PWM_lCCU4_Start>
  if (PWM_TIMER_SLICE_CCU8 == handle_ptr->timer_type)
  {
    PWM_lCCU8_Start(handle_ptr);
  }
#endif
}
10002d32:	46bd      	mov	sp, r7
10002d34:	b002      	add	sp, #8
10002d36:	bd80      	pop	{r7, pc}

10002d38 <PWM_SetDutyCycle>:
}

/*~~~~~~~~~~~~~~~~~~~~~~~~~~~~~~~~~~~~~~~~~~~~~~~~~~~~~~~~~~~~~~~~~~~~~~~~~~~~~~~~~~~~~~~~~~~~~~~~~~~~~~~~~~~~~~~~~~*/
/*This function is used to set the duty cycle (uint32_t) of the PWM waveform  */
PWM_STATUS_t PWM_SetDutyCycle(PWM_t *const handle_ptr, uint32_t duty_cycle)
{
10002d38:	b590      	push	{r4, r7, lr}
10002d3a:	b085      	sub	sp, #20
10002d3c:	af00      	add	r7, sp, #0
10002d3e:	6078      	str	r0, [r7, #4]
10002d40:	6039      	str	r1, [r7, #0]
  PWM_STATUS_t status;
  status = PWM_STATUS_FAILURE;
10002d42:	230f      	movs	r3, #15
10002d44:	18fb      	adds	r3, r7, r3
10002d46:	2201      	movs	r2, #1
10002d48:	701a      	strb	r2, [r3, #0]

  XMC_ASSERT("PWM_SetDutyCycle:Invalid handle_ptr" , (handle_ptr != NULL));

#ifdef PWM_SLICE_USED_CCU4
  if (PWM_TIMER_SLICE_CCU4 == handle_ptr->timer_type)
10002d4a:	687b      	ldr	r3, [r7, #4]
10002d4c:	2228      	movs	r2, #40	; 0x28
10002d4e:	5c9b      	ldrb	r3, [r3, r2]
10002d50:	2b00      	cmp	r3, #0
10002d52:	d109      	bne.n	10002d68 <PWM_SetDutyCycle+0x30>
  {
    status = PWM_lCCU4_SetDutyCycle(handle_ptr, duty_cycle);
10002d54:	230f      	movs	r3, #15
10002d56:	18fc      	adds	r4, r7, r3
10002d58:	687a      	ldr	r2, [r7, #4]
10002d5a:	683b      	ldr	r3, [r7, #0]
10002d5c:	1c10      	adds	r0, r2, #0
10002d5e:	1c19      	adds	r1, r3, #0
10002d60:	f7ff ff7a 	bl	10002c58 <PWM_lCCU4_SetDutyCycle>
10002d64:	1c03      	adds	r3, r0, #0
10002d66:	7023      	strb	r3, [r4, #0]
  if (PWM_TIMER_SLICE_CCU8 == handle_ptr->timer_type)
  {
    status = PWM_lCCU8_SetDutyCycle(handle_ptr, duty_cycle);
  }
#endif
  return (status);
10002d68:	230f      	movs	r3, #15
10002d6a:	18fb      	adds	r3, r7, r3
10002d6c:	781b      	ldrb	r3, [r3, #0]
}
10002d6e:	1c18      	adds	r0, r3, #0
10002d70:	46bd      	mov	sp, r7
10002d72:	b005      	add	sp, #20
10002d74:	bd90      	pop	{r4, r7, pc}
10002d76:	46c0      	nop			; (mov r8, r8)

10002d78 <__NVIC_EnableIRQ>:
  \details Enables a device specific interrupt in the NVIC interrupt controller.
  \param [in]      IRQn  Device specific interrupt number.
  \note    IRQn must not be negative.
 */
__STATIC_INLINE void __NVIC_EnableIRQ(IRQn_Type IRQn)
{
10002d78:	b580      	push	{r7, lr}
10002d7a:	b082      	sub	sp, #8
10002d7c:	af00      	add	r7, sp, #0
10002d7e:	1c02      	adds	r2, r0, #0
10002d80:	1dfb      	adds	r3, r7, #7
10002d82:	701a      	strb	r2, [r3, #0]
  if ((int32_t)(IRQn) >= 0)
10002d84:	1dfb      	adds	r3, r7, #7
10002d86:	781b      	ldrb	r3, [r3, #0]
10002d88:	2b7f      	cmp	r3, #127	; 0x7f
10002d8a:	d809      	bhi.n	10002da0 <__NVIC_EnableIRQ+0x28>
  {
    __COMPILER_BARRIER();
    NVIC->ISER[0U] = (uint32_t)(1UL << (((uint32_t)IRQn) & 0x1FUL));
10002d8c:	4b06      	ldr	r3, [pc, #24]	; (10002da8 <__NVIC_EnableIRQ+0x30>)
10002d8e:	1dfa      	adds	r2, r7, #7
10002d90:	7812      	ldrb	r2, [r2, #0]
10002d92:	1c11      	adds	r1, r2, #0
10002d94:	221f      	movs	r2, #31
10002d96:	400a      	ands	r2, r1
10002d98:	2101      	movs	r1, #1
10002d9a:	4091      	lsls	r1, r2
10002d9c:	1c0a      	adds	r2, r1, #0
10002d9e:	601a      	str	r2, [r3, #0]
    __COMPILER_BARRIER();
  }
}
10002da0:	46bd      	mov	sp, r7
10002da2:	b002      	add	sp, #8
10002da4:	bd80      	pop	{r7, pc}
10002da6:	46c0      	nop			; (mov r8, r8)
10002da8:	e000e100 	.word	0xe000e100

10002dac <__NVIC_ClearPendingIRQ>:
  \details Clears the pending bit of a device specific interrupt in the NVIC pending register.
  \param [in]      IRQn  Device specific interrupt number.
  \note    IRQn must not be negative.
 */
__STATIC_INLINE void __NVIC_ClearPendingIRQ(IRQn_Type IRQn)
{
10002dac:	b580      	push	{r7, lr}
10002dae:	b082      	sub	sp, #8
10002db0:	af00      	add	r7, sp, #0
10002db2:	1c02      	adds	r2, r0, #0
10002db4:	1dfb      	adds	r3, r7, #7
10002db6:	701a      	strb	r2, [r3, #0]
  if ((int32_t)(IRQn) >= 0)
10002db8:	1dfb      	adds	r3, r7, #7
10002dba:	781b      	ldrb	r3, [r3, #0]
10002dbc:	2b7f      	cmp	r3, #127	; 0x7f
10002dbe:	d80a      	bhi.n	10002dd6 <__NVIC_ClearPendingIRQ+0x2a>
  {
    NVIC->ICPR[0U] = (uint32_t)(1UL << (((uint32_t)IRQn) & 0x1FUL));
10002dc0:	4906      	ldr	r1, [pc, #24]	; (10002ddc <__NVIC_ClearPendingIRQ+0x30>)
10002dc2:	1dfb      	adds	r3, r7, #7
10002dc4:	781b      	ldrb	r3, [r3, #0]
10002dc6:	1c1a      	adds	r2, r3, #0
10002dc8:	231f      	movs	r3, #31
10002dca:	4013      	ands	r3, r2
10002dcc:	2201      	movs	r2, #1
10002dce:	409a      	lsls	r2, r3
10002dd0:	23c0      	movs	r3, #192	; 0xc0
10002dd2:	005b      	lsls	r3, r3, #1
10002dd4:	50ca      	str	r2, [r1, r3]
  }
}
10002dd6:	46bd      	mov	sp, r7
10002dd8:	b002      	add	sp, #8
10002dda:	bd80      	pop	{r7, pc}
10002ddc:	e000e100 	.word	0xe000e100

10002de0 <__NVIC_SetPriority>:
  \param [in]      IRQn  Interrupt number.
  \param [in]  priority  Priority to set.
  \note    The priority cannot be set for every processor exception.
 */
__STATIC_INLINE void __NVIC_SetPriority(IRQn_Type IRQn, uint32_t priority)
{
10002de0:	b5b0      	push	{r4, r5, r7, lr}
10002de2:	b082      	sub	sp, #8
10002de4:	af00      	add	r7, sp, #0
10002de6:	1c02      	adds	r2, r0, #0
10002de8:	6039      	str	r1, [r7, #0]
10002dea:	1dfb      	adds	r3, r7, #7
10002dec:	701a      	strb	r2, [r3, #0]
  if ((int32_t)(IRQn) >= 0)
10002dee:	1dfb      	adds	r3, r7, #7
10002df0:	781b      	ldrb	r3, [r3, #0]
10002df2:	2b7f      	cmp	r3, #127	; 0x7f
10002df4:	d827      	bhi.n	10002e46 <__NVIC_SetPriority+0x66>
  {
    NVIC->IP[_IP_IDX(IRQn)]  = ((uint32_t)(NVIC->IP[_IP_IDX(IRQn)]  & ~(0xFFUL << _BIT_SHIFT(IRQn))) |
10002df6:	4c2d      	ldr	r4, [pc, #180]	; (10002eac <__NVIC_SetPriority+0xcc>)
10002df8:	1dfb      	adds	r3, r7, #7
10002dfa:	781b      	ldrb	r3, [r3, #0]
10002dfc:	b25b      	sxtb	r3, r3
10002dfe:	089b      	lsrs	r3, r3, #2
10002e00:	492a      	ldr	r1, [pc, #168]	; (10002eac <__NVIC_SetPriority+0xcc>)
10002e02:	1dfa      	adds	r2, r7, #7
10002e04:	7812      	ldrb	r2, [r2, #0]
10002e06:	b252      	sxtb	r2, r2
10002e08:	0892      	lsrs	r2, r2, #2
10002e0a:	32c0      	adds	r2, #192	; 0xc0
10002e0c:	0092      	lsls	r2, r2, #2
10002e0e:	5852      	ldr	r2, [r2, r1]
10002e10:	1df9      	adds	r1, r7, #7
10002e12:	7809      	ldrb	r1, [r1, #0]
10002e14:	1c08      	adds	r0, r1, #0
10002e16:	2103      	movs	r1, #3
10002e18:	4001      	ands	r1, r0
10002e1a:	00c9      	lsls	r1, r1, #3
10002e1c:	1c08      	adds	r0, r1, #0
10002e1e:	21ff      	movs	r1, #255	; 0xff
10002e20:	4081      	lsls	r1, r0
10002e22:	43c9      	mvns	r1, r1
10002e24:	4011      	ands	r1, r2
       (((priority << (8U - __NVIC_PRIO_BITS)) & (uint32_t)0xFFUL) << _BIT_SHIFT(IRQn)));
10002e26:	683a      	ldr	r2, [r7, #0]
10002e28:	0192      	lsls	r2, r2, #6
10002e2a:	20ff      	movs	r0, #255	; 0xff
10002e2c:	4002      	ands	r2, r0
10002e2e:	1df8      	adds	r0, r7, #7
10002e30:	7800      	ldrb	r0, [r0, #0]
10002e32:	1c05      	adds	r5, r0, #0
10002e34:	2003      	movs	r0, #3
10002e36:	4028      	ands	r0, r5
10002e38:	00c0      	lsls	r0, r0, #3
10002e3a:	4082      	lsls	r2, r0
 */
__STATIC_INLINE void __NVIC_SetPriority(IRQn_Type IRQn, uint32_t priority)
{
  if ((int32_t)(IRQn) >= 0)
  {
    NVIC->IP[_IP_IDX(IRQn)]  = ((uint32_t)(NVIC->IP[_IP_IDX(IRQn)]  & ~(0xFFUL << _BIT_SHIFT(IRQn))) |
10002e3c:	430a      	orrs	r2, r1
10002e3e:	33c0      	adds	r3, #192	; 0xc0
10002e40:	009b      	lsls	r3, r3, #2
10002e42:	511a      	str	r2, [r3, r4]
10002e44:	e02e      	b.n	10002ea4 <__NVIC_SetPriority+0xc4>
       (((priority << (8U - __NVIC_PRIO_BITS)) & (uint32_t)0xFFUL) << _BIT_SHIFT(IRQn)));
  }
  else
  {
    SCB->SHP[_SHP_IDX(IRQn)] = ((uint32_t)(SCB->SHP[_SHP_IDX(IRQn)] & ~(0xFFUL << _BIT_SHIFT(IRQn))) |
10002e46:	4c1a      	ldr	r4, [pc, #104]	; (10002eb0 <__NVIC_SetPriority+0xd0>)
10002e48:	1dfb      	adds	r3, r7, #7
10002e4a:	781b      	ldrb	r3, [r3, #0]
10002e4c:	1c1a      	adds	r2, r3, #0
10002e4e:	230f      	movs	r3, #15
10002e50:	4013      	ands	r3, r2
10002e52:	3b08      	subs	r3, #8
10002e54:	0899      	lsrs	r1, r3, #2
10002e56:	4a16      	ldr	r2, [pc, #88]	; (10002eb0 <__NVIC_SetPriority+0xd0>)
10002e58:	1dfb      	adds	r3, r7, #7
10002e5a:	781b      	ldrb	r3, [r3, #0]
10002e5c:	1c18      	adds	r0, r3, #0
10002e5e:	230f      	movs	r3, #15
10002e60:	4003      	ands	r3, r0
10002e62:	3b08      	subs	r3, #8
10002e64:	089b      	lsrs	r3, r3, #2
10002e66:	3306      	adds	r3, #6
10002e68:	009b      	lsls	r3, r3, #2
10002e6a:	18d3      	adds	r3, r2, r3
10002e6c:	685b      	ldr	r3, [r3, #4]
10002e6e:	1dfa      	adds	r2, r7, #7
10002e70:	7812      	ldrb	r2, [r2, #0]
10002e72:	1c10      	adds	r0, r2, #0
10002e74:	2203      	movs	r2, #3
10002e76:	4002      	ands	r2, r0
10002e78:	00d2      	lsls	r2, r2, #3
10002e7a:	1c10      	adds	r0, r2, #0
10002e7c:	22ff      	movs	r2, #255	; 0xff
10002e7e:	4082      	lsls	r2, r0
10002e80:	43d2      	mvns	r2, r2
10002e82:	401a      	ands	r2, r3
       (((priority << (8U - __NVIC_PRIO_BITS)) & (uint32_t)0xFFUL) << _BIT_SHIFT(IRQn)));
10002e84:	683b      	ldr	r3, [r7, #0]
10002e86:	019b      	lsls	r3, r3, #6
10002e88:	20ff      	movs	r0, #255	; 0xff
10002e8a:	4003      	ands	r3, r0
10002e8c:	1df8      	adds	r0, r7, #7
10002e8e:	7800      	ldrb	r0, [r0, #0]
10002e90:	1c05      	adds	r5, r0, #0
10002e92:	2003      	movs	r0, #3
10002e94:	4028      	ands	r0, r5
10002e96:	00c0      	lsls	r0, r0, #3
10002e98:	4083      	lsls	r3, r0
    NVIC->IP[_IP_IDX(IRQn)]  = ((uint32_t)(NVIC->IP[_IP_IDX(IRQn)]  & ~(0xFFUL << _BIT_SHIFT(IRQn))) |
       (((priority << (8U - __NVIC_PRIO_BITS)) & (uint32_t)0xFFUL) << _BIT_SHIFT(IRQn)));
  }
  else
  {
    SCB->SHP[_SHP_IDX(IRQn)] = ((uint32_t)(SCB->SHP[_SHP_IDX(IRQn)] & ~(0xFFUL << _BIT_SHIFT(IRQn))) |
10002e9a:	431a      	orrs	r2, r3
10002e9c:	1d8b      	adds	r3, r1, #6
10002e9e:	009b      	lsls	r3, r3, #2
10002ea0:	18e3      	adds	r3, r4, r3
10002ea2:	605a      	str	r2, [r3, #4]
       (((priority << (8U - __NVIC_PRIO_BITS)) & (uint32_t)0xFFUL) << _BIT_SHIFT(IRQn)));
  }
}
10002ea4:	46bd      	mov	sp, r7
10002ea6:	b002      	add	sp, #8
10002ea8:	bdb0      	pop	{r4, r5, r7, pc}
10002eaa:	46c0      	nop			; (mov r8, r8)
10002eac:	e000e100 	.word	0xe000e100
10002eb0:	e000ed00 	.word	0xe000ed00

10002eb4 <PIN_INTERRUPT_Init>:
/*
 * API to initialize the PIN_INTERRUPT APP ERU Event Trigger Logic, Output Gating Unit Hardware initialization
 * and NVIC node configuration.
 */
PIN_INTERRUPT_STATUS_t PIN_INTERRUPT_Init(const PIN_INTERRUPT_t *const handle)
{
10002eb4:	b580      	push	{r7, lr}
10002eb6:	b082      	sub	sp, #8
10002eb8:	af00      	add	r7, sp, #0
10002eba:	6078      	str	r0, [r7, #4]
  XMC_ASSERT("PIN_INTERRUPT_Init: PIN_INTERRUPT APP handle function pointer uninitialized", (handle != NULL));

  /* Initializes input pin characteristics */
  XMC_GPIO_Init(handle->port, handle->pin, &handle->gpio_config);
10002ebc:	687b      	ldr	r3, [r7, #4]
10002ebe:	6859      	ldr	r1, [r3, #4]
10002ec0:	687b      	ldr	r3, [r7, #4]
10002ec2:	7f9a      	ldrb	r2, [r3, #30]
10002ec4:	687b      	ldr	r3, [r7, #4]
10002ec6:	3308      	adds	r3, #8
10002ec8:	1c08      	adds	r0, r1, #0
10002eca:	1c11      	adds	r1, r2, #0
10002ecc:	1c1a      	adds	r2, r3, #0
10002ece:	f7fe f963 	bl	10001198 <XMC_GPIO_Init>
  /* ERU Event Trigger Logic Hardware initialization based on UI */
  XMC_ERU_ETL_Init(handle->eru, handle->etl, &handle->etl_config);
10002ed2:	687b      	ldr	r3, [r7, #4]
10002ed4:	6819      	ldr	r1, [r3, #0]
10002ed6:	687b      	ldr	r3, [r7, #4]
10002ed8:	7f1a      	ldrb	r2, [r3, #28]
10002eda:	687b      	ldr	r3, [r7, #4]
10002edc:	3310      	adds	r3, #16
10002ede:	1c08      	adds	r0, r1, #0
10002ee0:	1c11      	adds	r1, r2, #0
10002ee2:	1c1a      	adds	r2, r3, #0
10002ee4:	f7ff fb22 	bl	1000252c <XMC_ERU_ETL_Init>
  /* OGU is configured to generate event on configured trigger edge */
  XMC_ERU_OGU_SetServiceRequestMode(handle->eru, handle->ogu, XMC_ERU_OGU_SERVICE_REQUEST_ON_TRIGGER);
10002ee8:	687b      	ldr	r3, [r7, #4]
10002eea:	681a      	ldr	r2, [r3, #0]
10002eec:	687b      	ldr	r3, [r7, #4]
10002eee:	7f5b      	ldrb	r3, [r3, #29]
10002ef0:	1c10      	adds	r0, r2, #0
10002ef2:	1c19      	adds	r1, r3, #0
10002ef4:	2201      	movs	r2, #1
10002ef6:	f7ff fb47 	bl	10002588 <XMC_ERU_OGU_SetServiceRequestMode>
#if (UC_FAMILY == XMC1)
  /* Configure NVIC node and priority */
  NVIC_SetPriority((IRQn_Type)handle->IRQn, handle->irq_priority);
10002efa:	687b      	ldr	r3, [r7, #4]
10002efc:	7e9a      	ldrb	r2, [r3, #26]
10002efe:	687b      	ldr	r3, [r7, #4]
10002f00:	7edb      	ldrb	r3, [r3, #27]
10002f02:	1c19      	adds	r1, r3, #0
10002f04:	b253      	sxtb	r3, r2
10002f06:	1c18      	adds	r0, r3, #0
10002f08:	f7ff ff6a 	bl	10002de0 <__NVIC_SetPriority>
  /* Configure NVIC node, priority and subpriority */
  NVIC_SetPriority((IRQn_Type)handle->IRQn, NVIC_EncodePriority(NVIC_GetPriorityGrouping(),
                    handle->irq_priority, handle->irq_subpriority));
#endif
#if (UC_SERIES == XMC14)
  XMC_SCU_SetInterruptControl((IRQn_Type)handle->IRQn, (XMC_SCU_IRQCTRL_t)handle->irqctrl);
10002f0c:	687b      	ldr	r3, [r7, #4]
10002f0e:	7e9b      	ldrb	r3, [r3, #26]
10002f10:	b2da      	uxtb	r2, r3
10002f12:	687b      	ldr	r3, [r7, #4]
10002f14:	8b1b      	ldrh	r3, [r3, #24]
10002f16:	1c10      	adds	r0, r2, #0
10002f18:	1c19      	adds	r1, r3, #0
10002f1a:	f7fe fcbf 	bl	1000189c <XMC_SCU_SetInterruptControl>
#endif
  if (true == handle->enable_at_init)
10002f1e:	687b      	ldr	r3, [r7, #4]
10002f20:	7fdb      	ldrb	r3, [r3, #31]
10002f22:	2b00      	cmp	r3, #0
10002f24:	d00b      	beq.n	10002f3e <PIN_INTERRUPT_Init+0x8a>
  {
    /* Clear pending interrupt before enabling it */
    NVIC_ClearPendingIRQ((IRQn_Type)handle->IRQn);
10002f26:	687b      	ldr	r3, [r7, #4]
10002f28:	7e9b      	ldrb	r3, [r3, #26]
10002f2a:	b25b      	sxtb	r3, r3
10002f2c:	1c18      	adds	r0, r3, #0
10002f2e:	f7ff ff3d 	bl	10002dac <__NVIC_ClearPendingIRQ>
    /* Enable NVIC node */
    NVIC_EnableIRQ((IRQn_Type)handle->IRQn);
10002f32:	687b      	ldr	r3, [r7, #4]
10002f34:	7e9b      	ldrb	r3, [r3, #26]
10002f36:	b25b      	sxtb	r3, r3
10002f38:	1c18      	adds	r0, r3, #0
10002f3a:	f7ff ff1d 	bl	10002d78 <__NVIC_EnableIRQ>
  }
  return (PIN_INTERRUPT_STATUS_SUCCESS);
10002f3e:	2300      	movs	r3, #0
}
10002f40:	1c18      	adds	r0, r3, #0
10002f42:	46bd      	mov	sp, r7
10002f44:	b002      	add	sp, #8
10002f46:	bd80      	pop	{r7, pc}

10002f48 <__NVIC_EnableIRQ>:
  \details Enables a device specific interrupt in the NVIC interrupt controller.
  \param [in]      IRQn  Device specific interrupt number.
  \note    IRQn must not be negative.
 */
__STATIC_INLINE void __NVIC_EnableIRQ(IRQn_Type IRQn)
{
10002f48:	b580      	push	{r7, lr}
10002f4a:	b082      	sub	sp, #8
10002f4c:	af00      	add	r7, sp, #0
10002f4e:	1c02      	adds	r2, r0, #0
10002f50:	1dfb      	adds	r3, r7, #7
10002f52:	701a      	strb	r2, [r3, #0]
  if ((int32_t)(IRQn) >= 0)
10002f54:	1dfb      	adds	r3, r7, #7
10002f56:	781b      	ldrb	r3, [r3, #0]
10002f58:	2b7f      	cmp	r3, #127	; 0x7f
10002f5a:	d809      	bhi.n	10002f70 <__NVIC_EnableIRQ+0x28>
  {
    __COMPILER_BARRIER();
    NVIC->ISER[0U] = (uint32_t)(1UL << (((uint32_t)IRQn) & 0x1FUL));
10002f5c:	4b06      	ldr	r3, [pc, #24]	; (10002f78 <__NVIC_EnableIRQ+0x30>)
10002f5e:	1dfa      	adds	r2, r7, #7
10002f60:	7812      	ldrb	r2, [r2, #0]
10002f62:	1c11      	adds	r1, r2, #0
10002f64:	221f      	movs	r2, #31
10002f66:	400a      	ands	r2, r1
10002f68:	2101      	movs	r1, #1
10002f6a:	4091      	lsls	r1, r2
10002f6c:	1c0a      	adds	r2, r1, #0
10002f6e:	601a      	str	r2, [r3, #0]
    __COMPILER_BARRIER();
  }
}
10002f70:	46bd      	mov	sp, r7
10002f72:	b002      	add	sp, #8
10002f74:	bd80      	pop	{r7, pc}
10002f76:	46c0      	nop			; (mov r8, r8)
10002f78:	e000e100 	.word	0xe000e100

10002f7c <__NVIC_SetPriority>:
  \param [in]      IRQn  Interrupt number.
  \param [in]  priority  Priority to set.
  \note    The priority cannot be set for every processor exception.
 */
__STATIC_INLINE void __NVIC_SetPriority(IRQn_Type IRQn, uint32_t priority)
{
10002f7c:	b5b0      	push	{r4, r5, r7, lr}
10002f7e:	b082      	sub	sp, #8
10002f80:	af00      	add	r7, sp, #0
10002f82:	1c02      	adds	r2, r0, #0
10002f84:	6039      	str	r1, [r7, #0]
10002f86:	1dfb      	adds	r3, r7, #7
10002f88:	701a      	strb	r2, [r3, #0]
  if ((int32_t)(IRQn) >= 0)
10002f8a:	1dfb      	adds	r3, r7, #7
10002f8c:	781b      	ldrb	r3, [r3, #0]
10002f8e:	2b7f      	cmp	r3, #127	; 0x7f
10002f90:	d827      	bhi.n	10002fe2 <__NVIC_SetPriority+0x66>
  {
    NVIC->IP[_IP_IDX(IRQn)]  = ((uint32_t)(NVIC->IP[_IP_IDX(IRQn)]  & ~(0xFFUL << _BIT_SHIFT(IRQn))) |
10002f92:	4c2d      	ldr	r4, [pc, #180]	; (10003048 <__NVIC_SetPriority+0xcc>)
10002f94:	1dfb      	adds	r3, r7, #7
10002f96:	781b      	ldrb	r3, [r3, #0]
10002f98:	b25b      	sxtb	r3, r3
10002f9a:	089b      	lsrs	r3, r3, #2
10002f9c:	492a      	ldr	r1, [pc, #168]	; (10003048 <__NVIC_SetPriority+0xcc>)
10002f9e:	1dfa      	adds	r2, r7, #7
10002fa0:	7812      	ldrb	r2, [r2, #0]
10002fa2:	b252      	sxtb	r2, r2
10002fa4:	0892      	lsrs	r2, r2, #2
10002fa6:	32c0      	adds	r2, #192	; 0xc0
10002fa8:	0092      	lsls	r2, r2, #2
10002faa:	5852      	ldr	r2, [r2, r1]
10002fac:	1df9      	adds	r1, r7, #7
10002fae:	7809      	ldrb	r1, [r1, #0]
10002fb0:	1c08      	adds	r0, r1, #0
10002fb2:	2103      	movs	r1, #3
10002fb4:	4001      	ands	r1, r0
10002fb6:	00c9      	lsls	r1, r1, #3
10002fb8:	1c08      	adds	r0, r1, #0
10002fba:	21ff      	movs	r1, #255	; 0xff
10002fbc:	4081      	lsls	r1, r0
10002fbe:	43c9      	mvns	r1, r1
10002fc0:	4011      	ands	r1, r2
       (((priority << (8U - __NVIC_PRIO_BITS)) & (uint32_t)0xFFUL) << _BIT_SHIFT(IRQn)));
10002fc2:	683a      	ldr	r2, [r7, #0]
10002fc4:	0192      	lsls	r2, r2, #6
10002fc6:	20ff      	movs	r0, #255	; 0xff
10002fc8:	4002      	ands	r2, r0
10002fca:	1df8      	adds	r0, r7, #7
10002fcc:	7800      	ldrb	r0, [r0, #0]
10002fce:	1c05      	adds	r5, r0, #0
10002fd0:	2003      	movs	r0, #3
10002fd2:	4028      	ands	r0, r5
10002fd4:	00c0      	lsls	r0, r0, #3
10002fd6:	4082      	lsls	r2, r0
 */
__STATIC_INLINE void __NVIC_SetPriority(IRQn_Type IRQn, uint32_t priority)
{
  if ((int32_t)(IRQn) >= 0)
  {
    NVIC->IP[_IP_IDX(IRQn)]  = ((uint32_t)(NVIC->IP[_IP_IDX(IRQn)]  & ~(0xFFUL << _BIT_SHIFT(IRQn))) |
10002fd8:	430a      	orrs	r2, r1
10002fda:	33c0      	adds	r3, #192	; 0xc0
10002fdc:	009b      	lsls	r3, r3, #2
10002fde:	511a      	str	r2, [r3, r4]
10002fe0:	e02e      	b.n	10003040 <__NVIC_SetPriority+0xc4>
       (((priority << (8U - __NVIC_PRIO_BITS)) & (uint32_t)0xFFUL) << _BIT_SHIFT(IRQn)));
  }
  else
  {
    SCB->SHP[_SHP_IDX(IRQn)] = ((uint32_t)(SCB->SHP[_SHP_IDX(IRQn)] & ~(0xFFUL << _BIT_SHIFT(IRQn))) |
10002fe2:	4c1a      	ldr	r4, [pc, #104]	; (1000304c <__NVIC_SetPriority+0xd0>)
10002fe4:	1dfb      	adds	r3, r7, #7
10002fe6:	781b      	ldrb	r3, [r3, #0]
10002fe8:	1c1a      	adds	r2, r3, #0
10002fea:	230f      	movs	r3, #15
10002fec:	4013      	ands	r3, r2
10002fee:	3b08      	subs	r3, #8
10002ff0:	0899      	lsrs	r1, r3, #2
10002ff2:	4a16      	ldr	r2, [pc, #88]	; (1000304c <__NVIC_SetPriority+0xd0>)
10002ff4:	1dfb      	adds	r3, r7, #7
10002ff6:	781b      	ldrb	r3, [r3, #0]
10002ff8:	1c18      	adds	r0, r3, #0
10002ffa:	230f      	movs	r3, #15
10002ffc:	4003      	ands	r3, r0
10002ffe:	3b08      	subs	r3, #8
10003000:	089b      	lsrs	r3, r3, #2
10003002:	3306      	adds	r3, #6
10003004:	009b      	lsls	r3, r3, #2
10003006:	18d3      	adds	r3, r2, r3
10003008:	685b      	ldr	r3, [r3, #4]
1000300a:	1dfa      	adds	r2, r7, #7
1000300c:	7812      	ldrb	r2, [r2, #0]
1000300e:	1c10      	adds	r0, r2, #0
10003010:	2203      	movs	r2, #3
10003012:	4002      	ands	r2, r0
10003014:	00d2      	lsls	r2, r2, #3
10003016:	1c10      	adds	r0, r2, #0
10003018:	22ff      	movs	r2, #255	; 0xff
1000301a:	4082      	lsls	r2, r0
1000301c:	43d2      	mvns	r2, r2
1000301e:	401a      	ands	r2, r3
       (((priority << (8U - __NVIC_PRIO_BITS)) & (uint32_t)0xFFUL) << _BIT_SHIFT(IRQn)));
10003020:	683b      	ldr	r3, [r7, #0]
10003022:	019b      	lsls	r3, r3, #6
10003024:	20ff      	movs	r0, #255	; 0xff
10003026:	4003      	ands	r3, r0
10003028:	1df8      	adds	r0, r7, #7
1000302a:	7800      	ldrb	r0, [r0, #0]
1000302c:	1c05      	adds	r5, r0, #0
1000302e:	2003      	movs	r0, #3
10003030:	4028      	ands	r0, r5
10003032:	00c0      	lsls	r0, r0, #3
10003034:	4083      	lsls	r3, r0
    NVIC->IP[_IP_IDX(IRQn)]  = ((uint32_t)(NVIC->IP[_IP_IDX(IRQn)]  & ~(0xFFUL << _BIT_SHIFT(IRQn))) |
       (((priority << (8U - __NVIC_PRIO_BITS)) & (uint32_t)0xFFUL) << _BIT_SHIFT(IRQn)));
  }
  else
  {
    SCB->SHP[_SHP_IDX(IRQn)] = ((uint32_t)(SCB->SHP[_SHP_IDX(IRQn)] & ~(0xFFUL << _BIT_SHIFT(IRQn))) |
10003036:	431a      	orrs	r2, r3
10003038:	1d8b      	adds	r3, r1, #6
1000303a:	009b      	lsls	r3, r3, #2
1000303c:	18e3      	adds	r3, r4, r3
1000303e:	605a      	str	r2, [r3, #4]
       (((priority << (8U - __NVIC_PRIO_BITS)) & (uint32_t)0xFFUL) << _BIT_SHIFT(IRQn)));
  }
}
10003040:	46bd      	mov	sp, r7
10003042:	b002      	add	sp, #8
10003044:	bdb0      	pop	{r4, r5, r7, pc}
10003046:	46c0      	nop			; (mov r8, r8)
10003048:	e000e100 	.word	0xe000e100
1000304c:	e000ed00 	.word	0xe000ed00

10003050 <INTERRUPT_Enable>:
 *    return 0;
 *  }
 * @endcode<BR> </p>
 */
__STATIC_INLINE void INTERRUPT_Enable(const INTERRUPT_t *const handler)
{
10003050:	b580      	push	{r7, lr}
10003052:	b082      	sub	sp, #8
10003054:	af00      	add	r7, sp, #0
10003056:	6078      	str	r0, [r7, #4]
  XMC_ASSERT("Handler NULL", (handler != NULL));
  NVIC_EnableIRQ(handler->node);
10003058:	687b      	ldr	r3, [r7, #4]
1000305a:	789b      	ldrb	r3, [r3, #2]
1000305c:	b25b      	sxtb	r3, r3
1000305e:	1c18      	adds	r0, r3, #0
10003060:	f7ff ff72 	bl	10002f48 <__NVIC_EnableIRQ>
}
10003064:	46bd      	mov	sp, r7
10003066:	b002      	add	sp, #8
10003068:	bd80      	pop	{r7, pc}
1000306a:	46c0      	nop			; (mov r8, r8)

1000306c <INTERRUPT_Init>:

/*
 * API to initialize the INTERRUPT APP
 */
INTERRUPT_STATUS_t INTERRUPT_Init(const INTERRUPT_t *const handler)
{
1000306c:	b580      	push	{r7, lr}
1000306e:	b082      	sub	sp, #8
10003070:	af00      	add	r7, sp, #0
10003072:	6078      	str	r0, [r7, #4]
    INTERRUPT_Enable(handler);
  }
#endif

#if(UC_FAMILY == XMC1)
  NVIC_SetPriority(handler->node, handler->priority);
10003074:	687b      	ldr	r3, [r7, #4]
10003076:	789a      	ldrb	r2, [r3, #2]
10003078:	687b      	ldr	r3, [r7, #4]
1000307a:	78db      	ldrb	r3, [r3, #3]
1000307c:	1c19      	adds	r1, r3, #0
1000307e:	b253      	sxtb	r3, r2
10003080:	1c18      	adds	r0, r3, #0
10003082:	f7ff ff7b 	bl	10002f7c <__NVIC_SetPriority>
  
#if (UC_SERIES == XMC14)
  XMC_SCU_SetInterruptControl((uint8_t)handler->node, (XMC_SCU_IRQCTRL_t)((handler->node << 8) | handler->irqctrl));
10003086:	687b      	ldr	r3, [r7, #4]
10003088:	789b      	ldrb	r3, [r3, #2]
1000308a:	b2da      	uxtb	r2, r3
1000308c:	687b      	ldr	r3, [r7, #4]
1000308e:	789b      	ldrb	r3, [r3, #2]
10003090:	b25b      	sxtb	r3, r3
10003092:	021b      	lsls	r3, r3, #8
10003094:	b299      	uxth	r1, r3
10003096:	687b      	ldr	r3, [r7, #4]
10003098:	881b      	ldrh	r3, [r3, #0]
1000309a:	b29b      	uxth	r3, r3
1000309c:	430b      	orrs	r3, r1
1000309e:	b29b      	uxth	r3, r3
100030a0:	b29b      	uxth	r3, r3
100030a2:	1c10      	adds	r0, r2, #0
100030a4:	1c19      	adds	r1, r3, #0
100030a6:	f7fe fbf9 	bl	1000189c <XMC_SCU_SetInterruptControl>
#endif

  /* Enable the interrupt if enable_at_init is enabled */
  if (handler->enable_at_init == true)
100030aa:	687b      	ldr	r3, [r7, #4]
100030ac:	791b      	ldrb	r3, [r3, #4]
100030ae:	2b00      	cmp	r3, #0
100030b0:	d003      	beq.n	100030ba <INTERRUPT_Init+0x4e>
  {
    INTERRUPT_Enable(handler);
100030b2:	687b      	ldr	r3, [r7, #4]
100030b4:	1c18      	adds	r0, r3, #0
100030b6:	f7ff ffcb 	bl	10003050 <INTERRUPT_Enable>
  }
#endif

  return (INTERRUPT_STATUS_SUCCESS);
100030ba:	2300      	movs	r3, #0
}
100030bc:	1c18      	adds	r0, r3, #0
100030be:	46bd      	mov	sp, r7
100030c0:	b002      	add	sp, #8
100030c2:	bd80      	pop	{r7, pc}

100030c4 <__NVIC_EnableIRQ>:
  \details Enables a device specific interrupt in the NVIC interrupt controller.
  \param [in]      IRQn  Device specific interrupt number.
  \note    IRQn must not be negative.
 */
__STATIC_INLINE void __NVIC_EnableIRQ(IRQn_Type IRQn)
{
100030c4:	b580      	push	{r7, lr}
100030c6:	b082      	sub	sp, #8
100030c8:	af00      	add	r7, sp, #0
100030ca:	1c02      	adds	r2, r0, #0
100030cc:	1dfb      	adds	r3, r7, #7
100030ce:	701a      	strb	r2, [r3, #0]
  if ((int32_t)(IRQn) >= 0)
100030d0:	1dfb      	adds	r3, r7, #7
100030d2:	781b      	ldrb	r3, [r3, #0]
100030d4:	2b7f      	cmp	r3, #127	; 0x7f
100030d6:	d809      	bhi.n	100030ec <__NVIC_EnableIRQ+0x28>
  {
    __COMPILER_BARRIER();
    NVIC->ISER[0U] = (uint32_t)(1UL << (((uint32_t)IRQn) & 0x1FUL));
100030d8:	4b06      	ldr	r3, [pc, #24]	; (100030f4 <__NVIC_EnableIRQ+0x30>)
100030da:	1dfa      	adds	r2, r7, #7
100030dc:	7812      	ldrb	r2, [r2, #0]
100030de:	1c11      	adds	r1, r2, #0
100030e0:	221f      	movs	r2, #31
100030e2:	400a      	ands	r2, r1
100030e4:	2101      	movs	r1, #1
100030e6:	4091      	lsls	r1, r2
100030e8:	1c0a      	adds	r2, r1, #0
100030ea:	601a      	str	r2, [r3, #0]
    __COMPILER_BARRIER();
  }
}
100030ec:	46bd      	mov	sp, r7
100030ee:	b002      	add	sp, #8
100030f0:	bd80      	pop	{r7, pc}
100030f2:	46c0      	nop			; (mov r8, r8)
100030f4:	e000e100 	.word	0xe000e100

100030f8 <__NVIC_SetPriority>:
  \param [in]      IRQn  Interrupt number.
  \param [in]  priority  Priority to set.
  \note    The priority cannot be set for every processor exception.
 */
__STATIC_INLINE void __NVIC_SetPriority(IRQn_Type IRQn, uint32_t priority)
{
100030f8:	b5b0      	push	{r4, r5, r7, lr}
100030fa:	b082      	sub	sp, #8
100030fc:	af00      	add	r7, sp, #0
100030fe:	1c02      	adds	r2, r0, #0
10003100:	6039      	str	r1, [r7, #0]
10003102:	1dfb      	adds	r3, r7, #7
10003104:	701a      	strb	r2, [r3, #0]
  if ((int32_t)(IRQn) >= 0)
10003106:	1dfb      	adds	r3, r7, #7
10003108:	781b      	ldrb	r3, [r3, #0]
1000310a:	2b7f      	cmp	r3, #127	; 0x7f
1000310c:	d827      	bhi.n	1000315e <__NVIC_SetPriority+0x66>
  {
    NVIC->IP[_IP_IDX(IRQn)]  = ((uint32_t)(NVIC->IP[_IP_IDX(IRQn)]  & ~(0xFFUL << _BIT_SHIFT(IRQn))) |
1000310e:	4c2d      	ldr	r4, [pc, #180]	; (100031c4 <__NVIC_SetPriority+0xcc>)
10003110:	1dfb      	adds	r3, r7, #7
10003112:	781b      	ldrb	r3, [r3, #0]
10003114:	b25b      	sxtb	r3, r3
10003116:	089b      	lsrs	r3, r3, #2
10003118:	492a      	ldr	r1, [pc, #168]	; (100031c4 <__NVIC_SetPriority+0xcc>)
1000311a:	1dfa      	adds	r2, r7, #7
1000311c:	7812      	ldrb	r2, [r2, #0]
1000311e:	b252      	sxtb	r2, r2
10003120:	0892      	lsrs	r2, r2, #2
10003122:	32c0      	adds	r2, #192	; 0xc0
10003124:	0092      	lsls	r2, r2, #2
10003126:	5852      	ldr	r2, [r2, r1]
10003128:	1df9      	adds	r1, r7, #7
1000312a:	7809      	ldrb	r1, [r1, #0]
1000312c:	1c08      	adds	r0, r1, #0
1000312e:	2103      	movs	r1, #3
10003130:	4001      	ands	r1, r0
10003132:	00c9      	lsls	r1, r1, #3
10003134:	1c08      	adds	r0, r1, #0
10003136:	21ff      	movs	r1, #255	; 0xff
10003138:	4081      	lsls	r1, r0
1000313a:	43c9      	mvns	r1, r1
1000313c:	4011      	ands	r1, r2
       (((priority << (8U - __NVIC_PRIO_BITS)) & (uint32_t)0xFFUL) << _BIT_SHIFT(IRQn)));
1000313e:	683a      	ldr	r2, [r7, #0]
10003140:	0192      	lsls	r2, r2, #6
10003142:	20ff      	movs	r0, #255	; 0xff
10003144:	4002      	ands	r2, r0
10003146:	1df8      	adds	r0, r7, #7
10003148:	7800      	ldrb	r0, [r0, #0]
1000314a:	1c05      	adds	r5, r0, #0
1000314c:	2003      	movs	r0, #3
1000314e:	4028      	ands	r0, r5
10003150:	00c0      	lsls	r0, r0, #3
10003152:	4082      	lsls	r2, r0
 */
__STATIC_INLINE void __NVIC_SetPriority(IRQn_Type IRQn, uint32_t priority)
{
  if ((int32_t)(IRQn) >= 0)
  {
    NVIC->IP[_IP_IDX(IRQn)]  = ((uint32_t)(NVIC->IP[_IP_IDX(IRQn)]  & ~(0xFFUL << _BIT_SHIFT(IRQn))) |
10003154:	430a      	orrs	r2, r1
10003156:	33c0      	adds	r3, #192	; 0xc0
10003158:	009b      	lsls	r3, r3, #2
1000315a:	511a      	str	r2, [r3, r4]
1000315c:	e02e      	b.n	100031bc <__NVIC_SetPriority+0xc4>
       (((priority << (8U - __NVIC_PRIO_BITS)) & (uint32_t)0xFFUL) << _BIT_SHIFT(IRQn)));
  }
  else
  {
    SCB->SHP[_SHP_IDX(IRQn)] = ((uint32_t)(SCB->SHP[_SHP_IDX(IRQn)] & ~(0xFFUL << _BIT_SHIFT(IRQn))) |
1000315e:	4c1a      	ldr	r4, [pc, #104]	; (100031c8 <__NVIC_SetPriority+0xd0>)
10003160:	1dfb      	adds	r3, r7, #7
10003162:	781b      	ldrb	r3, [r3, #0]
10003164:	1c1a      	adds	r2, r3, #0
10003166:	230f      	movs	r3, #15
10003168:	4013      	ands	r3, r2
1000316a:	3b08      	subs	r3, #8
1000316c:	0899      	lsrs	r1, r3, #2
1000316e:	4a16      	ldr	r2, [pc, #88]	; (100031c8 <__NVIC_SetPriority+0xd0>)
10003170:	1dfb      	adds	r3, r7, #7
10003172:	781b      	ldrb	r3, [r3, #0]
10003174:	1c18      	adds	r0, r3, #0
10003176:	230f      	movs	r3, #15
10003178:	4003      	ands	r3, r0
1000317a:	3b08      	subs	r3, #8
1000317c:	089b      	lsrs	r3, r3, #2
1000317e:	3306      	adds	r3, #6
10003180:	009b      	lsls	r3, r3, #2
10003182:	18d3      	adds	r3, r2, r3
10003184:	685b      	ldr	r3, [r3, #4]
10003186:	1dfa      	adds	r2, r7, #7
10003188:	7812      	ldrb	r2, [r2, #0]
1000318a:	1c10      	adds	r0, r2, #0
1000318c:	2203      	movs	r2, #3
1000318e:	4002      	ands	r2, r0
10003190:	00d2      	lsls	r2, r2, #3
10003192:	1c10      	adds	r0, r2, #0
10003194:	22ff      	movs	r2, #255	; 0xff
10003196:	4082      	lsls	r2, r0
10003198:	43d2      	mvns	r2, r2
1000319a:	401a      	ands	r2, r3
       (((priority << (8U - __NVIC_PRIO_BITS)) & (uint32_t)0xFFUL) << _BIT_SHIFT(IRQn)));
1000319c:	683b      	ldr	r3, [r7, #0]
1000319e:	019b      	lsls	r3, r3, #6
100031a0:	20ff      	movs	r0, #255	; 0xff
100031a2:	4003      	ands	r3, r0
100031a4:	1df8      	adds	r0, r7, #7
100031a6:	7800      	ldrb	r0, [r0, #0]
100031a8:	1c05      	adds	r5, r0, #0
100031aa:	2003      	movs	r0, #3
100031ac:	4028      	ands	r0, r5
100031ae:	00c0      	lsls	r0, r0, #3
100031b0:	4083      	lsls	r3, r0
    NVIC->IP[_IP_IDX(IRQn)]  = ((uint32_t)(NVIC->IP[_IP_IDX(IRQn)]  & ~(0xFFUL << _BIT_SHIFT(IRQn))) |
       (((priority << (8U - __NVIC_PRIO_BITS)) & (uint32_t)0xFFUL) << _BIT_SHIFT(IRQn)));
  }
  else
  {
    SCB->SHP[_SHP_IDX(IRQn)] = ((uint32_t)(SCB->SHP[_SHP_IDX(IRQn)] & ~(0xFFUL << _BIT_SHIFT(IRQn))) |
100031b2:	431a      	orrs	r2, r3
100031b4:	1d8b      	adds	r3, r1, #6
100031b6:	009b      	lsls	r3, r3, #2
100031b8:	18e3      	adds	r3, r4, r3
100031ba:	605a      	str	r2, [r3, #4]
       (((priority << (8U - __NVIC_PRIO_BITS)) & (uint32_t)0xFFUL) << _BIT_SHIFT(IRQn)));
  }
}
100031bc:	46bd      	mov	sp, r7
100031be:	b002      	add	sp, #8
100031c0:	bdb0      	pop	{r4, r5, r7, pc}
100031c2:	46c0      	nop			; (mov r8, r8)
100031c4:	e000e100 	.word	0xe000e100
100031c8:	e000ed00 	.word	0xe000ed00

100031cc <GLOBAL_SCU_XMC1_Init>:

/*  Function to configure SCU Interrupts based on  user configuration.
 * 
 */
GLOBAL_SCU_XMC1_STATUS_t GLOBAL_SCU_XMC1_Init(GLOBAL_SCU_XMC1_t*const handle)
{
100031cc:	b580      	push	{r7, lr}
100031ce:	b084      	sub	sp, #16
100031d0:	af00      	add	r7, sp, #0
100031d2:	6078      	str	r0, [r7, #4]
  GLOBAL_SCU_XMC1_STATUS_t initstatus;

  XMC_ASSERT("GLOBAL_SCU_XMC1_Init: NULL handle", (handle != NULL));

  if (handle->initialized == false)
100031d4:	687b      	ldr	r3, [r7, #4]
100031d6:	791b      	ldrb	r3, [r3, #4]
100031d8:	2201      	movs	r2, #1
100031da:	4053      	eors	r3, r2
100031dc:	b2db      	uxtb	r3, r3
100031de:	2b00      	cmp	r3, #0
100031e0:	d044      	beq.n	1000326c <GLOBAL_SCU_XMC1_Init+0xa0>
  {
    NVIC_SetPriority((IRQn_Type)0U,(uint32_t)handle->config->priority[0]);
100031e2:	687b      	ldr	r3, [r7, #4]
100031e4:	681b      	ldr	r3, [r3, #0]
100031e6:	781b      	ldrb	r3, [r3, #0]
100031e8:	2000      	movs	r0, #0
100031ea:	1c19      	adds	r1, r3, #0
100031ec:	f7ff ff84 	bl	100030f8 <__NVIC_SetPriority>
  	NVIC_SetPriority((IRQn_Type)1U,(uint32_t)handle->config->priority[1]);
100031f0:	687b      	ldr	r3, [r7, #4]
100031f2:	681b      	ldr	r3, [r3, #0]
100031f4:	785b      	ldrb	r3, [r3, #1]
100031f6:	2001      	movs	r0, #1
100031f8:	1c19      	adds	r1, r3, #0
100031fa:	f7ff ff7d 	bl	100030f8 <__NVIC_SetPriority>
  	NVIC_SetPriority((IRQn_Type)2U,(uint32_t)handle->config->priority[2]);
100031fe:	687b      	ldr	r3, [r7, #4]
10003200:	681b      	ldr	r3, [r3, #0]
10003202:	789b      	ldrb	r3, [r3, #2]
10003204:	2002      	movs	r0, #2
10003206:	1c19      	adds	r1, r3, #0
10003208:	f7ff ff76 	bl	100030f8 <__NVIC_SetPriority>

  	/* enable the IRQ0 */
  	if (handle->config->enable_at_init[0] == true)
1000320c:	687b      	ldr	r3, [r7, #4]
1000320e:	681b      	ldr	r3, [r3, #0]
10003210:	78db      	ldrb	r3, [r3, #3]
10003212:	2b00      	cmp	r3, #0
10003214:	d006      	beq.n	10003224 <GLOBAL_SCU_XMC1_Init+0x58>
  	{
#if (UC_SERIES == XMC14)
  	  XMC_SCU_SetInterruptControl(0, XMC_SCU_IRQCTRL_SCU_SR0_IRQ0);
10003216:	2000      	movs	r0, #0
10003218:	2100      	movs	r1, #0
1000321a:	f7fe fb3f 	bl	1000189c <XMC_SCU_SetInterruptControl>
#endif
  	  NVIC_EnableIRQ((IRQn_Type)0U);
1000321e:	2000      	movs	r0, #0
10003220:	f7ff ff50 	bl	100030c4 <__NVIC_EnableIRQ>
  	}
  	/* enable the IRQ1 */
  	if (handle->config->enable_at_init[1] == true)
10003224:	687b      	ldr	r3, [r7, #4]
10003226:	681b      	ldr	r3, [r3, #0]
10003228:	791b      	ldrb	r3, [r3, #4]
1000322a:	2b00      	cmp	r3, #0
1000322c:	d008      	beq.n	10003240 <GLOBAL_SCU_XMC1_Init+0x74>
  	{
#if (UC_SERIES == XMC14)
  	  XMC_SCU_SetInterruptControl(1, XMC_SCU_IRQCTRL_SCU_SR1_IRQ1);
1000322e:	2380      	movs	r3, #128	; 0x80
10003230:	005b      	lsls	r3, r3, #1
10003232:	2001      	movs	r0, #1
10003234:	1c19      	adds	r1, r3, #0
10003236:	f7fe fb31 	bl	1000189c <XMC_SCU_SetInterruptControl>
#endif
  	  NVIC_EnableIRQ((IRQn_Type)1U);
1000323a:	2001      	movs	r0, #1
1000323c:	f7ff ff42 	bl	100030c4 <__NVIC_EnableIRQ>
  	}
  	/* enable the IRQ2 */
  	if (handle->config->enable_at_init[2] == true)
10003240:	687b      	ldr	r3, [r7, #4]
10003242:	681b      	ldr	r3, [r3, #0]
10003244:	795b      	ldrb	r3, [r3, #5]
10003246:	2b00      	cmp	r3, #0
10003248:	d008      	beq.n	1000325c <GLOBAL_SCU_XMC1_Init+0x90>
  	{
#if (UC_SERIES == XMC14)
  	  XMC_SCU_SetInterruptControl(2, XMC_SCU_IRQCTRL_SCU_SR2_IRQ2);
1000324a:	2380      	movs	r3, #128	; 0x80
1000324c:	009b      	lsls	r3, r3, #2
1000324e:	2002      	movs	r0, #2
10003250:	1c19      	adds	r1, r3, #0
10003252:	f7fe fb23 	bl	1000189c <XMC_SCU_SetInterruptControl>
#endif
      NVIC_EnableIRQ((IRQn_Type)2U);
10003256:	2002      	movs	r0, #2
10003258:	f7ff ff34 	bl	100030c4 <__NVIC_EnableIRQ>
  	}
	handle->initialized = true;
1000325c:	687b      	ldr	r3, [r7, #4]
1000325e:	2201      	movs	r2, #1
10003260:	711a      	strb	r2, [r3, #4]
    initstatus = GLOBAL_SCU_XMC1_STATUS_SUCCESS;
10003262:	230f      	movs	r3, #15
10003264:	18fb      	adds	r3, r7, r3
10003266:	2200      	movs	r2, #0
10003268:	701a      	strb	r2, [r3, #0]
1000326a:	e003      	b.n	10003274 <GLOBAL_SCU_XMC1_Init+0xa8>
  }
  else
  {
    initstatus = GLOBAL_SCU_XMC1_STATUS_FAILURE;
1000326c:	230f      	movs	r3, #15
1000326e:	18fb      	adds	r3, r7, r3
10003270:	2201      	movs	r2, #1
10003272:	701a      	strb	r2, [r3, #0]
  }
  	
  return (initstatus);
10003274:	230f      	movs	r3, #15
10003276:	18fb      	adds	r3, r7, r3
10003278:	781b      	ldrb	r3, [r3, #0]
}
1000327a:	1c18      	adds	r0, r3, #0
1000327c:	46bd      	mov	sp, r7
1000327e:	b004      	add	sp, #16
10003280:	bd80      	pop	{r7, pc}
10003282:	46c0      	nop			; (mov r8, r8)

10003284 <IRQ0_Handler>:
#else
/*
 * @brief  IRQ0 Interrupt Handler
 */
void IRQ0_Handler(void)
{
10003284:	b580      	push	{r7, lr}
10003286:	af00      	add	r7, sp, #0
  XMC_SCU_IRQHandler(0);
10003288:	2000      	movs	r0, #0
1000328a:	f7fe fa89 	bl	100017a0 <XMC_SCU_IRQHandler>
}
1000328e:	46bd      	mov	sp, r7
10003290:	bd80      	pop	{r7, pc}
10003292:	46c0      	nop			; (mov r8, r8)

10003294 <IRQ1_Handler>:

/*  IRQ1 Interrupt Handler.
 *
 */
void IRQ1_Handler(void)
{
10003294:	b580      	push	{r7, lr}
10003296:	af00      	add	r7, sp, #0
  XMC_SCU_IRQHandler(1);
10003298:	2001      	movs	r0, #1
1000329a:	f7fe fa81 	bl	100017a0 <XMC_SCU_IRQHandler>
}
1000329e:	46bd      	mov	sp, r7
100032a0:	bd80      	pop	{r7, pc}
100032a2:	46c0      	nop			; (mov r8, r8)

100032a4 <IRQ2_Handler>:

/*  IRQ2 Interrupt Handler.
 *
 */
void IRQ2_Handler(void)
{
100032a4:	b580      	push	{r7, lr}
100032a6:	af00      	add	r7, sp, #0
  XMC_SCU_IRQHandler(2);
100032a8:	2002      	movs	r0, #2
100032aa:	f7fe fa79 	bl	100017a0 <XMC_SCU_IRQHandler>
}
100032ae:	46bd      	mov	sp, r7
100032b0:	bd80      	pop	{r7, pc}
100032b2:	46c0      	nop			; (mov r8, r8)

100032b4 <GLOBAL_SCU_XMC1_RegisterCallback>:
/*
 * @brief  Function to register callback event
 */
GLOBAL_SCU_XMC1_STATUS_t GLOBAL_SCU_XMC1_RegisterCallback(const GLOBAL_SCU_XMC1_EVENT_t event,
                                                          const GLOBAL_SCU_XMC1_EVENT_HANDLER_t handler)
{
100032b4:	b5b0      	push	{r4, r5, r7, lr}
100032b6:	b086      	sub	sp, #24
100032b8:	af00      	add	r7, sp, #0
100032ba:	60b8      	str	r0, [r7, #8]
100032bc:	60f9      	str	r1, [r7, #12]
100032be:	607a      	str	r2, [r7, #4]
  GLOBAL_SCU_XMC1_STATUS_t status;

  XMC_ASSERT("GLOBAL_SCU_XMC1_RegisterCallback: Invalid event", (GLOBAL_SCU_XMC1_CHECK_EVENT(event)));
  XMC_ASSERT("GLOBAL_SCU_XMC1_RegisterCallback: NULL Handle", (handler != NULL));
  
  status = (GLOBAL_SCU_XMC1_STATUS_t)XMC_SCU_INTERRUPT_SetEventHandler(event, handler);
100032c0:	2317      	movs	r3, #23
100032c2:	18fd      	adds	r5, r7, r3
100032c4:	68bb      	ldr	r3, [r7, #8]
100032c6:	68fc      	ldr	r4, [r7, #12]
100032c8:	687a      	ldr	r2, [r7, #4]
100032ca:	1c18      	adds	r0, r3, #0
100032cc:	1c21      	adds	r1, r4, #0
100032ce:	f7fe fa1f 	bl	10001710 <XMC_SCU_INTERRUPT_SetEventHandler>
100032d2:	1c03      	adds	r3, r0, #0
100032d4:	702b      	strb	r3, [r5, #0]

  return (status);
100032d6:	2317      	movs	r3, #23
100032d8:	18fb      	adds	r3, r7, r3
100032da:	781b      	ldrb	r3, [r3, #0]
}
100032dc:	1c18      	adds	r0, r3, #0
100032de:	46bd      	mov	sp, r7
100032e0:	b006      	add	sp, #24
100032e2:	bdb0      	pop	{r4, r5, r7, pc}

100032e4 <XMC_CCU4_StartPrescaler>:
 * \par<b>Related APIs:</b><br>
 * XMC_CCU4_Init()<BR> XMC_CCU4_EnableClock()<BR> XMC_CCU4_DisableClock()<BR> XMC_CCU4_StartPrescaler()<BR>
 * XMC_CCU4_StopPrescaler().
 */
__STATIC_INLINE void XMC_CCU4_StartPrescaler(XMC_CCU4_MODULE_t *const module)
{
100032e4:	b580      	push	{r7, lr}
100032e6:	b082      	sub	sp, #8
100032e8:	af00      	add	r7, sp, #0
100032ea:	6078      	str	r0, [r7, #4]
  XMC_ASSERT("XMC_CCU4_StartPrescaler:Invalid Module Pointer", XMC_CCU4_IsValidModule(module));
  module->GIDLC = (uint32_t) CCU4_GIDLC_SPRB_Msk;
100032ec:	687b      	ldr	r3, [r7, #4]
100032ee:	2280      	movs	r2, #128	; 0x80
100032f0:	0052      	lsls	r2, r2, #1
100032f2:	60da      	str	r2, [r3, #12]
}
100032f4:	46bd      	mov	sp, r7
100032f6:	b002      	add	sp, #8
100032f8:	bd80      	pop	{r7, pc}
100032fa:	46c0      	nop			; (mov r8, r8)

100032fc <GLOBAL_CCU4_Init>:
  return version;
}

/* Initializes the slice with the generated configuration */
GLOBAL_CCU4_STATUS_t GLOBAL_CCU4_Init(GLOBAL_CCU4_t* handle)
{
100032fc:	b580      	push	{r7, lr}
100032fe:	b082      	sub	sp, #8
10003300:	af00      	add	r7, sp, #0
10003302:	6078      	str	r0, [r7, #4]
  XMC_ASSERT("GLOBAL_CCU4_Init:NULL handler", (NULL != handle));

  if (false == handle->is_initialized)
10003304:	687b      	ldr	r3, [r7, #4]
10003306:	7b5b      	ldrb	r3, [r3, #13]
10003308:	2201      	movs	r2, #1
1000330a:	4053      	eors	r3, r2
1000330c:	b2db      	uxtb	r3, r3
1000330e:	2b00      	cmp	r3, #0
10003310:	d00f      	beq.n	10003332 <GLOBAL_CCU4_Init+0x36>
  {
    /* Enable CCU4 module */
    XMC_CCU4_Init(handle->module_ptr,handle->mcs_action);
10003312:	687b      	ldr	r3, [r7, #4]
10003314:	689a      	ldr	r2, [r3, #8]
10003316:	687b      	ldr	r3, [r7, #4]
10003318:	7b1b      	ldrb	r3, [r3, #12]
1000331a:	1c10      	adds	r0, r2, #0
1000331c:	1c19      	adds	r1, r3, #0
1000331e:	f7fe ff6b 	bl	100021f8 <XMC_CCU4_Init>
    /* Start the prescaler */
    XMC_CCU4_StartPrescaler(handle->module_ptr);
10003322:	687b      	ldr	r3, [r7, #4]
10003324:	689b      	ldr	r3, [r3, #8]
10003326:	1c18      	adds	r0, r3, #0
10003328:	f7ff ffdc 	bl	100032e4 <XMC_CCU4_StartPrescaler>
    /* Restricts multiple initializations */
    handle->is_initialized = true;
1000332c:	687b      	ldr	r3, [r7, #4]
1000332e:	2201      	movs	r2, #1
10003330:	735a      	strb	r2, [r3, #13]
  }

  return (GLOBAL_CCU4_STATUS_SUCCESS);
10003332:	2300      	movs	r3, #0
}
10003334:	1c18      	adds	r0, r3, #0
10003336:	46bd      	mov	sp, r7
10003338:	b002      	add	sp, #8
1000333a:	bd80      	pop	{r7, pc}

1000333c <GLOBAL_CAN_Init>:
  return (version);
}

/*  Function to initialize the CAN Peripheral module clock.  */
GLOBAL_CAN_STATUS_t GLOBAL_CAN_Init(GLOBAL_CAN_t *handle)
{
1000333c:	b580      	push	{r7, lr}
1000333e:	b084      	sub	sp, #16
10003340:	af00      	add	r7, sp, #0
10003342:	6078      	str	r0, [r7, #4]
  GLOBAL_CAN_STATUS_t status = GLOBAL_CAN_STATUS_SUCCESS;
10003344:	230f      	movs	r3, #15
10003346:	18fb      	adds	r3, r7, r3
10003348:	2200      	movs	r2, #0
1000334a:	701a      	strb	r2, [r3, #0]

  XMC_ASSERT("GLOBAL_CAN_Init: handle null", handle != NULL);

  if (handle->init_status != true)
1000334c:	687b      	ldr	r3, [r7, #4]
1000334e:	7a5b      	ldrb	r3, [r3, #9]
10003350:	2201      	movs	r2, #1
10003352:	4053      	eors	r3, r2
10003354:	b2db      	uxtb	r3, r3
10003356:	2b00      	cmp	r3, #0
10003358:	d011      	beq.n	1000337e <GLOBAL_CAN_Init+0x42>
  {
#if defined(MULTICAN_PLUS)
    XMC_CAN_InitEx(handle->canglobal_ptr, (XMC_CAN_CANCLKSRC_t)handle->can_clock_src, handle->can_frequency);
1000335a:	687b      	ldr	r3, [r7, #4]
1000335c:	6859      	ldr	r1, [r3, #4]
1000335e:	687b      	ldr	r3, [r7, #4]
10003360:	7a1a      	ldrb	r2, [r3, #8]
10003362:	687b      	ldr	r3, [r7, #4]
10003364:	681b      	ldr	r3, [r3, #0]
10003366:	1c08      	adds	r0, r1, #0
10003368:	1c11      	adds	r1, r2, #0
1000336a:	1c1a      	adds	r2, r3, #0
1000336c:	f7fe fc86 	bl	10001c7c <XMC_CAN_InitEx>
#else
    XMC_CAN_InitEx(handle->canglobal_ptr, XMC_CAN_CANCLKSRC_FPERI, handle->can_frequency);
#endif
    handle->init_status = true;
10003370:	687b      	ldr	r3, [r7, #4]
10003372:	2201      	movs	r2, #1
10003374:	725a      	strb	r2, [r3, #9]
    status = GLOBAL_CAN_STATUS_SUCCESS;
10003376:	230f      	movs	r3, #15
10003378:	18fb      	adds	r3, r7, r3
1000337a:	2200      	movs	r2, #0
1000337c:	701a      	strb	r2, [r3, #0]
  }
  return (status);
1000337e:	230f      	movs	r3, #15
10003380:	18fb      	adds	r3, r7, r3
10003382:	781b      	ldrb	r3, [r3, #0]

}
10003384:	1c18      	adds	r0, r3, #0
10003386:	46bd      	mov	sp, r7
10003388:	b004      	add	sp, #16
1000338a:	bd80      	pop	{r7, pc}

1000338c <DIGITAL_IO_Init>:
* @param handler Pointer pointing to APP data structure.
* @return DIGITAL_IO_STATUS_t DIGITAL_IO APP status.
*/

DIGITAL_IO_STATUS_t DIGITAL_IO_Init(const DIGITAL_IO_t *const handler)
{
1000338c:	b580      	push	{r7, lr}
1000338e:	b082      	sub	sp, #8
10003390:	af00      	add	r7, sp, #0
10003392:	6078      	str	r0, [r7, #4]
  XMC_ASSERT("DIGITAL_IO_Init: handler null pointer", handler != NULL);

  /* Initializes input / output characteristics */
  XMC_GPIO_Init(handler->gpio_port, handler->gpio_pin, &handler->gpio_config);
10003394:	687b      	ldr	r3, [r7, #4]
10003396:	6819      	ldr	r1, [r3, #0]
10003398:	687b      	ldr	r3, [r7, #4]
1000339a:	7b1a      	ldrb	r2, [r3, #12]
1000339c:	687b      	ldr	r3, [r7, #4]
1000339e:	3304      	adds	r3, #4
100033a0:	1c08      	adds	r0, r1, #0
100033a2:	1c11      	adds	r1, r2, #0
100033a4:	1c1a      	adds	r2, r3, #0
100033a6:	f7fd fef7 	bl	10001198 <XMC_GPIO_Init>

  /*Configure hardware port control*/
  XMC_GPIO_SetHardwareControl(handler->gpio_port, handler->gpio_pin, handler->hwctrl);
100033aa:	687b      	ldr	r3, [r7, #4]
100033ac:	6819      	ldr	r1, [r3, #0]
100033ae:	687b      	ldr	r3, [r7, #4]
100033b0:	7b1a      	ldrb	r2, [r3, #12]
100033b2:	687b      	ldr	r3, [r7, #4]
100033b4:	7b5b      	ldrb	r3, [r3, #13]
100033b6:	1c08      	adds	r0, r1, #0
100033b8:	1c11      	adds	r1, r2, #0
100033ba:	1c1a      	adds	r2, r3, #0
100033bc:	f7ff f906 	bl	100025cc <XMC_GPIO_SetHardwareControl>

  return (DIGITAL_IO_STATUS_OK);
100033c0:	2300      	movs	r3, #0
}
100033c2:	1c18      	adds	r0, r3, #0
100033c4:	46bd      	mov	sp, r7
100033c6:	b002      	add	sp, #8
100033c8:	bd80      	pop	{r7, pc}
100033ca:	46c0      	nop			; (mov r8, r8)

100033cc <SystemCoreSetup>:
{
  .initialized = false
};
 
void SystemCoreSetup(void)
{
100033cc:	b580      	push	{r7, lr}
100033ce:	af00      	add	r7, sp, #0
#if UC_SERIES == XMC14
  /* Enable Prefetch unit */
  SCU_GENERAL->PFUCR &= ~SCU_GENERAL_PFUCR_PFUBYP_Msk;
100033d0:	4b03      	ldr	r3, [pc, #12]	; (100033e0 <SystemCoreSetup+0x14>)
100033d2:	4a03      	ldr	r2, [pc, #12]	; (100033e0 <SystemCoreSetup+0x14>)
100033d4:	6e92      	ldr	r2, [r2, #104]	; 0x68
100033d6:	2101      	movs	r1, #1
100033d8:	438a      	bics	r2, r1
100033da:	669a      	str	r2, [r3, #104]	; 0x68
#endif
}
100033dc:	46bd      	mov	sp, r7
100033de:	bd80      	pop	{r7, pc}
100033e0:	40010000 	.word	0x40010000

100033e4 <CLOCK_XMC1_Init>:

/*
 * API to initialize the CLOCK_XMC1 APP Interrupts
 */
CLOCK_XMC1_STATUS_t CLOCK_XMC1_Init(CLOCK_XMC1_t *handle)
{
100033e4:	b580      	push	{r7, lr}
100033e6:	b084      	sub	sp, #16
100033e8:	af00      	add	r7, sp, #0
100033ea:	6078      	str	r0, [r7, #4]
  CLOCK_XMC1_STATUS_t status = CLOCK_XMC1_STATUS_SUCCESS;
100033ec:	230f      	movs	r3, #15
100033ee:	18fb      	adds	r3, r7, r3
100033f0:	2200      	movs	r2, #0
100033f2:	701a      	strb	r2, [r3, #0]
  CLOCK_XMC1_STATUS_t loci_event_status = CLOCK_XMC1_STATUS_SUCCESS;
100033f4:	230e      	movs	r3, #14
100033f6:	18fb      	adds	r3, r7, r3
100033f8:	2200      	movs	r2, #0
100033fa:	701a      	strb	r2, [r3, #0]
  CLOCK_XMC1_STATUS_t stdbyclkfail_status = CLOCK_XMC1_STATUS_SUCCESS;
100033fc:	230d      	movs	r3, #13
100033fe:	18fb      	adds	r3, r7, r3
10003400:	2200      	movs	r2, #0
10003402:	701a      	strb	r2, [r3, #0]
  CLOCK_XMC1_STATUS_t loss_ext_clock_event_status = CLOCK_XMC1_STATUS_SUCCESS;
10003404:	230c      	movs	r3, #12
10003406:	18fb      	adds	r3, r7, r3
10003408:	2200      	movs	r2, #0
1000340a:	701a      	strb	r2, [r3, #0]
  CLOCK_XMC1_STATUS_t dco1_out_sync_status = CLOCK_XMC1_STATUS_SUCCESS;
1000340c:	230b      	movs	r3, #11
1000340e:	18fb      	adds	r3, r7, r3
10003410:	2200      	movs	r2, #0
10003412:	701a      	strb	r2, [r3, #0]

  XMC_ASSERT("CLOCK_XMC1_Init: CLOCK_XMC1 APP handle pointer uninitialized", (handle != NULL));

  if (handle->init_status == false)
10003414:	687b      	ldr	r3, [r7, #4]
10003416:	781b      	ldrb	r3, [r3, #0]
10003418:	2201      	movs	r2, #1
1000341a:	4053      	eors	r3, r2
1000341c:	b2db      	uxtb	r3, r3
1000341e:	2b00      	cmp	r3, #0
10003420:	d01b      	beq.n	1000345a <CLOCK_XMC1_Init+0x76>

#endif
    }

#endif
    status = (CLOCK_XMC1_STATUS_t)(((uint32_t)loci_event_status) | ((uint32_t)stdbyclkfail_status) |
10003422:	230e      	movs	r3, #14
10003424:	18fa      	adds	r2, r7, r3
10003426:	230d      	movs	r3, #13
10003428:	18fb      	adds	r3, r7, r3
1000342a:	7812      	ldrb	r2, [r2, #0]
1000342c:	781b      	ldrb	r3, [r3, #0]
1000342e:	4313      	orrs	r3, r2
10003430:	b2da      	uxtb	r2, r3
10003432:	230c      	movs	r3, #12
10003434:	18fb      	adds	r3, r7, r3
10003436:	781b      	ldrb	r3, [r3, #0]
10003438:	4313      	orrs	r3, r2
1000343a:	b2d9      	uxtb	r1, r3
1000343c:	230f      	movs	r3, #15
1000343e:	18fb      	adds	r3, r7, r3
10003440:	220b      	movs	r2, #11
10003442:	18ba      	adds	r2, r7, r2
10003444:	7812      	ldrb	r2, [r2, #0]
10003446:	430a      	orrs	r2, r1
10003448:	701a      	strb	r2, [r3, #0]
    		                       ((uint32_t)loss_ext_clock_event_status) | ((uint32_t)dco1_out_sync_status));
    if (CLOCK_XMC1_STATUS_SUCCESS == status)
1000344a:	230f      	movs	r3, #15
1000344c:	18fb      	adds	r3, r7, r3
1000344e:	781b      	ldrb	r3, [r3, #0]
10003450:	2b00      	cmp	r3, #0
10003452:	d102      	bne.n	1000345a <CLOCK_XMC1_Init+0x76>
    {
      handle->init_status = true;
10003454:	687b      	ldr	r3, [r7, #4]
10003456:	2201      	movs	r2, #1
10003458:	701a      	strb	r2, [r3, #0]
    }
  }
  return (status);
1000345a:	230f      	movs	r3, #15
1000345c:	18fb      	adds	r3, r7, r3
1000345e:	781b      	ldrb	r3, [r3, #0]
}
10003460:	1c18      	adds	r0, r3, #0
10003462:	46bd      	mov	sp, r7
10003464:	b004      	add	sp, #16
10003466:	bd80      	pop	{r7, pc}

10003468 <SystemCoreClockSetup>:

/**********************************************************************************************************************
* API IMPLEMENTATION
**********************************************************************************************************************/
void SystemCoreClockSetup(void)
{
10003468:	b590      	push	{r4, r7, lr}
1000346a:	b085      	sub	sp, #20
1000346c:	af00      	add	r7, sp, #0
/* LOCAL DATA STRUCTURES */
const XMC_SCU_CLOCK_CONFIG_t CLOCK_XMC1_0_CONFIG =
1000346e:	1c3b      	adds	r3, r7, #0
10003470:	4a05      	ldr	r2, [pc, #20]	; (10003488 <SystemCoreClockSetup+0x20>)
10003472:	ca13      	ldmia	r2!, {r0, r1, r4}
10003474:	c313      	stmia	r3!, {r0, r1, r4}
10003476:	6812      	ldr	r2, [r2, #0]
10003478:	601a      	str	r2, [r3, #0]
  .osclp_mode = XMC_SCU_CLOCK_OSCLP_MODE_DISABLED

};

  /* Configure FDIV, IDIV, PCLKSEL dividers*/
  XMC_SCU_CLOCK_Init(&CLOCK_XMC1_0_CONFIG);
1000347a:	1c3b      	adds	r3, r7, #0
1000347c:	1c18      	adds	r0, r3, #0
1000347e:	f7fd ffb9 	bl	100013f4 <XMC_SCU_CLOCK_Init>
}
10003482:	46bd      	mov	sp, r7
10003484:	b005      	add	sp, #20
10003486:	bd90      	pop	{r4, r7, pc}
10003488:	1000a878 	.word	0x1000a878

1000348c <XMC_CCU4_EnableClock>:
 *
 * \par<b>Related APIs:</b><br>
 * XMC_CCU4_DisableClock()<BR> XMC_CCU4_EnableMultipleClocks()<BR> XMC_CCU4_StartPrescaler()<BR> XMC_CCU4_StopPrescaler().
 */
__STATIC_INLINE void XMC_CCU4_EnableClock(XMC_CCU4_MODULE_t *const module, const uint8_t slice_number)
{
1000348c:	b580      	push	{r7, lr}
1000348e:	b082      	sub	sp, #8
10003490:	af00      	add	r7, sp, #0
10003492:	6078      	str	r0, [r7, #4]
10003494:	1c0a      	adds	r2, r1, #0
10003496:	1cfb      	adds	r3, r7, #3
10003498:	701a      	strb	r2, [r3, #0]
  XMC_ASSERT("XMC_CCU4_EnableClock:Invalid Module Pointer", XMC_CCU4_IsValidModule(module));
  XMC_ASSERT("XMC_CCU4_EnableClock:Invalid Slice Number", (slice_number < 4U));

  module->GIDLC = ((uint32_t) 1) << slice_number;
1000349a:	1cfb      	adds	r3, r7, #3
1000349c:	781b      	ldrb	r3, [r3, #0]
1000349e:	2201      	movs	r2, #1
100034a0:	409a      	lsls	r2, r3
100034a2:	687b      	ldr	r3, [r7, #4]
100034a4:	60da      	str	r2, [r3, #12]
}
100034a6:	46bd      	mov	sp, r7
100034a8:	b002      	add	sp, #8
100034aa:	bd80      	pop	{r7, pc}

100034ac <XMC_CCU4_SLICE_StartTimer>:
 *
 * \par<b>Related APIs:</b><br>
 *  XMC_CCU4_SLICE_StopTimer().
 */
__STATIC_INLINE void XMC_CCU4_SLICE_StartTimer(XMC_CCU4_SLICE_t *const slice)
{
100034ac:	b580      	push	{r7, lr}
100034ae:	b082      	sub	sp, #8
100034b0:	af00      	add	r7, sp, #0
100034b2:	6078      	str	r0, [r7, #4]
  XMC_ASSERT("XMC_CCU4_SLICE_StartTimer:Invalid Slice Pointer", XMC_CCU4_IsValidSlice(slice));
  slice->TCSET = CCU4_CC4_TCSET_TRBS_Msk;
100034b4:	687b      	ldr	r3, [r7, #4]
100034b6:	2201      	movs	r2, #1
100034b8:	60da      	str	r2, [r3, #12]
}
100034ba:	46bd      	mov	sp, r7
100034bc:	b002      	add	sp, #8
100034be:	bd80      	pop	{r7, pc}

100034c0 <XMC_CCU4_SLICE_ClearTimer>:
 *
 * \par<b>Related APIs:</b><br>
 *  XMC_CCU4_SLICE_StartTimer().
 */
__STATIC_INLINE void XMC_CCU4_SLICE_ClearTimer(XMC_CCU4_SLICE_t *const slice)
{
100034c0:	b580      	push	{r7, lr}
100034c2:	b082      	sub	sp, #8
100034c4:	af00      	add	r7, sp, #0
100034c6:	6078      	str	r0, [r7, #4]
  XMC_ASSERT("XMC_CCU4_SLICE_ClearTimer:Invalid Slice Pointer", XMC_CCU4_IsValidSlice(slice));
  slice->TCCLR = (uint32_t) CCU4_CC4_TCCLR_TCC_Msk;
100034c8:	687b      	ldr	r3, [r7, #4]
100034ca:	2202      	movs	r2, #2
100034cc:	611a      	str	r2, [r3, #16]
}
100034ce:	46bd      	mov	sp, r7
100034d0:	b002      	add	sp, #8
100034d2:	bd80      	pop	{r7, pc}

100034d4 <XMC_CCU4_SLICE_SetTimerPeriodMatch>:
 *
 * \par<b>Related APIs:</b><br>
 *  XMC_CCU4_SLICE_GetTimerPeriodMatch().
 */
__STATIC_INLINE void XMC_CCU4_SLICE_SetTimerPeriodMatch(XMC_CCU4_SLICE_t *const slice, const uint16_t period_val)
{
100034d4:	b580      	push	{r7, lr}
100034d6:	b082      	sub	sp, #8
100034d8:	af00      	add	r7, sp, #0
100034da:	6078      	str	r0, [r7, #4]
100034dc:	1c0a      	adds	r2, r1, #0
100034de:	1cbb      	adds	r3, r7, #2
100034e0:	801a      	strh	r2, [r3, #0]
  XMC_ASSERT("XMC_CCU4_SLICE_SetTimerPeriodMatch:Invalid Slice Pointer", XMC_CCU4_IsValidSlice(slice));
  slice->PRS = (uint32_t) period_val;
100034e2:	1cbb      	adds	r3, r7, #2
100034e4:	881a      	ldrh	r2, [r3, #0]
100034e6:	687b      	ldr	r3, [r7, #4]
100034e8:	635a      	str	r2, [r3, #52]	; 0x34
}
100034ea:	46bd      	mov	sp, r7
100034ec:	b002      	add	sp, #8
100034ee:	bd80      	pop	{r7, pc}

100034f0 <XMC_CCU4_SLICE_SetTimerCompareMatch>:
 *
 * \par<b>Related APIs:</b><br>
 *  XMC_CCU4_SLICE_GetTimerPeriodMatch().
 */
__STATIC_INLINE void XMC_CCU4_SLICE_SetTimerCompareMatch(XMC_CCU4_SLICE_t *const slice, const uint16_t compare_val)
{
100034f0:	b580      	push	{r7, lr}
100034f2:	b082      	sub	sp, #8
100034f4:	af00      	add	r7, sp, #0
100034f6:	6078      	str	r0, [r7, #4]
100034f8:	1c0a      	adds	r2, r1, #0
100034fa:	1cbb      	adds	r3, r7, #2
100034fc:	801a      	strh	r2, [r3, #0]
  XMC_ASSERT("XMC_CCU4_SLICE_SetTimerCompareMatch:Invalid Slice Pointer", XMC_CCU4_IsValidSlice(slice));
  slice->CRS = (uint32_t) compare_val;
100034fe:	1cbb      	adds	r3, r7, #2
10003500:	881a      	ldrh	r2, [r3, #0]
10003502:	687b      	ldr	r3, [r7, #4]
10003504:	63da      	str	r2, [r3, #60]	; 0x3c
}
10003506:	46bd      	mov	sp, r7
10003508:	b002      	add	sp, #8
1000350a:	bd80      	pop	{r7, pc}

1000350c <XMC_CCU4_EnableShadowTransfer>:
 *
 * \par<b>Related APIs:</b><br>
 *  None.
 */
__STATIC_INLINE void XMC_CCU4_EnableShadowTransfer(XMC_CCU4_MODULE_t *const module, const uint32_t shadow_transfer_msk)
{
1000350c:	b580      	push	{r7, lr}
1000350e:	b082      	sub	sp, #8
10003510:	af00      	add	r7, sp, #0
10003512:	6078      	str	r0, [r7, #4]
10003514:	6039      	str	r1, [r7, #0]
  XMC_ASSERT("XMC_CCU4_EnableShadowTransfer:Invalid Slice Pointer", XMC_CCU4_IsValidModule(module));
  module->GCSS = (uint32_t)shadow_transfer_msk;
10003516:	687b      	ldr	r3, [r7, #4]
10003518:	683a      	ldr	r2, [r7, #0]
1000351a:	611a      	str	r2, [r3, #16]
}
1000351c:	46bd      	mov	sp, r7
1000351e:	b002      	add	sp, #8
10003520:	bd80      	pop	{r7, pc}
10003522:	46c0      	nop			; (mov r8, r8)

10003524 <CAPTURE_Init>:
  return version;
}

/* This function initializes a capture APP based on user configuration. */
CAPTURE_STATUS_t CAPTURE_Init(CAPTURE_t *const handler)
{
10003524:	b590      	push	{r4, r7, lr}
10003526:	b085      	sub	sp, #20
10003528:	af00      	add	r7, sp, #0
1000352a:	6078      	str	r0, [r7, #4]
  CAPTURE_STATUS_t status;

  XMC_ASSERT ("CAPTURE_Init:handler NULL", (handler != NULL));

  status = CAPTURE_STATUS_SUCCESS;
1000352c:	230f      	movs	r3, #15
1000352e:	18fb      	adds	r3, r7, r3
10003530:	2200      	movs	r2, #0
10003532:	701a      	strb	r2, [r3, #0]
  /* Check for APP instance is initialized or not */
  if (false == handler->initialized)
10003534:	687b      	ldr	r3, [r7, #4]
10003536:	2231      	movs	r2, #49	; 0x31
10003538:	5c9b      	ldrb	r3, [r3, r2]
1000353a:	2201      	movs	r2, #1
1000353c:	4053      	eors	r3, r2
1000353e:	b2db      	uxtb	r3, r3
10003540:	2b00      	cmp	r3, #0
10003542:	d038      	beq.n	100035b6 <CAPTURE_Init+0x92>
  {
#ifdef CAPTURE_CCU4_USED
    if (CAPTURE_MODULE_CCU4 == handler->capture_module)
10003544:	687b      	ldr	r3, [r7, #4]
10003546:	222d      	movs	r2, #45	; 0x2d
10003548:	5c9b      	ldrb	r3, [r3, r2]
1000354a:	2b00      	cmp	r3, #0
1000354c:	d111      	bne.n	10003572 <CAPTURE_Init+0x4e>
    {
      status = (CAPTURE_STATUS_t) GLOBAL_CCU4_Init (handler->global_ccu4_handler);
1000354e:	687b      	ldr	r3, [r7, #4]
10003550:	695b      	ldr	r3, [r3, #20]
10003552:	220f      	movs	r2, #15
10003554:	18bc      	adds	r4, r7, r2
10003556:	1c18      	adds	r0, r3, #0
10003558:	f7ff fed0 	bl	100032fc <GLOBAL_CCU4_Init>
1000355c:	1c03      	adds	r3, r0, #0
1000355e:	7023      	strb	r3, [r4, #0]
      if (status == CAPTURE_STATUS_SUCCESS)
10003560:	230f      	movs	r3, #15
10003562:	18fb      	adds	r3, r7, r3
10003564:	781b      	ldrb	r3, [r3, #0]
10003566:	2b00      	cmp	r3, #0
10003568:	d103      	bne.n	10003572 <CAPTURE_Init+0x4e>
      {
        /* Configure CCU4 capture for the required time tick settings */
        CAPTURE_CCU4_lInit (handler);
1000356a:	687b      	ldr	r3, [r7, #4]
1000356c:	1c18      	adds	r0, r3, #0
1000356e:	f000 f8fb 	bl	10003768 <CAPTURE_CCU4_lInit>
      }
    }
#endif

#ifdef CAPTURE_GPIO_USED
    if (handler->input != NULL)
10003572:	687b      	ldr	r3, [r7, #4]
10003574:	6a5b      	ldr	r3, [r3, #36]	; 0x24
10003576:	2b00      	cmp	r3, #0
10003578:	d00c      	beq.n	10003594 <CAPTURE_Init+0x70>
    {
      XMC_GPIO_Init (handler->input->port, handler->input->pin, handler->input_pin_config);
1000357a:	687b      	ldr	r3, [r7, #4]
1000357c:	6a5b      	ldr	r3, [r3, #36]	; 0x24
1000357e:	6819      	ldr	r1, [r3, #0]
10003580:	687b      	ldr	r3, [r7, #4]
10003582:	6a5b      	ldr	r3, [r3, #36]	; 0x24
10003584:	791a      	ldrb	r2, [r3, #4]
10003586:	687b      	ldr	r3, [r7, #4]
10003588:	6a9b      	ldr	r3, [r3, #40]	; 0x28
1000358a:	1c08      	adds	r0, r1, #0
1000358c:	1c11      	adds	r1, r2, #0
1000358e:	1c1a      	adds	r2, r3, #0
10003590:	f7fd fe02 	bl	10001198 <XMC_GPIO_Init>

    }
#endif

    /* update the initialization flag as true for particular instance. */
    handler->initialized = true;
10003594:	687b      	ldr	r3, [r7, #4]
10003596:	2231      	movs	r2, #49	; 0x31
10003598:	2101      	movs	r1, #1
1000359a:	5499      	strb	r1, [r3, r2]

    /* Check whether the start of the timer is enabled during initialization or not */
    if (handler->start_control == true)
1000359c:	687b      	ldr	r3, [r7, #4]
1000359e:	222f      	movs	r2, #47	; 0x2f
100035a0:	5c9b      	ldrb	r3, [r3, r2]
100035a2:	2b00      	cmp	r3, #0
100035a4:	d007      	beq.n	100035b6 <CAPTURE_Init+0x92>
    {
      status = CAPTURE_Start(handler);
100035a6:	230f      	movs	r3, #15
100035a8:	18fc      	adds	r4, r7, r3
100035aa:	687b      	ldr	r3, [r7, #4]
100035ac:	1c18      	adds	r0, r3, #0
100035ae:	f000 f809 	bl	100035c4 <CAPTURE_Start>
100035b2:	1c03      	adds	r3, r0, #0
100035b4:	7023      	strb	r3, [r4, #0]
    }
  }

  return (status);
100035b6:	230f      	movs	r3, #15
100035b8:	18fb      	adds	r3, r7, r3
100035ba:	781b      	ldrb	r3, [r3, #0]
}
100035bc:	1c18      	adds	r0, r3, #0
100035be:	46bd      	mov	sp, r7
100035c0:	b005      	add	sp, #20
100035c2:	bd90      	pop	{r4, r7, pc}

100035c4 <CAPTURE_Start>:

/* This function starts the capture timer. */
CAPTURE_STATUS_t CAPTURE_Start(const CAPTURE_t *const handler)
{
100035c4:	b580      	push	{r7, lr}
100035c6:	b084      	sub	sp, #16
100035c8:	af00      	add	r7, sp, #0
100035ca:	6078      	str	r0, [r7, #4]
  CAPTURE_STATUS_t status;

  XMC_ASSERT ("CAPTURE_Start:handler NULL", (handler != NULL));

  /* Check for APP instance is initialized or not */
  if (true == handler->initialized)
100035cc:	687b      	ldr	r3, [r7, #4]
100035ce:	2231      	movs	r2, #49	; 0x31
100035d0:	5c9b      	ldrb	r3, [r3, r2]
100035d2:	2b00      	cmp	r3, #0
100035d4:	d020      	beq.n	10003618 <CAPTURE_Start+0x54>
  {
#ifdef CAPTURE_CCU4_USED
    if (CAPTURE_MODULE_CCU4 == handler->capture_module)
100035d6:	687b      	ldr	r3, [r7, #4]
100035d8:	222d      	movs	r2, #45	; 0x2d
100035da:	5c9b      	ldrb	r3, [r3, r2]
100035dc:	2b00      	cmp	r3, #0
100035de:	d116      	bne.n	1000360e <CAPTURE_Start+0x4a>
    {
      (void)handler->ccu4_slice_ptr->CV[0];
100035e0:	687b      	ldr	r3, [r7, #4]
100035e2:	699b      	ldr	r3, [r3, #24]
100035e4:	6f5b      	ldr	r3, [r3, #116]	; 0x74
      (void)handler->ccu4_slice_ptr->CV[1];
100035e6:	687b      	ldr	r3, [r7, #4]
100035e8:	699b      	ldr	r3, [r3, #24]
100035ea:	6f9b      	ldr	r3, [r3, #120]	; 0x78
      (void)handler->ccu4_slice_ptr->CV[2];
100035ec:	687b      	ldr	r3, [r7, #4]
100035ee:	699b      	ldr	r3, [r3, #24]
100035f0:	6fdb      	ldr	r3, [r3, #124]	; 0x7c
      (void)handler->ccu4_slice_ptr->CV[3];
100035f2:	687b      	ldr	r3, [r7, #4]
100035f4:	699b      	ldr	r3, [r3, #24]
100035f6:	2280      	movs	r2, #128	; 0x80
100035f8:	589b      	ldr	r3, [r3, r2]

      /* Start the capture manually */
      XMC_CCU4_SLICE_ClearTimer (handler->ccu4_slice_ptr);
100035fa:	687b      	ldr	r3, [r7, #4]
100035fc:	699b      	ldr	r3, [r3, #24]
100035fe:	1c18      	adds	r0, r3, #0
10003600:	f7ff ff5e 	bl	100034c0 <XMC_CCU4_SLICE_ClearTimer>
      /* Start the capture manually */
      XMC_CCU4_SLICE_StartTimer (handler->ccu4_slice_ptr);
10003604:	687b      	ldr	r3, [r7, #4]
10003606:	699b      	ldr	r3, [r3, #24]
10003608:	1c18      	adds	r0, r3, #0
1000360a:	f7ff ff4f 	bl	100034ac <XMC_CCU4_SLICE_StartTimer>
      XMC_CCU8_SLICE_ClearTimer (handler->ccu8_slice_ptr);
      /* Start the capture manually */
      XMC_CCU8_SLICE_StartTimer (handler->ccu8_slice_ptr);
    }
#endif
    status = CAPTURE_STATUS_SUCCESS;
1000360e:	230f      	movs	r3, #15
10003610:	18fb      	adds	r3, r7, r3
10003612:	2200      	movs	r2, #0
10003614:	701a      	strb	r2, [r3, #0]
10003616:	e003      	b.n	10003620 <CAPTURE_Start+0x5c>
    }
#endif
  }
  else
  {
    status = CAPTURE_STATUS_FAILURE;
10003618:	230f      	movs	r3, #15
1000361a:	18fb      	adds	r3, r7, r3
1000361c:	2201      	movs	r2, #1
1000361e:	701a      	strb	r2, [r3, #0]
  }

  return (status);
10003620:	230f      	movs	r3, #15
10003622:	18fb      	adds	r3, r7, r3
10003624:	781b      	ldrb	r3, [r3, #0]
}
10003626:	1c18      	adds	r0, r3, #0
10003628:	46bd      	mov	sp, r7
1000362a:	b004      	add	sp, #16
1000362c:	bd80      	pop	{r7, pc}
1000362e:	46c0      	nop			; (mov r8, r8)

10003630 <CAPTURE_GetCapturedTimeInNanoSec>:
  return (status);
}


CAPTURE_STATUS_t CAPTURE_GetCapturedTimeInNanoSec(const CAPTURE_t *const handler, uint32_t *const captured_time)
{
10003630:	b590      	push	{r4, r7, lr}
10003632:	b087      	sub	sp, #28
10003634:	af00      	add	r7, sp, #0
10003636:	6078      	str	r0, [r7, #4]
10003638:	6039      	str	r1, [r7, #0]
  CAPTURE_STATUS_t status = CAPTURE_STATUS_SUCCESS;
1000363a:	2317      	movs	r3, #23
1000363c:	18fb      	adds	r3, r7, r3
1000363e:	2200      	movs	r2, #0
10003640:	701a      	strb	r2, [r3, #0]
  CAPTURE_STATUS_t status1 = CAPTURE_STATUS_SUCCESS;
10003642:	2316      	movs	r3, #22
10003644:	18fb      	adds	r3, r7, r3
10003646:	2200      	movs	r2, #0
10003648:	701a      	strb	r2, [r3, #0]

  XMC_ASSERT ("CAPTURE_GetCapturedTimeInNanoSec:handler NULL", (handler != NULL));
  XMC_ASSERT ("CAPTURE_GetCapturedTimeInNanoSec:NULL data pointer", (captured_time != NULL));

  /* Check for APP instance is initialized or not */
  if (true == handler->initialized)
1000364a:	687b      	ldr	r3, [r7, #4]
1000364c:	2231      	movs	r2, #49	; 0x31
1000364e:	5c9b      	ldrb	r3, [r3, r2]
10003650:	2b00      	cmp	r3, #0
10003652:	d100      	bne.n	10003656 <CAPTURE_GetCapturedTimeInNanoSec+0x26>
10003654:	e07c      	b.n	10003750 <CAPTURE_GetCapturedTimeInNanoSec+0x120>
  {
#ifdef CAPTURE_CCU4_USED
    if (CAPTURE_MODULE_CCU4 == handler->capture_module)
10003656:	687b      	ldr	r3, [r7, #4]
10003658:	222d      	movs	r2, #45	; 0x2d
1000365a:	5c9b      	ldrb	r3, [r3, r2]
1000365c:	2b00      	cmp	r3, #0
1000365e:	d000      	beq.n	10003662 <CAPTURE_GetCapturedTimeInNanoSec+0x32>
10003660:	e07a      	b.n	10003758 <CAPTURE_GetCapturedTimeInNanoSec+0x128>
    {
      if ((handler->capture_edge_config == CAPTURE_EDGE_RISE_TO_RISE) ||
10003662:	687b      	ldr	r3, [r7, #4]
10003664:	222e      	movs	r2, #46	; 0x2e
10003666:	5c9b      	ldrb	r3, [r3, r2]
10003668:	2b00      	cmp	r3, #0
1000366a:	d004      	beq.n	10003676 <CAPTURE_GetCapturedTimeInNanoSec+0x46>
          (handler->capture_edge_config == CAPTURE_EDGE_FALL_TO_FALL))
1000366c:	687b      	ldr	r3, [r7, #4]
1000366e:	222e      	movs	r2, #46	; 0x2e
10003670:	5c9b      	ldrb	r3, [r3, r2]
  if (true == handler->initialized)
  {
#ifdef CAPTURE_CCU4_USED
    if (CAPTURE_MODULE_CCU4 == handler->capture_module)
    {
      if ((handler->capture_edge_config == CAPTURE_EDGE_RISE_TO_RISE) ||
10003672:	2b03      	cmp	r3, #3
10003674:	d14d      	bne.n	10003712 <CAPTURE_GetCapturedTimeInNanoSec+0xe2>
          (handler->capture_edge_config == CAPTURE_EDGE_FALL_TO_FALL))
      {
        uint32_t captured_time_low_reg = 0U;
10003676:	2300      	movs	r3, #0
10003678:	613b      	str	r3, [r7, #16]
        uint32_t captured_time_high_reg = 0U;
1000367a:	2300      	movs	r3, #0
1000367c:	60fb      	str	r3, [r7, #12]

        status = CAPTURE_CCU4_lSLICE_GetLastestCapturedTimerValue(handler->ccu4_slice_ptr,
1000367e:	687b      	ldr	r3, [r7, #4]
10003680:	699a      	ldr	r2, [r3, #24]
10003682:	2317      	movs	r3, #23
10003684:	18fc      	adds	r4, r7, r3
10003686:	2310      	movs	r3, #16
10003688:	18fb      	adds	r3, r7, r3
1000368a:	1c10      	adds	r0, r2, #0
1000368c:	2100      	movs	r1, #0
1000368e:	1c1a      	adds	r2, r3, #0
10003690:	f000 f99a 	bl	100039c8 <CAPTURE_CCU4_lSLICE_GetLastestCapturedTimerValue>
10003694:	1c03      	adds	r3, r0, #0
10003696:	7023      	strb	r3, [r4, #0]
                                                                  XMC_CCU4_SLICE_CAP_REG_SET_LOW,
                                                                  &captured_time_low_reg);

        status1 = CAPTURE_CCU4_lSLICE_GetLastestCapturedTimerValue(handler->ccu4_slice_ptr,
10003698:	687b      	ldr	r3, [r7, #4]
1000369a:	699a      	ldr	r2, [r3, #24]
1000369c:	2316      	movs	r3, #22
1000369e:	18fc      	adds	r4, r7, r3
100036a0:	230c      	movs	r3, #12
100036a2:	18fb      	adds	r3, r7, r3
100036a4:	1c10      	adds	r0, r2, #0
100036a6:	2101      	movs	r1, #1
100036a8:	1c1a      	adds	r2, r3, #0
100036aa:	f000 f98d 	bl	100039c8 <CAPTURE_CCU4_lSLICE_GetLastestCapturedTimerValue>
100036ae:	1c03      	adds	r3, r0, #0
100036b0:	7023      	strb	r3, [r4, #0]
                                                                   XMC_CCU4_SLICE_CAP_REG_SET_HIGH,
                                                                   &captured_time_high_reg);

        /*calculate time tick from capture value and pre-scale value of captured register**/
        CAPTURE_lCalculateTimeTickFromTimerValue (handler, &captured_time_low_reg, true);
100036b2:	687a      	ldr	r2, [r7, #4]
100036b4:	2310      	movs	r3, #16
100036b6:	18fb      	adds	r3, r7, r3
100036b8:	1c10      	adds	r0, r2, #0
100036ba:	1c19      	adds	r1, r3, #0
100036bc:	2201      	movs	r2, #1
100036be:	f000 f8af 	bl	10003820 <CAPTURE_lCalculateTimeTickFromTimerValue>
        /* calculate time in Nanosecond from timer tick and pre-scale value of captured register**/
        captured_time_low_reg = CAPTURE_lCalculateTimeInNanoSecFromTimerTick(handler, captured_time_low_reg);
100036c2:	693b      	ldr	r3, [r7, #16]
100036c4:	687a      	ldr	r2, [r7, #4]
100036c6:	1c10      	adds	r0, r2, #0
100036c8:	1c19      	adds	r1, r3, #0
100036ca:	f000 f911 	bl	100038f0 <CAPTURE_lCalculateTimeInNanoSecFromTimerTick>
100036ce:	1c03      	adds	r3, r0, #0
100036d0:	613b      	str	r3, [r7, #16]

        /* calculate time tick from capture value and pre-scale value of captured register**/
        CAPTURE_lCalculateTimeTickFromTimerValue (handler, &captured_time_high_reg, false);
100036d2:	687a      	ldr	r2, [r7, #4]
100036d4:	230c      	movs	r3, #12
100036d6:	18fb      	adds	r3, r7, r3
100036d8:	1c10      	adds	r0, r2, #0
100036da:	1c19      	adds	r1, r3, #0
100036dc:	2200      	movs	r2, #0
100036de:	f000 f89f 	bl	10003820 <CAPTURE_lCalculateTimeTickFromTimerValue>
        /* calculate time in Nanosecond from timer tick and pre-scale value of captured_time_high_reg**/
        captured_time_high_reg = CAPTURE_lCalculateTimeInNanoSecFromTimerTick(handler, captured_time_high_reg);
100036e2:	68fb      	ldr	r3, [r7, #12]
100036e4:	687a      	ldr	r2, [r7, #4]
100036e6:	1c10      	adds	r0, r2, #0
100036e8:	1c19      	adds	r1, r3, #0
100036ea:	f000 f901 	bl	100038f0 <CAPTURE_lCalculateTimeInNanoSecFromTimerTick>
100036ee:	1c03      	adds	r3, r0, #0
100036f0:	60fb      	str	r3, [r7, #12]

        /* add both high and lower register value*/
        *captured_time = captured_time_low_reg + captured_time_high_reg;
100036f2:	693a      	ldr	r2, [r7, #16]
100036f4:	68fb      	ldr	r3, [r7, #12]
100036f6:	18d2      	adds	r2, r2, r3
100036f8:	683b      	ldr	r3, [r7, #0]
100036fa:	601a      	str	r2, [r3, #0]

        if (status1 == CAPTURE_STATUS_NEW_VAL_NOT_CAPTURED)
100036fc:	2316      	movs	r3, #22
100036fe:	18fb      	adds	r3, r7, r3
10003700:	781b      	ldrb	r3, [r3, #0]
10003702:	2b02      	cmp	r3, #2
10003704:	d104      	bne.n	10003710 <CAPTURE_GetCapturedTimeInNanoSec+0xe0>
        {
          status = CAPTURE_STATUS_NEW_VAL_NOT_CAPTURED;
10003706:	2317      	movs	r3, #23
10003708:	18fb      	adds	r3, r7, r3
1000370a:	2202      	movs	r2, #2
1000370c:	701a      	strb	r2, [r3, #0]
#ifdef CAPTURE_CCU4_USED
    if (CAPTURE_MODULE_CCU4 == handler->capture_module)
    {
      if ((handler->capture_edge_config == CAPTURE_EDGE_RISE_TO_RISE) ||
          (handler->capture_edge_config == CAPTURE_EDGE_FALL_TO_FALL))
      {
1000370e:	e01e      	b.n	1000374e <CAPTURE_GetCapturedTimeInNanoSec+0x11e>
10003710:	e01d      	b.n	1000374e <CAPTURE_GetCapturedTimeInNanoSec+0x11e>
          status = CAPTURE_STATUS_NEW_VAL_NOT_CAPTURED;
        }
      }
      else
      {
        status = CAPTURE_CCU4_lSLICE_GetLastestCapturedTimerValue(handler->ccu4_slice_ptr,
10003712:	687b      	ldr	r3, [r7, #4]
10003714:	699a      	ldr	r2, [r3, #24]
10003716:	2317      	movs	r3, #23
10003718:	18fc      	adds	r4, r7, r3
1000371a:	683b      	ldr	r3, [r7, #0]
1000371c:	1c10      	adds	r0, r2, #0
1000371e:	2101      	movs	r1, #1
10003720:	1c1a      	adds	r2, r3, #0
10003722:	f000 f951 	bl	100039c8 <CAPTURE_CCU4_lSLICE_GetLastestCapturedTimerValue>
10003726:	1c03      	adds	r3, r0, #0
10003728:	7023      	strb	r3, [r4, #0]
                                                                  XMC_CCU4_SLICE_CAP_REG_SET_HIGH,
                                                                  captured_time);

        /* calculate time tick from capture value and pre-scale value of captured register**/
        CAPTURE_lCalculateTimeTickFromTimerValue (handler, captured_time, true);
1000372a:	687a      	ldr	r2, [r7, #4]
1000372c:	683b      	ldr	r3, [r7, #0]
1000372e:	1c10      	adds	r0, r2, #0
10003730:	1c19      	adds	r1, r3, #0
10003732:	2201      	movs	r2, #1
10003734:	f000 f874 	bl	10003820 <CAPTURE_lCalculateTimeTickFromTimerValue>
        /* calculate time in Nanosecond from timer tick and pre-scale value of captured register**/
        *captured_time = CAPTURE_lCalculateTimeInNanoSecFromTimerTick(handler, *captured_time);
10003738:	683b      	ldr	r3, [r7, #0]
1000373a:	681b      	ldr	r3, [r3, #0]
1000373c:	687a      	ldr	r2, [r7, #4]
1000373e:	1c10      	adds	r0, r2, #0
10003740:	1c19      	adds	r1, r3, #0
10003742:	f000 f8d5 	bl	100038f0 <CAPTURE_lCalculateTimeInNanoSecFromTimerTick>
10003746:	1c02      	adds	r2, r0, #0
10003748:	683b      	ldr	r3, [r7, #0]
1000374a:	601a      	str	r2, [r3, #0]
1000374c:	e004      	b.n	10003758 <CAPTURE_GetCapturedTimeInNanoSec+0x128>
1000374e:	e003      	b.n	10003758 <CAPTURE_GetCapturedTimeInNanoSec+0x128>
    }
#endif
  }
  else
  {
    status = CAPTURE_STATUS_FAILURE;
10003750:	2317      	movs	r3, #23
10003752:	18fb      	adds	r3, r7, r3
10003754:	2201      	movs	r2, #1
10003756:	701a      	strb	r2, [r3, #0]
  }

  return (status);
10003758:	2317      	movs	r3, #23
1000375a:	18fb      	adds	r3, r7, r3
1000375c:	781b      	ldrb	r3, [r3, #0]
}
1000375e:	1c18      	adds	r0, r3, #0
10003760:	46bd      	mov	sp, r7
10003762:	b007      	add	sp, #28
10003764:	bd90      	pop	{r4, r7, pc}
10003766:	46c0      	nop			; (mov r8, r8)

10003768 <CAPTURE_CCU4_lInit>:
/*********************************************************************************************************************
* PRIVATE API IMPLEMENTATION
**********************************************************************************************************************/
#ifdef CAPTURE_CCU4_USED
static void CAPTURE_CCU4_lInit(const CAPTURE_t *const handler)
{
10003768:	b580      	push	{r7, lr}
1000376a:	b082      	sub	sp, #8
1000376c:	af00      	add	r7, sp, #0
1000376e:	6078      	str	r0, [r7, #4]
  /* Configure the timer with required settings */
  XMC_CCU4_SLICE_CaptureInit(handler->ccu4_slice_ptr, handler->ccu4_slice_config_ptr);
10003770:	687b      	ldr	r3, [r7, #4]
10003772:	699a      	ldr	r2, [r3, #24]
10003774:	687b      	ldr	r3, [r7, #4]
10003776:	69db      	ldr	r3, [r3, #28]
10003778:	1c10      	adds	r0, r2, #0
1000377a:	1c19      	adds	r1, r3, #0
1000377c:	f7fe fd94 	bl	100022a8 <XMC_CCU4_SLICE_CaptureInit>
  /* programs the timer period and compare register according to time interval value and do the shadow transfer */
  CAPTURE_CCU4_lShadowTransfer(handler);
10003780:	687b      	ldr	r3, [r7, #4]
10003782:	1c18      	adds	r0, r3, #0
10003784:	f000 f82c 	bl	100037e0 <CAPTURE_CCU4_lShadowTransfer>

  /************Configure External Events***************/
  /* Configure slice to a external event 0 */
  XMC_CCU4_SLICE_ConfigureEvent(handler->ccu4_slice_ptr, XMC_CCU4_SLICE_EVENT_0, handler->ccu4_event0_ptr);
10003788:	687b      	ldr	r3, [r7, #4]
1000378a:	699a      	ldr	r2, [r3, #24]
1000378c:	687b      	ldr	r3, [r7, #4]
1000378e:	68db      	ldr	r3, [r3, #12]
10003790:	1c10      	adds	r0, r2, #0
10003792:	2101      	movs	r1, #1
10003794:	1c1a      	adds	r2, r3, #0
10003796:	f7fe fddf 	bl	10002358 <XMC_CCU4_SLICE_ConfigureEvent>
  /* Configure slice to a external event 1 */
  XMC_CCU4_SLICE_ConfigureEvent(handler->ccu4_slice_ptr, XMC_CCU4_SLICE_EVENT_1, handler->ccu4_event1_ptr);
1000379a:	687b      	ldr	r3, [r7, #4]
1000379c:	699a      	ldr	r2, [r3, #24]
1000379e:	687b      	ldr	r3, [r7, #4]
100037a0:	691b      	ldr	r3, [r3, #16]
100037a2:	1c10      	adds	r0, r2, #0
100037a4:	2102      	movs	r1, #2
100037a6:	1c1a      	adds	r2, r3, #0
100037a8:	f7fe fdd6 	bl	10002358 <XMC_CCU4_SLICE_ConfigureEvent>
  XMC_CCU4_SLICE_Capture0Config(handler->ccu4_slice_ptr, XMC_CCU4_SLICE_EVENT_0);
100037ac:	687b      	ldr	r3, [r7, #4]
100037ae:	699b      	ldr	r3, [r3, #24]
100037b0:	1c18      	adds	r0, r3, #0
100037b2:	2101      	movs	r1, #1
100037b4:	f7fe fd9c 	bl	100022f0 <XMC_CCU4_SLICE_Capture0Config>
  XMC_CCU4_SLICE_Capture1Config(handler->ccu4_slice_ptr, XMC_CCU4_SLICE_EVENT_1);
100037b8:	687b      	ldr	r3, [r7, #4]
100037ba:	699b      	ldr	r3, [r3, #24]
100037bc:	1c18      	adds	r0, r3, #0
100037be:	2102      	movs	r1, #2
100037c0:	f7fe fdb0 	bl	10002324 <XMC_CCU4_SLICE_Capture1Config>
    XMC_CCU4_SLICE_EnableEvent(handler->ccu4_slice_ptr, XMC_CCU4_SLICE_IRQ_ID_EVENT0);
  }
  #endif

  /* Enable the clock for selected timer */
  XMC_CCU4_EnableClock(handler->global_ccu4_handler->module_ptr, handler->ccu_slice_number);
100037c4:	687b      	ldr	r3, [r7, #4]
100037c6:	695b      	ldr	r3, [r3, #20]
100037c8:	6899      	ldr	r1, [r3, #8]
100037ca:	687b      	ldr	r3, [r7, #4]
100037cc:	222c      	movs	r2, #44	; 0x2c
100037ce:	5c9b      	ldrb	r3, [r3, r2]
100037d0:	1c08      	adds	r0, r1, #0
100037d2:	1c19      	adds	r1, r3, #0
100037d4:	f7ff fe5a 	bl	1000348c <XMC_CCU4_EnableClock>
}
100037d8:	46bd      	mov	sp, r7
100037da:	b002      	add	sp, #8
100037dc:	bd80      	pop	{r7, pc}
100037de:	46c0      	nop			; (mov r8, r8)

100037e0 <CAPTURE_CCU4_lShadowTransfer>:

static void CAPTURE_CCU4_lShadowTransfer(const CAPTURE_t *const handler)
{
100037e0:	b580      	push	{r7, lr}
100037e2:	b082      	sub	sp, #8
100037e4:	af00      	add	r7, sp, #0
100037e6:	6078      	str	r0, [r7, #4]
  /* programs the timer period register according to time interval value */
  XMC_CCU4_SLICE_SetTimerPeriodMatch(handler->ccu4_slice_ptr, CAPTURE_PERIOD_16BIT_MAX);
100037e8:	687b      	ldr	r3, [r7, #4]
100037ea:	699b      	ldr	r3, [r3, #24]
100037ec:	4a0b      	ldr	r2, [pc, #44]	; (1000381c <CAPTURE_CCU4_lShadowTransfer+0x3c>)
100037ee:	1c18      	adds	r0, r3, #0
100037f0:	1c11      	adds	r1, r2, #0
100037f2:	f7ff fe6f 	bl	100034d4 <XMC_CCU4_SLICE_SetTimerPeriodMatch>
  /* programs the timer compare register for 50% duty cycle */
  XMC_CCU4_SLICE_SetTimerCompareMatch(handler->ccu4_slice_ptr, 0x0U);
100037f6:	687b      	ldr	r3, [r7, #4]
100037f8:	699b      	ldr	r3, [r3, #24]
100037fa:	1c18      	adds	r0, r3, #0
100037fc:	2100      	movs	r1, #0
100037fe:	f7ff fe77 	bl	100034f0 <XMC_CCU4_SLICE_SetTimerCompareMatch>
  /* Transfers value from shadow timer registers to actual timer registers */
  XMC_CCU4_EnableShadowTransfer(handler->global_ccu4_handler->module_ptr, handler->shadow_mask);
10003802:	687b      	ldr	r3, [r7, #4]
10003804:	695b      	ldr	r3, [r3, #20]
10003806:	689a      	ldr	r2, [r3, #8]
10003808:	687b      	ldr	r3, [r7, #4]
1000380a:	689b      	ldr	r3, [r3, #8]
1000380c:	1c10      	adds	r0, r2, #0
1000380e:	1c19      	adds	r1, r3, #0
10003810:	f7ff fe7c 	bl	1000350c <XMC_CCU4_EnableShadowTransfer>
}
10003814:	46bd      	mov	sp, r7
10003816:	b002      	add	sp, #8
10003818:	bd80      	pop	{r7, pc}
1000381a:	46c0      	nop			; (mov r8, r8)
1000381c:	0000ffff 	.word	0x0000ffff

10003820 <CAPTURE_lCalculateTimeTickFromTimerValue>:
#endif

static void CAPTURE_lCalculateTimeTickFromTimerValue(const CAPTURE_t *const handler,
                                                     uint32_t *const timer_val_ptr,
                                                     bool is_increment)
{
10003820:	b580      	push	{r7, lr}
10003822:	b08c      	sub	sp, #48	; 0x30
10003824:	af00      	add	r7, sp, #0
10003826:	60f8      	str	r0, [r7, #12]
10003828:	60b9      	str	r1, [r7, #8]
1000382a:	1dfb      	adds	r3, r7, #7
1000382c:	701a      	strb	r2, [r3, #0]
  /* Check for APP instance is initialized or not */
  uint32_t psc_psiv_val = 0U;
1000382e:	2300      	movs	r3, #0
10003830:	62fb      	str	r3, [r7, #44]	; 0x2c
  bool is_float_prescaler = false;
10003832:	232b      	movs	r3, #43	; 0x2b
10003834:	18fb      	adds	r3, r7, r3
10003836:	2200      	movs	r2, #0
10003838:	701a      	strb	r2, [r3, #0]
  uint32_t cxv_captv_val = (uint32_t)((uint32_t)*timer_val_ptr & 0xFFFFU);
1000383a:	68bb      	ldr	r3, [r7, #8]
1000383c:	681b      	ldr	r3, [r3, #0]
1000383e:	041b      	lsls	r3, r3, #16
10003840:	0c1b      	lsrs	r3, r3, #16
10003842:	627b      	str	r3, [r7, #36]	; 0x24
  uint32_t cxv_fpcv_val = (uint32_t)((uint32_t)*timer_val_ptr >> 16U) & 0xFU;
10003844:	68bb      	ldr	r3, [r7, #8]
10003846:	681b      	ldr	r3, [r3, #0]
10003848:	0c1b      	lsrs	r3, r3, #16
1000384a:	220f      	movs	r2, #15
1000384c:	4013      	ands	r3, r2
1000384e:	61bb      	str	r3, [r7, #24]

  /* Period measured should be added 1 to get actual value*/
  if (is_increment == true)
10003850:	1dfb      	adds	r3, r7, #7
10003852:	781b      	ldrb	r3, [r3, #0]
10003854:	2b00      	cmp	r3, #0
10003856:	d002      	beq.n	1000385e <CAPTURE_lCalculateTimeTickFromTimerValue+0x3e>
  {
    cxv_captv_val = cxv_captv_val + 1U;
10003858:	6a7b      	ldr	r3, [r7, #36]	; 0x24
1000385a:	3301      	adds	r3, #1
1000385c:	627b      	str	r3, [r7, #36]	; 0x24
  }
#ifdef CAPTURE_CCU4_USED
  if (CAPTURE_MODULE_CCU4 == handler->capture_module)
1000385e:	68fb      	ldr	r3, [r7, #12]
10003860:	222d      	movs	r2, #45	; 0x2d
10003862:	5c9b      	ldrb	r3, [r3, r2]
10003864:	2b00      	cmp	r3, #0
10003866:	d112      	bne.n	1000388e <CAPTURE_lCalculateTimeTickFromTimerValue+0x6e>
  {
    psc_psiv_val = handler->ccu4_slice_config_ptr->prescaler_initval;
10003868:	68fb      	ldr	r3, [r7, #12]
1000386a:	69db      	ldr	r3, [r3, #28]
1000386c:	791b      	ldrb	r3, [r3, #4]
1000386e:	071b      	lsls	r3, r3, #28
10003870:	0f1b      	lsrs	r3, r3, #28
10003872:	b2db      	uxtb	r3, r3
10003874:	62fb      	str	r3, [r7, #44]	; 0x2c
    if (handler->ccu4_slice_config_ptr->prescaler_mode == (uint32_t)XMC_CCU4_SLICE_PRESCALER_MODE_FLOAT)
10003876:	68fb      	ldr	r3, [r7, #12]
10003878:	69db      	ldr	r3, [r3, #28]
1000387a:	789b      	ldrb	r3, [r3, #2]
1000387c:	2201      	movs	r2, #1
1000387e:	4013      	ands	r3, r2
10003880:	b2db      	uxtb	r3, r3
10003882:	2b00      	cmp	r3, #0
10003884:	d003      	beq.n	1000388e <CAPTURE_lCalculateTimeTickFromTimerValue+0x6e>
    {
      is_float_prescaler =  true;
10003886:	232b      	movs	r3, #43	; 0x2b
10003888:	18fb      	adds	r3, r7, r3
1000388a:	2201      	movs	r2, #1
1000388c:	701a      	strb	r2, [r3, #0]
      is_float_prescaler =  true;
    }
  }
#endif

  if (is_float_prescaler == true)
1000388e:	232b      	movs	r3, #43	; 0x2b
10003890:	18fb      	adds	r3, r7, r3
10003892:	781b      	ldrb	r3, [r3, #0]
10003894:	2b00      	cmp	r3, #0
10003896:	d023      	beq.n	100038e0 <CAPTURE_lCalculateTimeTickFromTimerValue+0xc0>
  {
    int32_t loop = 0;
10003898:	2300      	movs	r3, #0
1000389a:	623b      	str	r3, [r7, #32]
    uint32_t prescaler_value;
    uint32_t timer_val = 0U;
1000389c:	2300      	movs	r3, #0
1000389e:	61fb      	str	r3, [r7, #28]

    prescaler_value = cxv_fpcv_val - psc_psiv_val;
100038a0:	69ba      	ldr	r2, [r7, #24]
100038a2:	6afb      	ldr	r3, [r7, #44]	; 0x2c
100038a4:	1ad3      	subs	r3, r2, r3
100038a6:	617b      	str	r3, [r7, #20]

    for (loop = (int32_t)prescaler_value; loop > 0; loop--)
100038a8:	697b      	ldr	r3, [r7, #20]
100038aa:	623b      	str	r3, [r7, #32]
100038ac:	e00a      	b.n	100038c4 <CAPTURE_lCalculateTimeTickFromTimerValue+0xa4>
    {
      timer_val = (uint32_t)timer_val << 1U;
100038ae:	69fb      	ldr	r3, [r7, #28]
100038b0:	005b      	lsls	r3, r3, #1
100038b2:	61fb      	str	r3, [r7, #28]
      timer_val += 65535U;
100038b4:	69fb      	ldr	r3, [r7, #28]
100038b6:	4a0d      	ldr	r2, [pc, #52]	; (100038ec <CAPTURE_lCalculateTimeTickFromTimerValue+0xcc>)
100038b8:	4694      	mov	ip, r2
100038ba:	4463      	add	r3, ip
100038bc:	61fb      	str	r3, [r7, #28]
    uint32_t prescaler_value;
    uint32_t timer_val = 0U;

    prescaler_value = cxv_fpcv_val - psc_psiv_val;

    for (loop = (int32_t)prescaler_value; loop > 0; loop--)
100038be:	6a3b      	ldr	r3, [r7, #32]
100038c0:	3b01      	subs	r3, #1
100038c2:	623b      	str	r3, [r7, #32]
100038c4:	6a3b      	ldr	r3, [r7, #32]
100038c6:	2b00      	cmp	r3, #0
100038c8:	dcf1      	bgt.n	100038ae <CAPTURE_lCalculateTimeTickFromTimerValue+0x8e>
    {
      timer_val = (uint32_t)timer_val << 1U;
      timer_val += 65535U;
    }

    timer_val += (uint32_t)(cxv_captv_val * (1UL << prescaler_value));
100038ca:	697b      	ldr	r3, [r7, #20]
100038cc:	6a7a      	ldr	r2, [r7, #36]	; 0x24
100038ce:	409a      	lsls	r2, r3
100038d0:	1c13      	adds	r3, r2, #0
100038d2:	69fa      	ldr	r2, [r7, #28]
100038d4:	18d3      	adds	r3, r2, r3
100038d6:	61fb      	str	r3, [r7, #28]
    *timer_val_ptr = timer_val;
100038d8:	68bb      	ldr	r3, [r7, #8]
100038da:	69fa      	ldr	r2, [r7, #28]
100038dc:	601a      	str	r2, [r3, #0]
100038de:	e002      	b.n	100038e6 <CAPTURE_lCalculateTimeTickFromTimerValue+0xc6>
  }
  else
  {
    *timer_val_ptr = cxv_captv_val;
100038e0:	68bb      	ldr	r3, [r7, #8]
100038e2:	6a7a      	ldr	r2, [r7, #36]	; 0x24
100038e4:	601a      	str	r2, [r3, #0]
  }
}
100038e6:	46bd      	mov	sp, r7
100038e8:	b00c      	add	sp, #48	; 0x30
100038ea:	bd80      	pop	{r7, pc}
100038ec:	0000ffff 	.word	0x0000ffff

100038f0 <CAPTURE_lCalculateTimeInNanoSecFromTimerTick>:

static uint32_t CAPTURE_lCalculateTimeInNanoSecFromTimerTick(const CAPTURE_t *const handler, uint32_t timer_val)
{
100038f0:	b5b0      	push	{r4, r5, r7, lr}
100038f2:	b08e      	sub	sp, #56	; 0x38
100038f4:	af00      	add	r7, sp, #0
100038f6:	60f8      	str	r0, [r7, #12]
100038f8:	60b9      	str	r1, [r7, #8]
  uint64_t singal_period_long_long;
  uint32_t inv_sig_resolution_in_sec = 1U;
100038fa:	2301      	movs	r3, #1
100038fc:	637b      	str	r3, [r7, #52]	; 0x34
  uint32_t norm_timer_val;
  uint32_t norm_inv_sig_resolution_in_sec;
  uint32_t min_norm;
  uint32_t psc_psiv_val = 0U;
100038fe:	2300      	movs	r3, #0
10003900:	62fb      	str	r3, [r7, #44]	; 0x2c

#ifdef CAPTURE_CCU4_USED
  if (CAPTURE_MODULE_CCU4 == handler->capture_module)
10003902:	68fb      	ldr	r3, [r7, #12]
10003904:	222d      	movs	r2, #45	; 0x2d
10003906:	5c9b      	ldrb	r3, [r3, r2]
10003908:	2b00      	cmp	r3, #0
1000390a:	d10d      	bne.n	10003928 <CAPTURE_lCalculateTimeInNanoSecFromTimerTick+0x38>
  {
    psc_psiv_val = handler->ccu4_slice_config_ptr->prescaler_initval;
1000390c:	68fb      	ldr	r3, [r7, #12]
1000390e:	69db      	ldr	r3, [r3, #28]
10003910:	791b      	ldrb	r3, [r3, #4]
10003912:	071b      	lsls	r3, r3, #28
10003914:	0f1b      	lsrs	r3, r3, #28
10003916:	b2db      	uxtb	r3, r3
10003918:	62fb      	str	r3, [r7, #44]	; 0x2c
    inv_sig_resolution_in_sec = handler->global_ccu4_handler->module_frequency >> psc_psiv_val;
1000391a:	68fb      	ldr	r3, [r7, #12]
1000391c:	695b      	ldr	r3, [r3, #20]
1000391e:	681a      	ldr	r2, [r3, #0]
10003920:	6afb      	ldr	r3, [r7, #44]	; 0x2c
10003922:	40da      	lsrs	r2, r3
10003924:	1c13      	adds	r3, r2, #0
10003926:	637b      	str	r3, [r7, #52]	; 0x34
10003928:	68bb      	ldr	r3, [r7, #8]
1000392a:	617b      	str	r3, [r7, #20]
     optimisations using the logic "value was passed to __builtin_clz, so it
     is non-zero".
     ARM GCC 7.3 and possibly earlier will optimise this test away, leaving a
     single CLZ instruction.
   */
  if (value == 0U)
1000392c:	697b      	ldr	r3, [r7, #20]
1000392e:	2b00      	cmp	r3, #0
10003930:	d101      	bne.n	10003936 <CAPTURE_lCalculateTimeInNanoSecFromTimerTick+0x46>
  {
    return 32U;
10003932:	2320      	movs	r3, #32
10003934:	e004      	b.n	10003940 <CAPTURE_lCalculateTimeInNanoSecFromTimerTick+0x50>
  }
  return __builtin_clz(value);
10003936:	6978      	ldr	r0, [r7, #20]
10003938:	f003 feda 	bl	100076f0 <__clzsi2>
1000393c:	1c03      	adds	r3, r0, #0
1000393e:	b2db      	uxtb	r3, r3
    psc_psiv_val = handler->ccu8_slice_config_ptr->prescaler_initval;
    inv_sig_resolution_in_sec = handler->global_ccu8_handler->module_frequency >> psc_psiv_val;
  }
#endif

  norm_timer_val = (uint32_t)__CLZ(timer_val);
10003940:	62bb      	str	r3, [r7, #40]	; 0x28
10003942:	6b7b      	ldr	r3, [r7, #52]	; 0x34
10003944:	613b      	str	r3, [r7, #16]
     optimisations using the logic "value was passed to __builtin_clz, so it
     is non-zero".
     ARM GCC 7.3 and possibly earlier will optimise this test away, leaving a
     single CLZ instruction.
   */
  if (value == 0U)
10003946:	693b      	ldr	r3, [r7, #16]
10003948:	2b00      	cmp	r3, #0
1000394a:	d101      	bne.n	10003950 <CAPTURE_lCalculateTimeInNanoSecFromTimerTick+0x60>
  {
    return 32U;
1000394c:	2320      	movs	r3, #32
1000394e:	e004      	b.n	1000395a <CAPTURE_lCalculateTimeInNanoSecFromTimerTick+0x6a>
  }
  return __builtin_clz(value);
10003950:	6938      	ldr	r0, [r7, #16]
10003952:	f003 fecd 	bl	100076f0 <__clzsi2>
10003956:	1c03      	adds	r3, r0, #0
10003958:	b2db      	uxtb	r3, r3
  norm_inv_sig_resolution_in_sec = (uint32_t)__CLZ(inv_sig_resolution_in_sec);
1000395a:	627b      	str	r3, [r7, #36]	; 0x24

  if (norm_timer_val > norm_inv_sig_resolution_in_sec)
1000395c:	6aba      	ldr	r2, [r7, #40]	; 0x28
1000395e:	6a7b      	ldr	r3, [r7, #36]	; 0x24
10003960:	429a      	cmp	r2, r3
10003962:	d902      	bls.n	1000396a <CAPTURE_lCalculateTimeInNanoSecFromTimerTick+0x7a>
  {
    min_norm = norm_inv_sig_resolution_in_sec;
10003964:	6a7b      	ldr	r3, [r7, #36]	; 0x24
10003966:	633b      	str	r3, [r7, #48]	; 0x30
10003968:	e001      	b.n	1000396e <CAPTURE_lCalculateTimeInNanoSecFromTimerTick+0x7e>
  }
  else
  {
    min_norm = norm_timer_val;
1000396a:	6abb      	ldr	r3, [r7, #40]	; 0x28
1000396c:	633b      	str	r3, [r7, #48]	; 0x30
  }

  /* Normalized the value to get better precision*/
  timer_val = timer_val << min_norm;
1000396e:	6b3b      	ldr	r3, [r7, #48]	; 0x30
10003970:	68ba      	ldr	r2, [r7, #8]
10003972:	409a      	lsls	r2, r3
10003974:	1c13      	adds	r3, r2, #0
10003976:	60bb      	str	r3, [r7, #8]
  inv_sig_resolution_in_sec = inv_sig_resolution_in_sec << min_norm;
10003978:	6b3b      	ldr	r3, [r7, #48]	; 0x30
1000397a:	6b7a      	ldr	r2, [r7, #52]	; 0x34
1000397c:	409a      	lsls	r2, r3
1000397e:	1c13      	adds	r3, r2, #0
10003980:	637b      	str	r3, [r7, #52]	; 0x34

  singal_period_long_long = (((uint64_t) timer_val) * 1000000000U) / inv_sig_resolution_in_sec;
10003982:	68bb      	ldr	r3, [r7, #8]
10003984:	603b      	str	r3, [r7, #0]
10003986:	2300      	movs	r3, #0
10003988:	607b      	str	r3, [r7, #4]
1000398a:	6838      	ldr	r0, [r7, #0]
1000398c:	6879      	ldr	r1, [r7, #4]
1000398e:	4a0d      	ldr	r2, [pc, #52]	; (100039c4 <CAPTURE_lCalculateTimeInNanoSecFromTimerTick+0xd4>)
10003990:	2300      	movs	r3, #0
10003992:	f003 feeb 	bl	1000776c <__aeabi_lmul>
10003996:	1c02      	adds	r2, r0, #0
10003998:	1c0b      	adds	r3, r1, #0
1000399a:	1c11      	adds	r1, r2, #0
1000399c:	1c1a      	adds	r2, r3, #0
1000399e:	6b7b      	ldr	r3, [r7, #52]	; 0x34
100039a0:	1c1c      	adds	r4, r3, #0
100039a2:	2300      	movs	r3, #0
100039a4:	1c1d      	adds	r5, r3, #0
100039a6:	1c08      	adds	r0, r1, #0
100039a8:	1c11      	adds	r1, r2, #0
100039aa:	1c22      	adds	r2, r4, #0
100039ac:	1c2b      	adds	r3, r5, #0
100039ae:	f003 febd 	bl	1000772c <__aeabi_uldivmod>
100039b2:	1c03      	adds	r3, r0, #0
100039b4:	1c0c      	adds	r4, r1, #0
100039b6:	61bb      	str	r3, [r7, #24]
100039b8:	61fc      	str	r4, [r7, #28]

  return ((uint32_t)singal_period_long_long);
100039ba:	69bb      	ldr	r3, [r7, #24]
}
100039bc:	1c18      	adds	r0, r3, #0
100039be:	46bd      	mov	sp, r7
100039c0:	b00e      	add	sp, #56	; 0x38
100039c2:	bdb0      	pop	{r4, r5, r7, pc}
100039c4:	3b9aca00 	.word	0x3b9aca00

100039c8 <CAPTURE_CCU4_lSLICE_GetLastestCapturedTimerValue>:
#ifdef  CAPTURE_CCU4_USED
/* @brief Retrieves the latest captured timer value from CCU4*/
static CAPTURE_STATUS_t CAPTURE_CCU4_lSLICE_GetLastestCapturedTimerValue(const XMC_CCU4_SLICE_t * const slice,
                                                                         const XMC_CCU4_SLICE_CAP_REG_SET_t set,
                                                                         uint32_t * const val_ptr)
{
100039c8:	b580      	push	{r7, lr}
100039ca:	b088      	sub	sp, #32
100039cc:	af00      	add	r7, sp, #0
100039ce:	60f8      	str	r0, [r7, #12]
100039d0:	607a      	str	r2, [r7, #4]
100039d2:	230b      	movs	r3, #11
100039d4:	18fb      	adds	r3, r7, r3
100039d6:	1c0a      	adds	r2, r1, #0
100039d8:	701a      	strb	r2, [r3, #0]
              ((set == XMC_CCU4_SLICE_CAP_REG_SET_LOW) || (set == XMC_CCU4_SLICE_CAP_REG_SET_HIGH)));

  XMC_ASSERT ("CAPTURE_CCU4_lSLICE_GetLastestCapturedTimerValue:Invalid Extended Capture Mode ",
              ((slice->TC) & CCU4_CC4_TC_ECM_Msk) == 0);

  retval = CAPTURE_STATUS_NEW_VAL_NOT_CAPTURED;
100039da:	231f      	movs	r3, #31
100039dc:	18fb      	adds	r3, r7, r3
100039de:	2202      	movs	r2, #2
100039e0:	701a      	strb	r2, [r3, #0]

  if (set == XMC_CCU4_SLICE_CAP_REG_SET_HIGH)
100039e2:	230b      	movs	r3, #11
100039e4:	18fb      	adds	r3, r7, r3
100039e6:	781b      	ldrb	r3, [r3, #0]
100039e8:	2b01      	cmp	r3, #1
100039ea:	d120      	bne.n	10003a2e <CAPTURE_CCU4_lSLICE_GetLastestCapturedTimerValue+0x66>
  {
    /* read capture values*/
    *val_ptr = slice->CV[CAPTURE_SLICE_CAP_REGISTER_3];
100039ec:	68fb      	ldr	r3, [r7, #12]
100039ee:	2280      	movs	r2, #128	; 0x80
100039f0:	589a      	ldr	r2, [r3, r2]
100039f2:	687b      	ldr	r3, [r7, #4]
100039f4:	601a      	str	r2, [r3, #0]
    /* check for new data or full Flag*/
    if ((*val_ptr) & CCU4_CC4_CV_FFL_Msk)
100039f6:	687b      	ldr	r3, [r7, #4]
100039f8:	681a      	ldr	r2, [r3, #0]
100039fa:	2380      	movs	r3, #128	; 0x80
100039fc:	035b      	lsls	r3, r3, #13
100039fe:	4013      	ands	r3, r2
10003a00:	d004      	beq.n	10003a0c <CAPTURE_CCU4_lSLICE_GetLastestCapturedTimerValue+0x44>
    {
      retval = CAPTURE_STATUS_SUCCESS;
10003a02:	231f      	movs	r3, #31
10003a04:	18fb      	adds	r3, r7, r3
10003a06:	2200      	movs	r2, #0
10003a08:	701a      	strb	r2, [r3, #0]
10003a0a:	e02e      	b.n	10003a6a <CAPTURE_CCU4_lSLICE_GetLastestCapturedTimerValue+0xa2>
    }
    else
    {
      volatile uint32_t capture_reg_value_low;
      capture_reg_value_low = slice->CV[CAPTURE_SLICE_CAP_REGISTER_2];
10003a0c:	68fb      	ldr	r3, [r7, #12]
10003a0e:	6fdb      	ldr	r3, [r3, #124]	; 0x7c
10003a10:	61bb      	str	r3, [r7, #24]
      /* check for new data or full Flag*/
      if (capture_reg_value_low & CCU4_CC4_CV_FFL_Msk)
10003a12:	69ba      	ldr	r2, [r7, #24]
10003a14:	2380      	movs	r3, #128	; 0x80
10003a16:	035b      	lsls	r3, r3, #13
10003a18:	4013      	ands	r3, r2
10003a1a:	d007      	beq.n	10003a2c <CAPTURE_CCU4_lSLICE_GetLastestCapturedTimerValue+0x64>
      {
        retval = CAPTURE_STATUS_SUCCESS;
10003a1c:	231f      	movs	r3, #31
10003a1e:	18fb      	adds	r3, r7, r3
10003a20:	2200      	movs	r2, #0
10003a22:	701a      	strb	r2, [r3, #0]
        *val_ptr = capture_reg_value_low;
10003a24:	69ba      	ldr	r2, [r7, #24]
10003a26:	687b      	ldr	r3, [r7, #4]
10003a28:	601a      	str	r2, [r3, #0]
10003a2a:	e01e      	b.n	10003a6a <CAPTURE_CCU4_lSLICE_GetLastestCapturedTimerValue+0xa2>
10003a2c:	e01d      	b.n	10003a6a <CAPTURE_CCU4_lSLICE_GetLastestCapturedTimerValue+0xa2>
    }
  }
  else
  {
    /* read capture values*/
    *val_ptr = slice->CV[CAPTURE_SLICE_CAP_REGISTER_1];
10003a2e:	68fb      	ldr	r3, [r7, #12]
10003a30:	6f9a      	ldr	r2, [r3, #120]	; 0x78
10003a32:	687b      	ldr	r3, [r7, #4]
10003a34:	601a      	str	r2, [r3, #0]
    /* check for new data or full Flag*/
    if ((*val_ptr) & CCU4_CC4_CV_FFL_Msk)
10003a36:	687b      	ldr	r3, [r7, #4]
10003a38:	681a      	ldr	r2, [r3, #0]
10003a3a:	2380      	movs	r3, #128	; 0x80
10003a3c:	035b      	lsls	r3, r3, #13
10003a3e:	4013      	ands	r3, r2
10003a40:	d004      	beq.n	10003a4c <CAPTURE_CCU4_lSLICE_GetLastestCapturedTimerValue+0x84>
    {
      retval = CAPTURE_STATUS_SUCCESS;
10003a42:	231f      	movs	r3, #31
10003a44:	18fb      	adds	r3, r7, r3
10003a46:	2200      	movs	r2, #0
10003a48:	701a      	strb	r2, [r3, #0]
10003a4a:	e00e      	b.n	10003a6a <CAPTURE_CCU4_lSLICE_GetLastestCapturedTimerValue+0xa2>
    }
    else
    {
      volatile uint32_t capture_reg_value_low;
      capture_reg_value_low = slice->CV[CAPTURE_SLICE_CAP_REGISTER_0];
10003a4c:	68fb      	ldr	r3, [r7, #12]
10003a4e:	6f5b      	ldr	r3, [r3, #116]	; 0x74
10003a50:	617b      	str	r3, [r7, #20]
      /* check for new data or full Flag*/
      if (capture_reg_value_low & CCU4_CC4_CV_FFL_Msk)
10003a52:	697a      	ldr	r2, [r7, #20]
10003a54:	2380      	movs	r3, #128	; 0x80
10003a56:	035b      	lsls	r3, r3, #13
10003a58:	4013      	ands	r3, r2
10003a5a:	d006      	beq.n	10003a6a <CAPTURE_CCU4_lSLICE_GetLastestCapturedTimerValue+0xa2>
      {
        retval = CAPTURE_STATUS_SUCCESS;
10003a5c:	231f      	movs	r3, #31
10003a5e:	18fb      	adds	r3, r7, r3
10003a60:	2200      	movs	r2, #0
10003a62:	701a      	strb	r2, [r3, #0]
        *val_ptr = capture_reg_value_low;
10003a64:	697a      	ldr	r2, [r7, #20]
10003a66:	687b      	ldr	r3, [r7, #4]
10003a68:	601a      	str	r2, [r3, #0]
      }
    }
  }

  return retval;
10003a6a:	231f      	movs	r3, #31
10003a6c:	18fb      	adds	r3, r7, r3
10003a6e:	781b      	ldrb	r3, [r3, #0]
}
10003a70:	1c18      	adds	r0, r3, #0
10003a72:	46bd      	mov	sp, r7
10003a74:	b008      	add	sp, #32
10003a76:	bd80      	pop	{r7, pc}

10003a78 <XMC_CAN_NODE_SetEventNodePointer>:
 */

__STATIC_INLINE void XMC_CAN_NODE_SetEventNodePointer(XMC_CAN_NODE_t *const can_node,
    const XMC_CAN_NODE_POINTER_EVENT_t ptr_event,
    const uint32_t service_request)
{
10003a78:	b580      	push	{r7, lr}
10003a7a:	b084      	sub	sp, #16
10003a7c:	af00      	add	r7, sp, #0
10003a7e:	60f8      	str	r0, [r7, #12]
10003a80:	607a      	str	r2, [r7, #4]
10003a82:	230b      	movs	r3, #11
10003a84:	18fb      	adds	r3, r7, r3
10003a86:	1c0a      	adds	r2, r1, #0
10003a88:	701a      	strb	r2, [r3, #0]
  can_node->NIPR = (uint32_t)((can_node->NIPR) & ~(uint32_t)(CAN_NODE_NIPR_Msk << (uint32_t)ptr_event)) | (service_request << (uint32_t)ptr_event);
10003a8a:	68fb      	ldr	r3, [r7, #12]
10003a8c:	689b      	ldr	r3, [r3, #8]
10003a8e:	220b      	movs	r2, #11
10003a90:	18ba      	adds	r2, r7, r2
10003a92:	7812      	ldrb	r2, [r2, #0]
10003a94:	2107      	movs	r1, #7
10003a96:	4091      	lsls	r1, r2
10003a98:	1c0a      	adds	r2, r1, #0
10003a9a:	43d2      	mvns	r2, r2
10003a9c:	401a      	ands	r2, r3
10003a9e:	230b      	movs	r3, #11
10003aa0:	18fb      	adds	r3, r7, r3
10003aa2:	781b      	ldrb	r3, [r3, #0]
10003aa4:	6879      	ldr	r1, [r7, #4]
10003aa6:	4099      	lsls	r1, r3
10003aa8:	1c0b      	adds	r3, r1, #0
10003aaa:	431a      	orrs	r2, r3
10003aac:	68fb      	ldr	r3, [r7, #12]
10003aae:	609a      	str	r2, [r3, #8]
}
10003ab0:	46bd      	mov	sp, r7
10003ab2:	b004      	add	sp, #16
10003ab4:	bd80      	pop	{r7, pc}
10003ab6:	46c0      	nop			; (mov r8, r8)

10003ab8 <XMC_CAN_NODE_SetReceiveInput>:
 *
 */

__STATIC_INLINE void XMC_CAN_NODE_SetReceiveInput(XMC_CAN_NODE_t *const can_node,
    const XMC_CAN_NODE_RECEIVE_INPUT_t input)
{
10003ab8:	b580      	push	{r7, lr}
10003aba:	b082      	sub	sp, #8
10003abc:	af00      	add	r7, sp, #0
10003abe:	6078      	str	r0, [r7, #4]
10003ac0:	1c0a      	adds	r2, r1, #0
10003ac2:	1cfb      	adds	r3, r7, #3
10003ac4:	701a      	strb	r2, [r3, #0]
  can_node->NPCR = ((can_node->NPCR) & ~(uint32_t)(CAN_NODE_NPCR_RXSEL_Msk)) |
10003ac6:	687b      	ldr	r3, [r7, #4]
10003ac8:	68db      	ldr	r3, [r3, #12]
10003aca:	2207      	movs	r2, #7
10003acc:	4393      	bics	r3, r2
10003ace:	1c1a      	adds	r2, r3, #0
                   (((uint32_t)input << CAN_NODE_NPCR_RXSEL_Pos) & (uint32_t)CAN_NODE_NPCR_RXSEL_Msk);
10003ad0:	1cfb      	adds	r3, r7, #3
10003ad2:	781b      	ldrb	r3, [r3, #0]
10003ad4:	2107      	movs	r1, #7
10003ad6:	400b      	ands	r3, r1
 */

__STATIC_INLINE void XMC_CAN_NODE_SetReceiveInput(XMC_CAN_NODE_t *const can_node,
    const XMC_CAN_NODE_RECEIVE_INPUT_t input)
{
  can_node->NPCR = ((can_node->NPCR) & ~(uint32_t)(CAN_NODE_NPCR_RXSEL_Msk)) |
10003ad8:	431a      	orrs	r2, r3
10003ada:	687b      	ldr	r3, [r7, #4]
10003adc:	60da      	str	r2, [r3, #12]
                   (((uint32_t)input << CAN_NODE_NPCR_RXSEL_Pos) & (uint32_t)CAN_NODE_NPCR_RXSEL_Msk);
}
10003ade:	46bd      	mov	sp, r7
10003ae0:	b002      	add	sp, #8
10003ae2:	bd80      	pop	{r7, pc}

10003ae4 <XMC_CAN_NODE_EnableLoopBack>:
 *  NPCRx can be written only if bit NCRx.CCE is set.
 *
 */

__STATIC_INLINE void XMC_CAN_NODE_EnableLoopBack(XMC_CAN_NODE_t *const can_node)
{
10003ae4:	b580      	push	{r7, lr}
10003ae6:	b082      	sub	sp, #8
10003ae8:	af00      	add	r7, sp, #0
10003aea:	6078      	str	r0, [r7, #4]
  can_node->NPCR |= (uint32_t)CAN_NODE_NPCR_LBM_Msk;
10003aec:	687b      	ldr	r3, [r7, #4]
10003aee:	68db      	ldr	r3, [r3, #12]
10003af0:	2280      	movs	r2, #128	; 0x80
10003af2:	0052      	lsls	r2, r2, #1
10003af4:	431a      	orrs	r2, r3
10003af6:	687b      	ldr	r3, [r7, #4]
10003af8:	60da      	str	r2, [r3, #12]
}
10003afa:	46bd      	mov	sp, r7
10003afc:	b002      	add	sp, #8
10003afe:	bd80      	pop	{r7, pc}

10003b00 <XMC_CAN_NODE_EnableConfigurationChange>:
 * XMC_CAN_NODE_DisableConfigurationChange()
 *
 */

__STATIC_INLINE void XMC_CAN_NODE_EnableConfigurationChange(XMC_CAN_NODE_t *const can_node)
{
10003b00:	b580      	push	{r7, lr}
10003b02:	b082      	sub	sp, #8
10003b04:	af00      	add	r7, sp, #0
10003b06:	6078      	str	r0, [r7, #4]
  can_node->NCR |= (uint32_t)CAN_NODE_NCR_CCE_Msk;
10003b08:	687b      	ldr	r3, [r7, #4]
10003b0a:	681b      	ldr	r3, [r3, #0]
10003b0c:	2240      	movs	r2, #64	; 0x40
10003b0e:	431a      	orrs	r2, r3
10003b10:	687b      	ldr	r3, [r7, #4]
10003b12:	601a      	str	r2, [r3, #0]
}
10003b14:	46bd      	mov	sp, r7
10003b16:	b002      	add	sp, #8
10003b18:	bd80      	pop	{r7, pc}
10003b1a:	46c0      	nop			; (mov r8, r8)

10003b1c <XMC_CAN_NODE_DisableConfigurationChange>:
 * XMC_CAN_NODE_EnableConfigurationChange()
 *
 */

__STATIC_INLINE void XMC_CAN_NODE_DisableConfigurationChange(XMC_CAN_NODE_t *const can_node)
{
10003b1c:	b580      	push	{r7, lr}
10003b1e:	b082      	sub	sp, #8
10003b20:	af00      	add	r7, sp, #0
10003b22:	6078      	str	r0, [r7, #4]
  can_node->NCR &= ~(uint32_t)CAN_NODE_NCR_CCE_Msk;
10003b24:	687b      	ldr	r3, [r7, #4]
10003b26:	681b      	ldr	r3, [r3, #0]
10003b28:	2240      	movs	r2, #64	; 0x40
10003b2a:	4393      	bics	r3, r2
10003b2c:	1c1a      	adds	r2, r3, #0
10003b2e:	687b      	ldr	r3, [r7, #4]
10003b30:	601a      	str	r2, [r3, #0]
}
10003b32:	46bd      	mov	sp, r7
10003b34:	b002      	add	sp, #8
10003b36:	bd80      	pop	{r7, pc}

10003b38 <XMC_CAN_NODE_SetInitBit>:
 * XMC_CAN_NODE_ResetInitBit()
 *
 */

__STATIC_INLINE void XMC_CAN_NODE_SetInitBit(XMC_CAN_NODE_t *const can_node)
{
10003b38:	b580      	push	{r7, lr}
10003b3a:	b082      	sub	sp, #8
10003b3c:	af00      	add	r7, sp, #0
10003b3e:	6078      	str	r0, [r7, #4]
  can_node->NCR |= (uint32_t)CAN_NODE_NCR_INIT_Msk;
10003b40:	687b      	ldr	r3, [r7, #4]
10003b42:	681b      	ldr	r3, [r3, #0]
10003b44:	2201      	movs	r2, #1
10003b46:	431a      	orrs	r2, r3
10003b48:	687b      	ldr	r3, [r7, #4]
10003b4a:	601a      	str	r2, [r3, #0]
}
10003b4c:	46bd      	mov	sp, r7
10003b4e:	b002      	add	sp, #8
10003b50:	bd80      	pop	{r7, pc}
10003b52:	46c0      	nop			; (mov r8, r8)

10003b54 <XMC_CAN_NODE_ResetInitBit>:
 * \par<b>Related API's:</b><br>
 * XMC_CAN_NODE_SetInitBit()
 *
 */
__STATIC_INLINE void XMC_CAN_NODE_ResetInitBit(XMC_CAN_NODE_t *const can_node)
{
10003b54:	b580      	push	{r7, lr}
10003b56:	b082      	sub	sp, #8
10003b58:	af00      	add	r7, sp, #0
10003b5a:	6078      	str	r0, [r7, #4]
  can_node->NCR &= ~(uint32_t)CAN_NODE_NCR_INIT_Msk;
10003b5c:	687b      	ldr	r3, [r7, #4]
10003b5e:	681b      	ldr	r3, [r3, #0]
10003b60:	2201      	movs	r2, #1
10003b62:	4393      	bics	r3, r2
10003b64:	1c1a      	adds	r2, r3, #0
10003b66:	687b      	ldr	r3, [r7, #4]
10003b68:	601a      	str	r2, [r3, #0]
}
10003b6a:	46bd      	mov	sp, r7
10003b6c:	b002      	add	sp, #8
10003b6e:	bd80      	pop	{r7, pc}

10003b70 <XMC_CAN_NODE_ReSetAnalyzerMode>:
 * XMC_CAN_NODE_SetAnalyzerMode()
 *
 */

__STATIC_INLINE void XMC_CAN_NODE_ReSetAnalyzerMode(XMC_CAN_NODE_t *const can_node)
{
10003b70:	b580      	push	{r7, lr}
10003b72:	b082      	sub	sp, #8
10003b74:	af00      	add	r7, sp, #0
10003b76:	6078      	str	r0, [r7, #4]
  can_node->NCR &= ~(uint32_t)CAN_NODE_NCR_CALM_Msk;
10003b78:	687b      	ldr	r3, [r7, #4]
10003b7a:	681b      	ldr	r3, [r3, #0]
10003b7c:	2280      	movs	r2, #128	; 0x80
10003b7e:	4393      	bics	r3, r2
10003b80:	1c1a      	adds	r2, r3, #0
10003b82:	687b      	ldr	r3, [r7, #4]
10003b84:	601a      	str	r2, [r3, #0]
}
10003b86:	46bd      	mov	sp, r7
10003b88:	b002      	add	sp, #8
10003b8a:	bd80      	pop	{r7, pc}

10003b8c <XMC_CAN_MO_SetEventNodePointer>:
 */

__STATIC_INLINE void XMC_CAN_MO_SetEventNodePointer(const XMC_CAN_MO_t *const can_mo,
    const XMC_CAN_MO_POINTER_EVENT_t can_mo_ptr_int,
    const uint32_t service_request)
{
10003b8c:	b580      	push	{r7, lr}
10003b8e:	b084      	sub	sp, #16
10003b90:	af00      	add	r7, sp, #0
10003b92:	60f8      	str	r0, [r7, #12]
10003b94:	607a      	str	r2, [r7, #4]
10003b96:	230b      	movs	r3, #11
10003b98:	18fb      	adds	r3, r7, r3
10003b9a:	1c0a      	adds	r2, r1, #0
10003b9c:	701a      	strb	r2, [r3, #0]
  can_mo->can_mo_ptr->MOIPR = ((can_mo->can_mo_ptr->MOIPR ) & ~(uint32_t)((uint32_t)CAN_MO_MOIPR_Msk << (uint32_t)can_mo_ptr_int)) |
10003b9e:	68fb      	ldr	r3, [r7, #12]
10003ba0:	681b      	ldr	r3, [r3, #0]
10003ba2:	68fa      	ldr	r2, [r7, #12]
10003ba4:	6812      	ldr	r2, [r2, #0]
10003ba6:	6892      	ldr	r2, [r2, #8]
10003ba8:	210b      	movs	r1, #11
10003baa:	1879      	adds	r1, r7, r1
10003bac:	7809      	ldrb	r1, [r1, #0]
10003bae:	2007      	movs	r0, #7
10003bb0:	4088      	lsls	r0, r1
10003bb2:	1c01      	adds	r1, r0, #0
10003bb4:	43c9      	mvns	r1, r1
10003bb6:	4011      	ands	r1, r2
                              (service_request << (uint32_t)can_mo_ptr_int);
10003bb8:	220b      	movs	r2, #11
10003bba:	18ba      	adds	r2, r7, r2
10003bbc:	7812      	ldrb	r2, [r2, #0]
10003bbe:	6878      	ldr	r0, [r7, #4]
10003bc0:	4090      	lsls	r0, r2
10003bc2:	1c02      	adds	r2, r0, #0

__STATIC_INLINE void XMC_CAN_MO_SetEventNodePointer(const XMC_CAN_MO_t *const can_mo,
    const XMC_CAN_MO_POINTER_EVENT_t can_mo_ptr_int,
    const uint32_t service_request)
{
  can_mo->can_mo_ptr->MOIPR = ((can_mo->can_mo_ptr->MOIPR ) & ~(uint32_t)((uint32_t)CAN_MO_MOIPR_Msk << (uint32_t)can_mo_ptr_int)) |
10003bc4:	430a      	orrs	r2, r1
10003bc6:	609a      	str	r2, [r3, #8]
                              (service_request << (uint32_t)can_mo_ptr_int);
}
10003bc8:	46bd      	mov	sp, r7
10003bca:	b004      	add	sp, #16
10003bcc:	bd80      	pop	{r7, pc}
10003bce:	46c0      	nop			; (mov r8, r8)

10003bd0 <XMC_CAN_MO_EnableEvent>:
 *
 */

__STATIC_INLINE void XMC_CAN_MO_EnableEvent(const XMC_CAN_MO_t *const can_mo,
    const uint32_t event)
{
10003bd0:	b580      	push	{r7, lr}
10003bd2:	b082      	sub	sp, #8
10003bd4:	af00      	add	r7, sp, #0
10003bd6:	6078      	str	r0, [r7, #4]
10003bd8:	6039      	str	r1, [r7, #0]
  can_mo->can_mo_ptr->MOFCR |= event;
10003bda:	687b      	ldr	r3, [r7, #4]
10003bdc:	681b      	ldr	r3, [r3, #0]
10003bde:	687a      	ldr	r2, [r7, #4]
10003be0:	6812      	ldr	r2, [r2, #0]
10003be2:	6811      	ldr	r1, [r2, #0]
10003be4:	683a      	ldr	r2, [r7, #0]
10003be6:	430a      	orrs	r2, r1
10003be8:	601a      	str	r2, [r3, #0]
}
10003bea:	46bd      	mov	sp, r7
10003bec:	b002      	add	sp, #8
10003bee:	bd80      	pop	{r7, pc}

10003bf0 <CAN_NODE_MO_EnableTxEvent>:
 *   return (1);
 * }
 * @endcode
 */
__STATIC_INLINE void CAN_NODE_MO_EnableTxEvent(const CAN_NODE_LMO_t *const can_lmo)
{
10003bf0:	b580      	push	{r7, lr}
10003bf2:	b082      	sub	sp, #8
10003bf4:	af00      	add	r7, sp, #0
10003bf6:	6078      	str	r0, [r7, #4]
  XMC_ASSERT("CAN_NODE_MO_EnableTxEvent: null pointer", can_lmo != NULL);
  XMC_CAN_MO_EnableEvent(can_lmo->mo_ptr,XMC_CAN_MO_EVENT_TRANSMIT);
10003bf8:	687b      	ldr	r3, [r7, #4]
10003bfa:	681a      	ldr	r2, [r3, #0]
10003bfc:	2380      	movs	r3, #128	; 0x80
10003bfe:	029b      	lsls	r3, r3, #10
10003c00:	1c10      	adds	r0, r2, #0
10003c02:	1c19      	adds	r1, r3, #0
10003c04:	f7ff ffe4 	bl	10003bd0 <XMC_CAN_MO_EnableEvent>
}
10003c08:	46bd      	mov	sp, r7
10003c0a:	b002      	add	sp, #8
10003c0c:	bd80      	pop	{r7, pc}
10003c0e:	46c0      	nop			; (mov r8, r8)

10003c10 <CAN_NODE_MO_EnableRxEvent>:
 *   return (1);
 * }
 * @endcode
 */
__STATIC_INLINE void CAN_NODE_MO_EnableRxEvent(const CAN_NODE_LMO_t *const can_lmo)
{
10003c10:	b580      	push	{r7, lr}
10003c12:	b082      	sub	sp, #8
10003c14:	af00      	add	r7, sp, #0
10003c16:	6078      	str	r0, [r7, #4]
  XMC_ASSERT("CAN_NODE_MO_EnableRxEvent: null pointer", can_lmo != NULL);
  XMC_CAN_MO_EnableEvent(can_lmo->mo_ptr,XMC_CAN_MO_EVENT_RECEIVE);
10003c18:	687b      	ldr	r3, [r7, #4]
10003c1a:	681a      	ldr	r2, [r3, #0]
10003c1c:	2380      	movs	r3, #128	; 0x80
10003c1e:	025b      	lsls	r3, r3, #9
10003c20:	1c10      	adds	r0, r2, #0
10003c22:	1c19      	adds	r1, r3, #0
10003c24:	f7ff ffd4 	bl	10003bd0 <XMC_CAN_MO_EnableEvent>
}
10003c28:	46bd      	mov	sp, r7
10003c2a:	b002      	add	sp, #8
10003c2c:	bd80      	pop	{r7, pc}
10003c2e:	46c0      	nop			; (mov r8, r8)

10003c30 <CAN_NODE_SetNodeEvents>:
  * @param  handle is a pointer pointing to APP data structure.
  * @return None
  */

static void CAN_NODE_SetNodeEvents(const CAN_NODE_t *handle)
{
10003c30:	b580      	push	{r7, lr}
10003c32:	b084      	sub	sp, #16
10003c34:	af00      	add	r7, sp, #0
10003c36:	6078      	str	r0, [r7, #4]
  uint32_t lnode_event = 0U;
10003c38:	2300      	movs	r3, #0
10003c3a:	60fb      	str	r3, [r7, #12]

  XMC_ASSERT("CAN_NODE_lInit: handle null", handle != NULL);

  CAN_NODE_SetNodePointer(handle); /* set node service pointer */
10003c3c:	687b      	ldr	r3, [r7, #4]
10003c3e:	1c18      	adds	r0, r3, #0
10003c40:	f000 f832 	bl	10003ca8 <CAN_NODE_SetNodePointer>

  if (handle->txok_event_enable == true)
10003c44:	687b      	ldr	r3, [r7, #4]
10003c46:	22a4      	movs	r2, #164	; 0xa4
10003c48:	5c9b      	ldrb	r3, [r3, r2]
10003c4a:	2b00      	cmp	r3, #0
10003c4c:	d003      	beq.n	10003c56 <CAN_NODE_SetNodeEvents+0x26>
  {
    lnode_event |= XMC_CAN_NODE_EVENT_TX_INT;
10003c4e:	68fb      	ldr	r3, [r7, #12]
10003c50:	2202      	movs	r2, #2
10003c52:	4313      	orrs	r3, r2
10003c54:	60fb      	str	r3, [r7, #12]
  }
  if (handle->lec_event_enable == true)
10003c56:	687b      	ldr	r3, [r7, #4]
10003c58:	22a3      	movs	r2, #163	; 0xa3
10003c5a:	5c9b      	ldrb	r3, [r3, r2]
10003c5c:	2b00      	cmp	r3, #0
10003c5e:	d003      	beq.n	10003c68 <CAN_NODE_SetNodeEvents+0x38>
  {
    lnode_event |= XMC_CAN_NODE_EVENT_LEC;
10003c60:	68fb      	ldr	r3, [r7, #12]
10003c62:	2204      	movs	r2, #4
10003c64:	4313      	orrs	r3, r2
10003c66:	60fb      	str	r3, [r7, #12]
  }
  if (handle->alert_event_enable == true)
10003c68:	687b      	ldr	r3, [r7, #4]
10003c6a:	22a5      	movs	r2, #165	; 0xa5
10003c6c:	5c9b      	ldrb	r3, [r3, r2]
10003c6e:	2b00      	cmp	r3, #0
10003c70:	d003      	beq.n	10003c7a <CAN_NODE_SetNodeEvents+0x4a>
  {
    lnode_event |= XMC_CAN_NODE_EVENT_ALERT;
10003c72:	68fb      	ldr	r3, [r7, #12]
10003c74:	2208      	movs	r2, #8
10003c76:	4313      	orrs	r3, r2
10003c78:	60fb      	str	r3, [r7, #12]
  }
  XMC_CAN_NODE_EnableEvent(handle->node_ptr, (XMC_CAN_NODE_EVENT_t)lnode_event);
10003c7a:	687b      	ldr	r3, [r7, #4]
10003c7c:	685a      	ldr	r2, [r3, #4]
10003c7e:	68fb      	ldr	r3, [r7, #12]
10003c80:	1c10      	adds	r0, r2, #0
10003c82:	1c19      	adds	r1, r3, #0
10003c84:	f7fe fa6a 	bl	1000215c <XMC_CAN_NODE_EnableEvent>

  if (handle->framecount_event_enable == true)
10003c88:	687b      	ldr	r3, [r7, #4]
10003c8a:	22a6      	movs	r2, #166	; 0xa6
10003c8c:	5c9b      	ldrb	r3, [r3, r2]
10003c8e:	2b00      	cmp	r3, #0
10003c90:	d007      	beq.n	10003ca2 <CAN_NODE_SetNodeEvents+0x72>
  {
    XMC_CAN_NODE_EnableEvent(handle->node_ptr, XMC_CAN_NODE_EVENT_CFCIE);
10003c92:	687b      	ldr	r3, [r7, #4]
10003c94:	685a      	ldr	r2, [r3, #4]
10003c96:	2380      	movs	r3, #128	; 0x80
10003c98:	03db      	lsls	r3, r3, #15
10003c9a:	1c10      	adds	r0, r2, #0
10003c9c:	1c19      	adds	r1, r3, #0
10003c9e:	f7fe fa5d 	bl	1000215c <XMC_CAN_NODE_EnableEvent>
  }

}
10003ca2:	46bd      	mov	sp, r7
10003ca4:	b004      	add	sp, #16
10003ca6:	bd80      	pop	{r7, pc}

10003ca8 <CAN_NODE_SetNodePointer>:
  * @brief  Function to set the Node event pointer
  *
  */

static void CAN_NODE_SetNodePointer(const CAN_NODE_t *handle)
{
10003ca8:	b580      	push	{r7, lr}
10003caa:	b082      	sub	sp, #8
10003cac:	af00      	add	r7, sp, #0
10003cae:	6078      	str	r0, [r7, #4]

  XMC_ASSERT("CAN_NODE_SetNodePointer: handle null", handle != NULL);

  /* Configured the node event pointer for the alert event with the service request number */
  XMC_CAN_NODE_SetEventNodePointer(handle->node_ptr, XMC_CAN_NODE_POINTER_EVENT_ALERT,
10003cb0:	687b      	ldr	r3, [r7, #4]
10003cb2:	6859      	ldr	r1, [r3, #4]
                                                        handle->node_sr_ptr->alert_event_sr);
10003cb4:	687b      	ldr	r3, [r7, #4]
10003cb6:	228c      	movs	r2, #140	; 0x8c
10003cb8:	589b      	ldr	r3, [r3, r2]
10003cba:	781b      	ldrb	r3, [r3, #0]
{

  XMC_ASSERT("CAN_NODE_SetNodePointer: handle null", handle != NULL);

  /* Configured the node event pointer for the alert event with the service request number */
  XMC_CAN_NODE_SetEventNodePointer(handle->node_ptr, XMC_CAN_NODE_POINTER_EVENT_ALERT,
10003cbc:	1c08      	adds	r0, r1, #0
10003cbe:	2100      	movs	r1, #0
10003cc0:	1c1a      	adds	r2, r3, #0
10003cc2:	f7ff fed9 	bl	10003a78 <XMC_CAN_NODE_SetEventNodePointer>
                                                        handle->node_sr_ptr->alert_event_sr);
  /* Configured the node event pointer for the LEC event with the service request number */
  XMC_CAN_NODE_SetEventNodePointer(handle->node_ptr, XMC_CAN_NODE_POINTER_EVENT_LEC,
10003cc6:	687b      	ldr	r3, [r7, #4]
10003cc8:	6859      	ldr	r1, [r3, #4]
                                                         handle->node_sr_ptr->lec_event_sr);
10003cca:	687b      	ldr	r3, [r7, #4]
10003ccc:	228c      	movs	r2, #140	; 0x8c
10003cce:	589b      	ldr	r3, [r3, r2]
10003cd0:	785b      	ldrb	r3, [r3, #1]

  /* Configured the node event pointer for the alert event with the service request number */
  XMC_CAN_NODE_SetEventNodePointer(handle->node_ptr, XMC_CAN_NODE_POINTER_EVENT_ALERT,
                                                        handle->node_sr_ptr->alert_event_sr);
  /* Configured the node event pointer for the LEC event with the service request number */
  XMC_CAN_NODE_SetEventNodePointer(handle->node_ptr, XMC_CAN_NODE_POINTER_EVENT_LEC,
10003cd2:	1c08      	adds	r0, r1, #0
10003cd4:	2104      	movs	r1, #4
10003cd6:	1c1a      	adds	r2, r3, #0
10003cd8:	f7ff fece 	bl	10003a78 <XMC_CAN_NODE_SetEventNodePointer>
                                                         handle->node_sr_ptr->lec_event_sr);
  /* Configured the node event pointer for the TXOK event with the service request number */
  XMC_CAN_NODE_SetEventNodePointer(handle->node_ptr, XMC_CAN_NODE_POINTER_EVENT_TRANSFER_OK,
10003cdc:	687b      	ldr	r3, [r7, #4]
10003cde:	6859      	ldr	r1, [r3, #4]
                                                               handle->node_sr_ptr->txok_event_sr);
10003ce0:	687b      	ldr	r3, [r7, #4]
10003ce2:	228c      	movs	r2, #140	; 0x8c
10003ce4:	589b      	ldr	r3, [r3, r2]
10003ce6:	789b      	ldrb	r3, [r3, #2]
                                                        handle->node_sr_ptr->alert_event_sr);
  /* Configured the node event pointer for the LEC event with the service request number */
  XMC_CAN_NODE_SetEventNodePointer(handle->node_ptr, XMC_CAN_NODE_POINTER_EVENT_LEC,
                                                         handle->node_sr_ptr->lec_event_sr);
  /* Configured the node event pointer for the TXOK event with the service request number */
  XMC_CAN_NODE_SetEventNodePointer(handle->node_ptr, XMC_CAN_NODE_POINTER_EVENT_TRANSFER_OK,
10003ce8:	1c08      	adds	r0, r1, #0
10003cea:	2108      	movs	r1, #8
10003cec:	1c1a      	adds	r2, r3, #0
10003cee:	f7ff fec3 	bl	10003a78 <XMC_CAN_NODE_SetEventNodePointer>
                                                               handle->node_sr_ptr->txok_event_sr);
  /* Configured the node event pointer for the Frame counter event with the service request number */
  XMC_CAN_NODE_SetEventNodePointer(handle->node_ptr, XMC_CAN_NODE_POINTER_EVENT_FRAME_COUNTER,
10003cf2:	687b      	ldr	r3, [r7, #4]
10003cf4:	6859      	ldr	r1, [r3, #4]
                                                             handle->node_sr_ptr->framecount_event_sr);
10003cf6:	687b      	ldr	r3, [r7, #4]
10003cf8:	228c      	movs	r2, #140	; 0x8c
10003cfa:	589b      	ldr	r3, [r3, r2]
10003cfc:	78db      	ldrb	r3, [r3, #3]
                                                         handle->node_sr_ptr->lec_event_sr);
  /* Configured the node event pointer for the TXOK event with the service request number */
  XMC_CAN_NODE_SetEventNodePointer(handle->node_ptr, XMC_CAN_NODE_POINTER_EVENT_TRANSFER_OK,
                                                               handle->node_sr_ptr->txok_event_sr);
  /* Configured the node event pointer for the Frame counter event with the service request number */
  XMC_CAN_NODE_SetEventNodePointer(handle->node_ptr, XMC_CAN_NODE_POINTER_EVENT_FRAME_COUNTER,
10003cfe:	1c08      	adds	r0, r1, #0
10003d00:	210c      	movs	r1, #12
10003d02:	1c1a      	adds	r2, r3, #0
10003d04:	f7ff feb8 	bl	10003a78 <XMC_CAN_NODE_SetEventNodePointer>
                                                             handle->node_sr_ptr->framecount_event_sr);

}
10003d08:	46bd      	mov	sp, r7
10003d0a:	b002      	add	sp, #8
10003d0c:	bd80      	pop	{r7, pc}
10003d0e:	46c0      	nop			; (mov r8, r8)

10003d10 <CAN_NODE_MO_Init>:
  XMC_CAN_NODE_NominalBitTimeConfigure(can_node, can_bit_time);
}

/*  Function to initialize the CAN MO based on UI configuration. */
void CAN_NODE_MO_Init(const CAN_NODE_LMO_t *lmo_ptr)
{
10003d10:	b580      	push	{r7, lr}
10003d12:	b082      	sub	sp, #8
10003d14:	af00      	add	r7, sp, #0
10003d16:	6078      	str	r0, [r7, #4]
  XMC_ASSERT("CAN_NODE_MO_Init: lmo_ptr null", lmo_ptr != NULL);

  XMC_CAN_MO_Config(lmo_ptr->mo_ptr);
10003d18:	687b      	ldr	r3, [r7, #4]
10003d1a:	681b      	ldr	r3, [r3, #0]
10003d1c:	1c18      	adds	r0, r3, #0
10003d1e:	f7fd ffff 	bl	10001d20 <XMC_CAN_MO_Config>

  if (lmo_ptr->tx_event_enable == true)
10003d22:	687b      	ldr	r3, [r7, #4]
10003d24:	79db      	ldrb	r3, [r3, #7]
10003d26:	2b00      	cmp	r3, #0
10003d28:	d00c      	beq.n	10003d44 <CAN_NODE_MO_Init+0x34>
  {
    XMC_CAN_MO_SetEventNodePointer(lmo_ptr->mo_ptr, XMC_CAN_MO_POINTER_EVENT_TRANSMIT, lmo_ptr->tx_sr);
10003d2a:	687b      	ldr	r3, [r7, #4]
10003d2c:	681a      	ldr	r2, [r3, #0]
10003d2e:	687b      	ldr	r3, [r7, #4]
10003d30:	795b      	ldrb	r3, [r3, #5]
10003d32:	1c10      	adds	r0, r2, #0
10003d34:	2104      	movs	r1, #4
10003d36:	1c1a      	adds	r2, r3, #0
10003d38:	f7ff ff28 	bl	10003b8c <XMC_CAN_MO_SetEventNodePointer>
    CAN_NODE_MO_EnableTxEvent(lmo_ptr);
10003d3c:	687b      	ldr	r3, [r7, #4]
10003d3e:	1c18      	adds	r0, r3, #0
10003d40:	f7ff ff56 	bl	10003bf0 <CAN_NODE_MO_EnableTxEvent>
  }
  if (lmo_ptr->rx_event_enable == true)
10003d44:	687b      	ldr	r3, [r7, #4]
10003d46:	7a1b      	ldrb	r3, [r3, #8]
10003d48:	2b00      	cmp	r3, #0
10003d4a:	d00c      	beq.n	10003d66 <CAN_NODE_MO_Init+0x56>
  {
    XMC_CAN_MO_SetEventNodePointer(lmo_ptr->mo_ptr, XMC_CAN_MO_POINTER_EVENT_RECEIVE, lmo_ptr->rx_sr);
10003d4c:	687b      	ldr	r3, [r7, #4]
10003d4e:	681a      	ldr	r2, [r3, #0]
10003d50:	687b      	ldr	r3, [r7, #4]
10003d52:	799b      	ldrb	r3, [r3, #6]
10003d54:	1c10      	adds	r0, r2, #0
10003d56:	2100      	movs	r1, #0
10003d58:	1c1a      	adds	r2, r3, #0
10003d5a:	f7ff ff17 	bl	10003b8c <XMC_CAN_MO_SetEventNodePointer>
    CAN_NODE_MO_EnableRxEvent(lmo_ptr);
10003d5e:	687b      	ldr	r3, [r7, #4]
10003d60:	1c18      	adds	r0, r3, #0
10003d62:	f7ff ff55 	bl	10003c10 <CAN_NODE_MO_EnableRxEvent>
  }

}
10003d66:	46bd      	mov	sp, r7
10003d68:	b002      	add	sp, #8
10003d6a:	bd80      	pop	{r7, pc}

10003d6c <CAN_NODE_MO_Transmit>:

/* Function to transmit the can MO frame.  */
CAN_NODE_STATUS_t CAN_NODE_MO_Transmit(const CAN_NODE_LMO_t *lmo_ptr)
{
10003d6c:	b590      	push	{r4, r7, lr}
10003d6e:	b085      	sub	sp, #20
10003d70:	af00      	add	r7, sp, #0
10003d72:	6078      	str	r0, [r7, #4]
  CAN_NODE_STATUS_t status = CAN_NODE_STATUS_SUCCESS;
10003d74:	230f      	movs	r3, #15
10003d76:	18fb      	adds	r3, r7, r3
10003d78:	2200      	movs	r2, #0
10003d7a:	701a      	strb	r2, [r3, #0]
  XMC_ASSERT("CAN_NODE_MO_Transmit: lmo_ptr null", lmo_ptr != NULL);

  status = (CAN_NODE_STATUS_t)XMC_CAN_MO_Transmit(lmo_ptr->mo_ptr);
10003d7c:	687b      	ldr	r3, [r7, #4]
10003d7e:	681b      	ldr	r3, [r3, #0]
10003d80:	220f      	movs	r2, #15
10003d82:	18bc      	adds	r4, r7, r2
10003d84:	1c18      	adds	r0, r3, #0
10003d86:	f7fe f8ad 	bl	10001ee4 <XMC_CAN_MO_Transmit>
10003d8a:	1c03      	adds	r3, r0, #0
10003d8c:	7023      	strb	r3, [r4, #0]
  return (status);
10003d8e:	230f      	movs	r3, #15
10003d90:	18fb      	adds	r3, r7, r3
10003d92:	781b      	ldrb	r3, [r3, #0]
}
10003d94:	1c18      	adds	r0, r3, #0
10003d96:	46bd      	mov	sp, r7
10003d98:	b005      	add	sp, #20
10003d9a:	bd90      	pop	{r4, r7, pc}

10003d9c <CAN_NODE_MO_Receive>:

/* Function to read the received CAN message from the selected message object. */
CAN_NODE_STATUS_t CAN_NODE_MO_Receive( CAN_NODE_LMO_t *lmo_ptr)
{
10003d9c:	b590      	push	{r4, r7, lr}
10003d9e:	b085      	sub	sp, #20
10003da0:	af00      	add	r7, sp, #0
10003da2:	6078      	str	r0, [r7, #4]
  CAN_NODE_STATUS_t status = CAN_NODE_STATUS_SUCCESS;
10003da4:	230f      	movs	r3, #15
10003da6:	18fb      	adds	r3, r7, r3
10003da8:	2200      	movs	r2, #0
10003daa:	701a      	strb	r2, [r3, #0]
  XMC_ASSERT("CAN_NODE_MO_Receive: lmo_ptr null", lmo_ptr != NULL);

  status = (CAN_NODE_STATUS_t)XMC_CAN_MO_Receive(lmo_ptr->mo_ptr);
10003dac:	687b      	ldr	r3, [r7, #4]
10003dae:	681b      	ldr	r3, [r3, #0]
10003db0:	220f      	movs	r2, #15
10003db2:	18bc      	adds	r4, r7, r2
10003db4:	1c18      	adds	r0, r3, #0
10003db6:	f7fe f8cd 	bl	10001f54 <XMC_CAN_MO_Receive>
10003dba:	1c03      	adds	r3, r0, #0
10003dbc:	7023      	strb	r3, [r4, #0]
  return (status);
10003dbe:	230f      	movs	r3, #15
10003dc0:	18fb      	adds	r3, r7, r3
10003dc2:	781b      	ldrb	r3, [r3, #0]
}
10003dc4:	1c18      	adds	r0, r3, #0
10003dc6:	46bd      	mov	sp, r7
10003dc8:	b005      	add	sp, #20
10003dca:	bd90      	pop	{r4, r7, pc}

10003dcc <CAN_NODE_MO_UpdateData>:
  return (status);
}

/* Function to updates the data for the CAN Message Object. */
CAN_NODE_STATUS_t CAN_NODE_MO_UpdateData(const CAN_NODE_LMO_t *const lmo_ptr, uint8_t *array_data)
{
10003dcc:	b590      	push	{r4, r7, lr}
10003dce:	b085      	sub	sp, #20
10003dd0:	af00      	add	r7, sp, #0
10003dd2:	6078      	str	r0, [r7, #4]
10003dd4:	6039      	str	r1, [r7, #0]
  CAN_NODE_STATUS_t status = CAN_NODE_STATUS_SUCCESS;
10003dd6:	230f      	movs	r3, #15
10003dd8:	18fb      	adds	r3, r7, r3
10003dda:	2200      	movs	r2, #0
10003ddc:	701a      	strb	r2, [r3, #0]
  uint32_t *data_pointer = (uint32_t*) array_data;
10003dde:	683b      	ldr	r3, [r7, #0]
10003de0:	60bb      	str	r3, [r7, #8]

  XMC_ASSERT("CAN_NODE_MO_UpdateData: lmo_ptr null", lmo_ptr != NULL);

  lmo_ptr->mo_ptr->can_data[0U] = *data_pointer;
10003de2:	687b      	ldr	r3, [r7, #4]
10003de4:	681b      	ldr	r3, [r3, #0]
10003de6:	68ba      	ldr	r2, [r7, #8]
10003de8:	6812      	ldr	r2, [r2, #0]
10003dea:	611a      	str	r2, [r3, #16]
  lmo_ptr->mo_ptr->can_data[1U] = *(data_pointer + 1U);
10003dec:	687b      	ldr	r3, [r7, #4]
10003dee:	681b      	ldr	r3, [r3, #0]
10003df0:	68ba      	ldr	r2, [r7, #8]
10003df2:	6852      	ldr	r2, [r2, #4]
10003df4:	615a      	str	r2, [r3, #20]

  status = (CAN_NODE_STATUS_t)XMC_CAN_MO_UpdateData(lmo_ptr->mo_ptr);
10003df6:	687b      	ldr	r3, [r7, #4]
10003df8:	681b      	ldr	r3, [r3, #0]
10003dfa:	220f      	movs	r2, #15
10003dfc:	18bc      	adds	r4, r7, r2
10003dfe:	1c18      	adds	r0, r3, #0
10003e00:	f7fe f82e 	bl	10001e60 <XMC_CAN_MO_UpdateData>
10003e04:	1c03      	adds	r3, r0, #0
10003e06:	7023      	strb	r3, [r4, #0]
  return (status);
10003e08:	230f      	movs	r3, #15
10003e0a:	18fb      	adds	r3, r7, r3
10003e0c:	781b      	ldrb	r3, [r3, #0]
}
10003e0e:	1c18      	adds	r0, r3, #0
10003e10:	46bd      	mov	sp, r7
10003e12:	b005      	add	sp, #20
10003e14:	bd90      	pop	{r4, r7, pc}
10003e16:	46c0      	nop			; (mov r8, r8)

10003e18 <CAN_NODE_Init>:
/*  Function to initialize the CAN node by configuring the baud rate, can bus type (External or internal)
 *  and message objects.
 */

CAN_NODE_STATUS_t CAN_NODE_Init(const CAN_NODE_t* handle)
{
10003e18:	b590      	push	{r4, r7, lr}
10003e1a:	b087      	sub	sp, #28
10003e1c:	af00      	add	r7, sp, #0
10003e1e:	6078      	str	r0, [r7, #4]
  CAN_NODE_STATUS_t status = CAN_NODE_STATUS_SUCCESS;
10003e20:	2317      	movs	r3, #23
10003e22:	18fb      	adds	r3, r7, r3
10003e24:	2200      	movs	r2, #0
10003e26:	701a      	strb	r2, [r3, #0]
  uint32_t loop_count;
  const CAN_NODE_LMO_t *lmo_ptr;

  XMC_ASSERT("CAN_NODE_Init: handle null", handle != NULL);

  const CAN_NODE_GPIO_t *const lgpio_ptr = handle->gpio_out;
10003e28:	687b      	ldr	r3, [r7, #4]
10003e2a:	2290      	movs	r2, #144	; 0x90
10003e2c:	589b      	ldr	r3, [r3, r2]
10003e2e:	60fb      	str	r3, [r7, #12]

  /* Initialize the GLOBAL_CAN APP */
  status  = (CAN_NODE_STATUS_t)GLOBAL_CAN_Init(handle->global_ptr);
10003e30:	687b      	ldr	r3, [r7, #4]
10003e32:	681b      	ldr	r3, [r3, #0]
10003e34:	2217      	movs	r2, #23
10003e36:	18bc      	adds	r4, r7, r2
10003e38:	1c18      	adds	r0, r3, #0
10003e3a:	f7ff fa7f 	bl	1000333c <GLOBAL_CAN_Init>
10003e3e:	1c03      	adds	r3, r0, #0
10003e40:	7023      	strb	r3, [r4, #0]

  if (status == CAN_NODE_STATUS_SUCCESS)
10003e42:	2317      	movs	r3, #23
10003e44:	18fb      	adds	r3, r7, r3
10003e46:	781b      	ldrb	r3, [r3, #0]
10003e48:	2b00      	cmp	r3, #0
10003e4a:	d000      	beq.n	10003e4e <CAN_NODE_Init+0x36>
10003e4c:	e085      	b.n	10003f5a <CAN_NODE_Init+0x142>
  {
    /* Initialize the GUI configured values for baud rate to NBTR Reg */
    if (XMC_CAN_NODE_NominalBitTimeConfigureEx(handle->node_ptr, handle->baudrate_config) == XMC_CAN_STATUS_SUCCESS)
10003e4e:	687b      	ldr	r3, [r7, #4]
10003e50:	685a      	ldr	r2, [r3, #4]
10003e52:	687b      	ldr	r3, [r7, #4]
10003e54:	689b      	ldr	r3, [r3, #8]
10003e56:	1c10      	adds	r0, r2, #0
10003e58:	1c19      	adds	r1, r3, #0
10003e5a:	f7fd fdd5 	bl	10001a08 <XMC_CAN_NODE_NominalBitTimeConfigureEx>
10003e5e:	1e03      	subs	r3, r0, #0
10003e60:	d176      	bne.n	10003f50 <CAN_NODE_Init+0x138>
    {
      /* set CCE and INIT bit NCR for node configuration */

      XMC_CAN_NODE_EnableConfigurationChange(handle->node_ptr);
10003e62:	687b      	ldr	r3, [r7, #4]
10003e64:	685b      	ldr	r3, [r3, #4]
10003e66:	1c18      	adds	r0, r3, #0
10003e68:	f7ff fe4a 	bl	10003b00 <XMC_CAN_NODE_EnableConfigurationChange>
      XMC_CAN_NODE_SetInitBit(handle->node_ptr);
10003e6c:	687b      	ldr	r3, [r7, #4]
10003e6e:	685b      	ldr	r3, [r3, #4]
10003e70:	1c18      	adds	r0, r3, #0
10003e72:	f7ff fe61 	bl	10003b38 <XMC_CAN_NODE_SetInitBit>
      XMC_CAN_NODE_ReSetAnalyzerMode(handle->node_ptr);
10003e76:	687b      	ldr	r3, [r7, #4]
10003e78:	685b      	ldr	r3, [r3, #4]
10003e7a:	1c18      	adds	r0, r3, #0
10003e7c:	f7ff fe78 	bl	10003b70 <XMC_CAN_NODE_ReSetAnalyzerMode>

      if (handle->loopback_enable == true) /* Loop back mode enabled */
10003e80:	687b      	ldr	r3, [r7, #4]
10003e82:	22a7      	movs	r2, #167	; 0xa7
10003e84:	5c9b      	ldrb	r3, [r3, r2]
10003e86:	2b00      	cmp	r3, #0
10003e88:	d005      	beq.n	10003e96 <CAN_NODE_Init+0x7e>
      {
        XMC_CAN_NODE_EnableLoopBack(handle->node_ptr);
10003e8a:	687b      	ldr	r3, [r7, #4]
10003e8c:	685b      	ldr	r3, [r3, #4]
10003e8e:	1c18      	adds	r0, r3, #0
10003e90:	f7ff fe28 	bl	10003ae4 <XMC_CAN_NODE_EnableLoopBack>
10003e94:	e016      	b.n	10003ec4 <CAN_NODE_Init+0xac>
      }
      else
      {
        XMC_GPIO_Init(handle->gpio_in->port, handle->gpio_in->pin, handle->gpio_in_config);
10003e96:	687b      	ldr	r3, [r7, #4]
10003e98:	2298      	movs	r2, #152	; 0x98
10003e9a:	589b      	ldr	r3, [r3, r2]
10003e9c:	6818      	ldr	r0, [r3, #0]
10003e9e:	687b      	ldr	r3, [r7, #4]
10003ea0:	2298      	movs	r2, #152	; 0x98
10003ea2:	589b      	ldr	r3, [r3, r2]
10003ea4:	7919      	ldrb	r1, [r3, #4]
10003ea6:	687b      	ldr	r3, [r7, #4]
10003ea8:	229c      	movs	r2, #156	; 0x9c
10003eaa:	589b      	ldr	r3, [r3, r2]
10003eac:	1c1a      	adds	r2, r3, #0
10003eae:	f7fd f973 	bl	10001198 <XMC_GPIO_Init>
        XMC_CAN_NODE_SetReceiveInput(handle->node_ptr, handle->rx_signal);
10003eb2:	687b      	ldr	r3, [r7, #4]
10003eb4:	6859      	ldr	r1, [r3, #4]
10003eb6:	687b      	ldr	r3, [r7, #4]
10003eb8:	22a0      	movs	r2, #160	; 0xa0
10003eba:	5c9b      	ldrb	r3, [r3, r2]
10003ebc:	1c08      	adds	r0, r1, #0
10003ebe:	1c19      	adds	r1, r3, #0
10003ec0:	f7ff fdfa 	bl	10003ab8 <XMC_CAN_NODE_SetReceiveInput>
      }
      CAN_NODE_SetNodeEvents(handle); /* API to enable node events */
10003ec4:	687b      	ldr	r3, [r7, #4]
10003ec6:	1c18      	adds	r0, r3, #0
10003ec8:	f7ff feb2 	bl	10003c30 <CAN_NODE_SetNodeEvents>

      for (loop_count = 0U; loop_count < handle->mo_count; loop_count++)
10003ecc:	2300      	movs	r3, #0
10003ece:	613b      	str	r3, [r7, #16]
10003ed0:	e01a      	b.n	10003f08 <CAN_NODE_Init+0xf0>
      {
        lmo_ptr = handle->lmobj_ptr[loop_count];
10003ed2:	687a      	ldr	r2, [r7, #4]
10003ed4:	693b      	ldr	r3, [r7, #16]
10003ed6:	3302      	adds	r3, #2
10003ed8:	009b      	lsls	r3, r3, #2
10003eda:	18d3      	adds	r3, r2, r3
10003edc:	685b      	ldr	r3, [r3, #4]
10003ede:	60bb      	str	r3, [r7, #8]
        XMC_CAN_AllocateMOtoNodeList(handle->global_ptr->canglobal_ptr, handle->node_num, lmo_ptr->number);
10003ee0:	687b      	ldr	r3, [r7, #4]
10003ee2:	681b      	ldr	r3, [r3, #0]
10003ee4:	6859      	ldr	r1, [r3, #4]
10003ee6:	687b      	ldr	r3, [r7, #4]
10003ee8:	22a1      	movs	r2, #161	; 0xa1
10003eea:	5c9a      	ldrb	r2, [r3, r2]
10003eec:	68bb      	ldr	r3, [r7, #8]
10003eee:	791b      	ldrb	r3, [r3, #4]
10003ef0:	1c08      	adds	r0, r1, #0
10003ef2:	1c11      	adds	r1, r2, #0
10003ef4:	1c1a      	adds	r2, r3, #0
10003ef6:	f7fd fe35 	bl	10001b64 <XMC_CAN_AllocateMOtoNodeList>
        CAN_NODE_MO_Init(lmo_ptr);
10003efa:	68bb      	ldr	r3, [r7, #8]
10003efc:	1c18      	adds	r0, r3, #0
10003efe:	f7ff ff07 	bl	10003d10 <CAN_NODE_MO_Init>
        XMC_GPIO_Init(handle->gpio_in->port, handle->gpio_in->pin, handle->gpio_in_config);
        XMC_CAN_NODE_SetReceiveInput(handle->node_ptr, handle->rx_signal);
      }
      CAN_NODE_SetNodeEvents(handle); /* API to enable node events */

      for (loop_count = 0U; loop_count < handle->mo_count; loop_count++)
10003f02:	693b      	ldr	r3, [r7, #16]
10003f04:	3301      	adds	r3, #1
10003f06:	613b      	str	r3, [r7, #16]
10003f08:	687b      	ldr	r3, [r7, #4]
10003f0a:	22a2      	movs	r2, #162	; 0xa2
10003f0c:	5c9b      	ldrb	r3, [r3, r2]
10003f0e:	1e1a      	subs	r2, r3, #0
10003f10:	693b      	ldr	r3, [r7, #16]
10003f12:	429a      	cmp	r2, r3
10003f14:	d8dd      	bhi.n	10003ed2 <CAN_NODE_Init+0xba>
        lmo_ptr = handle->lmobj_ptr[loop_count];
        XMC_CAN_AllocateMOtoNodeList(handle->global_ptr->canglobal_ptr, handle->node_num, lmo_ptr->number);
        CAN_NODE_MO_Init(lmo_ptr);
      }
      /* reset CCE and INIT bit NCR for node configuration */
      XMC_CAN_NODE_DisableConfigurationChange(handle->node_ptr);
10003f16:	687b      	ldr	r3, [r7, #4]
10003f18:	685b      	ldr	r3, [r3, #4]
10003f1a:	1c18      	adds	r0, r3, #0
10003f1c:	f7ff fdfe 	bl	10003b1c <XMC_CAN_NODE_DisableConfigurationChange>
      XMC_CAN_NODE_ResetInitBit(handle->node_ptr);
10003f20:	687b      	ldr	r3, [r7, #4]
10003f22:	685b      	ldr	r3, [r3, #4]
10003f24:	1c18      	adds	r0, r3, #0
10003f26:	f7ff fe15 	bl	10003b54 <XMC_CAN_NODE_ResetInitBit>
      if (handle->loopback_enable == false)
10003f2a:	687b      	ldr	r3, [r7, #4]
10003f2c:	22a7      	movs	r2, #167	; 0xa7
10003f2e:	5c9b      	ldrb	r3, [r3, r2]
10003f30:	2201      	movs	r2, #1
10003f32:	4053      	eors	r3, r2
10003f34:	b2db      	uxtb	r3, r3
10003f36:	2b00      	cmp	r3, #0
10003f38:	d013      	beq.n	10003f62 <CAN_NODE_Init+0x14a>
      {
        /* CAN transmit pin configuration */
        XMC_GPIO_Init(lgpio_ptr->port, lgpio_ptr->pin, handle->gpio_out_config);
10003f3a:	68fb      	ldr	r3, [r7, #12]
10003f3c:	6818      	ldr	r0, [r3, #0]
10003f3e:	68fb      	ldr	r3, [r7, #12]
10003f40:	7919      	ldrb	r1, [r3, #4]
10003f42:	687b      	ldr	r3, [r7, #4]
10003f44:	2294      	movs	r2, #148	; 0x94
10003f46:	589b      	ldr	r3, [r3, r2]
10003f48:	1c1a      	adds	r2, r3, #0
10003f4a:	f7fd f925 	bl	10001198 <XMC_GPIO_Init>
10003f4e:	e008      	b.n	10003f62 <CAN_NODE_Init+0x14a>
      }
    }
    else
    {
      status = CAN_NODE_STATUS_FAILURE;
10003f50:	2317      	movs	r3, #23
10003f52:	18fb      	adds	r3, r7, r3
10003f54:	2201      	movs	r2, #1
10003f56:	701a      	strb	r2, [r3, #0]
10003f58:	e003      	b.n	10003f62 <CAN_NODE_Init+0x14a>
    }
  }
  else
  {
    status = CAN_NODE_STATUS_FAILURE;
10003f5a:	2317      	movs	r3, #23
10003f5c:	18fb      	adds	r3, r7, r3
10003f5e:	2201      	movs	r2, #1
10003f60:	701a      	strb	r2, [r3, #0]
  }

  return (status);
10003f62:	2317      	movs	r3, #23
10003f64:	18fb      	adds	r3, r7, r3
10003f66:	781b      	ldrb	r3, [r3, #0]
}
10003f68:	1c18      	adds	r0, r3, #0
10003f6a:	46bd      	mov	sp, r7
10003f6c:	b007      	add	sp, #28
10003f6e:	bd90      	pop	{r4, r7, pc}

10003f70 <DAVE_Init>:
 * @param[in]  None
 *
 * @return  DAVE_STATUS_t <BR>
 ******************************************************************************/
__WEAK DAVE_STATUS_t DAVE_Init(void)
{
10003f70:	b590      	push	{r4, r7, lr}
10003f72:	b083      	sub	sp, #12
10003f74:	af00      	add	r7, sp, #0
  DAVE_STATUS_t init_status;
  
  init_status = DAVE_STATUS_SUCCESS;
10003f76:	1dfb      	adds	r3, r7, #7
10003f78:	2200      	movs	r2, #0
10003f7a:	701a      	strb	r2, [r3, #0]
     /** @Initialization of APPs Init Functions */
     init_status = (DAVE_STATUS_t)CLOCK_XMC1_Init(&CLOCK_XMC1_0);
10003f7c:	1dfc      	adds	r4, r7, #7
10003f7e:	4b84      	ldr	r3, [pc, #528]	; (10004190 <DAVE_Init+0x220>)
10003f80:	1c18      	adds	r0, r3, #0
10003f82:	f7ff fa2f 	bl	100033e4 <CLOCK_XMC1_Init>
10003f86:	1c03      	adds	r3, r0, #0
10003f88:	7023      	strb	r3, [r4, #0]

  if (init_status == DAVE_STATUS_SUCCESS)
10003f8a:	1dfb      	adds	r3, r7, #7
10003f8c:	781b      	ldrb	r3, [r3, #0]
10003f8e:	2b00      	cmp	r3, #0
10003f90:	d106      	bne.n	10003fa0 <DAVE_Init+0x30>
  {
	 /**  Initialization of CAN_NODE APP instance CAN_NODE_0 */
	 init_status = (DAVE_STATUS_t)CAN_NODE_Init(&CAN_NODE_0); 
10003f92:	1dfc      	adds	r4, r7, #7
10003f94:	4b7f      	ldr	r3, [pc, #508]	; (10004194 <DAVE_Init+0x224>)
10003f96:	1c18      	adds	r0, r3, #0
10003f98:	f7ff ff3e 	bl	10003e18 <CAN_NODE_Init>
10003f9c:	1c03      	adds	r3, r0, #0
10003f9e:	7023      	strb	r3, [r4, #0]
   } 
  if (init_status == DAVE_STATUS_SUCCESS)
10003fa0:	1dfb      	adds	r3, r7, #7
10003fa2:	781b      	ldrb	r3, [r3, #0]
10003fa4:	2b00      	cmp	r3, #0
10003fa6:	d106      	bne.n	10003fb6 <DAVE_Init+0x46>
  {
	 /**  Initialization of INTERRUPT APP instance CAN_RX_ULTRASONIC */
	 init_status = (DAVE_STATUS_t)INTERRUPT_Init(&CAN_RX_ULTRASONIC); 
10003fa8:	1dfc      	adds	r4, r7, #7
10003faa:	4b7b      	ldr	r3, [pc, #492]	; (10004198 <DAVE_Init+0x228>)
10003fac:	1c18      	adds	r0, r3, #0
10003fae:	f7ff f85d 	bl	1000306c <INTERRUPT_Init>
10003fb2:	1c03      	adds	r3, r0, #0
10003fb4:	7023      	strb	r3, [r4, #0]
   } 
  if (init_status == DAVE_STATUS_SUCCESS)
10003fb6:	1dfb      	adds	r3, r7, #7
10003fb8:	781b      	ldrb	r3, [r3, #0]
10003fba:	2b00      	cmp	r3, #0
10003fbc:	d106      	bne.n	10003fcc <DAVE_Init+0x5c>
  {
	 /**  Initialization of PWM APP instance PWM_servo_fl */
	 init_status = (DAVE_STATUS_t)PWM_Init(&PWM_servo_fl); 
10003fbe:	1dfc      	adds	r4, r7, #7
10003fc0:	4b76      	ldr	r3, [pc, #472]	; (1000419c <DAVE_Init+0x22c>)
10003fc2:	1c18      	adds	r0, r3, #0
10003fc4:	f7fe fe8c 	bl	10002ce0 <PWM_Init>
10003fc8:	1c03      	adds	r3, r0, #0
10003fca:	7023      	strb	r3, [r4, #0]
   } 
  if (init_status == DAVE_STATUS_SUCCESS)
10003fcc:	1dfb      	adds	r3, r7, #7
10003fce:	781b      	ldrb	r3, [r3, #0]
10003fd0:	2b00      	cmp	r3, #0
10003fd2:	d106      	bne.n	10003fe2 <DAVE_Init+0x72>
  {
	 /**  Initialization of PWM APP instance PWM_servo_fr */
	 init_status = (DAVE_STATUS_t)PWM_Init(&PWM_servo_fr); 
10003fd4:	1dfc      	adds	r4, r7, #7
10003fd6:	4b72      	ldr	r3, [pc, #456]	; (100041a0 <DAVE_Init+0x230>)
10003fd8:	1c18      	adds	r0, r3, #0
10003fda:	f7fe fe81 	bl	10002ce0 <PWM_Init>
10003fde:	1c03      	adds	r3, r0, #0
10003fe0:	7023      	strb	r3, [r4, #0]
   } 
  if (init_status == DAVE_STATUS_SUCCESS)
10003fe2:	1dfb      	adds	r3, r7, #7
10003fe4:	781b      	ldrb	r3, [r3, #0]
10003fe6:	2b00      	cmp	r3, #0
10003fe8:	d106      	bne.n	10003ff8 <DAVE_Init+0x88>
  {
	 /**  Initialization of PWM APP instance PWM_servo_rl */
	 init_status = (DAVE_STATUS_t)PWM_Init(&PWM_servo_rl); 
10003fea:	1dfc      	adds	r4, r7, #7
10003fec:	4b6d      	ldr	r3, [pc, #436]	; (100041a4 <DAVE_Init+0x234>)
10003fee:	1c18      	adds	r0, r3, #0
10003ff0:	f7fe fe76 	bl	10002ce0 <PWM_Init>
10003ff4:	1c03      	adds	r3, r0, #0
10003ff6:	7023      	strb	r3, [r4, #0]
   } 
  if (init_status == DAVE_STATUS_SUCCESS)
10003ff8:	1dfb      	adds	r3, r7, #7
10003ffa:	781b      	ldrb	r3, [r3, #0]
10003ffc:	2b00      	cmp	r3, #0
10003ffe:	d106      	bne.n	1000400e <DAVE_Init+0x9e>
  {
	 /**  Initialization of PWM APP instance PWM_servo_rr */
	 init_status = (DAVE_STATUS_t)PWM_Init(&PWM_servo_rr); 
10004000:	1dfc      	adds	r4, r7, #7
10004002:	4b69      	ldr	r3, [pc, #420]	; (100041a8 <DAVE_Init+0x238>)
10004004:	1c18      	adds	r0, r3, #0
10004006:	f7fe fe6b 	bl	10002ce0 <PWM_Init>
1000400a:	1c03      	adds	r3, r0, #0
1000400c:	7023      	strb	r3, [r4, #0]
   } 
  if (init_status == DAVE_STATUS_SUCCESS)
1000400e:	1dfb      	adds	r3, r7, #7
10004010:	781b      	ldrb	r3, [r3, #0]
10004012:	2b00      	cmp	r3, #0
10004014:	d106      	bne.n	10004024 <DAVE_Init+0xb4>
  {
	 /**  Initialization of TIMER APP instance TIMER_10us */
	 init_status = (DAVE_STATUS_t)TIMER_Init(&TIMER_10us); 
10004016:	1dfc      	adds	r4, r7, #7
10004018:	4b64      	ldr	r3, [pc, #400]	; (100041ac <DAVE_Init+0x23c>)
1000401a:	1c18      	adds	r0, r3, #0
1000401c:	f7fe fc70 	bl	10002900 <TIMER_Init>
10004020:	1c03      	adds	r3, r0, #0
10004022:	7023      	strb	r3, [r4, #0]
   } 
  if (init_status == DAVE_STATUS_SUCCESS)
10004024:	1dfb      	adds	r3, r7, #7
10004026:	781b      	ldrb	r3, [r3, #0]
10004028:	2b00      	cmp	r3, #0
1000402a:	d106      	bne.n	1000403a <DAVE_Init+0xca>
  {
	 /**  Initialization of INTERRUPT APP instance INTERRUPT_TIMER_10us */
	 init_status = (DAVE_STATUS_t)INTERRUPT_Init(&INTERRUPT_TIMER_10us); 
1000402c:	1dfc      	adds	r4, r7, #7
1000402e:	4b60      	ldr	r3, [pc, #384]	; (100041b0 <DAVE_Init+0x240>)
10004030:	1c18      	adds	r0, r3, #0
10004032:	f7ff f81b 	bl	1000306c <INTERRUPT_Init>
10004036:	1c03      	adds	r3, r0, #0
10004038:	7023      	strb	r3, [r4, #0]
   } 
  if (init_status == DAVE_STATUS_SUCCESS)
1000403a:	1dfb      	adds	r3, r7, #7
1000403c:	781b      	ldrb	r3, [r3, #0]
1000403e:	2b00      	cmp	r3, #0
10004040:	d106      	bne.n	10004050 <DAVE_Init+0xe0>
  {
	 /**  Initialization of CAPTURE APP instance CAPTURE_RC_Steering */
	 init_status = (DAVE_STATUS_t)CAPTURE_Init(&CAPTURE_RC_Steering); 
10004042:	1dfc      	adds	r4, r7, #7
10004044:	4b5b      	ldr	r3, [pc, #364]	; (100041b4 <DAVE_Init+0x244>)
10004046:	1c18      	adds	r0, r3, #0
10004048:	f7ff fa6c 	bl	10003524 <CAPTURE_Init>
1000404c:	1c03      	adds	r3, r0, #0
1000404e:	7023      	strb	r3, [r4, #0]
   } 
  if (init_status == DAVE_STATUS_SUCCESS)
10004050:	1dfb      	adds	r3, r7, #7
10004052:	781b      	ldrb	r3, [r3, #0]
10004054:	2b00      	cmp	r3, #0
10004056:	d106      	bne.n	10004066 <DAVE_Init+0xf6>
  {
	 /**  Initialization of CAPTURE APP instance CAPTURE_RC_Speed */
	 init_status = (DAVE_STATUS_t)CAPTURE_Init(&CAPTURE_RC_Speed); 
10004058:	1dfc      	adds	r4, r7, #7
1000405a:	4b57      	ldr	r3, [pc, #348]	; (100041b8 <DAVE_Init+0x248>)
1000405c:	1c18      	adds	r0, r3, #0
1000405e:	f7ff fa61 	bl	10003524 <CAPTURE_Init>
10004062:	1c03      	adds	r3, r0, #0
10004064:	7023      	strb	r3, [r4, #0]
   } 
  if (init_status == DAVE_STATUS_SUCCESS)
10004066:	1dfb      	adds	r3, r7, #7
10004068:	781b      	ldrb	r3, [r3, #0]
1000406a:	2b00      	cmp	r3, #0
1000406c:	d106      	bne.n	1000407c <DAVE_Init+0x10c>
  {
	 /**  Initialization of DIGITAL_IO APP instance RC_no_data_LED */
	 init_status = (DAVE_STATUS_t)DIGITAL_IO_Init(&RC_no_data_LED); 
1000406e:	1dfc      	adds	r4, r7, #7
10004070:	4b52      	ldr	r3, [pc, #328]	; (100041bc <DAVE_Init+0x24c>)
10004072:	1c18      	adds	r0, r3, #0
10004074:	f7ff f98a 	bl	1000338c <DIGITAL_IO_Init>
10004078:	1c03      	adds	r3, r0, #0
1000407a:	7023      	strb	r3, [r4, #0]
   } 
  if (init_status == DAVE_STATUS_SUCCESS)
1000407c:	1dfb      	adds	r3, r7, #7
1000407e:	781b      	ldrb	r3, [r3, #0]
10004080:	2b00      	cmp	r3, #0
10004082:	d106      	bne.n	10004092 <DAVE_Init+0x122>
  {
	 /**  Initialization of TIMER APP instance TIMER_CONTROL */
	 init_status = (DAVE_STATUS_t)TIMER_Init(&TIMER_CONTROL); 
10004084:	1dfc      	adds	r4, r7, #7
10004086:	4b4e      	ldr	r3, [pc, #312]	; (100041c0 <DAVE_Init+0x250>)
10004088:	1c18      	adds	r0, r3, #0
1000408a:	f7fe fc39 	bl	10002900 <TIMER_Init>
1000408e:	1c03      	adds	r3, r0, #0
10004090:	7023      	strb	r3, [r4, #0]
   } 
  if (init_status == DAVE_STATUS_SUCCESS)
10004092:	1dfb      	adds	r3, r7, #7
10004094:	781b      	ldrb	r3, [r3, #0]
10004096:	2b00      	cmp	r3, #0
10004098:	d106      	bne.n	100040a8 <DAVE_Init+0x138>
  {
	 /**  Initialization of INTERRUPT APP instance INTERRUPT_TIMER_CONTROL */
	 init_status = (DAVE_STATUS_t)INTERRUPT_Init(&INTERRUPT_TIMER_CONTROL); 
1000409a:	1dfc      	adds	r4, r7, #7
1000409c:	4b49      	ldr	r3, [pc, #292]	; (100041c4 <DAVE_Init+0x254>)
1000409e:	1c18      	adds	r0, r3, #0
100040a0:	f7fe ffe4 	bl	1000306c <INTERRUPT_Init>
100040a4:	1c03      	adds	r3, r0, #0
100040a6:	7023      	strb	r3, [r4, #0]
   } 
  if (init_status == DAVE_STATUS_SUCCESS)
100040a8:	1dfb      	adds	r3, r7, #7
100040aa:	781b      	ldrb	r3, [r3, #0]
100040ac:	2b00      	cmp	r3, #0
100040ae:	d106      	bne.n	100040be <DAVE_Init+0x14e>
  {
	 /**  Initialization of PIN_INTERRUPT APP instance RC_Connected */
	 init_status = (DAVE_STATUS_t)PIN_INTERRUPT_Init(&RC_Connected); 
100040b0:	1dfc      	adds	r4, r7, #7
100040b2:	4b45      	ldr	r3, [pc, #276]	; (100041c8 <DAVE_Init+0x258>)
100040b4:	1c18      	adds	r0, r3, #0
100040b6:	f7fe fefd 	bl	10002eb4 <PIN_INTERRUPT_Init>
100040ba:	1c03      	adds	r3, r0, #0
100040bc:	7023      	strb	r3, [r4, #0]
   } 
  if (init_status == DAVE_STATUS_SUCCESS)
100040be:	1dfb      	adds	r3, r7, #7
100040c0:	781b      	ldrb	r3, [r3, #0]
100040c2:	2b00      	cmp	r3, #0
100040c4:	d106      	bne.n	100040d4 <DAVE_Init+0x164>
  {
	 /**  Initialization of DIGITAL_IO APP instance CALC_TIME_INDICATOR */
	 init_status = (DAVE_STATUS_t)DIGITAL_IO_Init(&CALC_TIME_INDICATOR); 
100040c6:	1dfc      	adds	r4, r7, #7
100040c8:	4b40      	ldr	r3, [pc, #256]	; (100041cc <DAVE_Init+0x25c>)
100040ca:	1c18      	adds	r0, r3, #0
100040cc:	f7ff f95e 	bl	1000338c <DIGITAL_IO_Init>
100040d0:	1c03      	adds	r3, r0, #0
100040d2:	7023      	strb	r3, [r4, #0]
   } 
  if (init_status == DAVE_STATUS_SUCCESS)
100040d4:	1dfb      	adds	r3, r7, #7
100040d6:	781b      	ldrb	r3, [r3, #0]
100040d8:	2b00      	cmp	r3, #0
100040da:	d106      	bne.n	100040ea <DAVE_Init+0x17a>
  {
	 /**  Initialization of DIGITAL_IO APP instance MODE_001 */
	 init_status = (DAVE_STATUS_t)DIGITAL_IO_Init(&MODE_001); 
100040dc:	1dfc      	adds	r4, r7, #7
100040de:	4b3c      	ldr	r3, [pc, #240]	; (100041d0 <DAVE_Init+0x260>)
100040e0:	1c18      	adds	r0, r3, #0
100040e2:	f7ff f953 	bl	1000338c <DIGITAL_IO_Init>
100040e6:	1c03      	adds	r3, r0, #0
100040e8:	7023      	strb	r3, [r4, #0]
   } 
  if (init_status == DAVE_STATUS_SUCCESS)
100040ea:	1dfb      	adds	r3, r7, #7
100040ec:	781b      	ldrb	r3, [r3, #0]
100040ee:	2b00      	cmp	r3, #0
100040f0:	d106      	bne.n	10004100 <DAVE_Init+0x190>
  {
	 /**  Initialization of DIGITAL_IO APP instance MODE_010 */
	 init_status = (DAVE_STATUS_t)DIGITAL_IO_Init(&MODE_010); 
100040f2:	1dfc      	adds	r4, r7, #7
100040f4:	4b37      	ldr	r3, [pc, #220]	; (100041d4 <DAVE_Init+0x264>)
100040f6:	1c18      	adds	r0, r3, #0
100040f8:	f7ff f948 	bl	1000338c <DIGITAL_IO_Init>
100040fc:	1c03      	adds	r3, r0, #0
100040fe:	7023      	strb	r3, [r4, #0]
   } 
  if (init_status == DAVE_STATUS_SUCCESS)
10004100:	1dfb      	adds	r3, r7, #7
10004102:	781b      	ldrb	r3, [r3, #0]
10004104:	2b00      	cmp	r3, #0
10004106:	d106      	bne.n	10004116 <DAVE_Init+0x1a6>
  {
	 /**  Initialization of DIGITAL_IO APP instance MODE_100 */
	 init_status = (DAVE_STATUS_t)DIGITAL_IO_Init(&MODE_100); 
10004108:	1dfc      	adds	r4, r7, #7
1000410a:	4b33      	ldr	r3, [pc, #204]	; (100041d8 <DAVE_Init+0x268>)
1000410c:	1c18      	adds	r0, r3, #0
1000410e:	f7ff f93d 	bl	1000338c <DIGITAL_IO_Init>
10004112:	1c03      	adds	r3, r0, #0
10004114:	7023      	strb	r3, [r4, #0]
   } 
  if (init_status == DAVE_STATUS_SUCCESS)
10004116:	1dfb      	adds	r3, r7, #7
10004118:	781b      	ldrb	r3, [r3, #0]
1000411a:	2b00      	cmp	r3, #0
1000411c:	d106      	bne.n	1000412c <DAVE_Init+0x1bc>
  {
	 /**  Initialization of WATCHDOG APP instance WATCHDOG_0 */
	 init_status = (DAVE_STATUS_t)WATCHDOG_Init(&WATCHDOG_0); 
1000411e:	1dfc      	adds	r4, r7, #7
10004120:	4b2e      	ldr	r3, [pc, #184]	; (100041dc <DAVE_Init+0x26c>)
10004122:	1c18      	adds	r0, r3, #0
10004124:	f7fe fb28 	bl	10002778 <WATCHDOG_Init>
10004128:	1c03      	adds	r3, r0, #0
1000412a:	7023      	strb	r3, [r4, #0]
   } 
  if (init_status == DAVE_STATUS_SUCCESS)
1000412c:	1dfb      	adds	r3, r7, #7
1000412e:	781b      	ldrb	r3, [r3, #0]
10004130:	2b00      	cmp	r3, #0
10004132:	d106      	bne.n	10004142 <DAVE_Init+0x1d2>
  {
	 /**  Initialization of DIGITAL_IO APP instance WATCHDOG_LED_BLUE */
	 init_status = (DAVE_STATUS_t)DIGITAL_IO_Init(&WATCHDOG_LED_BLUE); 
10004134:	1dfc      	adds	r4, r7, #7
10004136:	4b2a      	ldr	r3, [pc, #168]	; (100041e0 <DAVE_Init+0x270>)
10004138:	1c18      	adds	r0, r3, #0
1000413a:	f7ff f927 	bl	1000338c <DIGITAL_IO_Init>
1000413e:	1c03      	adds	r3, r0, #0
10004140:	7023      	strb	r3, [r4, #0]
   } 
  if (init_status == DAVE_STATUS_SUCCESS)
10004142:	1dfb      	adds	r3, r7, #7
10004144:	781b      	ldrb	r3, [r3, #0]
10004146:	2b00      	cmp	r3, #0
10004148:	d106      	bne.n	10004158 <DAVE_Init+0x1e8>
  {
	 /**  Initialization of INTERRUPT APP instance CAN_RX_INVERTER */
	 init_status = (DAVE_STATUS_t)INTERRUPT_Init(&CAN_RX_INVERTER); 
1000414a:	1dfc      	adds	r4, r7, #7
1000414c:	4b25      	ldr	r3, [pc, #148]	; (100041e4 <DAVE_Init+0x274>)
1000414e:	1c18      	adds	r0, r3, #0
10004150:	f7fe ff8c 	bl	1000306c <INTERRUPT_Init>
10004154:	1c03      	adds	r3, r0, #0
10004156:	7023      	strb	r3, [r4, #0]
   } 
  if (init_status == DAVE_STATUS_SUCCESS)
10004158:	1dfb      	adds	r3, r7, #7
1000415a:	781b      	ldrb	r3, [r3, #0]
1000415c:	2b00      	cmp	r3, #0
1000415e:	d106      	bne.n	1000416e <DAVE_Init+0x1fe>
  {
	 /**  Initialization of PIN_INTERRUPT APP instance RC_AUX1 */
	 init_status = (DAVE_STATUS_t)PIN_INTERRUPT_Init(&RC_AUX1); 
10004160:	1dfc      	adds	r4, r7, #7
10004162:	4b21      	ldr	r3, [pc, #132]	; (100041e8 <DAVE_Init+0x278>)
10004164:	1c18      	adds	r0, r3, #0
10004166:	f7fe fea5 	bl	10002eb4 <PIN_INTERRUPT_Init>
1000416a:	1c03      	adds	r3, r0, #0
1000416c:	7023      	strb	r3, [r4, #0]
   } 
  if (init_status == DAVE_STATUS_SUCCESS)
1000416e:	1dfb      	adds	r3, r7, #7
10004170:	781b      	ldrb	r3, [r3, #0]
10004172:	2b00      	cmp	r3, #0
10004174:	d106      	bne.n	10004184 <DAVE_Init+0x214>
  {
	 /**  Initialization of DIGITAL_IO APP instance LED_CAN_ERROR */
	 init_status = (DAVE_STATUS_t)DIGITAL_IO_Init(&LED_CAN_ERROR); 
10004176:	1dfc      	adds	r4, r7, #7
10004178:	4b1c      	ldr	r3, [pc, #112]	; (100041ec <DAVE_Init+0x27c>)
1000417a:	1c18      	adds	r0, r3, #0
1000417c:	f7ff f906 	bl	1000338c <DIGITAL_IO_Init>
10004180:	1c03      	adds	r3, r0, #0
10004182:	7023      	strb	r3, [r4, #0]
   }  
  return init_status;
10004184:	1dfb      	adds	r3, r7, #7
10004186:	781b      	ldrb	r3, [r3, #0]
} /**  End of function DAVE_Init */
10004188:	1c18      	adds	r0, r3, #0
1000418a:	46bd      	mov	sp, r7
1000418c:	b003      	add	sp, #12
1000418e:	bd90      	pop	{r4, r7, pc}
10004190:	20000960 	.word	0x20000960
10004194:	1000a94c 	.word	0x1000a94c
10004198:	1000a7e0 	.word	0x1000a7e0
1000419c:	200005dc 	.word	0x200005dc
100041a0:	20000610 	.word	0x20000610
100041a4:	20000644 	.word	0x20000644
100041a8:	20000678 	.word	0x20000678
100041ac:	20000584 	.word	0x20000584
100041b0:	1000a7e8 	.word	0x1000a7e8
100041b4:	200006e0 	.word	0x200006e0
100041b8:	20000714 	.word	0x20000714
100041bc:	1000a808 	.word	0x1000a808
100041c0:	200005b4 	.word	0x200005b4
100041c4:	1000a7f0 	.word	0x1000a7f0
100041c8:	1000a7a0 	.word	0x1000a7a0
100041cc:	1000a818 	.word	0x1000a818
100041d0:	1000a828 	.word	0x1000a828
100041d4:	1000a838 	.word	0x1000a838
100041d8:	1000a848 	.word	0x1000a848
100041dc:	20000574 	.word	0x20000574
100041e0:	1000a858 	.word	0x1000a858
100041e4:	1000a7f8 	.word	0x1000a7f8
100041e8:	1000a7c0 	.word	0x1000a7c0
100041ec:	1000a868 	.word	0x1000a868

100041f0 <XMC_GPIO_SetOutputHigh>:
 * Register Pn_OMR is virtual and does not contain any flip-flop. A read action delivers the value of 0.
 *
 */

__STATIC_INLINE void XMC_GPIO_SetOutputHigh(XMC_GPIO_PORT_t *const port, const uint8_t pin)
{
100041f0:	b580      	push	{r7, lr}
100041f2:	b082      	sub	sp, #8
100041f4:	af00      	add	r7, sp, #0
100041f6:	6078      	str	r0, [r7, #4]
100041f8:	1c0a      	adds	r2, r1, #0
100041fa:	1cfb      	adds	r3, r7, #3
100041fc:	701a      	strb	r2, [r3, #0]
  XMC_ASSERT("XMC_GPIO_SetOutputHigh: Invalid port", XMC_GPIO_CHECK_OUTPUT_PORT(port));

  port->OMR = (uint32_t)0x1U << pin;
100041fe:	1cfb      	adds	r3, r7, #3
10004200:	781b      	ldrb	r3, [r3, #0]
10004202:	2201      	movs	r2, #1
10004204:	409a      	lsls	r2, r3
10004206:	687b      	ldr	r3, [r7, #4]
10004208:	605a      	str	r2, [r3, #4]
}
1000420a:	46bd      	mov	sp, r7
1000420c:	b002      	add	sp, #8
1000420e:	bd80      	pop	{r7, pc}

10004210 <XMC_GPIO_SetOutputLow>:
 * Register Pn_OMR is virtual and does not contain any flip-flop. A read action delivers the value of 0.\n
 *
 */

__STATIC_INLINE void XMC_GPIO_SetOutputLow(XMC_GPIO_PORT_t *const port, const uint8_t pin)
{
10004210:	b580      	push	{r7, lr}
10004212:	b082      	sub	sp, #8
10004214:	af00      	add	r7, sp, #0
10004216:	6078      	str	r0, [r7, #4]
10004218:	1c0a      	adds	r2, r1, #0
1000421a:	1cfb      	adds	r3, r7, #3
1000421c:	701a      	strb	r2, [r3, #0]
  XMC_ASSERT("XMC_GPIO_SetOutputLow: Invalid port", XMC_GPIO_CHECK_OUTPUT_PORT(port));

  port->OMR = 0x10000U << pin;
1000421e:	1cfb      	adds	r3, r7, #3
10004220:	781b      	ldrb	r3, [r3, #0]
10004222:	2280      	movs	r2, #128	; 0x80
10004224:	0252      	lsls	r2, r2, #9
10004226:	409a      	lsls	r2, r3
10004228:	687b      	ldr	r3, [r7, #4]
1000422a:	605a      	str	r2, [r3, #4]
}
1000422c:	46bd      	mov	sp, r7
1000422e:	b002      	add	sp, #8
10004230:	bd80      	pop	{r7, pc}
10004232:	46c0      	nop			; (mov r8, r8)

10004234 <XMC_GPIO_GetInput>:
 * Prior to this api, user has to configure port pin to input mode using XMC_GPIO_SetMode().
 *
 */

__STATIC_INLINE uint32_t XMC_GPIO_GetInput(XMC_GPIO_PORT_t *const port, const uint8_t pin)
{
10004234:	b580      	push	{r7, lr}
10004236:	b082      	sub	sp, #8
10004238:	af00      	add	r7, sp, #0
1000423a:	6078      	str	r0, [r7, #4]
1000423c:	1c0a      	adds	r2, r1, #0
1000423e:	1cfb      	adds	r3, r7, #3
10004240:	701a      	strb	r2, [r3, #0]
  XMC_ASSERT("XMC_GPIO_GetInput: Invalid port", XMC_GPIO_CHECK_PORT(port));

  return (((port->IN) >> pin) & 0x1U);
10004242:	687b      	ldr	r3, [r7, #4]
10004244:	6a5a      	ldr	r2, [r3, #36]	; 0x24
10004246:	1cfb      	adds	r3, r7, #3
10004248:	781b      	ldrb	r3, [r3, #0]
1000424a:	40da      	lsrs	r2, r3
1000424c:	1c13      	adds	r3, r2, #0
1000424e:	2201      	movs	r2, #1
10004250:	4013      	ands	r3, r2
}
10004252:	1c18      	adds	r0, r3, #0
10004254:	46bd      	mov	sp, r7
10004256:	b002      	add	sp, #8
10004258:	bd80      	pop	{r7, pc}
1000425a:	46c0      	nop			; (mov r8, r8)

1000425c <DIGITAL_IO_SetOutputHigh>:
* }
*  @endcode
*/

__STATIC_INLINE void DIGITAL_IO_SetOutputHigh(const DIGITAL_IO_t *const handler)
{
1000425c:	b580      	push	{r7, lr}
1000425e:	b082      	sub	sp, #8
10004260:	af00      	add	r7, sp, #0
10004262:	6078      	str	r0, [r7, #4]
  XMC_ASSERT("DIGITAL_IO_SetOutputHigh: handler null pointer", handler != NULL);
  XMC_GPIO_SetOutputHigh(handler->gpio_port, handler->gpio_pin);
10004264:	687b      	ldr	r3, [r7, #4]
10004266:	681a      	ldr	r2, [r3, #0]
10004268:	687b      	ldr	r3, [r7, #4]
1000426a:	7b1b      	ldrb	r3, [r3, #12]
1000426c:	1c10      	adds	r0, r2, #0
1000426e:	1c19      	adds	r1, r3, #0
10004270:	f7ff ffbe 	bl	100041f0 <XMC_GPIO_SetOutputHigh>
}
10004274:	46bd      	mov	sp, r7
10004276:	b002      	add	sp, #8
10004278:	bd80      	pop	{r7, pc}
1000427a:	46c0      	nop			; (mov r8, r8)

1000427c <DIGITAL_IO_SetOutputLow>:
* }
*  @endcode
*/

__STATIC_INLINE void DIGITAL_IO_SetOutputLow(const DIGITAL_IO_t *const handler)
{
1000427c:	b580      	push	{r7, lr}
1000427e:	b082      	sub	sp, #8
10004280:	af00      	add	r7, sp, #0
10004282:	6078      	str	r0, [r7, #4]
  XMC_ASSERT("DIGITAL_IO_SetOutputLow: handler null pointer", handler != NULL);
  XMC_GPIO_SetOutputLow(handler->gpio_port,handler->gpio_pin);
10004284:	687b      	ldr	r3, [r7, #4]
10004286:	681a      	ldr	r2, [r3, #0]
10004288:	687b      	ldr	r3, [r7, #4]
1000428a:	7b1b      	ldrb	r3, [r3, #12]
1000428c:	1c10      	adds	r0, r2, #0
1000428e:	1c19      	adds	r1, r3, #0
10004290:	f7ff ffbe 	bl	10004210 <XMC_GPIO_SetOutputLow>
}
10004294:	46bd      	mov	sp, r7
10004296:	b002      	add	sp, #8
10004298:	bd80      	pop	{r7, pc}
1000429a:	46c0      	nop			; (mov r8, r8)

1000429c <PIN_INTERRUPT_GetPinValue>:
*   return (1);
* }
*  @endcode
*/
__STATIC_INLINE uint32_t PIN_INTERRUPT_GetPinValue(const PIN_INTERRUPT_t *const handle)
{
1000429c:	b580      	push	{r7, lr}
1000429e:	b082      	sub	sp, #8
100042a0:	af00      	add	r7, sp, #0
100042a2:	6078      	str	r0, [r7, #4]
  XMC_ASSERT("PIN_INTERRUPT_GetPinValue: Handler null pointer", handle != NULL);
  return (XMC_GPIO_GetInput(handle->port, handle->pin));
100042a4:	687b      	ldr	r3, [r7, #4]
100042a6:	685a      	ldr	r2, [r3, #4]
100042a8:	687b      	ldr	r3, [r7, #4]
100042aa:	7f9b      	ldrb	r3, [r3, #30]
100042ac:	1c10      	adds	r0, r2, #0
100042ae:	1c19      	adds	r1, r3, #0
100042b0:	f7ff ffc0 	bl	10004234 <XMC_GPIO_GetInput>
100042b4:	1c03      	adds	r3, r0, #0
}
100042b6:	1c18      	adds	r0, r3, #0
100042b8:	46bd      	mov	sp, r7
100042ba:	b002      	add	sp, #8
100042bc:	bd80      	pop	{r7, pc}
100042be:	46c0      	nop			; (mov r8, r8)

100042c0 <XMC_WDT_Start>:
 *
 * \par<b>Related APIs:</b><BR>
 * XMC_WDT_Init(), XMC_WDT_Stop()
 */
__STATIC_INLINE void XMC_WDT_Start(void)
{
100042c0:	b580      	push	{r7, lr}
100042c2:	af00      	add	r7, sp, #0
  WDT->CTR |= (uint32_t)WDT_CTR_ENB_Msk;
100042c4:	4b03      	ldr	r3, [pc, #12]	; (100042d4 <XMC_WDT_Start+0x14>)
100042c6:	4a03      	ldr	r2, [pc, #12]	; (100042d4 <XMC_WDT_Start+0x14>)
100042c8:	6852      	ldr	r2, [r2, #4]
100042ca:	2101      	movs	r1, #1
100042cc:	430a      	orrs	r2, r1
100042ce:	605a      	str	r2, [r3, #4]
}
100042d0:	46bd      	mov	sp, r7
100042d2:	bd80      	pop	{r7, pc}
100042d4:	40020000 	.word	0x40020000

100042d8 <XMC_WDT_Service>:
 *
 * \par<b>Related APIs:</b><BR>
 * XMC_WDT_GetCounter(), XMC_WDT_SetWindowBounds(), XMC_WDT_SetServicePulseWidth()
 */
__STATIC_INLINE void XMC_WDT_Service(void)
{
100042d8:	b580      	push	{r7, lr}
100042da:	af00      	add	r7, sp, #0
  WDT->SRV = XMC_WDT_MAGIC_WORD;
100042dc:	4b02      	ldr	r3, [pc, #8]	; (100042e8 <XMC_WDT_Service+0x10>)
100042de:	4a03      	ldr	r2, [pc, #12]	; (100042ec <XMC_WDT_Service+0x14>)
100042e0:	609a      	str	r2, [r3, #8]
}
100042e2:	46bd      	mov	sp, r7
100042e4:	bd80      	pop	{r7, pc}
100042e6:	46c0      	nop			; (mov r8, r8)
100042e8:	40020000 	.word	0x40020000
100042ec:	abadcafe 	.word	0xabadcafe

100042f0 <XMC_WDT_ClearAlarm>:
 *
 * \par<b>Related APIs:</b><BR>
 * XMC_WDT_Service(), XMC_WDT_SetMode()
 */
__STATIC_INLINE void XMC_WDT_ClearAlarm(void)
{
100042f0:	b580      	push	{r7, lr}
100042f2:	af00      	add	r7, sp, #0
  WDT->WDTCLR = WDT_WDTCLR_ALMC_Msk;
100042f4:	4b02      	ldr	r3, [pc, #8]	; (10004300 <XMC_WDT_ClearAlarm+0x10>)
100042f6:	2201      	movs	r2, #1
100042f8:	61da      	str	r2, [r3, #28]
}
100042fa:	46bd      	mov	sp, r7
100042fc:	bd80      	pop	{r7, pc}
100042fe:	46c0      	nop			; (mov r8, r8)
10004300:	40020000 	.word	0x40020000

10004304 <WATCHDOG_Start>:
 * }
 *
 * @endcode<BR> </p>
 */
__STATIC_INLINE void WATCHDOG_Start(void)
{
10004304:	b580      	push	{r7, lr}
10004306:	af00      	add	r7, sp, #0
  XMC_WDT_Start();
10004308:	f7ff ffda 	bl	100042c0 <XMC_WDT_Start>
}
1000430c:	46bd      	mov	sp, r7
1000430e:	bd80      	pop	{r7, pc}

10004310 <WATCHDOG_Service>:
 * }
 *
 * @endcode<BR> </p>
 */
__STATIC_INLINE void WATCHDOG_Service(void)
{
10004310:	b580      	push	{r7, lr}
10004312:	af00      	add	r7, sp, #0
  XMC_WDT_Service();
10004314:	f7ff ffe0 	bl	100042d8 <XMC_WDT_Service>
}
10004318:	46bd      	mov	sp, r7
1000431a:	bd80      	pop	{r7, pc}

1000431c <WATCHDOG_ClearAlarm>:
 * }
 *
 * @endcode<BR> </p>
 */
__STATIC_INLINE void WATCHDOG_ClearAlarm(void)
{
1000431c:	b580      	push	{r7, lr}
1000431e:	af00      	add	r7, sp, #0
  XMC_WDT_ClearAlarm();
10004320:	f7ff ffe6 	bl	100042f0 <XMC_WDT_ClearAlarm>
}
10004324:	46bd      	mov	sp, r7
10004326:	bd80      	pop	{r7, pc}

10004328 <main>:
float Exp_moving_average(float new_value, float value, float ALPHA);
uint8_t Ultrasoinc_Obstructet_Test(float Angle);


int main(void)
{
10004328:	b590      	push	{r4, r7, lr}
1000432a:	b083      	sub	sp, #12
1000432c:	af00      	add	r7, sp, #0
  DAVE_STATUS_t status;

  status = DAVE_Init();           /* Initialization of DAVE APPs  */
1000432e:	1dfc      	adds	r4, r7, #7
10004330:	f7ff fe1e 	bl	10003f70 <DAVE_Init>
10004334:	1c03      	adds	r3, r0, #0
10004336:	7023      	strb	r3, [r4, #0]

  if (status != DAVE_STATUS_SUCCESS)
10004338:	1dfb      	adds	r3, r7, #7
1000433a:	781b      	ldrb	r3, [r3, #0]
1000433c:	2b00      	cmp	r3, #0
1000433e:	d000      	beq.n	10004342 <main+0x1a>
    XMC_DEBUG("DAVE APPs initialization failed\n");

    while(1U)
    {

    }
10004340:	e7fe      	b.n	10004340 <main+0x18>
  }

  //Initialization of CAN
  	//CAN_NODE_STATUS_t init_status;
  	init_status = CAN_NODE_Init(&CAN_NODE_0);
10004342:	4b09      	ldr	r3, [pc, #36]	; (10004368 <main+0x40>)
10004344:	1c18      	adds	r0, r3, #0
10004346:	f7ff fd67 	bl	10003e18 <CAN_NODE_Init>
1000434a:	1c03      	adds	r3, r0, #0
1000434c:	1c1a      	adds	r2, r3, #0
1000434e:	4b07      	ldr	r3, [pc, #28]	; (1000436c <main+0x44>)
10004350:	701a      	strb	r2, [r3, #0]

  	if (init_status != CAN_NODE_STATUS_SUCCESS) {
10004352:	4b06      	ldr	r3, [pc, #24]	; (1000436c <main+0x44>)
10004354:	781b      	ldrb	r3, [r3, #0]
10004356:	2b00      	cmp	r3, #0
10004358:	d102      	bne.n	10004360 <main+0x38>
  		XMC_DEBUG("CAN initialization failed\n");
  	}
  	else{
  		CAN_OK = 1;
1000435a:	4b05      	ldr	r3, [pc, #20]	; (10004370 <main+0x48>)
1000435c:	2201      	movs	r2, #1
1000435e:	601a      	str	r2, [r3, #0]
  	}

  	// watchdog
  	WATCHDOG_Start();
10004360:	f7ff ffd0 	bl	10004304 <WATCHDOG_Start>

  /* Placeholder for user application code. The while loop below can be replaced with user application code. */
  while(1U)
  {
	// Servo_NP_setting();	  // nutral point servo setting
  }
10004364:	e7fe      	b.n	10004364 <main+0x3c>
10004366:	46c0      	nop			; (mov r8, r8)
10004368:	1000a94c 	.word	0x1000a94c
1000436c:	20000a48 	.word	0x20000a48
10004370:	2000096c 	.word	0x2000096c

10004374 <Steering_Function>:
}


void Steering_Function(float Steering_direction_cal, float Driving_speed_cal, uint8_t Steering_mode_cal){
10004374:	b5f0      	push	{r4, r5, r6, r7, lr}
10004376:	b085      	sub	sp, #20
10004378:	af00      	add	r7, sp, #0
1000437a:	60f8      	str	r0, [r7, #12]
1000437c:	60b9      	str	r1, [r7, #8]
1000437e:	1dfb      	adds	r3, r7, #7
10004380:	701a      	strb	r2, [r3, #0]
	New_Input = 0;
10004382:	4bb8      	ldr	r3, [pc, #736]	; (10004664 <Steering_Function+0x2f0>)
10004384:	2200      	movs	r2, #0
10004386:	701a      	strb	r2, [r3, #0]

	if(Driving_speed_cal > MAX_Speed) Driving_speed_cal = MAX_Speed;
10004388:	68b8      	ldr	r0, [r7, #8]
1000438a:	21fe      	movs	r1, #254	; 0xfe
1000438c:	0589      	lsls	r1, r1, #22
1000438e:	f003 f99b 	bl	100076c8 <__aeabi_fcmpgt>
10004392:	1e03      	subs	r3, r0, #0
10004394:	d002      	beq.n	1000439c <Steering_Function+0x28>
10004396:	23fe      	movs	r3, #254	; 0xfe
10004398:	059b      	lsls	r3, r3, #22
1000439a:	60bb      	str	r3, [r7, #8]
	if(Driving_speed_cal < -MAX_Speed) Driving_speed_cal = -MAX_Speed;
1000439c:	68b8      	ldr	r0, [r7, #8]
1000439e:	49b2      	ldr	r1, [pc, #712]	; (10004668 <Steering_Function+0x2f4>)
100043a0:	f003 f97e 	bl	100076a0 <__aeabi_fcmplt>
100043a4:	1e03      	subs	r3, r0, #0
100043a6:	d001      	beq.n	100043ac <Steering_Function+0x38>
100043a8:	4baf      	ldr	r3, [pc, #700]	; (10004668 <Steering_Function+0x2f4>)
100043aa:	60bb      	str	r3, [r7, #8]
	if((0 < Driving_speed_cal) & (Driving_speed_cal < MIN_Speed)) Driving_speed_cal = 0;
100043ac:	2301      	movs	r3, #1
100043ae:	1c1c      	adds	r4, r3, #0
100043b0:	68b8      	ldr	r0, [r7, #8]
100043b2:	2100      	movs	r1, #0
100043b4:	f003 f988 	bl	100076c8 <__aeabi_fcmpgt>
100043b8:	1e03      	subs	r3, r0, #0
100043ba:	d101      	bne.n	100043c0 <Steering_Function+0x4c>
100043bc:	2300      	movs	r3, #0
100043be:	1c1c      	adds	r4, r3, #0
100043c0:	b2e4      	uxtb	r4, r4
100043c2:	68b8      	ldr	r0, [r7, #8]
100043c4:	f005 feee 	bl	1000a1a4 <__aeabi_f2d>
100043c8:	1c0a      	adds	r2, r1, #0
100043ca:	1c01      	adds	r1, r0, #0
100043cc:	2301      	movs	r3, #1
100043ce:	1c1d      	adds	r5, r3, #0
100043d0:	1c08      	adds	r0, r1, #0
100043d2:	1c11      	adds	r1, r2, #0
100043d4:	4aa5      	ldr	r2, [pc, #660]	; (1000466c <Steering_Function+0x2f8>)
100043d6:	4ba6      	ldr	r3, [pc, #664]	; (10004670 <Steering_Function+0x2fc>)
100043d8:	f003 f928 	bl	1000762c <__aeabi_dcmplt>
100043dc:	1e03      	subs	r3, r0, #0
100043de:	d101      	bne.n	100043e4 <Steering_Function+0x70>
100043e0:	2300      	movs	r3, #0
100043e2:	1c1d      	adds	r5, r3, #0
100043e4:	b2eb      	uxtb	r3, r5
100043e6:	4023      	ands	r3, r4
100043e8:	b2db      	uxtb	r3, r3
100043ea:	2b00      	cmp	r3, #0
100043ec:	d001      	beq.n	100043f2 <Steering_Function+0x7e>
100043ee:	2300      	movs	r3, #0
100043f0:	60bb      	str	r3, [r7, #8]
	if((0 > Driving_speed_cal) & (Driving_speed_cal > -MIN_Speed)) Driving_speed_cal = 0;
100043f2:	2301      	movs	r3, #1
100043f4:	1c1c      	adds	r4, r3, #0
100043f6:	68b8      	ldr	r0, [r7, #8]
100043f8:	2100      	movs	r1, #0
100043fa:	f003 f951 	bl	100076a0 <__aeabi_fcmplt>
100043fe:	1e03      	subs	r3, r0, #0
10004400:	d101      	bne.n	10004406 <Steering_Function+0x92>
10004402:	2300      	movs	r3, #0
10004404:	1c1c      	adds	r4, r3, #0
10004406:	b2e4      	uxtb	r4, r4
10004408:	68b8      	ldr	r0, [r7, #8]
1000440a:	f005 fecb 	bl	1000a1a4 <__aeabi_f2d>
1000440e:	1c0a      	adds	r2, r1, #0
10004410:	1c01      	adds	r1, r0, #0
10004412:	2301      	movs	r3, #1
10004414:	1c1d      	adds	r5, r3, #0
10004416:	1c08      	adds	r0, r1, #0
10004418:	1c11      	adds	r1, r2, #0
1000441a:	4a94      	ldr	r2, [pc, #592]	; (1000466c <Steering_Function+0x2f8>)
1000441c:	4b95      	ldr	r3, [pc, #596]	; (10004674 <Steering_Function+0x300>)
1000441e:	f003 f919 	bl	10007654 <__aeabi_dcmpgt>
10004422:	1e03      	subs	r3, r0, #0
10004424:	d101      	bne.n	1000442a <Steering_Function+0xb6>
10004426:	2300      	movs	r3, #0
10004428:	1c1d      	adds	r5, r3, #0
1000442a:	b2eb      	uxtb	r3, r5
1000442c:	4023      	ands	r3, r4
1000442e:	b2db      	uxtb	r3, r3
10004430:	2b00      	cmp	r3, #0
10004432:	d001      	beq.n	10004438 <Steering_Function+0xc4>
10004434:	2300      	movs	r3, #0
10004436:	60bb      	str	r3, [r7, #8]

	switch(Steering_mode_cal) // options 'Front'; 'Rear'; '4_Wheel'; 'Carb'; 'Rotate'
10004438:	1dfb      	adds	r3, r7, #7
1000443a:	781b      	ldrb	r3, [r3, #0]
1000443c:	2b05      	cmp	r3, #5
1000443e:	d901      	bls.n	10004444 <Steering_Function+0xd0>
10004440:	f000 fe4a 	bl	100050d8 <Steering_Function+0xd64>
10004444:	009a      	lsls	r2, r3, #2
10004446:	4b8c      	ldr	r3, [pc, #560]	; (10004678 <Steering_Function+0x304>)
10004448:	18d3      	adds	r3, r2, r3
1000444a:	681b      	ldr	r3, [r3, #0]
1000444c:	469f      	mov	pc, r3
	{
		case FRONT://#############################################################
			// steering limits
			if(Steering_direction_cal > 50) Steering_direction_cal = 50;
1000444e:	68f8      	ldr	r0, [r7, #12]
10004450:	498a      	ldr	r1, [pc, #552]	; (1000467c <Steering_Function+0x308>)
10004452:	f003 f939 	bl	100076c8 <__aeabi_fcmpgt>
10004456:	1e03      	subs	r3, r0, #0
10004458:	d001      	beq.n	1000445e <Steering_Function+0xea>
1000445a:	4b88      	ldr	r3, [pc, #544]	; (1000467c <Steering_Function+0x308>)
1000445c:	60fb      	str	r3, [r7, #12]
			if(Steering_direction_cal < -50) Steering_direction_cal = -50;
1000445e:	68f8      	ldr	r0, [r7, #12]
10004460:	4987      	ldr	r1, [pc, #540]	; (10004680 <Steering_Function+0x30c>)
10004462:	f003 f91d 	bl	100076a0 <__aeabi_fcmplt>
10004466:	1e03      	subs	r3, r0, #0
10004468:	d001      	beq.n	1000446e <Steering_Function+0xfa>
1000446a:	4b85      	ldr	r3, [pc, #532]	; (10004680 <Steering_Function+0x30c>)
1000446c:	60fb      	str	r3, [r7, #12]

			// pre calc
			R_Turn = WHEEL_BASE / tan(Steering_direction_cal / RAD_TO_DEG); // to truni graduis converstion
1000446e:	68f8      	ldr	r0, [r7, #12]
10004470:	f005 fe98 	bl	1000a1a4 <__aeabi_f2d>
10004474:	1c03      	adds	r3, r0, #0
10004476:	1c0c      	adds	r4, r1, #0
10004478:	1c18      	adds	r0, r3, #0
1000447a:	1c21      	adds	r1, r4, #0
1000447c:	4a81      	ldr	r2, [pc, #516]	; (10004684 <Steering_Function+0x310>)
1000447e:	4b82      	ldr	r3, [pc, #520]	; (10004688 <Steering_Function+0x314>)
10004480:	f004 fb9a 	bl	10008bb8 <__aeabi_ddiv>
10004484:	1c03      	adds	r3, r0, #0
10004486:	1c0c      	adds	r4, r1, #0
10004488:	1c18      	adds	r0, r3, #0
1000448a:	1c21      	adds	r1, r4, #0
1000448c:	f001 ff38 	bl	10006300 <tan>
10004490:	1c03      	adds	r3, r0, #0
10004492:	1c0c      	adds	r4, r1, #0
10004494:	487d      	ldr	r0, [pc, #500]	; (1000468c <Steering_Function+0x318>)
10004496:	497e      	ldr	r1, [pc, #504]	; (10004690 <Steering_Function+0x31c>)
10004498:	1c1a      	adds	r2, r3, #0
1000449a:	1c23      	adds	r3, r4, #0
1000449c:	f004 fb8c 	bl	10008bb8 <__aeabi_ddiv>
100044a0:	1c03      	adds	r3, r0, #0
100044a2:	1c0c      	adds	r4, r1, #0
100044a4:	1c18      	adds	r0, r3, #0
100044a6:	1c21      	adds	r1, r4, #0
100044a8:	f005 fed0 	bl	1000a24c <__aeabi_d2f>
100044ac:	1c02      	adds	r2, r0, #0
100044ae:	4b79      	ldr	r3, [pc, #484]	; (10004694 <Steering_Function+0x320>)
100044b0:	601a      	str	r2, [r3, #0]
			Speed_ratio = (2 * (copysign(R_Turn,1) + HALF_TRACK_WIDTH) * M_PI) / (2 * copysign(R_Turn,1) * M_PI);
100044b2:	4b78      	ldr	r3, [pc, #480]	; (10004694 <Steering_Function+0x320>)
100044b4:	681b      	ldr	r3, [r3, #0]
100044b6:	005b      	lsls	r3, r3, #1
100044b8:	085b      	lsrs	r3, r3, #1
100044ba:	1c18      	adds	r0, r3, #0
100044bc:	f005 fe72 	bl	1000a1a4 <__aeabi_f2d>
100044c0:	1c03      	adds	r3, r0, #0
100044c2:	1c0c      	adds	r4, r1, #0
100044c4:	1c18      	adds	r0, r3, #0
100044c6:	1c21      	adds	r1, r4, #0
100044c8:	4a73      	ldr	r2, [pc, #460]	; (10004698 <Steering_Function+0x324>)
100044ca:	4b74      	ldr	r3, [pc, #464]	; (1000469c <Steering_Function+0x328>)
100044cc:	f004 f84c 	bl	10008568 <__aeabi_dadd>
100044d0:	1c03      	adds	r3, r0, #0
100044d2:	1c0c      	adds	r4, r1, #0
100044d4:	1c18      	adds	r0, r3, #0
100044d6:	1c21      	adds	r1, r4, #0
100044d8:	1c1a      	adds	r2, r3, #0
100044da:	1c23      	adds	r3, r4, #0
100044dc:	f004 f844 	bl	10008568 <__aeabi_dadd>
100044e0:	1c03      	adds	r3, r0, #0
100044e2:	1c0c      	adds	r4, r1, #0
100044e4:	1c18      	adds	r0, r3, #0
100044e6:	1c21      	adds	r1, r4, #0
100044e8:	4a6d      	ldr	r2, [pc, #436]	; (100046a0 <Steering_Function+0x32c>)
100044ea:	4b6e      	ldr	r3, [pc, #440]	; (100046a4 <Steering_Function+0x330>)
100044ec:	f004 ffa2 	bl	10009434 <__aeabi_dmul>
100044f0:	1c03      	adds	r3, r0, #0
100044f2:	1c0c      	adds	r4, r1, #0
100044f4:	1c1d      	adds	r5, r3, #0
100044f6:	1c26      	adds	r6, r4, #0
100044f8:	4b66      	ldr	r3, [pc, #408]	; (10004694 <Steering_Function+0x320>)
100044fa:	681b      	ldr	r3, [r3, #0]
100044fc:	005b      	lsls	r3, r3, #1
100044fe:	085b      	lsrs	r3, r3, #1
10004500:	1c18      	adds	r0, r3, #0
10004502:	f005 fe4f 	bl	1000a1a4 <__aeabi_f2d>
10004506:	1c03      	adds	r3, r0, #0
10004508:	1c0c      	adds	r4, r1, #0
1000450a:	1c18      	adds	r0, r3, #0
1000450c:	1c21      	adds	r1, r4, #0
1000450e:	1c1a      	adds	r2, r3, #0
10004510:	1c23      	adds	r3, r4, #0
10004512:	f004 f829 	bl	10008568 <__aeabi_dadd>
10004516:	1c03      	adds	r3, r0, #0
10004518:	1c0c      	adds	r4, r1, #0
1000451a:	1c18      	adds	r0, r3, #0
1000451c:	1c21      	adds	r1, r4, #0
1000451e:	4a60      	ldr	r2, [pc, #384]	; (100046a0 <Steering_Function+0x32c>)
10004520:	4b60      	ldr	r3, [pc, #384]	; (100046a4 <Steering_Function+0x330>)
10004522:	f004 ff87 	bl	10009434 <__aeabi_dmul>
10004526:	1c03      	adds	r3, r0, #0
10004528:	1c0c      	adds	r4, r1, #0
1000452a:	1c28      	adds	r0, r5, #0
1000452c:	1c31      	adds	r1, r6, #0
1000452e:	1c1a      	adds	r2, r3, #0
10004530:	1c23      	adds	r3, r4, #0
10004532:	f004 fb41 	bl	10008bb8 <__aeabi_ddiv>
10004536:	1c03      	adds	r3, r0, #0
10004538:	1c0c      	adds	r4, r1, #0
1000453a:	1c18      	adds	r0, r3, #0
1000453c:	1c21      	adds	r1, r4, #0
1000453e:	f005 fe85 	bl	1000a24c <__aeabi_d2f>
10004542:	1c02      	adds	r2, r0, #0
10004544:	4b58      	ldr	r3, [pc, #352]	; (100046a8 <Steering_Function+0x334>)
10004546:	601a      	str	r2, [r3, #0]

			if((R_TRUN_MIN < R_Turn) && (R_Turn < R_TRUN_MAX)){
10004548:	4b52      	ldr	r3, [pc, #328]	; (10004694 <Steering_Function+0x320>)
1000454a:	681b      	ldr	r3, [r3, #0]
1000454c:	1c18      	adds	r0, r3, #0
1000454e:	f005 fe29 	bl	1000a1a4 <__aeabi_f2d>
10004552:	1c03      	adds	r3, r0, #0
10004554:	1c0c      	adds	r4, r1, #0
10004556:	1c18      	adds	r0, r3, #0
10004558:	1c21      	adds	r1, r4, #0
1000455a:	4a44      	ldr	r2, [pc, #272]	; (1000466c <Steering_Function+0x2f8>)
1000455c:	4b44      	ldr	r3, [pc, #272]	; (10004670 <Steering_Function+0x2fc>)
1000455e:	f003 f879 	bl	10007654 <__aeabi_dcmpgt>
10004562:	1e03      	subs	r3, r0, #0
10004564:	d100      	bne.n	10004568 <Steering_Function+0x1f4>
10004566:	e0af      	b.n	100046c8 <Steering_Function+0x354>
10004568:	4b4a      	ldr	r3, [pc, #296]	; (10004694 <Steering_Function+0x320>)
1000456a:	681b      	ldr	r3, [r3, #0]
1000456c:	1c18      	adds	r0, r3, #0
1000456e:	494f      	ldr	r1, [pc, #316]	; (100046ac <Steering_Function+0x338>)
10004570:	f003 f896 	bl	100076a0 <__aeabi_fcmplt>
10004574:	1e03      	subs	r3, r0, #0
10004576:	d100      	bne.n	1000457a <Steering_Function+0x206>
10004578:	e0a6      	b.n	100046c8 <Steering_Function+0x354>
				angle_fl = RAD_TO_DEG * atan(WHEEL_BASE /(R_Turn + HALF_TRACK_WIDTH)); // out wheel
1000457a:	4b46      	ldr	r3, [pc, #280]	; (10004694 <Steering_Function+0x320>)
1000457c:	681b      	ldr	r3, [r3, #0]
1000457e:	1c18      	adds	r0, r3, #0
10004580:	f005 fe10 	bl	1000a1a4 <__aeabi_f2d>
10004584:	1c03      	adds	r3, r0, #0
10004586:	1c0c      	adds	r4, r1, #0
10004588:	1c18      	adds	r0, r3, #0
1000458a:	1c21      	adds	r1, r4, #0
1000458c:	4a42      	ldr	r2, [pc, #264]	; (10004698 <Steering_Function+0x324>)
1000458e:	4b43      	ldr	r3, [pc, #268]	; (1000469c <Steering_Function+0x328>)
10004590:	f003 ffea 	bl	10008568 <__aeabi_dadd>
10004594:	1c03      	adds	r3, r0, #0
10004596:	1c0c      	adds	r4, r1, #0
10004598:	483c      	ldr	r0, [pc, #240]	; (1000468c <Steering_Function+0x318>)
1000459a:	493d      	ldr	r1, [pc, #244]	; (10004690 <Steering_Function+0x31c>)
1000459c:	1c1a      	adds	r2, r3, #0
1000459e:	1c23      	adds	r3, r4, #0
100045a0:	f004 fb0a 	bl	10008bb8 <__aeabi_ddiv>
100045a4:	1c03      	adds	r3, r0, #0
100045a6:	1c0c      	adds	r4, r1, #0
100045a8:	1c18      	adds	r0, r3, #0
100045aa:	1c21      	adds	r1, r4, #0
100045ac:	f001 fd06 	bl	10005fbc <atan>
100045b0:	1c03      	adds	r3, r0, #0
100045b2:	1c0c      	adds	r4, r1, #0
100045b4:	1c18      	adds	r0, r3, #0
100045b6:	1c21      	adds	r1, r4, #0
100045b8:	4a32      	ldr	r2, [pc, #200]	; (10004684 <Steering_Function+0x310>)
100045ba:	4b33      	ldr	r3, [pc, #204]	; (10004688 <Steering_Function+0x314>)
100045bc:	f004 ff3a 	bl	10009434 <__aeabi_dmul>
100045c0:	1c03      	adds	r3, r0, #0
100045c2:	1c0c      	adds	r4, r1, #0
100045c4:	1c18      	adds	r0, r3, #0
100045c6:	1c21      	adds	r1, r4, #0
100045c8:	f005 fe40 	bl	1000a24c <__aeabi_d2f>
100045cc:	1c02      	adds	r2, r0, #0
100045ce:	4b38      	ldr	r3, [pc, #224]	; (100046b0 <Steering_Function+0x33c>)
100045d0:	601a      	str	r2, [r3, #0]
				angle_fr = RAD_TO_DEG * atan(WHEEL_BASE /(R_Turn - HALF_TRACK_WIDTH)); // in wheel
100045d2:	4b30      	ldr	r3, [pc, #192]	; (10004694 <Steering_Function+0x320>)
100045d4:	681b      	ldr	r3, [r3, #0]
100045d6:	1c18      	adds	r0, r3, #0
100045d8:	f005 fde4 	bl	1000a1a4 <__aeabi_f2d>
100045dc:	1c03      	adds	r3, r0, #0
100045de:	1c0c      	adds	r4, r1, #0
100045e0:	1c18      	adds	r0, r3, #0
100045e2:	1c21      	adds	r1, r4, #0
100045e4:	4a2c      	ldr	r2, [pc, #176]	; (10004698 <Steering_Function+0x324>)
100045e6:	4b2d      	ldr	r3, [pc, #180]	; (1000469c <Steering_Function+0x328>)
100045e8:	f005 f9be 	bl	10009968 <__aeabi_dsub>
100045ec:	1c03      	adds	r3, r0, #0
100045ee:	1c0c      	adds	r4, r1, #0
100045f0:	4826      	ldr	r0, [pc, #152]	; (1000468c <Steering_Function+0x318>)
100045f2:	4927      	ldr	r1, [pc, #156]	; (10004690 <Steering_Function+0x31c>)
100045f4:	1c1a      	adds	r2, r3, #0
100045f6:	1c23      	adds	r3, r4, #0
100045f8:	f004 fade 	bl	10008bb8 <__aeabi_ddiv>
100045fc:	1c03      	adds	r3, r0, #0
100045fe:	1c0c      	adds	r4, r1, #0
10004600:	1c18      	adds	r0, r3, #0
10004602:	1c21      	adds	r1, r4, #0
10004604:	f001 fcda 	bl	10005fbc <atan>
10004608:	1c03      	adds	r3, r0, #0
1000460a:	1c0c      	adds	r4, r1, #0
1000460c:	1c18      	adds	r0, r3, #0
1000460e:	1c21      	adds	r1, r4, #0
10004610:	4a1c      	ldr	r2, [pc, #112]	; (10004684 <Steering_Function+0x310>)
10004612:	4b1d      	ldr	r3, [pc, #116]	; (10004688 <Steering_Function+0x314>)
10004614:	f004 ff0e 	bl	10009434 <__aeabi_dmul>
10004618:	1c03      	adds	r3, r0, #0
1000461a:	1c0c      	adds	r4, r1, #0
1000461c:	1c18      	adds	r0, r3, #0
1000461e:	1c21      	adds	r1, r4, #0
10004620:	f005 fe14 	bl	1000a24c <__aeabi_d2f>
10004624:	1c02      	adds	r2, r0, #0
10004626:	4b23      	ldr	r3, [pc, #140]	; (100046b4 <Steering_Function+0x340>)
10004628:	601a      	str	r2, [r3, #0]

				speed_fl = Driving_speed_cal * Speed_ratio;
1000462a:	4b1f      	ldr	r3, [pc, #124]	; (100046a8 <Steering_Function+0x334>)
1000462c:	681b      	ldr	r3, [r3, #0]
1000462e:	1c18      	adds	r0, r3, #0
10004630:	68b9      	ldr	r1, [r7, #8]
10004632:	f003 fc81 	bl	10007f38 <__aeabi_fmul>
10004636:	1c03      	adds	r3, r0, #0
10004638:	1c1a      	adds	r2, r3, #0
1000463a:	4b1f      	ldr	r3, [pc, #124]	; (100046b8 <Steering_Function+0x344>)
1000463c:	601a      	str	r2, [r3, #0]
				speed_fr = Driving_speed_cal / Speed_ratio;
1000463e:	4b1a      	ldr	r3, [pc, #104]	; (100046a8 <Steering_Function+0x334>)
10004640:	681b      	ldr	r3, [r3, #0]
10004642:	68b8      	ldr	r0, [r7, #8]
10004644:	1c19      	adds	r1, r3, #0
10004646:	f003 fa85 	bl	10007b54 <__aeabi_fdiv>
1000464a:	1c03      	adds	r3, r0, #0
1000464c:	1c1a      	adds	r2, r3, #0
1000464e:	4b1b      	ldr	r3, [pc, #108]	; (100046bc <Steering_Function+0x348>)
10004650:	601a      	str	r2, [r3, #0]
				//speed_rl = Driving_speed_cal * Speed_ratio;
				//speed_rr = Driving_speed_cal / Speed_ratio;

				speed_rl = speed_fl;
10004652:	4b19      	ldr	r3, [pc, #100]	; (100046b8 <Steering_Function+0x344>)
10004654:	681a      	ldr	r2, [r3, #0]
10004656:	4b1a      	ldr	r3, [pc, #104]	; (100046c0 <Steering_Function+0x34c>)
10004658:	601a      	str	r2, [r3, #0]
				speed_rr = speed_fr;
1000465a:	4b18      	ldr	r3, [pc, #96]	; (100046bc <Steering_Function+0x348>)
1000465c:	681a      	ldr	r2, [r3, #0]
1000465e:	4b19      	ldr	r3, [pc, #100]	; (100046c4 <Steering_Function+0x350>)
10004660:	601a      	str	r2, [r3, #0]
10004662:	e0d0      	b.n	10004806 <Steering_Function+0x492>
10004664:	20000964 	.word	0x20000964
10004668:	bf800000 	.word	0xbf800000
1000466c:	9999999a 	.word	0x9999999a
10004670:	3fa99999 	.word	0x3fa99999
10004674:	bfa99999 	.word	0xbfa99999
10004678:	1000a9f4 	.word	0x1000a9f4
1000467c:	42480000 	.word	0x42480000
10004680:	c2480000 	.word	0xc2480000
10004684:	53f7ced9 	.word	0x53f7ced9
10004688:	404ca5e3 	.word	0x404ca5e3
1000468c:	3126e979 	.word	0x3126e979
10004690:	3fdcac08 	.word	0x3fdcac08
10004694:	20000a44 	.word	0x20000a44
10004698:	1a9fbe77 	.word	0x1a9fbe77
1000469c:	3fc4dd2f 	.word	0x3fc4dd2f
100046a0:	54442d18 	.word	0x54442d18
100046a4:	400921fb 	.word	0x400921fb
100046a8:	20000a4c 	.word	0x20000a4c
100046ac:	41a00000 	.word	0x41a00000
100046b0:	200009e0 	.word	0x200009e0
100046b4:	200009e4 	.word	0x200009e4
100046b8:	200009d0 	.word	0x200009d0
100046bc:	200009d4 	.word	0x200009d4
100046c0:	200009d8 	.word	0x200009d8
100046c4:	200009dc 	.word	0x200009dc
			}
			else if((- R_TRUN_MIN > R_Turn) && (R_Turn > -R_TRUN_MAX)){
100046c8:	4bd8      	ldr	r3, [pc, #864]	; (10004a2c <Steering_Function+0x6b8>)
100046ca:	681b      	ldr	r3, [r3, #0]
100046cc:	1c18      	adds	r0, r3, #0
100046ce:	f005 fd69 	bl	1000a1a4 <__aeabi_f2d>
100046d2:	1c03      	adds	r3, r0, #0
100046d4:	1c0c      	adds	r4, r1, #0
100046d6:	1c18      	adds	r0, r3, #0
100046d8:	1c21      	adds	r1, r4, #0
100046da:	4ad5      	ldr	r2, [pc, #852]	; (10004a30 <Steering_Function+0x6bc>)
100046dc:	4bd5      	ldr	r3, [pc, #852]	; (10004a34 <Steering_Function+0x6c0>)
100046de:	f002 ffa5 	bl	1000762c <__aeabi_dcmplt>
100046e2:	1e03      	subs	r3, r0, #0
100046e4:	d100      	bne.n	100046e8 <Steering_Function+0x374>
100046e6:	e07c      	b.n	100047e2 <Steering_Function+0x46e>
100046e8:	4bd0      	ldr	r3, [pc, #832]	; (10004a2c <Steering_Function+0x6b8>)
100046ea:	681b      	ldr	r3, [r3, #0]
100046ec:	1c18      	adds	r0, r3, #0
100046ee:	49d2      	ldr	r1, [pc, #840]	; (10004a38 <Steering_Function+0x6c4>)
100046f0:	f002 ffea 	bl	100076c8 <__aeabi_fcmpgt>
100046f4:	1e03      	subs	r3, r0, #0
100046f6:	d074      	beq.n	100047e2 <Steering_Function+0x46e>
				angle_fl = RAD_TO_DEG * atan(WHEEL_BASE /(R_Turn + HALF_TRACK_WIDTH)); // in wheel
100046f8:	4bcc      	ldr	r3, [pc, #816]	; (10004a2c <Steering_Function+0x6b8>)
100046fa:	681b      	ldr	r3, [r3, #0]
100046fc:	1c18      	adds	r0, r3, #0
100046fe:	f005 fd51 	bl	1000a1a4 <__aeabi_f2d>
10004702:	1c03      	adds	r3, r0, #0
10004704:	1c0c      	adds	r4, r1, #0
10004706:	1c18      	adds	r0, r3, #0
10004708:	1c21      	adds	r1, r4, #0
1000470a:	4acc      	ldr	r2, [pc, #816]	; (10004a3c <Steering_Function+0x6c8>)
1000470c:	4bcc      	ldr	r3, [pc, #816]	; (10004a40 <Steering_Function+0x6cc>)
1000470e:	f003 ff2b 	bl	10008568 <__aeabi_dadd>
10004712:	1c03      	adds	r3, r0, #0
10004714:	1c0c      	adds	r4, r1, #0
10004716:	48cb      	ldr	r0, [pc, #812]	; (10004a44 <Steering_Function+0x6d0>)
10004718:	49cb      	ldr	r1, [pc, #812]	; (10004a48 <Steering_Function+0x6d4>)
1000471a:	1c1a      	adds	r2, r3, #0
1000471c:	1c23      	adds	r3, r4, #0
1000471e:	f004 fa4b 	bl	10008bb8 <__aeabi_ddiv>
10004722:	1c03      	adds	r3, r0, #0
10004724:	1c0c      	adds	r4, r1, #0
10004726:	1c18      	adds	r0, r3, #0
10004728:	1c21      	adds	r1, r4, #0
1000472a:	f001 fc47 	bl	10005fbc <atan>
1000472e:	1c03      	adds	r3, r0, #0
10004730:	1c0c      	adds	r4, r1, #0
10004732:	1c18      	adds	r0, r3, #0
10004734:	1c21      	adds	r1, r4, #0
10004736:	4ac5      	ldr	r2, [pc, #788]	; (10004a4c <Steering_Function+0x6d8>)
10004738:	4bc5      	ldr	r3, [pc, #788]	; (10004a50 <Steering_Function+0x6dc>)
1000473a:	f004 fe7b 	bl	10009434 <__aeabi_dmul>
1000473e:	1c03      	adds	r3, r0, #0
10004740:	1c0c      	adds	r4, r1, #0
10004742:	1c18      	adds	r0, r3, #0
10004744:	1c21      	adds	r1, r4, #0
10004746:	f005 fd81 	bl	1000a24c <__aeabi_d2f>
1000474a:	1c02      	adds	r2, r0, #0
1000474c:	4bc1      	ldr	r3, [pc, #772]	; (10004a54 <Steering_Function+0x6e0>)
1000474e:	601a      	str	r2, [r3, #0]
				angle_fr = RAD_TO_DEG * atan(WHEEL_BASE /(R_Turn - HALF_TRACK_WIDTH)); // out wheel
10004750:	4bb6      	ldr	r3, [pc, #728]	; (10004a2c <Steering_Function+0x6b8>)
10004752:	681b      	ldr	r3, [r3, #0]
10004754:	1c18      	adds	r0, r3, #0
10004756:	f005 fd25 	bl	1000a1a4 <__aeabi_f2d>
1000475a:	1c03      	adds	r3, r0, #0
1000475c:	1c0c      	adds	r4, r1, #0
1000475e:	1c18      	adds	r0, r3, #0
10004760:	1c21      	adds	r1, r4, #0
10004762:	4ab6      	ldr	r2, [pc, #728]	; (10004a3c <Steering_Function+0x6c8>)
10004764:	4bb6      	ldr	r3, [pc, #728]	; (10004a40 <Steering_Function+0x6cc>)
10004766:	f005 f8ff 	bl	10009968 <__aeabi_dsub>
1000476a:	1c03      	adds	r3, r0, #0
1000476c:	1c0c      	adds	r4, r1, #0
1000476e:	48b5      	ldr	r0, [pc, #724]	; (10004a44 <Steering_Function+0x6d0>)
10004770:	49b5      	ldr	r1, [pc, #724]	; (10004a48 <Steering_Function+0x6d4>)
10004772:	1c1a      	adds	r2, r3, #0
10004774:	1c23      	adds	r3, r4, #0
10004776:	f004 fa1f 	bl	10008bb8 <__aeabi_ddiv>
1000477a:	1c03      	adds	r3, r0, #0
1000477c:	1c0c      	adds	r4, r1, #0
1000477e:	1c18      	adds	r0, r3, #0
10004780:	1c21      	adds	r1, r4, #0
10004782:	f001 fc1b 	bl	10005fbc <atan>
10004786:	1c03      	adds	r3, r0, #0
10004788:	1c0c      	adds	r4, r1, #0
1000478a:	1c18      	adds	r0, r3, #0
1000478c:	1c21      	adds	r1, r4, #0
1000478e:	4aaf      	ldr	r2, [pc, #700]	; (10004a4c <Steering_Function+0x6d8>)
10004790:	4baf      	ldr	r3, [pc, #700]	; (10004a50 <Steering_Function+0x6dc>)
10004792:	f004 fe4f 	bl	10009434 <__aeabi_dmul>
10004796:	1c03      	adds	r3, r0, #0
10004798:	1c0c      	adds	r4, r1, #0
1000479a:	1c18      	adds	r0, r3, #0
1000479c:	1c21      	adds	r1, r4, #0
1000479e:	f005 fd55 	bl	1000a24c <__aeabi_d2f>
100047a2:	1c02      	adds	r2, r0, #0
100047a4:	4bac      	ldr	r3, [pc, #688]	; (10004a58 <Steering_Function+0x6e4>)
100047a6:	601a      	str	r2, [r3, #0]

				speed_fl = Driving_speed_cal / Speed_ratio;
100047a8:	4bac      	ldr	r3, [pc, #688]	; (10004a5c <Steering_Function+0x6e8>)
100047aa:	681b      	ldr	r3, [r3, #0]
100047ac:	68b8      	ldr	r0, [r7, #8]
100047ae:	1c19      	adds	r1, r3, #0
100047b0:	f003 f9d0 	bl	10007b54 <__aeabi_fdiv>
100047b4:	1c03      	adds	r3, r0, #0
100047b6:	1c1a      	adds	r2, r3, #0
100047b8:	4ba9      	ldr	r3, [pc, #676]	; (10004a60 <Steering_Function+0x6ec>)
100047ba:	601a      	str	r2, [r3, #0]
				speed_fr = Driving_speed_cal * Speed_ratio;
100047bc:	4ba7      	ldr	r3, [pc, #668]	; (10004a5c <Steering_Function+0x6e8>)
100047be:	681b      	ldr	r3, [r3, #0]
100047c0:	1c18      	adds	r0, r3, #0
100047c2:	68b9      	ldr	r1, [r7, #8]
100047c4:	f003 fbb8 	bl	10007f38 <__aeabi_fmul>
100047c8:	1c03      	adds	r3, r0, #0
100047ca:	1c1a      	adds	r2, r3, #0
100047cc:	4ba5      	ldr	r3, [pc, #660]	; (10004a64 <Steering_Function+0x6f0>)
100047ce:	601a      	str	r2, [r3, #0]
				//speed_rl = Driving_speed_cal / Speed_ratio;
				//speed_rr = Driving_speed_cal * Speed_ratio;

				speed_rl = speed_fl;
100047d0:	4ba3      	ldr	r3, [pc, #652]	; (10004a60 <Steering_Function+0x6ec>)
100047d2:	681a      	ldr	r2, [r3, #0]
100047d4:	4ba4      	ldr	r3, [pc, #656]	; (10004a68 <Steering_Function+0x6f4>)
100047d6:	601a      	str	r2, [r3, #0]
				speed_rr = speed_fr;
100047d8:	4ba2      	ldr	r3, [pc, #648]	; (10004a64 <Steering_Function+0x6f0>)
100047da:	681a      	ldr	r2, [r3, #0]
100047dc:	4ba3      	ldr	r3, [pc, #652]	; (10004a6c <Steering_Function+0x6f8>)
100047de:	601a      	str	r2, [r3, #0]
100047e0:	e011      	b.n	10004806 <Steering_Function+0x492>
			}
			else{
				angle_fl = 0;
100047e2:	4b9c      	ldr	r3, [pc, #624]	; (10004a54 <Steering_Function+0x6e0>)
100047e4:	2200      	movs	r2, #0
100047e6:	601a      	str	r2, [r3, #0]
				angle_fr = 0;
100047e8:	4b9b      	ldr	r3, [pc, #620]	; (10004a58 <Steering_Function+0x6e4>)
100047ea:	2200      	movs	r2, #0
100047ec:	601a      	str	r2, [r3, #0]

				speed_fl = Driving_speed_cal;
100047ee:	4b9c      	ldr	r3, [pc, #624]	; (10004a60 <Steering_Function+0x6ec>)
100047f0:	68ba      	ldr	r2, [r7, #8]
100047f2:	601a      	str	r2, [r3, #0]
				speed_fr = Driving_speed_cal;
100047f4:	4b9b      	ldr	r3, [pc, #620]	; (10004a64 <Steering_Function+0x6f0>)
100047f6:	68ba      	ldr	r2, [r7, #8]
100047f8:	601a      	str	r2, [r3, #0]
				speed_rl = Driving_speed_cal;
100047fa:	4b9b      	ldr	r3, [pc, #620]	; (10004a68 <Steering_Function+0x6f4>)
100047fc:	68ba      	ldr	r2, [r7, #8]
100047fe:	601a      	str	r2, [r3, #0]
				speed_rr = Driving_speed_cal;
10004800:	4b9a      	ldr	r3, [pc, #616]	; (10004a6c <Steering_Function+0x6f8>)
10004802:	68ba      	ldr	r2, [r7, #8]
10004804:	601a      	str	r2, [r3, #0]
			}

			//rear axle
			angle_rl = 0;
10004806:	4b9a      	ldr	r3, [pc, #616]	; (10004a70 <Steering_Function+0x6fc>)
10004808:	2200      	movs	r2, #0
1000480a:	601a      	str	r2, [r3, #0]
			angle_rr = 0;
1000480c:	4b99      	ldr	r3, [pc, #612]	; (10004a74 <Steering_Function+0x700>)
1000480e:	2200      	movs	r2, #0
10004810:	601a      	str	r2, [r3, #0]
			break;
10004812:	f000 fc79 	bl	10005108 <Steering_Function+0xd94>

		case BACK:// rear #############################################################
			// steering limits
			if(Steering_direction_cal > 50) Steering_direction_cal = 50;
10004816:	68f8      	ldr	r0, [r7, #12]
10004818:	4997      	ldr	r1, [pc, #604]	; (10004a78 <Steering_Function+0x704>)
1000481a:	f002 ff55 	bl	100076c8 <__aeabi_fcmpgt>
1000481e:	1e03      	subs	r3, r0, #0
10004820:	d001      	beq.n	10004826 <Steering_Function+0x4b2>
10004822:	4b95      	ldr	r3, [pc, #596]	; (10004a78 <Steering_Function+0x704>)
10004824:	60fb      	str	r3, [r7, #12]
			if(Steering_direction_cal < -50) Steering_direction_cal = -50;
10004826:	68f8      	ldr	r0, [r7, #12]
10004828:	4994      	ldr	r1, [pc, #592]	; (10004a7c <Steering_Function+0x708>)
1000482a:	f002 ff39 	bl	100076a0 <__aeabi_fcmplt>
1000482e:	1e03      	subs	r3, r0, #0
10004830:	d001      	beq.n	10004836 <Steering_Function+0x4c2>
10004832:	4b92      	ldr	r3, [pc, #584]	; (10004a7c <Steering_Function+0x708>)
10004834:	60fb      	str	r3, [r7, #12]

			// pre calc
			R_Turn = WHEEL_BASE / tan(Steering_direction_cal / RAD_TO_DEG); // to truni graduis converstion
10004836:	68f8      	ldr	r0, [r7, #12]
10004838:	f005 fcb4 	bl	1000a1a4 <__aeabi_f2d>
1000483c:	1c03      	adds	r3, r0, #0
1000483e:	1c0c      	adds	r4, r1, #0
10004840:	1c18      	adds	r0, r3, #0
10004842:	1c21      	adds	r1, r4, #0
10004844:	4a81      	ldr	r2, [pc, #516]	; (10004a4c <Steering_Function+0x6d8>)
10004846:	4b82      	ldr	r3, [pc, #520]	; (10004a50 <Steering_Function+0x6dc>)
10004848:	f004 f9b6 	bl	10008bb8 <__aeabi_ddiv>
1000484c:	1c03      	adds	r3, r0, #0
1000484e:	1c0c      	adds	r4, r1, #0
10004850:	1c18      	adds	r0, r3, #0
10004852:	1c21      	adds	r1, r4, #0
10004854:	f001 fd54 	bl	10006300 <tan>
10004858:	1c03      	adds	r3, r0, #0
1000485a:	1c0c      	adds	r4, r1, #0
1000485c:	4879      	ldr	r0, [pc, #484]	; (10004a44 <Steering_Function+0x6d0>)
1000485e:	497a      	ldr	r1, [pc, #488]	; (10004a48 <Steering_Function+0x6d4>)
10004860:	1c1a      	adds	r2, r3, #0
10004862:	1c23      	adds	r3, r4, #0
10004864:	f004 f9a8 	bl	10008bb8 <__aeabi_ddiv>
10004868:	1c03      	adds	r3, r0, #0
1000486a:	1c0c      	adds	r4, r1, #0
1000486c:	1c18      	adds	r0, r3, #0
1000486e:	1c21      	adds	r1, r4, #0
10004870:	f005 fcec 	bl	1000a24c <__aeabi_d2f>
10004874:	1c02      	adds	r2, r0, #0
10004876:	4b6d      	ldr	r3, [pc, #436]	; (10004a2c <Steering_Function+0x6b8>)
10004878:	601a      	str	r2, [r3, #0]
			Speed_ratio = (2 * (copysign(R_Turn,1) + HALF_TRACK_WIDTH) * M_PI) / (2 * copysign(R_Turn,1) * M_PI);
1000487a:	4b6c      	ldr	r3, [pc, #432]	; (10004a2c <Steering_Function+0x6b8>)
1000487c:	681b      	ldr	r3, [r3, #0]
1000487e:	005b      	lsls	r3, r3, #1
10004880:	085b      	lsrs	r3, r3, #1
10004882:	1c18      	adds	r0, r3, #0
10004884:	f005 fc8e 	bl	1000a1a4 <__aeabi_f2d>
10004888:	1c03      	adds	r3, r0, #0
1000488a:	1c0c      	adds	r4, r1, #0
1000488c:	1c18      	adds	r0, r3, #0
1000488e:	1c21      	adds	r1, r4, #0
10004890:	4a6a      	ldr	r2, [pc, #424]	; (10004a3c <Steering_Function+0x6c8>)
10004892:	4b6b      	ldr	r3, [pc, #428]	; (10004a40 <Steering_Function+0x6cc>)
10004894:	f003 fe68 	bl	10008568 <__aeabi_dadd>
10004898:	1c03      	adds	r3, r0, #0
1000489a:	1c0c      	adds	r4, r1, #0
1000489c:	1c18      	adds	r0, r3, #0
1000489e:	1c21      	adds	r1, r4, #0
100048a0:	1c1a      	adds	r2, r3, #0
100048a2:	1c23      	adds	r3, r4, #0
100048a4:	f003 fe60 	bl	10008568 <__aeabi_dadd>
100048a8:	1c03      	adds	r3, r0, #0
100048aa:	1c0c      	adds	r4, r1, #0
100048ac:	1c18      	adds	r0, r3, #0
100048ae:	1c21      	adds	r1, r4, #0
100048b0:	4a73      	ldr	r2, [pc, #460]	; (10004a80 <Steering_Function+0x70c>)
100048b2:	4b74      	ldr	r3, [pc, #464]	; (10004a84 <Steering_Function+0x710>)
100048b4:	f004 fdbe 	bl	10009434 <__aeabi_dmul>
100048b8:	1c03      	adds	r3, r0, #0
100048ba:	1c0c      	adds	r4, r1, #0
100048bc:	1c1d      	adds	r5, r3, #0
100048be:	1c26      	adds	r6, r4, #0
100048c0:	4b5a      	ldr	r3, [pc, #360]	; (10004a2c <Steering_Function+0x6b8>)
100048c2:	681b      	ldr	r3, [r3, #0]
100048c4:	005b      	lsls	r3, r3, #1
100048c6:	085b      	lsrs	r3, r3, #1
100048c8:	1c18      	adds	r0, r3, #0
100048ca:	f005 fc6b 	bl	1000a1a4 <__aeabi_f2d>
100048ce:	1c03      	adds	r3, r0, #0
100048d0:	1c0c      	adds	r4, r1, #0
100048d2:	1c18      	adds	r0, r3, #0
100048d4:	1c21      	adds	r1, r4, #0
100048d6:	1c1a      	adds	r2, r3, #0
100048d8:	1c23      	adds	r3, r4, #0
100048da:	f003 fe45 	bl	10008568 <__aeabi_dadd>
100048de:	1c03      	adds	r3, r0, #0
100048e0:	1c0c      	adds	r4, r1, #0
100048e2:	1c18      	adds	r0, r3, #0
100048e4:	1c21      	adds	r1, r4, #0
100048e6:	4a66      	ldr	r2, [pc, #408]	; (10004a80 <Steering_Function+0x70c>)
100048e8:	4b66      	ldr	r3, [pc, #408]	; (10004a84 <Steering_Function+0x710>)
100048ea:	f004 fda3 	bl	10009434 <__aeabi_dmul>
100048ee:	1c03      	adds	r3, r0, #0
100048f0:	1c0c      	adds	r4, r1, #0
100048f2:	1c28      	adds	r0, r5, #0
100048f4:	1c31      	adds	r1, r6, #0
100048f6:	1c1a      	adds	r2, r3, #0
100048f8:	1c23      	adds	r3, r4, #0
100048fa:	f004 f95d 	bl	10008bb8 <__aeabi_ddiv>
100048fe:	1c03      	adds	r3, r0, #0
10004900:	1c0c      	adds	r4, r1, #0
10004902:	1c18      	adds	r0, r3, #0
10004904:	1c21      	adds	r1, r4, #0
10004906:	f005 fca1 	bl	1000a24c <__aeabi_d2f>
1000490a:	1c02      	adds	r2, r0, #0
1000490c:	4b53      	ldr	r3, [pc, #332]	; (10004a5c <Steering_Function+0x6e8>)
1000490e:	601a      	str	r2, [r3, #0]

			if((R_TRUN_MIN < R_Turn) && (R_Turn < R_TRUN_MAX)){
10004910:	4b46      	ldr	r3, [pc, #280]	; (10004a2c <Steering_Function+0x6b8>)
10004912:	681b      	ldr	r3, [r3, #0]
10004914:	1c18      	adds	r0, r3, #0
10004916:	f005 fc45 	bl	1000a1a4 <__aeabi_f2d>
1000491a:	1c03      	adds	r3, r0, #0
1000491c:	1c0c      	adds	r4, r1, #0
1000491e:	1c18      	adds	r0, r3, #0
10004920:	1c21      	adds	r1, r4, #0
10004922:	4a43      	ldr	r2, [pc, #268]	; (10004a30 <Steering_Function+0x6bc>)
10004924:	4b58      	ldr	r3, [pc, #352]	; (10004a88 <Steering_Function+0x714>)
10004926:	f002 fe95 	bl	10007654 <__aeabi_dcmpgt>
1000492a:	1e03      	subs	r3, r0, #0
1000492c:	d100      	bne.n	10004930 <Steering_Function+0x5bc>
1000492e:	e0b1      	b.n	10004a94 <Steering_Function+0x720>
10004930:	4b3e      	ldr	r3, [pc, #248]	; (10004a2c <Steering_Function+0x6b8>)
10004932:	681b      	ldr	r3, [r3, #0]
10004934:	1c18      	adds	r0, r3, #0
10004936:	4955      	ldr	r1, [pc, #340]	; (10004a8c <Steering_Function+0x718>)
10004938:	f002 feb2 	bl	100076a0 <__aeabi_fcmplt>
1000493c:	1e03      	subs	r3, r0, #0
1000493e:	d100      	bne.n	10004942 <Steering_Function+0x5ce>
10004940:	e0a8      	b.n	10004a94 <Steering_Function+0x720>
				angle_rl = - RAD_TO_DEG * atan(WHEEL_BASE /(R_Turn + HALF_TRACK_WIDTH)); // out wheel
10004942:	4b3a      	ldr	r3, [pc, #232]	; (10004a2c <Steering_Function+0x6b8>)
10004944:	681b      	ldr	r3, [r3, #0]
10004946:	1c18      	adds	r0, r3, #0
10004948:	f005 fc2c 	bl	1000a1a4 <__aeabi_f2d>
1000494c:	1c03      	adds	r3, r0, #0
1000494e:	1c0c      	adds	r4, r1, #0
10004950:	1c18      	adds	r0, r3, #0
10004952:	1c21      	adds	r1, r4, #0
10004954:	4a39      	ldr	r2, [pc, #228]	; (10004a3c <Steering_Function+0x6c8>)
10004956:	4b3a      	ldr	r3, [pc, #232]	; (10004a40 <Steering_Function+0x6cc>)
10004958:	f003 fe06 	bl	10008568 <__aeabi_dadd>
1000495c:	1c03      	adds	r3, r0, #0
1000495e:	1c0c      	adds	r4, r1, #0
10004960:	4838      	ldr	r0, [pc, #224]	; (10004a44 <Steering_Function+0x6d0>)
10004962:	4939      	ldr	r1, [pc, #228]	; (10004a48 <Steering_Function+0x6d4>)
10004964:	1c1a      	adds	r2, r3, #0
10004966:	1c23      	adds	r3, r4, #0
10004968:	f004 f926 	bl	10008bb8 <__aeabi_ddiv>
1000496c:	1c03      	adds	r3, r0, #0
1000496e:	1c0c      	adds	r4, r1, #0
10004970:	1c18      	adds	r0, r3, #0
10004972:	1c21      	adds	r1, r4, #0
10004974:	f001 fb22 	bl	10005fbc <atan>
10004978:	1c03      	adds	r3, r0, #0
1000497a:	1c0c      	adds	r4, r1, #0
1000497c:	1c18      	adds	r0, r3, #0
1000497e:	1c21      	adds	r1, r4, #0
10004980:	4a32      	ldr	r2, [pc, #200]	; (10004a4c <Steering_Function+0x6d8>)
10004982:	4b43      	ldr	r3, [pc, #268]	; (10004a90 <Steering_Function+0x71c>)
10004984:	f004 fd56 	bl	10009434 <__aeabi_dmul>
10004988:	1c03      	adds	r3, r0, #0
1000498a:	1c0c      	adds	r4, r1, #0
1000498c:	1c18      	adds	r0, r3, #0
1000498e:	1c21      	adds	r1, r4, #0
10004990:	f005 fc5c 	bl	1000a24c <__aeabi_d2f>
10004994:	1c02      	adds	r2, r0, #0
10004996:	4b36      	ldr	r3, [pc, #216]	; (10004a70 <Steering_Function+0x6fc>)
10004998:	601a      	str	r2, [r3, #0]
				angle_rr = - RAD_TO_DEG * atan(WHEEL_BASE /(R_Turn - HALF_TRACK_WIDTH)); // in wheel
1000499a:	4b24      	ldr	r3, [pc, #144]	; (10004a2c <Steering_Function+0x6b8>)
1000499c:	681b      	ldr	r3, [r3, #0]
1000499e:	1c18      	adds	r0, r3, #0
100049a0:	f005 fc00 	bl	1000a1a4 <__aeabi_f2d>
100049a4:	1c03      	adds	r3, r0, #0
100049a6:	1c0c      	adds	r4, r1, #0
100049a8:	1c18      	adds	r0, r3, #0
100049aa:	1c21      	adds	r1, r4, #0
100049ac:	4a23      	ldr	r2, [pc, #140]	; (10004a3c <Steering_Function+0x6c8>)
100049ae:	4b24      	ldr	r3, [pc, #144]	; (10004a40 <Steering_Function+0x6cc>)
100049b0:	f004 ffda 	bl	10009968 <__aeabi_dsub>
100049b4:	1c03      	adds	r3, r0, #0
100049b6:	1c0c      	adds	r4, r1, #0
100049b8:	4822      	ldr	r0, [pc, #136]	; (10004a44 <Steering_Function+0x6d0>)
100049ba:	4923      	ldr	r1, [pc, #140]	; (10004a48 <Steering_Function+0x6d4>)
100049bc:	1c1a      	adds	r2, r3, #0
100049be:	1c23      	adds	r3, r4, #0
100049c0:	f004 f8fa 	bl	10008bb8 <__aeabi_ddiv>
100049c4:	1c03      	adds	r3, r0, #0
100049c6:	1c0c      	adds	r4, r1, #0
100049c8:	1c18      	adds	r0, r3, #0
100049ca:	1c21      	adds	r1, r4, #0
100049cc:	f001 faf6 	bl	10005fbc <atan>
100049d0:	1c03      	adds	r3, r0, #0
100049d2:	1c0c      	adds	r4, r1, #0
100049d4:	1c18      	adds	r0, r3, #0
100049d6:	1c21      	adds	r1, r4, #0
100049d8:	4a1c      	ldr	r2, [pc, #112]	; (10004a4c <Steering_Function+0x6d8>)
100049da:	4b2d      	ldr	r3, [pc, #180]	; (10004a90 <Steering_Function+0x71c>)
100049dc:	f004 fd2a 	bl	10009434 <__aeabi_dmul>
100049e0:	1c03      	adds	r3, r0, #0
100049e2:	1c0c      	adds	r4, r1, #0
100049e4:	1c18      	adds	r0, r3, #0
100049e6:	1c21      	adds	r1, r4, #0
100049e8:	f005 fc30 	bl	1000a24c <__aeabi_d2f>
100049ec:	1c02      	adds	r2, r0, #0
100049ee:	4b21      	ldr	r3, [pc, #132]	; (10004a74 <Steering_Function+0x700>)
100049f0:	601a      	str	r2, [r3, #0]


				speed_fl = Driving_speed_cal * Speed_ratio;
100049f2:	4b1a      	ldr	r3, [pc, #104]	; (10004a5c <Steering_Function+0x6e8>)
100049f4:	681b      	ldr	r3, [r3, #0]
100049f6:	1c18      	adds	r0, r3, #0
100049f8:	68b9      	ldr	r1, [r7, #8]
100049fa:	f003 fa9d 	bl	10007f38 <__aeabi_fmul>
100049fe:	1c03      	adds	r3, r0, #0
10004a00:	1c1a      	adds	r2, r3, #0
10004a02:	4b17      	ldr	r3, [pc, #92]	; (10004a60 <Steering_Function+0x6ec>)
10004a04:	601a      	str	r2, [r3, #0]
				speed_fr = Driving_speed_cal / Speed_ratio;
10004a06:	4b15      	ldr	r3, [pc, #84]	; (10004a5c <Steering_Function+0x6e8>)
10004a08:	681b      	ldr	r3, [r3, #0]
10004a0a:	68b8      	ldr	r0, [r7, #8]
10004a0c:	1c19      	adds	r1, r3, #0
10004a0e:	f003 f8a1 	bl	10007b54 <__aeabi_fdiv>
10004a12:	1c03      	adds	r3, r0, #0
10004a14:	1c1a      	adds	r2, r3, #0
10004a16:	4b13      	ldr	r3, [pc, #76]	; (10004a64 <Steering_Function+0x6f0>)
10004a18:	601a      	str	r2, [r3, #0]
				//speed_rl = Driving_speed_cal * Speed_ratio;
				//speed_rr = Driving_speed_cal / Speed_ratio;

				speed_rl = speed_fl;
10004a1a:	4b11      	ldr	r3, [pc, #68]	; (10004a60 <Steering_Function+0x6ec>)
10004a1c:	681a      	ldr	r2, [r3, #0]
10004a1e:	4b12      	ldr	r3, [pc, #72]	; (10004a68 <Steering_Function+0x6f4>)
10004a20:	601a      	str	r2, [r3, #0]
				speed_rr = speed_fr;
10004a22:	4b10      	ldr	r3, [pc, #64]	; (10004a64 <Steering_Function+0x6f0>)
10004a24:	681a      	ldr	r2, [r3, #0]
10004a26:	4b11      	ldr	r3, [pc, #68]	; (10004a6c <Steering_Function+0x6f8>)
10004a28:	601a      	str	r2, [r3, #0]
10004a2a:	e0d2      	b.n	10004bd2 <Steering_Function+0x85e>
10004a2c:	20000a44 	.word	0x20000a44
10004a30:	9999999a 	.word	0x9999999a
10004a34:	bfa99999 	.word	0xbfa99999
10004a38:	c1a00000 	.word	0xc1a00000
10004a3c:	1a9fbe77 	.word	0x1a9fbe77
10004a40:	3fc4dd2f 	.word	0x3fc4dd2f
10004a44:	3126e979 	.word	0x3126e979
10004a48:	3fdcac08 	.word	0x3fdcac08
10004a4c:	53f7ced9 	.word	0x53f7ced9
10004a50:	404ca5e3 	.word	0x404ca5e3
10004a54:	200009e0 	.word	0x200009e0
10004a58:	200009e4 	.word	0x200009e4
10004a5c:	20000a4c 	.word	0x20000a4c
10004a60:	200009d0 	.word	0x200009d0
10004a64:	200009d4 	.word	0x200009d4
10004a68:	200009d8 	.word	0x200009d8
10004a6c:	200009dc 	.word	0x200009dc
10004a70:	200009e8 	.word	0x200009e8
10004a74:	200009ec 	.word	0x200009ec
10004a78:	42480000 	.word	0x42480000
10004a7c:	c2480000 	.word	0xc2480000
10004a80:	54442d18 	.word	0x54442d18
10004a84:	400921fb 	.word	0x400921fb
10004a88:	3fa99999 	.word	0x3fa99999
10004a8c:	41a00000 	.word	0x41a00000
10004a90:	c04ca5e3 	.word	0xc04ca5e3
			}
			else if((- R_TRUN_MIN > R_Turn) && (R_Turn > -R_TRUN_MAX)){
10004a94:	4bdf      	ldr	r3, [pc, #892]	; (10004e14 <Steering_Function+0xaa0>)
10004a96:	681b      	ldr	r3, [r3, #0]
10004a98:	1c18      	adds	r0, r3, #0
10004a9a:	f005 fb83 	bl	1000a1a4 <__aeabi_f2d>
10004a9e:	1c03      	adds	r3, r0, #0
10004aa0:	1c0c      	adds	r4, r1, #0
10004aa2:	1c18      	adds	r0, r3, #0
10004aa4:	1c21      	adds	r1, r4, #0
10004aa6:	4adc      	ldr	r2, [pc, #880]	; (10004e18 <Steering_Function+0xaa4>)
10004aa8:	4bdc      	ldr	r3, [pc, #880]	; (10004e1c <Steering_Function+0xaa8>)
10004aaa:	f002 fdbf 	bl	1000762c <__aeabi_dcmplt>
10004aae:	1e03      	subs	r3, r0, #0
10004ab0:	d100      	bne.n	10004ab4 <Steering_Function+0x740>
10004ab2:	e07c      	b.n	10004bae <Steering_Function+0x83a>
10004ab4:	4bd7      	ldr	r3, [pc, #860]	; (10004e14 <Steering_Function+0xaa0>)
10004ab6:	681b      	ldr	r3, [r3, #0]
10004ab8:	1c18      	adds	r0, r3, #0
10004aba:	49d9      	ldr	r1, [pc, #868]	; (10004e20 <Steering_Function+0xaac>)
10004abc:	f002 fe04 	bl	100076c8 <__aeabi_fcmpgt>
10004ac0:	1e03      	subs	r3, r0, #0
10004ac2:	d074      	beq.n	10004bae <Steering_Function+0x83a>
				angle_rl = - RAD_TO_DEG * atan(WHEEL_BASE /(R_Turn + HALF_TRACK_WIDTH)); // in wheel
10004ac4:	4bd3      	ldr	r3, [pc, #844]	; (10004e14 <Steering_Function+0xaa0>)
10004ac6:	681b      	ldr	r3, [r3, #0]
10004ac8:	1c18      	adds	r0, r3, #0
10004aca:	f005 fb6b 	bl	1000a1a4 <__aeabi_f2d>
10004ace:	1c03      	adds	r3, r0, #0
10004ad0:	1c0c      	adds	r4, r1, #0
10004ad2:	1c18      	adds	r0, r3, #0
10004ad4:	1c21      	adds	r1, r4, #0
10004ad6:	4ad3      	ldr	r2, [pc, #844]	; (10004e24 <Steering_Function+0xab0>)
10004ad8:	4bd3      	ldr	r3, [pc, #844]	; (10004e28 <Steering_Function+0xab4>)
10004ada:	f003 fd45 	bl	10008568 <__aeabi_dadd>
10004ade:	1c03      	adds	r3, r0, #0
10004ae0:	1c0c      	adds	r4, r1, #0
10004ae2:	48d2      	ldr	r0, [pc, #840]	; (10004e2c <Steering_Function+0xab8>)
10004ae4:	49d2      	ldr	r1, [pc, #840]	; (10004e30 <Steering_Function+0xabc>)
10004ae6:	1c1a      	adds	r2, r3, #0
10004ae8:	1c23      	adds	r3, r4, #0
10004aea:	f004 f865 	bl	10008bb8 <__aeabi_ddiv>
10004aee:	1c03      	adds	r3, r0, #0
10004af0:	1c0c      	adds	r4, r1, #0
10004af2:	1c18      	adds	r0, r3, #0
10004af4:	1c21      	adds	r1, r4, #0
10004af6:	f001 fa61 	bl	10005fbc <atan>
10004afa:	1c03      	adds	r3, r0, #0
10004afc:	1c0c      	adds	r4, r1, #0
10004afe:	1c18      	adds	r0, r3, #0
10004b00:	1c21      	adds	r1, r4, #0
10004b02:	4acc      	ldr	r2, [pc, #816]	; (10004e34 <Steering_Function+0xac0>)
10004b04:	4bcc      	ldr	r3, [pc, #816]	; (10004e38 <Steering_Function+0xac4>)
10004b06:	f004 fc95 	bl	10009434 <__aeabi_dmul>
10004b0a:	1c03      	adds	r3, r0, #0
10004b0c:	1c0c      	adds	r4, r1, #0
10004b0e:	1c18      	adds	r0, r3, #0
10004b10:	1c21      	adds	r1, r4, #0
10004b12:	f005 fb9b 	bl	1000a24c <__aeabi_d2f>
10004b16:	1c02      	adds	r2, r0, #0
10004b18:	4bc8      	ldr	r3, [pc, #800]	; (10004e3c <Steering_Function+0xac8>)
10004b1a:	601a      	str	r2, [r3, #0]
				angle_rr = - RAD_TO_DEG * atan(WHEEL_BASE /(R_Turn - HALF_TRACK_WIDTH)); // out wheel
10004b1c:	4bbd      	ldr	r3, [pc, #756]	; (10004e14 <Steering_Function+0xaa0>)
10004b1e:	681b      	ldr	r3, [r3, #0]
10004b20:	1c18      	adds	r0, r3, #0
10004b22:	f005 fb3f 	bl	1000a1a4 <__aeabi_f2d>
10004b26:	1c03      	adds	r3, r0, #0
10004b28:	1c0c      	adds	r4, r1, #0
10004b2a:	1c18      	adds	r0, r3, #0
10004b2c:	1c21      	adds	r1, r4, #0
10004b2e:	4abd      	ldr	r2, [pc, #756]	; (10004e24 <Steering_Function+0xab0>)
10004b30:	4bbd      	ldr	r3, [pc, #756]	; (10004e28 <Steering_Function+0xab4>)
10004b32:	f004 ff19 	bl	10009968 <__aeabi_dsub>
10004b36:	1c03      	adds	r3, r0, #0
10004b38:	1c0c      	adds	r4, r1, #0
10004b3a:	48bc      	ldr	r0, [pc, #752]	; (10004e2c <Steering_Function+0xab8>)
10004b3c:	49bc      	ldr	r1, [pc, #752]	; (10004e30 <Steering_Function+0xabc>)
10004b3e:	1c1a      	adds	r2, r3, #0
10004b40:	1c23      	adds	r3, r4, #0
10004b42:	f004 f839 	bl	10008bb8 <__aeabi_ddiv>
10004b46:	1c03      	adds	r3, r0, #0
10004b48:	1c0c      	adds	r4, r1, #0
10004b4a:	1c18      	adds	r0, r3, #0
10004b4c:	1c21      	adds	r1, r4, #0
10004b4e:	f001 fa35 	bl	10005fbc <atan>
10004b52:	1c03      	adds	r3, r0, #0
10004b54:	1c0c      	adds	r4, r1, #0
10004b56:	1c18      	adds	r0, r3, #0
10004b58:	1c21      	adds	r1, r4, #0
10004b5a:	4ab6      	ldr	r2, [pc, #728]	; (10004e34 <Steering_Function+0xac0>)
10004b5c:	4bb6      	ldr	r3, [pc, #728]	; (10004e38 <Steering_Function+0xac4>)
10004b5e:	f004 fc69 	bl	10009434 <__aeabi_dmul>
10004b62:	1c03      	adds	r3, r0, #0
10004b64:	1c0c      	adds	r4, r1, #0
10004b66:	1c18      	adds	r0, r3, #0
10004b68:	1c21      	adds	r1, r4, #0
10004b6a:	f005 fb6f 	bl	1000a24c <__aeabi_d2f>
10004b6e:	1c02      	adds	r2, r0, #0
10004b70:	4bb3      	ldr	r3, [pc, #716]	; (10004e40 <Steering_Function+0xacc>)
10004b72:	601a      	str	r2, [r3, #0]

				speed_fl = Driving_speed_cal / Speed_ratio;
10004b74:	4bb3      	ldr	r3, [pc, #716]	; (10004e44 <Steering_Function+0xad0>)
10004b76:	681b      	ldr	r3, [r3, #0]
10004b78:	68b8      	ldr	r0, [r7, #8]
10004b7a:	1c19      	adds	r1, r3, #0
10004b7c:	f002 ffea 	bl	10007b54 <__aeabi_fdiv>
10004b80:	1c03      	adds	r3, r0, #0
10004b82:	1c1a      	adds	r2, r3, #0
10004b84:	4bb0      	ldr	r3, [pc, #704]	; (10004e48 <Steering_Function+0xad4>)
10004b86:	601a      	str	r2, [r3, #0]
				speed_fr = Driving_speed_cal * Speed_ratio;
10004b88:	4bae      	ldr	r3, [pc, #696]	; (10004e44 <Steering_Function+0xad0>)
10004b8a:	681b      	ldr	r3, [r3, #0]
10004b8c:	1c18      	adds	r0, r3, #0
10004b8e:	68b9      	ldr	r1, [r7, #8]
10004b90:	f003 f9d2 	bl	10007f38 <__aeabi_fmul>
10004b94:	1c03      	adds	r3, r0, #0
10004b96:	1c1a      	adds	r2, r3, #0
10004b98:	4bac      	ldr	r3, [pc, #688]	; (10004e4c <Steering_Function+0xad8>)
10004b9a:	601a      	str	r2, [r3, #0]
				//speed_rl = Driving_speed_cal / Speed_ratio;
				//speed_rr = Driving_speed_cal * Speed_ratio;

				speed_rl = speed_fl;
10004b9c:	4baa      	ldr	r3, [pc, #680]	; (10004e48 <Steering_Function+0xad4>)
10004b9e:	681a      	ldr	r2, [r3, #0]
10004ba0:	4bab      	ldr	r3, [pc, #684]	; (10004e50 <Steering_Function+0xadc>)
10004ba2:	601a      	str	r2, [r3, #0]
				speed_rr = speed_fr;
10004ba4:	4ba9      	ldr	r3, [pc, #676]	; (10004e4c <Steering_Function+0xad8>)
10004ba6:	681a      	ldr	r2, [r3, #0]
10004ba8:	4baa      	ldr	r3, [pc, #680]	; (10004e54 <Steering_Function+0xae0>)
10004baa:	601a      	str	r2, [r3, #0]
10004bac:	e011      	b.n	10004bd2 <Steering_Function+0x85e>
			}
			else{
				angle_rl = 0;
10004bae:	4ba3      	ldr	r3, [pc, #652]	; (10004e3c <Steering_Function+0xac8>)
10004bb0:	2200      	movs	r2, #0
10004bb2:	601a      	str	r2, [r3, #0]
				angle_rr = 0;
10004bb4:	4ba2      	ldr	r3, [pc, #648]	; (10004e40 <Steering_Function+0xacc>)
10004bb6:	2200      	movs	r2, #0
10004bb8:	601a      	str	r2, [r3, #0]

				speed_fl = Driving_speed_cal;
10004bba:	4ba3      	ldr	r3, [pc, #652]	; (10004e48 <Steering_Function+0xad4>)
10004bbc:	68ba      	ldr	r2, [r7, #8]
10004bbe:	601a      	str	r2, [r3, #0]
				speed_fr = Driving_speed_cal;
10004bc0:	4ba2      	ldr	r3, [pc, #648]	; (10004e4c <Steering_Function+0xad8>)
10004bc2:	68ba      	ldr	r2, [r7, #8]
10004bc4:	601a      	str	r2, [r3, #0]
				speed_rl = Driving_speed_cal;
10004bc6:	4ba2      	ldr	r3, [pc, #648]	; (10004e50 <Steering_Function+0xadc>)
10004bc8:	68ba      	ldr	r2, [r7, #8]
10004bca:	601a      	str	r2, [r3, #0]
				speed_rr = Driving_speed_cal;
10004bcc:	4ba1      	ldr	r3, [pc, #644]	; (10004e54 <Steering_Function+0xae0>)
10004bce:	68ba      	ldr	r2, [r7, #8]
10004bd0:	601a      	str	r2, [r3, #0]
			}

			//rear axle
			angle_fl = 0;
10004bd2:	4ba1      	ldr	r3, [pc, #644]	; (10004e58 <Steering_Function+0xae4>)
10004bd4:	2200      	movs	r2, #0
10004bd6:	601a      	str	r2, [r3, #0]
			angle_fr = 0;
10004bd8:	4ba0      	ldr	r3, [pc, #640]	; (10004e5c <Steering_Function+0xae8>)
10004bda:	2200      	movs	r2, #0
10004bdc:	601a      	str	r2, [r3, #0]
			break;
10004bde:	e293      	b.n	10005108 <Steering_Function+0xd94>

		case ALL_WHEEL: // 4 wheel #############################################################
			// steering limits
			if(Steering_direction_cal > 30) Steering_direction_cal = 30;
10004be0:	68f8      	ldr	r0, [r7, #12]
10004be2:	499f      	ldr	r1, [pc, #636]	; (10004e60 <Steering_Function+0xaec>)
10004be4:	f002 fd70 	bl	100076c8 <__aeabi_fcmpgt>
10004be8:	1e03      	subs	r3, r0, #0
10004bea:	d001      	beq.n	10004bf0 <Steering_Function+0x87c>
10004bec:	4b9c      	ldr	r3, [pc, #624]	; (10004e60 <Steering_Function+0xaec>)
10004bee:	60fb      	str	r3, [r7, #12]
			if(Steering_direction_cal < -30) Steering_direction_cal = -30;
10004bf0:	68f8      	ldr	r0, [r7, #12]
10004bf2:	499c      	ldr	r1, [pc, #624]	; (10004e64 <Steering_Function+0xaf0>)
10004bf4:	f002 fd54 	bl	100076a0 <__aeabi_fcmplt>
10004bf8:	1e03      	subs	r3, r0, #0
10004bfa:	d001      	beq.n	10004c00 <Steering_Function+0x88c>
10004bfc:	4b99      	ldr	r3, [pc, #612]	; (10004e64 <Steering_Function+0xaf0>)
10004bfe:	60fb      	str	r3, [r7, #12]

			// pre calc
			R_Turn = HALF_WHEEL_BASE / tan(Steering_direction_cal / RAD_TO_DEG); // to truni graduis converstion
10004c00:	68f8      	ldr	r0, [r7, #12]
10004c02:	f005 facf 	bl	1000a1a4 <__aeabi_f2d>
10004c06:	1c03      	adds	r3, r0, #0
10004c08:	1c0c      	adds	r4, r1, #0
10004c0a:	1c18      	adds	r0, r3, #0
10004c0c:	1c21      	adds	r1, r4, #0
10004c0e:	4a89      	ldr	r2, [pc, #548]	; (10004e34 <Steering_Function+0xac0>)
10004c10:	4b95      	ldr	r3, [pc, #596]	; (10004e68 <Steering_Function+0xaf4>)
10004c12:	f003 ffd1 	bl	10008bb8 <__aeabi_ddiv>
10004c16:	1c03      	adds	r3, r0, #0
10004c18:	1c0c      	adds	r4, r1, #0
10004c1a:	1c18      	adds	r0, r3, #0
10004c1c:	1c21      	adds	r1, r4, #0
10004c1e:	f001 fb6f 	bl	10006300 <tan>
10004c22:	1c03      	adds	r3, r0, #0
10004c24:	1c0c      	adds	r4, r1, #0
10004c26:	4891      	ldr	r0, [pc, #580]	; (10004e6c <Steering_Function+0xaf8>)
10004c28:	4991      	ldr	r1, [pc, #580]	; (10004e70 <Steering_Function+0xafc>)
10004c2a:	1c1a      	adds	r2, r3, #0
10004c2c:	1c23      	adds	r3, r4, #0
10004c2e:	f003 ffc3 	bl	10008bb8 <__aeabi_ddiv>
10004c32:	1c03      	adds	r3, r0, #0
10004c34:	1c0c      	adds	r4, r1, #0
10004c36:	1c18      	adds	r0, r3, #0
10004c38:	1c21      	adds	r1, r4, #0
10004c3a:	f005 fb07 	bl	1000a24c <__aeabi_d2f>
10004c3e:	1c02      	adds	r2, r0, #0
10004c40:	4b74      	ldr	r3, [pc, #464]	; (10004e14 <Steering_Function+0xaa0>)
10004c42:	601a      	str	r2, [r3, #0]
			Speed_ratio = (2 * (copysign(R_Turn,1) + HALF_TRACK_WIDTH) * M_PI) / (2 * copysign(R_Turn,1) * M_PI);
10004c44:	4b73      	ldr	r3, [pc, #460]	; (10004e14 <Steering_Function+0xaa0>)
10004c46:	681b      	ldr	r3, [r3, #0]
10004c48:	005b      	lsls	r3, r3, #1
10004c4a:	085b      	lsrs	r3, r3, #1
10004c4c:	1c18      	adds	r0, r3, #0
10004c4e:	f005 faa9 	bl	1000a1a4 <__aeabi_f2d>
10004c52:	1c03      	adds	r3, r0, #0
10004c54:	1c0c      	adds	r4, r1, #0
10004c56:	1c18      	adds	r0, r3, #0
10004c58:	1c21      	adds	r1, r4, #0
10004c5a:	4a72      	ldr	r2, [pc, #456]	; (10004e24 <Steering_Function+0xab0>)
10004c5c:	4b72      	ldr	r3, [pc, #456]	; (10004e28 <Steering_Function+0xab4>)
10004c5e:	f003 fc83 	bl	10008568 <__aeabi_dadd>
10004c62:	1c03      	adds	r3, r0, #0
10004c64:	1c0c      	adds	r4, r1, #0
10004c66:	1c18      	adds	r0, r3, #0
10004c68:	1c21      	adds	r1, r4, #0
10004c6a:	1c1a      	adds	r2, r3, #0
10004c6c:	1c23      	adds	r3, r4, #0
10004c6e:	f003 fc7b 	bl	10008568 <__aeabi_dadd>
10004c72:	1c03      	adds	r3, r0, #0
10004c74:	1c0c      	adds	r4, r1, #0
10004c76:	1c18      	adds	r0, r3, #0
10004c78:	1c21      	adds	r1, r4, #0
10004c7a:	4a7e      	ldr	r2, [pc, #504]	; (10004e74 <Steering_Function+0xb00>)
10004c7c:	4b7e      	ldr	r3, [pc, #504]	; (10004e78 <Steering_Function+0xb04>)
10004c7e:	f004 fbd9 	bl	10009434 <__aeabi_dmul>
10004c82:	1c03      	adds	r3, r0, #0
10004c84:	1c0c      	adds	r4, r1, #0
10004c86:	1c1d      	adds	r5, r3, #0
10004c88:	1c26      	adds	r6, r4, #0
10004c8a:	4b62      	ldr	r3, [pc, #392]	; (10004e14 <Steering_Function+0xaa0>)
10004c8c:	681b      	ldr	r3, [r3, #0]
10004c8e:	005b      	lsls	r3, r3, #1
10004c90:	085b      	lsrs	r3, r3, #1
10004c92:	1c18      	adds	r0, r3, #0
10004c94:	f005 fa86 	bl	1000a1a4 <__aeabi_f2d>
10004c98:	1c03      	adds	r3, r0, #0
10004c9a:	1c0c      	adds	r4, r1, #0
10004c9c:	1c18      	adds	r0, r3, #0
10004c9e:	1c21      	adds	r1, r4, #0
10004ca0:	1c1a      	adds	r2, r3, #0
10004ca2:	1c23      	adds	r3, r4, #0
10004ca4:	f003 fc60 	bl	10008568 <__aeabi_dadd>
10004ca8:	1c03      	adds	r3, r0, #0
10004caa:	1c0c      	adds	r4, r1, #0
10004cac:	1c18      	adds	r0, r3, #0
10004cae:	1c21      	adds	r1, r4, #0
10004cb0:	4a70      	ldr	r2, [pc, #448]	; (10004e74 <Steering_Function+0xb00>)
10004cb2:	4b71      	ldr	r3, [pc, #452]	; (10004e78 <Steering_Function+0xb04>)
10004cb4:	f004 fbbe 	bl	10009434 <__aeabi_dmul>
10004cb8:	1c03      	adds	r3, r0, #0
10004cba:	1c0c      	adds	r4, r1, #0
10004cbc:	1c28      	adds	r0, r5, #0
10004cbe:	1c31      	adds	r1, r6, #0
10004cc0:	1c1a      	adds	r2, r3, #0
10004cc2:	1c23      	adds	r3, r4, #0
10004cc4:	f003 ff78 	bl	10008bb8 <__aeabi_ddiv>
10004cc8:	1c03      	adds	r3, r0, #0
10004cca:	1c0c      	adds	r4, r1, #0
10004ccc:	1c18      	adds	r0, r3, #0
10004cce:	1c21      	adds	r1, r4, #0
10004cd0:	f005 fabc 	bl	1000a24c <__aeabi_d2f>
10004cd4:	1c02      	adds	r2, r0, #0
10004cd6:	4b5b      	ldr	r3, [pc, #364]	; (10004e44 <Steering_Function+0xad0>)
10004cd8:	601a      	str	r2, [r3, #0]

			if((R_TRUN_MIN < R_Turn) && (R_Turn < R_TRUN_MAX)){ // trun right positive R
10004cda:	4b4e      	ldr	r3, [pc, #312]	; (10004e14 <Steering_Function+0xaa0>)
10004cdc:	681b      	ldr	r3, [r3, #0]
10004cde:	1c18      	adds	r0, r3, #0
10004ce0:	f005 fa60 	bl	1000a1a4 <__aeabi_f2d>
10004ce4:	1c03      	adds	r3, r0, #0
10004ce6:	1c0c      	adds	r4, r1, #0
10004ce8:	1c18      	adds	r0, r3, #0
10004cea:	1c21      	adds	r1, r4, #0
10004cec:	4a4a      	ldr	r2, [pc, #296]	; (10004e18 <Steering_Function+0xaa4>)
10004cee:	4b63      	ldr	r3, [pc, #396]	; (10004e7c <Steering_Function+0xb08>)
10004cf0:	f002 fcb0 	bl	10007654 <__aeabi_dcmpgt>
10004cf4:	1e03      	subs	r3, r0, #0
10004cf6:	d100      	bne.n	10004cfa <Steering_Function+0x986>
10004cf8:	e0c4      	b.n	10004e84 <Steering_Function+0xb10>
10004cfa:	4b46      	ldr	r3, [pc, #280]	; (10004e14 <Steering_Function+0xaa0>)
10004cfc:	681b      	ldr	r3, [r3, #0]
10004cfe:	1c18      	adds	r0, r3, #0
10004d00:	495f      	ldr	r1, [pc, #380]	; (10004e80 <Steering_Function+0xb0c>)
10004d02:	f002 fccd 	bl	100076a0 <__aeabi_fcmplt>
10004d06:	1e03      	subs	r3, r0, #0
10004d08:	d100      	bne.n	10004d0c <Steering_Function+0x998>
10004d0a:	e0bb      	b.n	10004e84 <Steering_Function+0xb10>
				angle_fl = RAD_TO_DEG * atan(WHEEL_BASE /(R_Turn + HALF_TRACK_WIDTH)); // out wheel
10004d0c:	4b41      	ldr	r3, [pc, #260]	; (10004e14 <Steering_Function+0xaa0>)
10004d0e:	681b      	ldr	r3, [r3, #0]
10004d10:	1c18      	adds	r0, r3, #0
10004d12:	f005 fa47 	bl	1000a1a4 <__aeabi_f2d>
10004d16:	1c03      	adds	r3, r0, #0
10004d18:	1c0c      	adds	r4, r1, #0
10004d1a:	1c18      	adds	r0, r3, #0
10004d1c:	1c21      	adds	r1, r4, #0
10004d1e:	4a41      	ldr	r2, [pc, #260]	; (10004e24 <Steering_Function+0xab0>)
10004d20:	4b41      	ldr	r3, [pc, #260]	; (10004e28 <Steering_Function+0xab4>)
10004d22:	f003 fc21 	bl	10008568 <__aeabi_dadd>
10004d26:	1c03      	adds	r3, r0, #0
10004d28:	1c0c      	adds	r4, r1, #0
10004d2a:	4840      	ldr	r0, [pc, #256]	; (10004e2c <Steering_Function+0xab8>)
10004d2c:	4940      	ldr	r1, [pc, #256]	; (10004e30 <Steering_Function+0xabc>)
10004d2e:	1c1a      	adds	r2, r3, #0
10004d30:	1c23      	adds	r3, r4, #0
10004d32:	f003 ff41 	bl	10008bb8 <__aeabi_ddiv>
10004d36:	1c03      	adds	r3, r0, #0
10004d38:	1c0c      	adds	r4, r1, #0
10004d3a:	1c18      	adds	r0, r3, #0
10004d3c:	1c21      	adds	r1, r4, #0
10004d3e:	f001 f93d 	bl	10005fbc <atan>
10004d42:	1c03      	adds	r3, r0, #0
10004d44:	1c0c      	adds	r4, r1, #0
10004d46:	1c18      	adds	r0, r3, #0
10004d48:	1c21      	adds	r1, r4, #0
10004d4a:	4a3a      	ldr	r2, [pc, #232]	; (10004e34 <Steering_Function+0xac0>)
10004d4c:	4b46      	ldr	r3, [pc, #280]	; (10004e68 <Steering_Function+0xaf4>)
10004d4e:	f004 fb71 	bl	10009434 <__aeabi_dmul>
10004d52:	1c03      	adds	r3, r0, #0
10004d54:	1c0c      	adds	r4, r1, #0
10004d56:	1c18      	adds	r0, r3, #0
10004d58:	1c21      	adds	r1, r4, #0
10004d5a:	f005 fa77 	bl	1000a24c <__aeabi_d2f>
10004d5e:	1c02      	adds	r2, r0, #0
10004d60:	4b3d      	ldr	r3, [pc, #244]	; (10004e58 <Steering_Function+0xae4>)
10004d62:	601a      	str	r2, [r3, #0]
				angle_fr = RAD_TO_DEG * atan(WHEEL_BASE /(R_Turn - HALF_TRACK_WIDTH)); // in wheel
10004d64:	4b2b      	ldr	r3, [pc, #172]	; (10004e14 <Steering_Function+0xaa0>)
10004d66:	681b      	ldr	r3, [r3, #0]
10004d68:	1c18      	adds	r0, r3, #0
10004d6a:	f005 fa1b 	bl	1000a1a4 <__aeabi_f2d>
10004d6e:	1c03      	adds	r3, r0, #0
10004d70:	1c0c      	adds	r4, r1, #0
10004d72:	1c18      	adds	r0, r3, #0
10004d74:	1c21      	adds	r1, r4, #0
10004d76:	4a2b      	ldr	r2, [pc, #172]	; (10004e24 <Steering_Function+0xab0>)
10004d78:	4b2b      	ldr	r3, [pc, #172]	; (10004e28 <Steering_Function+0xab4>)
10004d7a:	f004 fdf5 	bl	10009968 <__aeabi_dsub>
10004d7e:	1c03      	adds	r3, r0, #0
10004d80:	1c0c      	adds	r4, r1, #0
10004d82:	482a      	ldr	r0, [pc, #168]	; (10004e2c <Steering_Function+0xab8>)
10004d84:	492a      	ldr	r1, [pc, #168]	; (10004e30 <Steering_Function+0xabc>)
10004d86:	1c1a      	adds	r2, r3, #0
10004d88:	1c23      	adds	r3, r4, #0
10004d8a:	f003 ff15 	bl	10008bb8 <__aeabi_ddiv>
10004d8e:	1c03      	adds	r3, r0, #0
10004d90:	1c0c      	adds	r4, r1, #0
10004d92:	1c18      	adds	r0, r3, #0
10004d94:	1c21      	adds	r1, r4, #0
10004d96:	f001 f911 	bl	10005fbc <atan>
10004d9a:	1c03      	adds	r3, r0, #0
10004d9c:	1c0c      	adds	r4, r1, #0
10004d9e:	1c18      	adds	r0, r3, #0
10004da0:	1c21      	adds	r1, r4, #0
10004da2:	4a24      	ldr	r2, [pc, #144]	; (10004e34 <Steering_Function+0xac0>)
10004da4:	4b30      	ldr	r3, [pc, #192]	; (10004e68 <Steering_Function+0xaf4>)
10004da6:	f004 fb45 	bl	10009434 <__aeabi_dmul>
10004daa:	1c03      	adds	r3, r0, #0
10004dac:	1c0c      	adds	r4, r1, #0
10004dae:	1c18      	adds	r0, r3, #0
10004db0:	1c21      	adds	r1, r4, #0
10004db2:	f005 fa4b 	bl	1000a24c <__aeabi_d2f>
10004db6:	1c02      	adds	r2, r0, #0
10004db8:	4b28      	ldr	r3, [pc, #160]	; (10004e5c <Steering_Function+0xae8>)
10004dba:	601a      	str	r2, [r3, #0]
				//angle_rl = - RAD_TO_DEG * atan(WHEEL_BASE /(R_Turn + HALF_TRACK_WIDTH)); // out wheel
				//angle_rr = - RAD_TO_DEG * atan(WHEEL_BASE /(R_Turn - HALF_TRACK_WIDTH)); // in wheel

				angle_rl = -angle_fl;
10004dbc:	4b26      	ldr	r3, [pc, #152]	; (10004e58 <Steering_Function+0xae4>)
10004dbe:	681b      	ldr	r3, [r3, #0]
10004dc0:	2280      	movs	r2, #128	; 0x80
10004dc2:	0612      	lsls	r2, r2, #24
10004dc4:	405a      	eors	r2, r3
10004dc6:	4b1d      	ldr	r3, [pc, #116]	; (10004e3c <Steering_Function+0xac8>)
10004dc8:	601a      	str	r2, [r3, #0]
				angle_rr = -angle_fr;
10004dca:	4b24      	ldr	r3, [pc, #144]	; (10004e5c <Steering_Function+0xae8>)
10004dcc:	681b      	ldr	r3, [r3, #0]
10004dce:	2280      	movs	r2, #128	; 0x80
10004dd0:	0612      	lsls	r2, r2, #24
10004dd2:	405a      	eors	r2, r3
10004dd4:	4b1a      	ldr	r3, [pc, #104]	; (10004e40 <Steering_Function+0xacc>)
10004dd6:	601a      	str	r2, [r3, #0]

				speed_fl = Driving_speed_cal * Speed_ratio;
10004dd8:	4b1a      	ldr	r3, [pc, #104]	; (10004e44 <Steering_Function+0xad0>)
10004dda:	681b      	ldr	r3, [r3, #0]
10004ddc:	1c18      	adds	r0, r3, #0
10004dde:	68b9      	ldr	r1, [r7, #8]
10004de0:	f003 f8aa 	bl	10007f38 <__aeabi_fmul>
10004de4:	1c03      	adds	r3, r0, #0
10004de6:	1c1a      	adds	r2, r3, #0
10004de8:	4b17      	ldr	r3, [pc, #92]	; (10004e48 <Steering_Function+0xad4>)
10004dea:	601a      	str	r2, [r3, #0]
				speed_fr = Driving_speed_cal / Speed_ratio;
10004dec:	4b15      	ldr	r3, [pc, #84]	; (10004e44 <Steering_Function+0xad0>)
10004dee:	681b      	ldr	r3, [r3, #0]
10004df0:	68b8      	ldr	r0, [r7, #8]
10004df2:	1c19      	adds	r1, r3, #0
10004df4:	f002 feae 	bl	10007b54 <__aeabi_fdiv>
10004df8:	1c03      	adds	r3, r0, #0
10004dfa:	1c1a      	adds	r2, r3, #0
10004dfc:	4b13      	ldr	r3, [pc, #76]	; (10004e4c <Steering_Function+0xad8>)
10004dfe:	601a      	str	r2, [r3, #0]
				//speed_rl = Driving_speed_cal * Speed_ratio;
				//speed_rr = Driving_speed_cal / Speed_ratio;

				speed_rl = speed_fl;
10004e00:	4b11      	ldr	r3, [pc, #68]	; (10004e48 <Steering_Function+0xad4>)
10004e02:	681a      	ldr	r2, [r3, #0]
10004e04:	4b12      	ldr	r3, [pc, #72]	; (10004e50 <Steering_Function+0xadc>)
10004e06:	601a      	str	r2, [r3, #0]
				speed_rr = speed_fr;
10004e08:	4b10      	ldr	r3, [pc, #64]	; (10004e4c <Steering_Function+0xad8>)
10004e0a:	681a      	ldr	r2, [r3, #0]
10004e0c:	4b11      	ldr	r3, [pc, #68]	; (10004e54 <Steering_Function+0xae0>)
10004e0e:	601a      	str	r2, [r3, #0]
10004e10:	e0ed      	b.n	10004fee <Steering_Function+0xc7a>
10004e12:	46c0      	nop			; (mov r8, r8)
10004e14:	20000a44 	.word	0x20000a44
10004e18:	9999999a 	.word	0x9999999a
10004e1c:	bfa99999 	.word	0xbfa99999
10004e20:	c1a00000 	.word	0xc1a00000
10004e24:	1a9fbe77 	.word	0x1a9fbe77
10004e28:	3fc4dd2f 	.word	0x3fc4dd2f
10004e2c:	3126e979 	.word	0x3126e979
10004e30:	3fdcac08 	.word	0x3fdcac08
10004e34:	53f7ced9 	.word	0x53f7ced9
10004e38:	c04ca5e3 	.word	0xc04ca5e3
10004e3c:	200009e8 	.word	0x200009e8
10004e40:	200009ec 	.word	0x200009ec
10004e44:	20000a4c 	.word	0x20000a4c
10004e48:	200009d0 	.word	0x200009d0
10004e4c:	200009d4 	.word	0x200009d4
10004e50:	200009d8 	.word	0x200009d8
10004e54:	200009dc 	.word	0x200009dc
10004e58:	200009e0 	.word	0x200009e0
10004e5c:	200009e4 	.word	0x200009e4
10004e60:	41f00000 	.word	0x41f00000
10004e64:	c1f00000 	.word	0xc1f00000
10004e68:	404ca5e3 	.word	0x404ca5e3
10004e6c:	c28f5c29 	.word	0xc28f5c29
10004e70:	3fcc28f5 	.word	0x3fcc28f5
10004e74:	54442d18 	.word	0x54442d18
10004e78:	400921fb 	.word	0x400921fb
10004e7c:	3fa99999 	.word	0x3fa99999
10004e80:	41a00000 	.word	0x41a00000
			}
			else if((- R_TRUN_MIN > R_Turn) && (R_Turn > -R_TRUN_MAX)){ // trun left positive R
10004e84:	4bb2      	ldr	r3, [pc, #712]	; (10005150 <Steering_Function+0xddc>)
10004e86:	681b      	ldr	r3, [r3, #0]
10004e88:	1c18      	adds	r0, r3, #0
10004e8a:	f005 f98b 	bl	1000a1a4 <__aeabi_f2d>
10004e8e:	1c03      	adds	r3, r0, #0
10004e90:	1c0c      	adds	r4, r1, #0
10004e92:	1c18      	adds	r0, r3, #0
10004e94:	1c21      	adds	r1, r4, #0
10004e96:	4aaf      	ldr	r2, [pc, #700]	; (10005154 <Steering_Function+0xde0>)
10004e98:	4baf      	ldr	r3, [pc, #700]	; (10005158 <Steering_Function+0xde4>)
10004e9a:	f002 fbc7 	bl	1000762c <__aeabi_dcmplt>
10004e9e:	1e03      	subs	r3, r0, #0
10004ea0:	d100      	bne.n	10004ea4 <Steering_Function+0xb30>
10004ea2:	e08b      	b.n	10004fbc <Steering_Function+0xc48>
10004ea4:	4baa      	ldr	r3, [pc, #680]	; (10005150 <Steering_Function+0xddc>)
10004ea6:	681b      	ldr	r3, [r3, #0]
10004ea8:	1c18      	adds	r0, r3, #0
10004eaa:	49ac      	ldr	r1, [pc, #688]	; (1000515c <Steering_Function+0xde8>)
10004eac:	f002 fc0c 	bl	100076c8 <__aeabi_fcmpgt>
10004eb0:	1e03      	subs	r3, r0, #0
10004eb2:	d100      	bne.n	10004eb6 <Steering_Function+0xb42>
10004eb4:	e082      	b.n	10004fbc <Steering_Function+0xc48>
				angle_fl = RAD_TO_DEG * atan(WHEEL_BASE /(R_Turn + HALF_TRACK_WIDTH)); // in wheel
10004eb6:	4ba6      	ldr	r3, [pc, #664]	; (10005150 <Steering_Function+0xddc>)
10004eb8:	681b      	ldr	r3, [r3, #0]
10004eba:	1c18      	adds	r0, r3, #0
10004ebc:	f005 f972 	bl	1000a1a4 <__aeabi_f2d>
10004ec0:	1c03      	adds	r3, r0, #0
10004ec2:	1c0c      	adds	r4, r1, #0
10004ec4:	1c18      	adds	r0, r3, #0
10004ec6:	1c21      	adds	r1, r4, #0
10004ec8:	4aa5      	ldr	r2, [pc, #660]	; (10005160 <Steering_Function+0xdec>)
10004eca:	4ba6      	ldr	r3, [pc, #664]	; (10005164 <Steering_Function+0xdf0>)
10004ecc:	f003 fb4c 	bl	10008568 <__aeabi_dadd>
10004ed0:	1c03      	adds	r3, r0, #0
10004ed2:	1c0c      	adds	r4, r1, #0
10004ed4:	48a4      	ldr	r0, [pc, #656]	; (10005168 <Steering_Function+0xdf4>)
10004ed6:	49a5      	ldr	r1, [pc, #660]	; (1000516c <Steering_Function+0xdf8>)
10004ed8:	1c1a      	adds	r2, r3, #0
10004eda:	1c23      	adds	r3, r4, #0
10004edc:	f003 fe6c 	bl	10008bb8 <__aeabi_ddiv>
10004ee0:	1c03      	adds	r3, r0, #0
10004ee2:	1c0c      	adds	r4, r1, #0
10004ee4:	1c18      	adds	r0, r3, #0
10004ee6:	1c21      	adds	r1, r4, #0
10004ee8:	f001 f868 	bl	10005fbc <atan>
10004eec:	1c03      	adds	r3, r0, #0
10004eee:	1c0c      	adds	r4, r1, #0
10004ef0:	1c18      	adds	r0, r3, #0
10004ef2:	1c21      	adds	r1, r4, #0
10004ef4:	4a9e      	ldr	r2, [pc, #632]	; (10005170 <Steering_Function+0xdfc>)
10004ef6:	4b9f      	ldr	r3, [pc, #636]	; (10005174 <Steering_Function+0xe00>)
10004ef8:	f004 fa9c 	bl	10009434 <__aeabi_dmul>
10004efc:	1c03      	adds	r3, r0, #0
10004efe:	1c0c      	adds	r4, r1, #0
10004f00:	1c18      	adds	r0, r3, #0
10004f02:	1c21      	adds	r1, r4, #0
10004f04:	f005 f9a2 	bl	1000a24c <__aeabi_d2f>
10004f08:	1c02      	adds	r2, r0, #0
10004f0a:	4b9b      	ldr	r3, [pc, #620]	; (10005178 <Steering_Function+0xe04>)
10004f0c:	601a      	str	r2, [r3, #0]
				angle_fr = RAD_TO_DEG * atan(WHEEL_BASE /(R_Turn - HALF_TRACK_WIDTH)); // out wheel
10004f0e:	4b90      	ldr	r3, [pc, #576]	; (10005150 <Steering_Function+0xddc>)
10004f10:	681b      	ldr	r3, [r3, #0]
10004f12:	1c18      	adds	r0, r3, #0
10004f14:	f005 f946 	bl	1000a1a4 <__aeabi_f2d>
10004f18:	1c03      	adds	r3, r0, #0
10004f1a:	1c0c      	adds	r4, r1, #0
10004f1c:	1c18      	adds	r0, r3, #0
10004f1e:	1c21      	adds	r1, r4, #0
10004f20:	4a8f      	ldr	r2, [pc, #572]	; (10005160 <Steering_Function+0xdec>)
10004f22:	4b90      	ldr	r3, [pc, #576]	; (10005164 <Steering_Function+0xdf0>)
10004f24:	f004 fd20 	bl	10009968 <__aeabi_dsub>
10004f28:	1c03      	adds	r3, r0, #0
10004f2a:	1c0c      	adds	r4, r1, #0
10004f2c:	488e      	ldr	r0, [pc, #568]	; (10005168 <Steering_Function+0xdf4>)
10004f2e:	498f      	ldr	r1, [pc, #572]	; (1000516c <Steering_Function+0xdf8>)
10004f30:	1c1a      	adds	r2, r3, #0
10004f32:	1c23      	adds	r3, r4, #0
10004f34:	f003 fe40 	bl	10008bb8 <__aeabi_ddiv>
10004f38:	1c03      	adds	r3, r0, #0
10004f3a:	1c0c      	adds	r4, r1, #0
10004f3c:	1c18      	adds	r0, r3, #0
10004f3e:	1c21      	adds	r1, r4, #0
10004f40:	f001 f83c 	bl	10005fbc <atan>
10004f44:	1c03      	adds	r3, r0, #0
10004f46:	1c0c      	adds	r4, r1, #0
10004f48:	1c18      	adds	r0, r3, #0
10004f4a:	1c21      	adds	r1, r4, #0
10004f4c:	4a88      	ldr	r2, [pc, #544]	; (10005170 <Steering_Function+0xdfc>)
10004f4e:	4b89      	ldr	r3, [pc, #548]	; (10005174 <Steering_Function+0xe00>)
10004f50:	f004 fa70 	bl	10009434 <__aeabi_dmul>
10004f54:	1c03      	adds	r3, r0, #0
10004f56:	1c0c      	adds	r4, r1, #0
10004f58:	1c18      	adds	r0, r3, #0
10004f5a:	1c21      	adds	r1, r4, #0
10004f5c:	f005 f976 	bl	1000a24c <__aeabi_d2f>
10004f60:	1c02      	adds	r2, r0, #0
10004f62:	4b86      	ldr	r3, [pc, #536]	; (1000517c <Steering_Function+0xe08>)
10004f64:	601a      	str	r2, [r3, #0]
				//angle_rl = - RAD_TO_DEG * atan(WHEEL_BASE /(R_Turn + HALF_TRACK_WIDTH)); // in wheel
				//angle_rr = - RAD_TO_DEG * atan(WHEEL_BASE /(R_Turn - HALF_TRACK_WIDTH)); // in wheel

				angle_rl = -angle_fl;
10004f66:	4b84      	ldr	r3, [pc, #528]	; (10005178 <Steering_Function+0xe04>)
10004f68:	681b      	ldr	r3, [r3, #0]
10004f6a:	2280      	movs	r2, #128	; 0x80
10004f6c:	0612      	lsls	r2, r2, #24
10004f6e:	405a      	eors	r2, r3
10004f70:	4b83      	ldr	r3, [pc, #524]	; (10005180 <Steering_Function+0xe0c>)
10004f72:	601a      	str	r2, [r3, #0]
				angle_rr = -angle_fr;
10004f74:	4b81      	ldr	r3, [pc, #516]	; (1000517c <Steering_Function+0xe08>)
10004f76:	681b      	ldr	r3, [r3, #0]
10004f78:	2280      	movs	r2, #128	; 0x80
10004f7a:	0612      	lsls	r2, r2, #24
10004f7c:	405a      	eors	r2, r3
10004f7e:	4b81      	ldr	r3, [pc, #516]	; (10005184 <Steering_Function+0xe10>)
10004f80:	601a      	str	r2, [r3, #0]

				speed_fl = Driving_speed_cal / Speed_ratio;
10004f82:	4b81      	ldr	r3, [pc, #516]	; (10005188 <Steering_Function+0xe14>)
10004f84:	681b      	ldr	r3, [r3, #0]
10004f86:	68b8      	ldr	r0, [r7, #8]
10004f88:	1c19      	adds	r1, r3, #0
10004f8a:	f002 fde3 	bl	10007b54 <__aeabi_fdiv>
10004f8e:	1c03      	adds	r3, r0, #0
10004f90:	1c1a      	adds	r2, r3, #0
10004f92:	4b7e      	ldr	r3, [pc, #504]	; (1000518c <Steering_Function+0xe18>)
10004f94:	601a      	str	r2, [r3, #0]
				speed_fr = Driving_speed_cal * Speed_ratio;
10004f96:	4b7c      	ldr	r3, [pc, #496]	; (10005188 <Steering_Function+0xe14>)
10004f98:	681b      	ldr	r3, [r3, #0]
10004f9a:	1c18      	adds	r0, r3, #0
10004f9c:	68b9      	ldr	r1, [r7, #8]
10004f9e:	f002 ffcb 	bl	10007f38 <__aeabi_fmul>
10004fa2:	1c03      	adds	r3, r0, #0
10004fa4:	1c1a      	adds	r2, r3, #0
10004fa6:	4b7a      	ldr	r3, [pc, #488]	; (10005190 <Steering_Function+0xe1c>)
10004fa8:	601a      	str	r2, [r3, #0]
				//speed_rl = Driving_speed_cal / Speed_ratio;
				//speed_rr = Driving_speed_cal * Speed_ratio;

				speed_rl = speed_fl;
10004faa:	4b78      	ldr	r3, [pc, #480]	; (1000518c <Steering_Function+0xe18>)
10004fac:	681a      	ldr	r2, [r3, #0]
10004fae:	4b79      	ldr	r3, [pc, #484]	; (10005194 <Steering_Function+0xe20>)
10004fb0:	601a      	str	r2, [r3, #0]
				speed_rr = speed_fr;
10004fb2:	4b77      	ldr	r3, [pc, #476]	; (10005190 <Steering_Function+0xe1c>)
10004fb4:	681a      	ldr	r2, [r3, #0]
10004fb6:	4b78      	ldr	r3, [pc, #480]	; (10005198 <Steering_Function+0xe24>)
10004fb8:	601a      	str	r2, [r3, #0]
10004fba:	e018      	b.n	10004fee <Steering_Function+0xc7a>
			}
			else{// starigt driving
				angle_fl = 0;
10004fbc:	4b6e      	ldr	r3, [pc, #440]	; (10005178 <Steering_Function+0xe04>)
10004fbe:	2200      	movs	r2, #0
10004fc0:	601a      	str	r2, [r3, #0]
				angle_fr = 0;
10004fc2:	4b6e      	ldr	r3, [pc, #440]	; (1000517c <Steering_Function+0xe08>)
10004fc4:	2200      	movs	r2, #0
10004fc6:	601a      	str	r2, [r3, #0]
				angle_rl = 0;
10004fc8:	4b6d      	ldr	r3, [pc, #436]	; (10005180 <Steering_Function+0xe0c>)
10004fca:	2200      	movs	r2, #0
10004fcc:	601a      	str	r2, [r3, #0]
				angle_rr = 0;
10004fce:	4b6d      	ldr	r3, [pc, #436]	; (10005184 <Steering_Function+0xe10>)
10004fd0:	2200      	movs	r2, #0
10004fd2:	601a      	str	r2, [r3, #0]

				speed_fl = Driving_speed_cal;
10004fd4:	4b6d      	ldr	r3, [pc, #436]	; (1000518c <Steering_Function+0xe18>)
10004fd6:	68ba      	ldr	r2, [r7, #8]
10004fd8:	601a      	str	r2, [r3, #0]
				speed_fr = Driving_speed_cal;
10004fda:	4b6d      	ldr	r3, [pc, #436]	; (10005190 <Steering_Function+0xe1c>)
10004fdc:	68ba      	ldr	r2, [r7, #8]
10004fde:	601a      	str	r2, [r3, #0]
				speed_rl = Driving_speed_cal;
10004fe0:	4b6c      	ldr	r3, [pc, #432]	; (10005194 <Steering_Function+0xe20>)
10004fe2:	68ba      	ldr	r2, [r7, #8]
10004fe4:	601a      	str	r2, [r3, #0]
				speed_rr = Driving_speed_cal;
10004fe6:	4b6c      	ldr	r3, [pc, #432]	; (10005198 <Steering_Function+0xe24>)
10004fe8:	68ba      	ldr	r2, [r7, #8]
10004fea:	601a      	str	r2, [r3, #0]
			}
			break;
10004fec:	e08c      	b.n	10005108 <Steering_Function+0xd94>
10004fee:	e08b      	b.n	10005108 <Steering_Function+0xd94>

		case CRAB:  //carb //#############################################################
			Steering_direction_cal = Steering_direction_cal * 4; // mach data from remote
10004ff0:	68f8      	ldr	r0, [r7, #12]
10004ff2:	2181      	movs	r1, #129	; 0x81
10004ff4:	05c9      	lsls	r1, r1, #23
10004ff6:	f002 ff9f 	bl	10007f38 <__aeabi_fmul>
10004ffa:	1c03      	adds	r3, r0, #0
10004ffc:	60fb      	str	r3, [r7, #12]
			if(Steering_direction_cal > 190) Steering_direction_cal = 190;
10004ffe:	68f8      	ldr	r0, [r7, #12]
10005000:	4966      	ldr	r1, [pc, #408]	; (1000519c <Steering_Function+0xe28>)
10005002:	f002 fb61 	bl	100076c8 <__aeabi_fcmpgt>
10005006:	1e03      	subs	r3, r0, #0
10005008:	d001      	beq.n	1000500e <Steering_Function+0xc9a>
1000500a:	4b64      	ldr	r3, [pc, #400]	; (1000519c <Steering_Function+0xe28>)
1000500c:	60fb      	str	r3, [r7, #12]
			if(Steering_direction_cal < -190) Steering_direction_cal = -190;
1000500e:	68f8      	ldr	r0, [r7, #12]
10005010:	4963      	ldr	r1, [pc, #396]	; (100051a0 <Steering_Function+0xe2c>)
10005012:	f002 fb45 	bl	100076a0 <__aeabi_fcmplt>
10005016:	1e03      	subs	r3, r0, #0
10005018:	d001      	beq.n	1000501e <Steering_Function+0xcaa>
1000501a:	4b61      	ldr	r3, [pc, #388]	; (100051a0 <Steering_Function+0xe2c>)
1000501c:	60fb      	str	r3, [r7, #12]
			// steering
			angle_fl = Steering_direction_cal;
1000501e:	4b56      	ldr	r3, [pc, #344]	; (10005178 <Steering_Function+0xe04>)
10005020:	68fa      	ldr	r2, [r7, #12]
10005022:	601a      	str	r2, [r3, #0]
			angle_fr = Steering_direction_cal;
10005024:	4b55      	ldr	r3, [pc, #340]	; (1000517c <Steering_Function+0xe08>)
10005026:	68fa      	ldr	r2, [r7, #12]
10005028:	601a      	str	r2, [r3, #0]
			angle_rl = Steering_direction_cal;
1000502a:	4b55      	ldr	r3, [pc, #340]	; (10005180 <Steering_Function+0xe0c>)
1000502c:	68fa      	ldr	r2, [r7, #12]
1000502e:	601a      	str	r2, [r3, #0]
			angle_rr = Steering_direction_cal;
10005030:	4b54      	ldr	r3, [pc, #336]	; (10005184 <Steering_Function+0xe10>)
10005032:	68fa      	ldr	r2, [r7, #12]
10005034:	601a      	str	r2, [r3, #0]
			 // speed
			 speed_fl = Driving_speed_cal;
10005036:	4b55      	ldr	r3, [pc, #340]	; (1000518c <Steering_Function+0xe18>)
10005038:	68ba      	ldr	r2, [r7, #8]
1000503a:	601a      	str	r2, [r3, #0]
			 speed_fr = Driving_speed_cal;
1000503c:	4b54      	ldr	r3, [pc, #336]	; (10005190 <Steering_Function+0xe1c>)
1000503e:	68ba      	ldr	r2, [r7, #8]
10005040:	601a      	str	r2, [r3, #0]
			 speed_rl = Driving_speed_cal;
10005042:	4b54      	ldr	r3, [pc, #336]	; (10005194 <Steering_Function+0xe20>)
10005044:	68ba      	ldr	r2, [r7, #8]
10005046:	601a      	str	r2, [r3, #0]
			 speed_rr = Driving_speed_cal;
10005048:	4b53      	ldr	r3, [pc, #332]	; (10005198 <Steering_Function+0xe24>)
1000504a:	68ba      	ldr	r2, [r7, #8]
1000504c:	601a      	str	r2, [r3, #0]
			break;
1000504e:	e05b      	b.n	10005108 <Steering_Function+0xd94>

		case ROTATE: // rotate #############################################################
			// steering agel for turng in place
			angle_fl = ROTATION_ANGLE + ROTATION_ANGLE_OFFSET;
10005050:	4b49      	ldr	r3, [pc, #292]	; (10005178 <Steering_Function+0xe04>)
10005052:	4a54      	ldr	r2, [pc, #336]	; (100051a4 <Steering_Function+0xe30>)
10005054:	601a      	str	r2, [r3, #0]
			angle_fr = -ROTATION_ANGLE + ROTATION_ANGLE_OFFSET;
10005056:	4b49      	ldr	r3, [pc, #292]	; (1000517c <Steering_Function+0xe08>)
10005058:	4a53      	ldr	r2, [pc, #332]	; (100051a8 <Steering_Function+0xe34>)
1000505a:	601a      	str	r2, [r3, #0]
			angle_rl = -ROTATION_ANGLE + ROTATION_ANGLE_OFFSET;
1000505c:	4b48      	ldr	r3, [pc, #288]	; (10005180 <Steering_Function+0xe0c>)
1000505e:	4a52      	ldr	r2, [pc, #328]	; (100051a8 <Steering_Function+0xe34>)
10005060:	601a      	str	r2, [r3, #0]
			angle_rr = ROTATION_ANGLE + ROTATION_ANGLE_OFFSET;
10005062:	4b48      	ldr	r3, [pc, #288]	; (10005184 <Steering_Function+0xe10>)
10005064:	4a4f      	ldr	r2, [pc, #316]	; (100051a4 <Steering_Function+0xe30>)
10005066:	601a      	str	r2, [r3, #0]

			 // speed
			if (Steering_direction_cal > 10){
10005068:	68f8      	ldr	r0, [r7, #12]
1000506a:	4950      	ldr	r1, [pc, #320]	; (100051ac <Steering_Function+0xe38>)
1000506c:	f002 fb2c 	bl	100076c8 <__aeabi_fcmpgt>
10005070:	1e03      	subs	r3, r0, #0
10005072:	d00e      	beq.n	10005092 <Steering_Function+0xd1e>
				speed_fl = ROTATION_SPEED;
10005074:	4b45      	ldr	r3, [pc, #276]	; (1000518c <Steering_Function+0xe18>)
10005076:	22fa      	movs	r2, #250	; 0xfa
10005078:	0592      	lsls	r2, r2, #22
1000507a:	601a      	str	r2, [r3, #0]
				speed_fr = -ROTATION_SPEED;
1000507c:	4b44      	ldr	r3, [pc, #272]	; (10005190 <Steering_Function+0xe1c>)
1000507e:	4a4c      	ldr	r2, [pc, #304]	; (100051b0 <Steering_Function+0xe3c>)
10005080:	601a      	str	r2, [r3, #0]
				speed_rl = ROTATION_SPEED;
10005082:	4b44      	ldr	r3, [pc, #272]	; (10005194 <Steering_Function+0xe20>)
10005084:	22fa      	movs	r2, #250	; 0xfa
10005086:	0592      	lsls	r2, r2, #22
10005088:	601a      	str	r2, [r3, #0]
				speed_rr = -ROTATION_SPEED;
1000508a:	4b43      	ldr	r3, [pc, #268]	; (10005198 <Steering_Function+0xe24>)
1000508c:	4a48      	ldr	r2, [pc, #288]	; (100051b0 <Steering_Function+0xe3c>)
1000508e:	601a      	str	r2, [r3, #0]
10005090:	e021      	b.n	100050d6 <Steering_Function+0xd62>
			}
			else if(Steering_direction_cal < -10){
10005092:	68f8      	ldr	r0, [r7, #12]
10005094:	4947      	ldr	r1, [pc, #284]	; (100051b4 <Steering_Function+0xe40>)
10005096:	f002 fb03 	bl	100076a0 <__aeabi_fcmplt>
1000509a:	1e03      	subs	r3, r0, #0
1000509c:	d00e      	beq.n	100050bc <Steering_Function+0xd48>
				speed_fl = -ROTATION_SPEED;
1000509e:	4b3b      	ldr	r3, [pc, #236]	; (1000518c <Steering_Function+0xe18>)
100050a0:	4a43      	ldr	r2, [pc, #268]	; (100051b0 <Steering_Function+0xe3c>)
100050a2:	601a      	str	r2, [r3, #0]
				speed_fr = ROTATION_SPEED;
100050a4:	4b3a      	ldr	r3, [pc, #232]	; (10005190 <Steering_Function+0xe1c>)
100050a6:	22fa      	movs	r2, #250	; 0xfa
100050a8:	0592      	lsls	r2, r2, #22
100050aa:	601a      	str	r2, [r3, #0]
				speed_rl = -ROTATION_SPEED;
100050ac:	4b39      	ldr	r3, [pc, #228]	; (10005194 <Steering_Function+0xe20>)
100050ae:	4a40      	ldr	r2, [pc, #256]	; (100051b0 <Steering_Function+0xe3c>)
100050b0:	601a      	str	r2, [r3, #0]
				speed_rr = ROTATION_SPEED;
100050b2:	4b39      	ldr	r3, [pc, #228]	; (10005198 <Steering_Function+0xe24>)
100050b4:	22fa      	movs	r2, #250	; 0xfa
100050b6:	0592      	lsls	r2, r2, #22
100050b8:	601a      	str	r2, [r3, #0]
100050ba:	e00c      	b.n	100050d6 <Steering_Function+0xd62>
			}
			else{
				speed_fl = 0;
100050bc:	4b33      	ldr	r3, [pc, #204]	; (1000518c <Steering_Function+0xe18>)
100050be:	2200      	movs	r2, #0
100050c0:	601a      	str	r2, [r3, #0]
				speed_fr = 0;
100050c2:	4b33      	ldr	r3, [pc, #204]	; (10005190 <Steering_Function+0xe1c>)
100050c4:	2200      	movs	r2, #0
100050c6:	601a      	str	r2, [r3, #0]
				speed_rl = 0;
100050c8:	4b32      	ldr	r3, [pc, #200]	; (10005194 <Steering_Function+0xe20>)
100050ca:	2200      	movs	r2, #0
100050cc:	601a      	str	r2, [r3, #0]
				speed_rr = 0;
100050ce:	4b32      	ldr	r3, [pc, #200]	; (10005198 <Steering_Function+0xe24>)
100050d0:	2200      	movs	r2, #0
100050d2:	601a      	str	r2, [r3, #0]
			}
			break;
100050d4:	e018      	b.n	10005108 <Steering_Function+0xd94>
100050d6:	e017      	b.n	10005108 <Steering_Function+0xd94>

		default:
			angle_fl = 0;
100050d8:	4b27      	ldr	r3, [pc, #156]	; (10005178 <Steering_Function+0xe04>)
100050da:	2200      	movs	r2, #0
100050dc:	601a      	str	r2, [r3, #0]
			angle_fr = 0;
100050de:	4b27      	ldr	r3, [pc, #156]	; (1000517c <Steering_Function+0xe08>)
100050e0:	2200      	movs	r2, #0
100050e2:	601a      	str	r2, [r3, #0]
			angle_rl = 0;
100050e4:	4b26      	ldr	r3, [pc, #152]	; (10005180 <Steering_Function+0xe0c>)
100050e6:	2200      	movs	r2, #0
100050e8:	601a      	str	r2, [r3, #0]
			angle_rr = 0;
100050ea:	4b26      	ldr	r3, [pc, #152]	; (10005184 <Steering_Function+0xe10>)
100050ec:	2200      	movs	r2, #0
100050ee:	601a      	str	r2, [r3, #0]

			speed_fl = 0;
100050f0:	4b26      	ldr	r3, [pc, #152]	; (1000518c <Steering_Function+0xe18>)
100050f2:	2200      	movs	r2, #0
100050f4:	601a      	str	r2, [r3, #0]
			speed_fr = 0;
100050f6:	4b26      	ldr	r3, [pc, #152]	; (10005190 <Steering_Function+0xe1c>)
100050f8:	2200      	movs	r2, #0
100050fa:	601a      	str	r2, [r3, #0]
			speed_rl = 0;
100050fc:	4b25      	ldr	r3, [pc, #148]	; (10005194 <Steering_Function+0xe20>)
100050fe:	2200      	movs	r2, #0
10005100:	601a      	str	r2, [r3, #0]
			speed_rr = 0;
10005102:	4b25      	ldr	r3, [pc, #148]	; (10005198 <Steering_Function+0xe24>)
10005104:	2200      	movs	r2, #0
10005106:	601a      	str	r2, [r3, #0]

	}
  // set gobal vars
  Steering_Angles[0] = angle_fl;
10005108:	4b1b      	ldr	r3, [pc, #108]	; (10005178 <Steering_Function+0xe04>)
1000510a:	681a      	ldr	r2, [r3, #0]
1000510c:	4b2a      	ldr	r3, [pc, #168]	; (100051b8 <Steering_Function+0xe44>)
1000510e:	601a      	str	r2, [r3, #0]
  Steering_Angles[1] = angle_fr;
10005110:	4b1a      	ldr	r3, [pc, #104]	; (1000517c <Steering_Function+0xe08>)
10005112:	681a      	ldr	r2, [r3, #0]
10005114:	4b28      	ldr	r3, [pc, #160]	; (100051b8 <Steering_Function+0xe44>)
10005116:	605a      	str	r2, [r3, #4]
  Steering_Angles[2] = angle_rl;
10005118:	4b19      	ldr	r3, [pc, #100]	; (10005180 <Steering_Function+0xe0c>)
1000511a:	681a      	ldr	r2, [r3, #0]
1000511c:	4b26      	ldr	r3, [pc, #152]	; (100051b8 <Steering_Function+0xe44>)
1000511e:	609a      	str	r2, [r3, #8]
  Steering_Angles[3] = angle_rr;
10005120:	4b18      	ldr	r3, [pc, #96]	; (10005184 <Steering_Function+0xe10>)
10005122:	681a      	ldr	r2, [r3, #0]
10005124:	4b24      	ldr	r3, [pc, #144]	; (100051b8 <Steering_Function+0xe44>)
10005126:	60da      	str	r2, [r3, #12]

  Speeds[0] = speed_fl;
10005128:	4b18      	ldr	r3, [pc, #96]	; (1000518c <Steering_Function+0xe18>)
1000512a:	681a      	ldr	r2, [r3, #0]
1000512c:	4b23      	ldr	r3, [pc, #140]	; (100051bc <Steering_Function+0xe48>)
1000512e:	601a      	str	r2, [r3, #0]
  Speeds[1] = speed_fr;
10005130:	4b17      	ldr	r3, [pc, #92]	; (10005190 <Steering_Function+0xe1c>)
10005132:	681a      	ldr	r2, [r3, #0]
10005134:	4b21      	ldr	r3, [pc, #132]	; (100051bc <Steering_Function+0xe48>)
10005136:	605a      	str	r2, [r3, #4]
  Speeds[2] = speed_rl;
10005138:	4b16      	ldr	r3, [pc, #88]	; (10005194 <Steering_Function+0xe20>)
1000513a:	681a      	ldr	r2, [r3, #0]
1000513c:	4b1f      	ldr	r3, [pc, #124]	; (100051bc <Steering_Function+0xe48>)
1000513e:	609a      	str	r2, [r3, #8]
  Speeds[3] = speed_rr;
10005140:	4b15      	ldr	r3, [pc, #84]	; (10005198 <Steering_Function+0xe24>)
10005142:	681a      	ldr	r2, [r3, #0]
10005144:	4b1d      	ldr	r3, [pc, #116]	; (100051bc <Steering_Function+0xe48>)
10005146:	60da      	str	r2, [r3, #12]

}
10005148:	46bd      	mov	sp, r7
1000514a:	b005      	add	sp, #20
1000514c:	bdf0      	pop	{r4, r5, r6, r7, pc}
1000514e:	46c0      	nop			; (mov r8, r8)
10005150:	20000a44 	.word	0x20000a44
10005154:	9999999a 	.word	0x9999999a
10005158:	bfa99999 	.word	0xbfa99999
1000515c:	c1a00000 	.word	0xc1a00000
10005160:	1a9fbe77 	.word	0x1a9fbe77
10005164:	3fc4dd2f 	.word	0x3fc4dd2f
10005168:	3126e979 	.word	0x3126e979
1000516c:	3fdcac08 	.word	0x3fdcac08
10005170:	53f7ced9 	.word	0x53f7ced9
10005174:	404ca5e3 	.word	0x404ca5e3
10005178:	200009e0 	.word	0x200009e0
1000517c:	200009e4 	.word	0x200009e4
10005180:	200009e8 	.word	0x200009e8
10005184:	200009ec 	.word	0x200009ec
10005188:	20000a4c 	.word	0x20000a4c
1000518c:	200009d0 	.word	0x200009d0
10005190:	200009d4 	.word	0x200009d4
10005194:	200009d8 	.word	0x200009d8
10005198:	200009dc 	.word	0x200009dc
1000519c:	433e0000 	.word	0x433e0000
100051a0:	c33e0000 	.word	0xc33e0000
100051a4:	426bd70a 	.word	0x426bd70a
100051a8:	c243d70a 	.word	0xc243d70a
100051ac:	41200000 	.word	0x41200000
100051b0:	be800000 	.word	0xbe800000
100051b4:	c1200000 	.word	0xc1200000
100051b8:	20000a00 	.word	0x20000a00
100051bc:	200009f0 	.word	0x200009f0

100051c0 <IRQ4_Handler>:


void CAN_RX_ULTRASONIC_ISR(void) { // recide data
100051c0:	b590      	push	{r4, r7, lr}
100051c2:	b087      	sub	sp, #28
100051c4:	af02      	add	r7, sp, #8
	XMC_CAN_MO_t* lmsgobjct_ptr_1 = CAN_NODE_0.lmobj_ptr[6]->mo_ptr;
100051c6:	4b37      	ldr	r3, [pc, #220]	; (100052a4 <IRQ4_Handler+0xe4>)
100051c8:	6a5b      	ldr	r3, [r3, #36]	; 0x24
100051ca:	681b      	ldr	r3, [r3, #0]
100051cc:	60bb      	str	r3, [r7, #8]
	CAN_NODE_MO_Receive((void*) CAN_NODE_0.lmobj_ptr[6]);
100051ce:	4b35      	ldr	r3, [pc, #212]	; (100052a4 <IRQ4_Handler+0xe4>)
100051d0:	6a5b      	ldr	r3, [r3, #36]	; 0x24
100051d2:	1c18      	adds	r0, r3, #0
100051d4:	f7fe fde2 	bl	10003d9c <CAN_NODE_MO_Receive>

	uint8_t data_RX[8];
	uint8_t i;
	for(i = 0 ; i < 8 ; i ++){
100051d8:	230f      	movs	r3, #15
100051da:	18fb      	adds	r3, r7, r3
100051dc:	2200      	movs	r2, #0
100051de:	701a      	strb	r2, [r3, #0]
100051e0:	e011      	b.n	10005206 <IRQ4_Handler+0x46>
		 data_RX[i] = lmsgobjct_ptr_1->can_data_byte[i];
100051e2:	230f      	movs	r3, #15
100051e4:	18fb      	adds	r3, r7, r3
100051e6:	781b      	ldrb	r3, [r3, #0]
100051e8:	220f      	movs	r2, #15
100051ea:	18ba      	adds	r2, r7, r2
100051ec:	7812      	ldrb	r2, [r2, #0]
100051ee:	68b9      	ldr	r1, [r7, #8]
100051f0:	188a      	adds	r2, r1, r2
100051f2:	7c11      	ldrb	r1, [r2, #16]
100051f4:	1c3a      	adds	r2, r7, #0
100051f6:	54d1      	strb	r1, [r2, r3]
	XMC_CAN_MO_t* lmsgobjct_ptr_1 = CAN_NODE_0.lmobj_ptr[6]->mo_ptr;
	CAN_NODE_MO_Receive((void*) CAN_NODE_0.lmobj_ptr[6]);

	uint8_t data_RX[8];
	uint8_t i;
	for(i = 0 ; i < 8 ; i ++){
100051f8:	230f      	movs	r3, #15
100051fa:	18fb      	adds	r3, r7, r3
100051fc:	781a      	ldrb	r2, [r3, #0]
100051fe:	230f      	movs	r3, #15
10005200:	18fb      	adds	r3, r7, r3
10005202:	3201      	adds	r2, #1
10005204:	701a      	strb	r2, [r3, #0]
10005206:	230f      	movs	r3, #15
10005208:	18fb      	adds	r3, r7, r3
1000520a:	781b      	ldrb	r3, [r3, #0]
1000520c:	2b07      	cmp	r3, #7
1000520e:	d9e8      	bls.n	100051e2 <IRQ4_Handler+0x22>
		 data_RX[i] = lmsgobjct_ptr_1->can_data_byte[i];
	}

	CAN_state_Ultrasonic = (data_RX[0 * 2 + 1] << 8) | data_RX[0 * 2];
10005210:	1c3b      	adds	r3, r7, #0
10005212:	785b      	ldrb	r3, [r3, #1]
10005214:	021b      	lsls	r3, r3, #8
10005216:	b2da      	uxtb	r2, r3
10005218:	1c3b      	adds	r3, r7, #0
1000521a:	781b      	ldrb	r3, [r3, #0]
1000521c:	b2db      	uxtb	r3, r3
1000521e:	4313      	orrs	r3, r2
10005220:	b2db      	uxtb	r3, r3
10005222:	b2da      	uxtb	r2, r3
10005224:	4b20      	ldr	r3, [pc, #128]	; (100052a8 <IRQ4_Handler+0xe8>)
10005226:	701a      	strb	r2, [r3, #0]
	Ultrasonic_cm_C = (data_RX[1 * 2 + 1] << 8) | data_RX[1 * 2];
10005228:	1c3b      	adds	r3, r7, #0
1000522a:	78db      	ldrb	r3, [r3, #3]
1000522c:	021b      	lsls	r3, r3, #8
1000522e:	b29a      	uxth	r2, r3
10005230:	1c3b      	adds	r3, r7, #0
10005232:	789b      	ldrb	r3, [r3, #2]
10005234:	b29b      	uxth	r3, r3
10005236:	4313      	orrs	r3, r2
10005238:	b29b      	uxth	r3, r3
1000523a:	b29a      	uxth	r2, r3
1000523c:	4b1b      	ldr	r3, [pc, #108]	; (100052ac <IRQ4_Handler+0xec>)
1000523e:	801a      	strh	r2, [r3, #0]
	Ultrasonic_cm_L = (data_RX[2 * 2 + 1] << 8) | data_RX[2 * 2];
10005240:	1c3b      	adds	r3, r7, #0
10005242:	795b      	ldrb	r3, [r3, #5]
10005244:	021b      	lsls	r3, r3, #8
10005246:	b29a      	uxth	r2, r3
10005248:	1c3b      	adds	r3, r7, #0
1000524a:	791b      	ldrb	r3, [r3, #4]
1000524c:	b29b      	uxth	r3, r3
1000524e:	4313      	orrs	r3, r2
10005250:	b29b      	uxth	r3, r3
10005252:	b29a      	uxth	r2, r3
10005254:	4b16      	ldr	r3, [pc, #88]	; (100052b0 <IRQ4_Handler+0xf0>)
10005256:	801a      	strh	r2, [r3, #0]
	Ultrasonic_cm_R = (data_RX[3 * 2 + 1] << 8) | data_RX[3 * 2];
10005258:	1c3b      	adds	r3, r7, #0
1000525a:	79db      	ldrb	r3, [r3, #7]
1000525c:	021b      	lsls	r3, r3, #8
1000525e:	b29a      	uxth	r2, r3
10005260:	1c3b      	adds	r3, r7, #0
10005262:	799b      	ldrb	r3, [r3, #6]
10005264:	b29b      	uxth	r3, r3
10005266:	4313      	orrs	r3, r2
10005268:	b29b      	uxth	r3, r3
1000526a:	b29a      	uxth	r2, r3
1000526c:	4b11      	ldr	r3, [pc, #68]	; (100052b4 <IRQ4_Handler+0xf4>)
1000526e:	801a      	strh	r2, [r3, #0]

	Ultra_sonic_filter(Ultrasonic_cm_C,  Ultrasonic_cm_L,  Ultrasonic_cm_R,  Steering_Angles,  ALPHA_ULTARSONIC);
10005270:	4b0e      	ldr	r3, [pc, #56]	; (100052ac <IRQ4_Handler+0xec>)
10005272:	881b      	ldrh	r3, [r3, #0]
10005274:	b29b      	uxth	r3, r3
10005276:	b298      	uxth	r0, r3
10005278:	4b0d      	ldr	r3, [pc, #52]	; (100052b0 <IRQ4_Handler+0xf0>)
1000527a:	881b      	ldrh	r3, [r3, #0]
1000527c:	b29b      	uxth	r3, r3
1000527e:	b299      	uxth	r1, r3
10005280:	4b0c      	ldr	r3, [pc, #48]	; (100052b4 <IRQ4_Handler+0xf4>)
10005282:	881b      	ldrh	r3, [r3, #0]
10005284:	b29b      	uxth	r3, r3
10005286:	b29a      	uxth	r2, r3
10005288:	4b0b      	ldr	r3, [pc, #44]	; (100052b8 <IRQ4_Handler+0xf8>)
1000528a:	681b      	ldr	r3, [r3, #0]
1000528c:	b200      	sxth	r0, r0
1000528e:	b209      	sxth	r1, r1
10005290:	b212      	sxth	r2, r2
10005292:	4c0a      	ldr	r4, [pc, #40]	; (100052bc <IRQ4_Handler+0xfc>)
10005294:	9300      	str	r3, [sp, #0]
10005296:	1c23      	adds	r3, r4, #0
10005298:	f000 f812 	bl	100052c0 <Ultra_sonic_filter>
}
1000529c:	46bd      	mov	sp, r7
1000529e:	b005      	add	sp, #20
100052a0:	bd90      	pop	{r4, r7, pc}
100052a2:	46c0      	nop			; (mov r8, r8)
100052a4:	1000a94c 	.word	0x1000a94c
100052a8:	20000995 	.word	0x20000995
100052ac:	20000996 	.word	0x20000996
100052b0:	20000998 	.word	0x20000998
100052b4:	2000099a 	.word	0x2000099a
100052b8:	2000083c 	.word	0x2000083c
100052bc:	20000a00 	.word	0x20000a00

100052c0 <Ultra_sonic_filter>:

void Ultra_sonic_filter(int16_t Ultrasonic_cm_C_clc, int16_t Ultrasonic_cm_L_clc, int16_t Ultrasonic_cm_R_clc, float Steering_Angles_clc[4], float ALPHA_ULTARSONIC){
100052c0:	b590      	push	{r4, r7, lr}
100052c2:	b085      	sub	sp, #20
100052c4:	af00      	add	r7, sp, #0
100052c6:	1c04      	adds	r4, r0, #0
100052c8:	1c08      	adds	r0, r1, #0
100052ca:	1c11      	adds	r1, r2, #0
100052cc:	607b      	str	r3, [r7, #4]
100052ce:	230e      	movs	r3, #14
100052d0:	18fb      	adds	r3, r7, r3
100052d2:	1c22      	adds	r2, r4, #0
100052d4:	801a      	strh	r2, [r3, #0]
100052d6:	230c      	movs	r3, #12
100052d8:	18fb      	adds	r3, r7, r3
100052da:	1c02      	adds	r2, r0, #0
100052dc:	801a      	strh	r2, [r3, #0]
100052de:	230a      	movs	r3, #10
100052e0:	18fb      	adds	r3, r7, r3
100052e2:	1c0a      	adds	r2, r1, #0
100052e4:	801a      	strh	r2, [r3, #0]
	Fil_Ultrasonic_m_C = Exp_moving_average(Ultrasonic_cm_C_clc, Fil_Ultrasonic_m_C, ALPHA_ULTARSONIC);// / 100;
100052e6:	230e      	movs	r3, #14
100052e8:	18fb      	adds	r3, r7, r3
100052ea:	2200      	movs	r2, #0
100052ec:	5e9b      	ldrsh	r3, [r3, r2]
100052ee:	1c18      	adds	r0, r3, #0
100052f0:	f003 f8f2 	bl	100084d8 <__aeabi_i2f>
100052f4:	1c01      	adds	r1, r0, #0
100052f6:	4b29      	ldr	r3, [pc, #164]	; (1000539c <Ultra_sonic_filter+0xdc>)
100052f8:	681a      	ldr	r2, [r3, #0]
100052fa:	6a3b      	ldr	r3, [r7, #32]
100052fc:	1c08      	adds	r0, r1, #0
100052fe:	1c11      	adds	r1, r2, #0
10005300:	1c1a      	adds	r2, r3, #0
10005302:	f000 f8d9 	bl	100054b8 <Exp_moving_average>
10005306:	1c02      	adds	r2, r0, #0
10005308:	4b24      	ldr	r3, [pc, #144]	; (1000539c <Ultra_sonic_filter+0xdc>)
1000530a:	601a      	str	r2, [r3, #0]

	obstructed_L = Ultrasoinc_Obstructet_Test(Steering_Angles_clc[0]);
1000530c:	687b      	ldr	r3, [r7, #4]
1000530e:	681b      	ldr	r3, [r3, #0]
10005310:	1c18      	adds	r0, r3, #0
10005312:	f000 f84d 	bl	100053b0 <Ultrasoinc_Obstructet_Test>
10005316:	1c03      	adds	r3, r0, #0
10005318:	1c1a      	adds	r2, r3, #0
1000531a:	4b21      	ldr	r3, [pc, #132]	; (100053a0 <Ultra_sonic_filter+0xe0>)
1000531c:	701a      	strb	r2, [r3, #0]
	if(obstructed_L == 0) Fil_Ultrasonic_m_L = Exp_moving_average(Ultrasonic_cm_L_clc, Fil_Ultrasonic_m_L, ALPHA_ULTARSONIC);// / 100;
1000531e:	4b20      	ldr	r3, [pc, #128]	; (100053a0 <Ultra_sonic_filter+0xe0>)
10005320:	781b      	ldrb	r3, [r3, #0]
10005322:	2b00      	cmp	r3, #0
10005324:	d112      	bne.n	1000534c <Ultra_sonic_filter+0x8c>
10005326:	230c      	movs	r3, #12
10005328:	18fb      	adds	r3, r7, r3
1000532a:	2200      	movs	r2, #0
1000532c:	5e9b      	ldrsh	r3, [r3, r2]
1000532e:	1c18      	adds	r0, r3, #0
10005330:	f003 f8d2 	bl	100084d8 <__aeabi_i2f>
10005334:	1c01      	adds	r1, r0, #0
10005336:	4b1b      	ldr	r3, [pc, #108]	; (100053a4 <Ultra_sonic_filter+0xe4>)
10005338:	681a      	ldr	r2, [r3, #0]
1000533a:	6a3b      	ldr	r3, [r7, #32]
1000533c:	1c08      	adds	r0, r1, #0
1000533e:	1c11      	adds	r1, r2, #0
10005340:	1c1a      	adds	r2, r3, #0
10005342:	f000 f8b9 	bl	100054b8 <Exp_moving_average>
10005346:	1c02      	adds	r2, r0, #0
10005348:	4b16      	ldr	r3, [pc, #88]	; (100053a4 <Ultra_sonic_filter+0xe4>)
1000534a:	601a      	str	r2, [r3, #0]

	obstructed_R = Ultrasoinc_Obstructet_Test( - Steering_Angles_clc[1]); // neagtiv becasue right wheel
1000534c:	687b      	ldr	r3, [r7, #4]
1000534e:	3304      	adds	r3, #4
10005350:	681b      	ldr	r3, [r3, #0]
10005352:	2280      	movs	r2, #128	; 0x80
10005354:	0612      	lsls	r2, r2, #24
10005356:	4053      	eors	r3, r2
10005358:	1c18      	adds	r0, r3, #0
1000535a:	f000 f829 	bl	100053b0 <Ultrasoinc_Obstructet_Test>
1000535e:	1c03      	adds	r3, r0, #0
10005360:	1c1a      	adds	r2, r3, #0
10005362:	4b11      	ldr	r3, [pc, #68]	; (100053a8 <Ultra_sonic_filter+0xe8>)
10005364:	701a      	strb	r2, [r3, #0]
	if(obstructed_R == 0) Fil_Ultrasonic_m_R = Exp_moving_average(Ultrasonic_cm_R_clc, Fil_Ultrasonic_m_R, ALPHA_ULTARSONIC);// / 100;
10005366:	4b10      	ldr	r3, [pc, #64]	; (100053a8 <Ultra_sonic_filter+0xe8>)
10005368:	781b      	ldrb	r3, [r3, #0]
1000536a:	2b00      	cmp	r3, #0
1000536c:	d112      	bne.n	10005394 <Ultra_sonic_filter+0xd4>
1000536e:	230a      	movs	r3, #10
10005370:	18fb      	adds	r3, r7, r3
10005372:	2200      	movs	r2, #0
10005374:	5e9b      	ldrsh	r3, [r3, r2]
10005376:	1c18      	adds	r0, r3, #0
10005378:	f003 f8ae 	bl	100084d8 <__aeabi_i2f>
1000537c:	1c01      	adds	r1, r0, #0
1000537e:	4b0b      	ldr	r3, [pc, #44]	; (100053ac <Ultra_sonic_filter+0xec>)
10005380:	681a      	ldr	r2, [r3, #0]
10005382:	6a3b      	ldr	r3, [r7, #32]
10005384:	1c08      	adds	r0, r1, #0
10005386:	1c11      	adds	r1, r2, #0
10005388:	1c1a      	adds	r2, r3, #0
1000538a:	f000 f895 	bl	100054b8 <Exp_moving_average>
1000538e:	1c02      	adds	r2, r0, #0
10005390:	4b06      	ldr	r3, [pc, #24]	; (100053ac <Ultra_sonic_filter+0xec>)
10005392:	601a      	str	r2, [r3, #0]

}
10005394:	46bd      	mov	sp, r7
10005396:	b005      	add	sp, #20
10005398:	bd90      	pop	{r4, r7, pc}
1000539a:	46c0      	nop			; (mov r8, r8)
1000539c:	200009a0 	.word	0x200009a0
100053a0:	2000099c 	.word	0x2000099c
100053a4:	200009a4 	.word	0x200009a4
100053a8:	2000099d 	.word	0x2000099d
100053ac:	200009a8 	.word	0x200009a8

100053b0 <Ultrasoinc_Obstructet_Test>:

uint8_t Ultrasoinc_Obstructet_Test(float Angle){
100053b0:	b590      	push	{r4, r7, lr}
100053b2:	b085      	sub	sp, #20
100053b4:	af00      	add	r7, sp, #0
100053b6:	6078      	str	r0, [r7, #4]
	uint8_t i;
	for(i = 0; i < 3; i++){ // if rotate around multipel times
100053b8:	230f      	movs	r3, #15
100053ba:	18fb      	adds	r3, r7, r3
100053bc:	2200      	movs	r2, #0
100053be:	701a      	strb	r2, [r3, #0]
100053c0:	e06d      	b.n	1000549e <Ultrasoinc_Obstructet_Test+0xee>
		if(Angle > 0){
100053c2:	6878      	ldr	r0, [r7, #4]
100053c4:	2100      	movs	r1, #0
100053c6:	f002 f97f 	bl	100076c8 <__aeabi_fcmpgt>
100053ca:	1e03      	subs	r3, r0, #0
100053cc:	d02d      	beq.n	1000542a <Ultrasoinc_Obstructet_Test+0x7a>
			if((Angle - (POS_OBSTRUCTED_ANGLE_MIN + (i * 360))) * (Angle - (POS_OBSTRUCTED_ANGLE_MAX + (i * 360))) <= 0){
100053ce:	230f      	movs	r3, #15
100053d0:	18fb      	adds	r3, r7, r3
100053d2:	781b      	ldrb	r3, [r3, #0]
100053d4:	22b4      	movs	r2, #180	; 0xb4
100053d6:	0052      	lsls	r2, r2, #1
100053d8:	4353      	muls	r3, r2
100053da:	3332      	adds	r3, #50	; 0x32
100053dc:	1c18      	adds	r0, r3, #0
100053de:	f003 f87b 	bl	100084d8 <__aeabi_i2f>
100053e2:	1c03      	adds	r3, r0, #0
100053e4:	6878      	ldr	r0, [r7, #4]
100053e6:	1c19      	adds	r1, r3, #0
100053e8:	f002 fed8 	bl	1000819c <__aeabi_fsub>
100053ec:	1c03      	adds	r3, r0, #0
100053ee:	1c1c      	adds	r4, r3, #0
100053f0:	230f      	movs	r3, #15
100053f2:	18fb      	adds	r3, r7, r3
100053f4:	781b      	ldrb	r3, [r3, #0]
100053f6:	22b4      	movs	r2, #180	; 0xb4
100053f8:	0052      	lsls	r2, r2, #1
100053fa:	4353      	muls	r3, r2
100053fc:	33d2      	adds	r3, #210	; 0xd2
100053fe:	1c18      	adds	r0, r3, #0
10005400:	f003 f86a 	bl	100084d8 <__aeabi_i2f>
10005404:	1c03      	adds	r3, r0, #0
10005406:	6878      	ldr	r0, [r7, #4]
10005408:	1c19      	adds	r1, r3, #0
1000540a:	f002 fec7 	bl	1000819c <__aeabi_fsub>
1000540e:	1c03      	adds	r3, r0, #0
10005410:	1c20      	adds	r0, r4, #0
10005412:	1c19      	adds	r1, r3, #0
10005414:	f002 fd90 	bl	10007f38 <__aeabi_fmul>
10005418:	1c03      	adds	r3, r0, #0
1000541a:	1c18      	adds	r0, r3, #0
1000541c:	2100      	movs	r1, #0
1000541e:	f002 f949 	bl	100076b4 <__aeabi_fcmple>
10005422:	1e03      	subs	r3, r0, #0
10005424:	d001      	beq.n	1000542a <Ultrasoinc_Obstructet_Test+0x7a>
				return 1;
10005426:	2301      	movs	r3, #1
10005428:	e03f      	b.n	100054aa <Ultrasoinc_Obstructet_Test+0xfa>
			}
		}

		if(Angle < 0){
1000542a:	6878      	ldr	r0, [r7, #4]
1000542c:	2100      	movs	r1, #0
1000542e:	f002 f937 	bl	100076a0 <__aeabi_fcmplt>
10005432:	1e03      	subs	r3, r0, #0
10005434:	d02c      	beq.n	10005490 <Ultrasoinc_Obstructet_Test+0xe0>
			if((Angle - (NEG_OBSTRUCTED_ANGLE_MIN - (i * 360))) * (Angle - (NEG_OBSTRUCTED_ANGLE_MAX - (i * 360))) <= 0){
10005436:	230f      	movs	r3, #15
10005438:	18fb      	adds	r3, r7, r3
1000543a:	781b      	ldrb	r3, [r3, #0]
1000543c:	4a1d      	ldr	r2, [pc, #116]	; (100054b4 <Ultrasoinc_Obstructet_Test+0x104>)
1000543e:	4353      	muls	r3, r2
10005440:	3b96      	subs	r3, #150	; 0x96
10005442:	1c18      	adds	r0, r3, #0
10005444:	f003 f848 	bl	100084d8 <__aeabi_i2f>
10005448:	1c03      	adds	r3, r0, #0
1000544a:	6878      	ldr	r0, [r7, #4]
1000544c:	1c19      	adds	r1, r3, #0
1000544e:	f002 fea5 	bl	1000819c <__aeabi_fsub>
10005452:	1c03      	adds	r3, r0, #0
10005454:	1c1c      	adds	r4, r3, #0
10005456:	230f      	movs	r3, #15
10005458:	18fb      	adds	r3, r7, r3
1000545a:	781b      	ldrb	r3, [r3, #0]
1000545c:	4a15      	ldr	r2, [pc, #84]	; (100054b4 <Ultrasoinc_Obstructet_Test+0x104>)
1000545e:	4353      	muls	r3, r2
10005460:	3b37      	subs	r3, #55	; 0x37
10005462:	3bff      	subs	r3, #255	; 0xff
10005464:	1c18      	adds	r0, r3, #0
10005466:	f003 f837 	bl	100084d8 <__aeabi_i2f>
1000546a:	1c03      	adds	r3, r0, #0
1000546c:	6878      	ldr	r0, [r7, #4]
1000546e:	1c19      	adds	r1, r3, #0
10005470:	f002 fe94 	bl	1000819c <__aeabi_fsub>
10005474:	1c03      	adds	r3, r0, #0
10005476:	1c20      	adds	r0, r4, #0
10005478:	1c19      	adds	r1, r3, #0
1000547a:	f002 fd5d 	bl	10007f38 <__aeabi_fmul>
1000547e:	1c03      	adds	r3, r0, #0
10005480:	1c18      	adds	r0, r3, #0
10005482:	2100      	movs	r1, #0
10005484:	f002 f916 	bl	100076b4 <__aeabi_fcmple>
10005488:	1e03      	subs	r3, r0, #0
1000548a:	d001      	beq.n	10005490 <Ultrasoinc_Obstructet_Test+0xe0>
						return 1;
1000548c:	2301      	movs	r3, #1
1000548e:	e00c      	b.n	100054aa <Ultrasoinc_Obstructet_Test+0xfa>

}

uint8_t Ultrasoinc_Obstructet_Test(float Angle){
	uint8_t i;
	for(i = 0; i < 3; i++){ // if rotate around multipel times
10005490:	230f      	movs	r3, #15
10005492:	18fb      	adds	r3, r7, r3
10005494:	781a      	ldrb	r2, [r3, #0]
10005496:	230f      	movs	r3, #15
10005498:	18fb      	adds	r3, r7, r3
1000549a:	3201      	adds	r2, #1
1000549c:	701a      	strb	r2, [r3, #0]
1000549e:	230f      	movs	r3, #15
100054a0:	18fb      	adds	r3, r7, r3
100054a2:	781b      	ldrb	r3, [r3, #0]
100054a4:	2b02      	cmp	r3, #2
100054a6:	d98c      	bls.n	100053c2 <Ultrasoinc_Obstructet_Test+0x12>
						return 1;
			}
		}
	}

	return 0;
100054a8:	2300      	movs	r3, #0
}
100054aa:	1c18      	adds	r0, r3, #0
100054ac:	46bd      	mov	sp, r7
100054ae:	b005      	add	sp, #20
100054b0:	bd90      	pop	{r4, r7, pc}
100054b2:	46c0      	nop			; (mov r8, r8)
100054b4:	fffffe98 	.word	0xfffffe98

100054b8 <Exp_moving_average>:



float Exp_moving_average(float new_value, float value, float ALPHA){
100054b8:	b590      	push	{r4, r7, lr}
100054ba:	b085      	sub	sp, #20
100054bc:	af00      	add	r7, sp, #0
100054be:	60f8      	str	r0, [r7, #12]
100054c0:	60b9      	str	r1, [r7, #8]
100054c2:	607a      	str	r2, [r7, #4]
	return new_value * ALPHA + (1 - ALPHA) * value;
100054c4:	68f8      	ldr	r0, [r7, #12]
100054c6:	6879      	ldr	r1, [r7, #4]
100054c8:	f002 fd36 	bl	10007f38 <__aeabi_fmul>
100054cc:	1c03      	adds	r3, r0, #0
100054ce:	1c1c      	adds	r4, r3, #0
100054d0:	20fe      	movs	r0, #254	; 0xfe
100054d2:	0580      	lsls	r0, r0, #22
100054d4:	6879      	ldr	r1, [r7, #4]
100054d6:	f002 fe61 	bl	1000819c <__aeabi_fsub>
100054da:	1c03      	adds	r3, r0, #0
100054dc:	1c18      	adds	r0, r3, #0
100054de:	68b9      	ldr	r1, [r7, #8]
100054e0:	f002 fd2a 	bl	10007f38 <__aeabi_fmul>
100054e4:	1c03      	adds	r3, r0, #0
100054e6:	1c20      	adds	r0, r4, #0
100054e8:	1c19      	adds	r1, r3, #0
100054ea:	f002 f9b7 	bl	1000785c <__aeabi_fadd>
100054ee:	1c03      	adds	r3, r0, #0
}
100054f0:	1c18      	adds	r0, r3, #0
100054f2:	46bd      	mov	sp, r7
100054f4:	b005      	add	sp, #20
100054f6:	bd90      	pop	{r4, r7, pc}

100054f8 <IRQ3_Handler>:

void CAN_RX_INVERTER_ISR(void) {
100054f8:	b580      	push	{r7, lr}
100054fa:	af00      	add	r7, sp, #0
	WATCHDOG_Service();
100054fc:	f7fe ff08 	bl	10004310 <WATCHDOG_Service>
	DIGITAL_IO_SetOutputLow(&WATCHDOG_LED_BLUE);
10005500:	4b09      	ldr	r3, [pc, #36]	; (10005528 <IRQ3_Handler+0x30>)
10005502:	1c18      	adds	r0, r3, #0
10005504:	f7fe feba 	bl	1000427c <DIGITAL_IO_SetOutputLow>

	CAN_RX_Inverter_count++;
10005508:	4b08      	ldr	r3, [pc, #32]	; (1000552c <IRQ3_Handler+0x34>)
1000550a:	781b      	ldrb	r3, [r3, #0]
1000550c:	b2db      	uxtb	r3, r3
1000550e:	3301      	adds	r3, #1
10005510:	b2da      	uxtb	r2, r3
10005512:	4b06      	ldr	r3, [pc, #24]	; (1000552c <IRQ3_Handler+0x34>)
10005514:	701a      	strb	r2, [r3, #0]
	if(CAN_RX_Inverter_count == 4) CAN_RX_Inverter_Read_Data(); // read data after all for have reviced asseumes all 4 are working
10005516:	4b05      	ldr	r3, [pc, #20]	; (1000552c <IRQ3_Handler+0x34>)
10005518:	781b      	ldrb	r3, [r3, #0]
1000551a:	b2db      	uxtb	r3, r3
1000551c:	2b04      	cmp	r3, #4
1000551e:	d101      	bne.n	10005524 <IRQ3_Handler+0x2c>
10005520:	f000 f806 	bl	10005530 <CAN_RX_Inverter_Read_Data>
}
10005524:	46bd      	mov	sp, r7
10005526:	bd80      	pop	{r7, pc}
10005528:	1000a858 	.word	0x1000a858
1000552c:	20000994 	.word	0x20000994

10005530 <CAN_RX_Inverter_Read_Data>:

void CAN_RX_Inverter_Read_Data(){
10005530:	b590      	push	{r4, r7, lr}
10005532:	b089      	sub	sp, #36	; 0x24
10005534:	af00      	add	r7, sp, #0
	uint8_t Motor_on_rover;
	for(Motor_on_rover = 0; Motor_on_rover < 4; Motor_on_rover ++){
10005536:	231f      	movs	r3, #31
10005538:	18fb      	adds	r3, r7, r3
1000553a:	2200      	movs	r2, #0
1000553c:	701a      	strb	r2, [r3, #0]
1000553e:	e103      	b.n	10005748 <CAN_RX_Inverter_Read_Data+0x218>
		XMC_CAN_MO_t* lmsgobjct_ptr_1 = CAN_NODE_0.lmobj_ptr[Motor_on_rover + 2]->mo_ptr;
10005540:	231f      	movs	r3, #31
10005542:	18fb      	adds	r3, r7, r3
10005544:	781b      	ldrb	r3, [r3, #0]
10005546:	3302      	adds	r3, #2
10005548:	4a94      	ldr	r2, [pc, #592]	; (1000579c <CAN_RX_Inverter_Read_Data+0x26c>)
1000554a:	3302      	adds	r3, #2
1000554c:	009b      	lsls	r3, r3, #2
1000554e:	18d3      	adds	r3, r2, r3
10005550:	685b      	ldr	r3, [r3, #4]
10005552:	681b      	ldr	r3, [r3, #0]
10005554:	61bb      	str	r3, [r7, #24]
		CAN_NODE_MO_Receive((void*) CAN_NODE_0.lmobj_ptr[Motor_on_rover + 2]);
10005556:	231f      	movs	r3, #31
10005558:	18fb      	adds	r3, r7, r3
1000555a:	781b      	ldrb	r3, [r3, #0]
1000555c:	3302      	adds	r3, #2
1000555e:	4a8f      	ldr	r2, [pc, #572]	; (1000579c <CAN_RX_Inverter_Read_Data+0x26c>)
10005560:	3302      	adds	r3, #2
10005562:	009b      	lsls	r3, r3, #2
10005564:	18d3      	adds	r3, r2, r3
10005566:	685b      	ldr	r3, [r3, #4]
10005568:	1c18      	adds	r0, r3, #0
1000556a:	f7fe fc17 	bl	10003d9c <CAN_NODE_MO_Receive>

		uint8_t data_RX[8];
		uint8_t i;
		for(i = 0 ; i < 8 ; i ++){
1000556e:	231e      	movs	r3, #30
10005570:	18fb      	adds	r3, r7, r3
10005572:	2200      	movs	r2, #0
10005574:	701a      	strb	r2, [r3, #0]
10005576:	e012      	b.n	1000559e <CAN_RX_Inverter_Read_Data+0x6e>
			 data_RX[i] = lmsgobjct_ptr_1->can_data_byte[i];
10005578:	231e      	movs	r3, #30
1000557a:	18fb      	adds	r3, r7, r3
1000557c:	781b      	ldrb	r3, [r3, #0]
1000557e:	221e      	movs	r2, #30
10005580:	18ba      	adds	r2, r7, r2
10005582:	7812      	ldrb	r2, [r2, #0]
10005584:	69b9      	ldr	r1, [r7, #24]
10005586:	188a      	adds	r2, r1, r2
10005588:	7c11      	ldrb	r1, [r2, #16]
1000558a:	220c      	movs	r2, #12
1000558c:	18ba      	adds	r2, r7, r2
1000558e:	54d1      	strb	r1, [r2, r3]
		XMC_CAN_MO_t* lmsgobjct_ptr_1 = CAN_NODE_0.lmobj_ptr[Motor_on_rover + 2]->mo_ptr;
		CAN_NODE_MO_Receive((void*) CAN_NODE_0.lmobj_ptr[Motor_on_rover + 2]);

		uint8_t data_RX[8];
		uint8_t i;
		for(i = 0 ; i < 8 ; i ++){
10005590:	231e      	movs	r3, #30
10005592:	18fb      	adds	r3, r7, r3
10005594:	781a      	ldrb	r2, [r3, #0]
10005596:	231e      	movs	r3, #30
10005598:	18fb      	adds	r3, r7, r3
1000559a:	3201      	adds	r2, #1
1000559c:	701a      	strb	r2, [r3, #0]
1000559e:	231e      	movs	r3, #30
100055a0:	18fb      	adds	r3, r7, r3
100055a2:	781b      	ldrb	r3, [r3, #0]
100055a4:	2b07      	cmp	r3, #7
100055a6:	d9e7      	bls.n	10005578 <CAN_RX_Inverter_Read_Data+0x48>
			 data_RX[i] = lmsgobjct_ptr_1->can_data_byte[i];
		}

		uint8_t Motor_on_rover_RX = (data_RX[0 * 2 + 1] << 8) | data_RX[0 * 2];
100055a8:	230c      	movs	r3, #12
100055aa:	18fb      	adds	r3, r7, r3
100055ac:	785b      	ldrb	r3, [r3, #1]
100055ae:	021b      	lsls	r3, r3, #8
100055b0:	b2da      	uxtb	r2, r3
100055b2:	230c      	movs	r3, #12
100055b4:	18fb      	adds	r3, r7, r3
100055b6:	781b      	ldrb	r3, [r3, #0]
100055b8:	b2db      	uxtb	r3, r3
100055ba:	4313      	orrs	r3, r2
100055bc:	b2da      	uxtb	r2, r3
100055be:	2317      	movs	r3, #23
100055c0:	18fb      	adds	r3, r7, r3
100055c2:	701a      	strb	r2, [r3, #0]
		if(Motor_on_rover_RX == Motor_on_rover){
100055c4:	2317      	movs	r3, #23
100055c6:	18fa      	adds	r2, r7, r3
100055c8:	231f      	movs	r3, #31
100055ca:	18fb      	adds	r3, r7, r3
100055cc:	7812      	ldrb	r2, [r2, #0]
100055ce:	781b      	ldrb	r3, [r3, #0]
100055d0:	429a      	cmp	r2, r3
100055d2:	d000      	beq.n	100055d6 <CAN_RX_Inverter_Read_Data+0xa6>
100055d4:	e0ad      	b.n	10005732 <CAN_RX_Inverter_Read_Data+0x202>
			DIGITAL_IO_SetOutputLow(&LED_CAN_ERROR);
100055d6:	4b72      	ldr	r3, [pc, #456]	; (100057a0 <CAN_RX_Inverter_Read_Data+0x270>)
100055d8:	1c18      	adds	r0, r3, #0
100055da:	f7fe fe4f 	bl	1000427c <DIGITAL_IO_SetOutputLow>

			uint8_t i;
			int16_t values_int16[3] = {0};
100055de:	1d3b      	adds	r3, r7, #4
100055e0:	2200      	movs	r2, #0
100055e2:	601a      	str	r2, [r3, #0]
100055e4:	2200      	movs	r2, #0
100055e6:	809a      	strh	r2, [r3, #4]
			for(i = 1 ; i < 4 ; i ++){
100055e8:	231d      	movs	r3, #29
100055ea:	18fb      	adds	r3, r7, r3
100055ec:	2201      	movs	r2, #1
100055ee:	701a      	strb	r2, [r3, #0]
100055f0:	e06b      	b.n	100056ca <CAN_RX_Inverter_Read_Data+0x19a>
				 if(i == 1) values_int16[i - 1] = (data_RX[i * 2 + 1] << 8) | data_RX[i * 2];
100055f2:	231d      	movs	r3, #29
100055f4:	18fb      	adds	r3, r7, r3
100055f6:	781b      	ldrb	r3, [r3, #0]
100055f8:	2b01      	cmp	r3, #1
100055fa:	d11c      	bne.n	10005636 <CAN_RX_Inverter_Read_Data+0x106>
100055fc:	231d      	movs	r3, #29
100055fe:	18fb      	adds	r3, r7, r3
10005600:	781b      	ldrb	r3, [r3, #0]
10005602:	1e5a      	subs	r2, r3, #1
10005604:	231d      	movs	r3, #29
10005606:	18fb      	adds	r3, r7, r3
10005608:	781b      	ldrb	r3, [r3, #0]
1000560a:	005b      	lsls	r3, r3, #1
1000560c:	3301      	adds	r3, #1
1000560e:	210c      	movs	r1, #12
10005610:	1879      	adds	r1, r7, r1
10005612:	5ccb      	ldrb	r3, [r1, r3]
10005614:	021b      	lsls	r3, r3, #8
10005616:	b298      	uxth	r0, r3
10005618:	231d      	movs	r3, #29
1000561a:	18fb      	adds	r3, r7, r3
1000561c:	781b      	ldrb	r3, [r3, #0]
1000561e:	005b      	lsls	r3, r3, #1
10005620:	210c      	movs	r1, #12
10005622:	1879      	adds	r1, r7, r1
10005624:	5ccb      	ldrb	r3, [r1, r3]
10005626:	b29b      	uxth	r3, r3
10005628:	1c01      	adds	r1, r0, #0
1000562a:	430b      	orrs	r3, r1
1000562c:	b299      	uxth	r1, r3
1000562e:	1d3b      	adds	r3, r7, #4
10005630:	0052      	lsls	r2, r2, #1
10005632:	52d1      	strh	r1, [r2, r3]
10005634:	e042      	b.n	100056bc <CAN_RX_Inverter_Read_Data+0x18c>
				 else if(i == 2) values_int16[i - 1] = (data_RX[i * 2 + 1] << 8) | data_RX[i * 2];
10005636:	231d      	movs	r3, #29
10005638:	18fb      	adds	r3, r7, r3
1000563a:	781b      	ldrb	r3, [r3, #0]
1000563c:	2b02      	cmp	r3, #2
1000563e:	d11c      	bne.n	1000567a <CAN_RX_Inverter_Read_Data+0x14a>
10005640:	231d      	movs	r3, #29
10005642:	18fb      	adds	r3, r7, r3
10005644:	781b      	ldrb	r3, [r3, #0]
10005646:	1e5a      	subs	r2, r3, #1
10005648:	231d      	movs	r3, #29
1000564a:	18fb      	adds	r3, r7, r3
1000564c:	781b      	ldrb	r3, [r3, #0]
1000564e:	005b      	lsls	r3, r3, #1
10005650:	3301      	adds	r3, #1
10005652:	210c      	movs	r1, #12
10005654:	1879      	adds	r1, r7, r1
10005656:	5ccb      	ldrb	r3, [r1, r3]
10005658:	021b      	lsls	r3, r3, #8
1000565a:	b298      	uxth	r0, r3
1000565c:	231d      	movs	r3, #29
1000565e:	18fb      	adds	r3, r7, r3
10005660:	781b      	ldrb	r3, [r3, #0]
10005662:	005b      	lsls	r3, r3, #1
10005664:	210c      	movs	r1, #12
10005666:	1879      	adds	r1, r7, r1
10005668:	5ccb      	ldrb	r3, [r1, r3]
1000566a:	b29b      	uxth	r3, r3
1000566c:	1c01      	adds	r1, r0, #0
1000566e:	430b      	orrs	r3, r1
10005670:	b299      	uxth	r1, r3
10005672:	1d3b      	adds	r3, r7, #4
10005674:	0052      	lsls	r2, r2, #1
10005676:	52d1      	strh	r1, [r2, r3]
10005678:	e020      	b.n	100056bc <CAN_RX_Inverter_Read_Data+0x18c>
				 else if(i == 3) values_int16[i - 1] = (data_RX[i * 2 + 1] << 8) | data_RX[i * 2];
1000567a:	231d      	movs	r3, #29
1000567c:	18fb      	adds	r3, r7, r3
1000567e:	781b      	ldrb	r3, [r3, #0]
10005680:	2b03      	cmp	r3, #3
10005682:	d11b      	bne.n	100056bc <CAN_RX_Inverter_Read_Data+0x18c>
10005684:	231d      	movs	r3, #29
10005686:	18fb      	adds	r3, r7, r3
10005688:	781b      	ldrb	r3, [r3, #0]
1000568a:	1e5a      	subs	r2, r3, #1
1000568c:	231d      	movs	r3, #29
1000568e:	18fb      	adds	r3, r7, r3
10005690:	781b      	ldrb	r3, [r3, #0]
10005692:	005b      	lsls	r3, r3, #1
10005694:	3301      	adds	r3, #1
10005696:	210c      	movs	r1, #12
10005698:	1879      	adds	r1, r7, r1
1000569a:	5ccb      	ldrb	r3, [r1, r3]
1000569c:	021b      	lsls	r3, r3, #8
1000569e:	b298      	uxth	r0, r3
100056a0:	231d      	movs	r3, #29
100056a2:	18fb      	adds	r3, r7, r3
100056a4:	781b      	ldrb	r3, [r3, #0]
100056a6:	005b      	lsls	r3, r3, #1
100056a8:	210c      	movs	r1, #12
100056aa:	1879      	adds	r1, r7, r1
100056ac:	5ccb      	ldrb	r3, [r1, r3]
100056ae:	b29b      	uxth	r3, r3
100056b0:	1c01      	adds	r1, r0, #0
100056b2:	430b      	orrs	r3, r1
100056b4:	b299      	uxth	r1, r3
100056b6:	1d3b      	adds	r3, r7, #4
100056b8:	0052      	lsls	r2, r2, #1
100056ba:	52d1      	strh	r1, [r2, r3]
		if(Motor_on_rover_RX == Motor_on_rover){
			DIGITAL_IO_SetOutputLow(&LED_CAN_ERROR);

			uint8_t i;
			int16_t values_int16[3] = {0};
			for(i = 1 ; i < 4 ; i ++){
100056bc:	231d      	movs	r3, #29
100056be:	18fb      	adds	r3, r7, r3
100056c0:	781a      	ldrb	r2, [r3, #0]
100056c2:	231d      	movs	r3, #29
100056c4:	18fb      	adds	r3, r7, r3
100056c6:	3201      	adds	r2, #1
100056c8:	701a      	strb	r2, [r3, #0]
100056ca:	231d      	movs	r3, #29
100056cc:	18fb      	adds	r3, r7, r3
100056ce:	781b      	ldrb	r3, [r3, #0]
100056d0:	2b03      	cmp	r3, #3
100056d2:	d98e      	bls.n	100055f2 <CAN_RX_Inverter_Read_Data+0xc2>
				 if(i == 1) values_int16[i - 1] = (data_RX[i * 2 + 1] << 8) | data_RX[i * 2];
				 else if(i == 2) values_int16[i - 1] = (data_RX[i * 2 + 1] << 8) | data_RX[i * 2];
				 else if(i == 3) values_int16[i - 1] = (data_RX[i * 2 + 1] << 8) | data_RX[i * 2];
			 }

			Inveter_CAN_OK[Motor_on_rover] = values_int16[0];
100056d4:	231f      	movs	r3, #31
100056d6:	18fb      	adds	r3, r7, r3
100056d8:	781b      	ldrb	r3, [r3, #0]
100056da:	1d3a      	adds	r2, r7, #4
100056dc:	8812      	ldrh	r2, [r2, #0]
100056de:	b2d1      	uxtb	r1, r2
100056e0:	4a30      	ldr	r2, [pc, #192]	; (100057a4 <CAN_RX_Inverter_Read_Data+0x274>)
100056e2:	54d1      	strb	r1, [r2, r3]
			Actual_Speeds[Motor_on_rover] = (float)values_int16[1] / 1000;
100056e4:	231f      	movs	r3, #31
100056e6:	18fb      	adds	r3, r7, r3
100056e8:	781c      	ldrb	r4, [r3, #0]
100056ea:	1d3b      	adds	r3, r7, #4
100056ec:	885b      	ldrh	r3, [r3, #2]
100056ee:	b21b      	sxth	r3, r3
100056f0:	1c18      	adds	r0, r3, #0
100056f2:	f002 fef1 	bl	100084d8 <__aeabi_i2f>
100056f6:	1c03      	adds	r3, r0, #0
100056f8:	1c18      	adds	r0, r3, #0
100056fa:	492b      	ldr	r1, [pc, #172]	; (100057a8 <CAN_RX_Inverter_Read_Data+0x278>)
100056fc:	f002 fa2a 	bl	10007b54 <__aeabi_fdiv>
10005700:	1c03      	adds	r3, r0, #0
10005702:	1c19      	adds	r1, r3, #0
10005704:	4b29      	ldr	r3, [pc, #164]	; (100057ac <CAN_RX_Inverter_Read_Data+0x27c>)
10005706:	00a2      	lsls	r2, r4, #2
10005708:	50d1      	str	r1, [r2, r3]
			Actual_Distance[Motor_on_rover] = (float)values_int16[2] / 1000;
1000570a:	231f      	movs	r3, #31
1000570c:	18fb      	adds	r3, r7, r3
1000570e:	781c      	ldrb	r4, [r3, #0]
10005710:	1d3b      	adds	r3, r7, #4
10005712:	889b      	ldrh	r3, [r3, #4]
10005714:	b21b      	sxth	r3, r3
10005716:	1c18      	adds	r0, r3, #0
10005718:	f002 fede 	bl	100084d8 <__aeabi_i2f>
1000571c:	1c03      	adds	r3, r0, #0
1000571e:	1c18      	adds	r0, r3, #0
10005720:	4921      	ldr	r1, [pc, #132]	; (100057a8 <CAN_RX_Inverter_Read_Data+0x278>)
10005722:	f002 fa17 	bl	10007b54 <__aeabi_fdiv>
10005726:	1c03      	adds	r3, r0, #0
10005728:	1c19      	adds	r1, r3, #0
1000572a:	4b21      	ldr	r3, [pc, #132]	; (100057b0 <CAN_RX_Inverter_Read_Data+0x280>)
1000572c:	00a2      	lsls	r2, r4, #2
1000572e:	50d1      	str	r1, [r2, r3]
10005730:	e003      	b.n	1000573a <CAN_RX_Inverter_Read_Data+0x20a>


			}
		else DIGITAL_IO_SetOutputHigh(&LED_CAN_ERROR);
10005732:	4b1b      	ldr	r3, [pc, #108]	; (100057a0 <CAN_RX_Inverter_Read_Data+0x270>)
10005734:	1c18      	adds	r0, r3, #0
10005736:	f7fe fd91 	bl	1000425c <DIGITAL_IO_SetOutputHigh>
	if(CAN_RX_Inverter_count == 4) CAN_RX_Inverter_Read_Data(); // read data after all for have reviced asseumes all 4 are working
}

void CAN_RX_Inverter_Read_Data(){
	uint8_t Motor_on_rover;
	for(Motor_on_rover = 0; Motor_on_rover < 4; Motor_on_rover ++){
1000573a:	231f      	movs	r3, #31
1000573c:	18fb      	adds	r3, r7, r3
1000573e:	781a      	ldrb	r2, [r3, #0]
10005740:	231f      	movs	r3, #31
10005742:	18fb      	adds	r3, r7, r3
10005744:	3201      	adds	r2, #1
10005746:	701a      	strb	r2, [r3, #0]
10005748:	231f      	movs	r3, #31
1000574a:	18fb      	adds	r3, r7, r3
1000574c:	781b      	ldrb	r3, [r3, #0]
1000574e:	2b03      	cmp	r3, #3
10005750:	d800      	bhi.n	10005754 <CAN_RX_Inverter_Read_Data+0x224>
10005752:	e6f5      	b.n	10005540 <CAN_RX_Inverter_Read_Data+0x10>

			}
		else DIGITAL_IO_SetOutputHigh(&LED_CAN_ERROR);
	}

	speed_fl_act = Actual_Speeds[0];
10005754:	4b15      	ldr	r3, [pc, #84]	; (100057ac <CAN_RX_Inverter_Read_Data+0x27c>)
10005756:	681a      	ldr	r2, [r3, #0]
10005758:	4b16      	ldr	r3, [pc, #88]	; (100057b4 <CAN_RX_Inverter_Read_Data+0x284>)
1000575a:	601a      	str	r2, [r3, #0]
	speed_fr_act = Actual_Speeds[1];
1000575c:	4b13      	ldr	r3, [pc, #76]	; (100057ac <CAN_RX_Inverter_Read_Data+0x27c>)
1000575e:	685a      	ldr	r2, [r3, #4]
10005760:	4b15      	ldr	r3, [pc, #84]	; (100057b8 <CAN_RX_Inverter_Read_Data+0x288>)
10005762:	601a      	str	r2, [r3, #0]
	speed_rl_act = Actual_Speeds[2];
10005764:	4b11      	ldr	r3, [pc, #68]	; (100057ac <CAN_RX_Inverter_Read_Data+0x27c>)
10005766:	689a      	ldr	r2, [r3, #8]
10005768:	4b14      	ldr	r3, [pc, #80]	; (100057bc <CAN_RX_Inverter_Read_Data+0x28c>)
1000576a:	601a      	str	r2, [r3, #0]
	speed_rr_act = Actual_Speeds[3];
1000576c:	4b0f      	ldr	r3, [pc, #60]	; (100057ac <CAN_RX_Inverter_Read_Data+0x27c>)
1000576e:	68da      	ldr	r2, [r3, #12]
10005770:	4b13      	ldr	r3, [pc, #76]	; (100057c0 <CAN_RX_Inverter_Read_Data+0x290>)
10005772:	601a      	str	r2, [r3, #0]

	distance_fl_act = Actual_Distance[0];
10005774:	4b0e      	ldr	r3, [pc, #56]	; (100057b0 <CAN_RX_Inverter_Read_Data+0x280>)
10005776:	681a      	ldr	r2, [r3, #0]
10005778:	4b12      	ldr	r3, [pc, #72]	; (100057c4 <CAN_RX_Inverter_Read_Data+0x294>)
1000577a:	601a      	str	r2, [r3, #0]
	distance_fr_act = Actual_Distance[1];
1000577c:	4b0c      	ldr	r3, [pc, #48]	; (100057b0 <CAN_RX_Inverter_Read_Data+0x280>)
1000577e:	685a      	ldr	r2, [r3, #4]
10005780:	4b11      	ldr	r3, [pc, #68]	; (100057c8 <CAN_RX_Inverter_Read_Data+0x298>)
10005782:	601a      	str	r2, [r3, #0]
	distance_rl_act = Actual_Distance[2];
10005784:	4b0a      	ldr	r3, [pc, #40]	; (100057b0 <CAN_RX_Inverter_Read_Data+0x280>)
10005786:	689a      	ldr	r2, [r3, #8]
10005788:	4b10      	ldr	r3, [pc, #64]	; (100057cc <CAN_RX_Inverter_Read_Data+0x29c>)
1000578a:	601a      	str	r2, [r3, #0]
	distance_rr_act = Actual_Distance[3];
1000578c:	4b08      	ldr	r3, [pc, #32]	; (100057b0 <CAN_RX_Inverter_Read_Data+0x280>)
1000578e:	68da      	ldr	r2, [r3, #12]
10005790:	4b0f      	ldr	r3, [pc, #60]	; (100057d0 <CAN_RX_Inverter_Read_Data+0x2a0>)
10005792:	601a      	str	r2, [r3, #0]

}
10005794:	46bd      	mov	sp, r7
10005796:	b009      	add	sp, #36	; 0x24
10005798:	bd90      	pop	{r4, r7, pc}
1000579a:	46c0      	nop			; (mov r8, r8)
1000579c:	1000a94c 	.word	0x1000a94c
100057a0:	1000a868 	.word	0x1000a868
100057a4:	20000a20 	.word	0x20000a20
100057a8:	447a0000 	.word	0x447a0000
100057ac:	20000a24 	.word	0x20000a24
100057b0:	20000a34 	.word	0x20000a34
100057b4:	20000974 	.word	0x20000974
100057b8:	20000978 	.word	0x20000978
100057bc:	2000097c 	.word	0x2000097c
100057c0:	20000980 	.word	0x20000980
100057c4:	20000984 	.word	0x20000984
100057c8:	20000988 	.word	0x20000988
100057cc:	2000098c 	.word	0x2000098c
100057d0:	20000990 	.word	0x20000990

100057d4 <Watchdog_Handler>:

void Watchdog_Handler(void) // to do restates if can is not working a problem wenn power from the buck or plab supplie but ok like this
{
100057d4:	b580      	push	{r7, lr}
100057d6:	af00      	add	r7, sp, #0
  WATCHDOG_ClearAlarm(); /* Clear the alarm event */
100057d8:	f7fe fda0 	bl	1000431c <WATCHDOG_ClearAlarm>
  DIGITAL_IO_SetOutputHigh(&WATCHDOG_LED_BLUE);
100057dc:	4b02      	ldr	r3, [pc, #8]	; (100057e8 <Watchdog_Handler+0x14>)
100057de:	1c18      	adds	r0, r3, #0
100057e0:	f7fe fd3c 	bl	1000425c <DIGITAL_IO_SetOutputHigh>
}
100057e4:	46bd      	mov	sp, r7
100057e6:	bd80      	pop	{r7, pc}
100057e8:	1000a858 	.word	0x1000a858

100057ec <CAN_reset_distance>:

void CAN_reset_distance(uint8_t distance_to_reset[4]){
100057ec:	b580      	push	{r7, lr}
100057ee:	b086      	sub	sp, #24
100057f0:	af00      	add	r7, sp, #0
100057f2:	6078      	str	r0, [r7, #4]
	uint8_t TX[8] ={0};
100057f4:	230c      	movs	r3, #12
100057f6:	18fb      	adds	r3, r7, r3
100057f8:	2200      	movs	r2, #0
100057fa:	601a      	str	r2, [r3, #0]
100057fc:	2200      	movs	r2, #0
100057fe:	605a      	str	r2, [r3, #4]
	uint8_t i;
	for(i = 0; i < 4; i++){	TX[i] = distance_to_reset[i];}
10005800:	2317      	movs	r3, #23
10005802:	18fb      	adds	r3, r7, r3
10005804:	2200      	movs	r2, #0
10005806:	701a      	strb	r2, [r3, #0]
10005808:	e012      	b.n	10005830 <CAN_reset_distance+0x44>
1000580a:	2317      	movs	r3, #23
1000580c:	18fb      	adds	r3, r7, r3
1000580e:	781b      	ldrb	r3, [r3, #0]
10005810:	2217      	movs	r2, #23
10005812:	18ba      	adds	r2, r7, r2
10005814:	7812      	ldrb	r2, [r2, #0]
10005816:	6879      	ldr	r1, [r7, #4]
10005818:	188a      	adds	r2, r1, r2
1000581a:	7811      	ldrb	r1, [r2, #0]
1000581c:	220c      	movs	r2, #12
1000581e:	18ba      	adds	r2, r7, r2
10005820:	54d1      	strb	r1, [r2, r3]
10005822:	2317      	movs	r3, #23
10005824:	18fb      	adds	r3, r7, r3
10005826:	781a      	ldrb	r2, [r3, #0]
10005828:	2317      	movs	r3, #23
1000582a:	18fb      	adds	r3, r7, r3
1000582c:	3201      	adds	r2, #1
1000582e:	701a      	strb	r2, [r3, #0]
10005830:	2317      	movs	r3, #23
10005832:	18fb      	adds	r3, r7, r3
10005834:	781b      	ldrb	r3, [r3, #0]
10005836:	2b03      	cmp	r3, #3
10005838:	d9e7      	bls.n	1000580a <CAN_reset_distance+0x1e>

	CAN_NODE_MO_UpdateData((void*) CAN_NODE_0.lmobj_ptr[1], (uint8_t*)TX);
1000583a:	4b08      	ldr	r3, [pc, #32]	; (1000585c <CAN_reset_distance+0x70>)
1000583c:	691a      	ldr	r2, [r3, #16]
1000583e:	230c      	movs	r3, #12
10005840:	18fb      	adds	r3, r7, r3
10005842:	1c10      	adds	r0, r2, #0
10005844:	1c19      	adds	r1, r3, #0
10005846:	f7fe fac1 	bl	10003dcc <CAN_NODE_MO_UpdateData>
	CAN_NODE_MO_Transmit((void*) CAN_NODE_0.lmobj_ptr[1]); //Transmit the data of message object1
1000584a:	4b04      	ldr	r3, [pc, #16]	; (1000585c <CAN_reset_distance+0x70>)
1000584c:	691b      	ldr	r3, [r3, #16]
1000584e:	1c18      	adds	r0, r3, #0
10005850:	f7fe fa8c 	bl	10003d6c <CAN_NODE_MO_Transmit>
}
10005854:	46bd      	mov	sp, r7
10005856:	b006      	add	sp, #24
10005858:	bd80      	pop	{r7, pc}
1000585a:	46c0      	nop			; (mov r8, r8)
1000585c:	1000a94c 	.word	0x1000a94c

10005860 <CAN_send_Speeds>:

void CAN_send_Speeds(float Speed_data[4]){
10005860:	b580      	push	{r7, lr}
10005862:	b084      	sub	sp, #16
10005864:	af00      	add	r7, sp, #0
10005866:	6078      	str	r0, [r7, #4]

	int16_t Speeds_int16[4] ={Speed_data[0] *1000, Speed_data[1] *1000, Speed_data[2] *1000, Speed_data[3] *1000}; // in int16_t mm/s converter back on inverter
10005868:	687b      	ldr	r3, [r7, #4]
1000586a:	681b      	ldr	r3, [r3, #0]
1000586c:	1c18      	adds	r0, r3, #0
1000586e:	4926      	ldr	r1, [pc, #152]	; (10005908 <CAN_send_Speeds+0xa8>)
10005870:	f002 fb62 	bl	10007f38 <__aeabi_fmul>
10005874:	1c03      	adds	r3, r0, #0
10005876:	1c18      	adds	r0, r3, #0
10005878:	f002 fe0e 	bl	10008498 <__aeabi_f2iz>
1000587c:	1c03      	adds	r3, r0, #0
1000587e:	b29a      	uxth	r2, r3
10005880:	2308      	movs	r3, #8
10005882:	18fb      	adds	r3, r7, r3
10005884:	801a      	strh	r2, [r3, #0]
10005886:	687b      	ldr	r3, [r7, #4]
10005888:	3304      	adds	r3, #4
1000588a:	681b      	ldr	r3, [r3, #0]
1000588c:	1c18      	adds	r0, r3, #0
1000588e:	491e      	ldr	r1, [pc, #120]	; (10005908 <CAN_send_Speeds+0xa8>)
10005890:	f002 fb52 	bl	10007f38 <__aeabi_fmul>
10005894:	1c03      	adds	r3, r0, #0
10005896:	1c18      	adds	r0, r3, #0
10005898:	f002 fdfe 	bl	10008498 <__aeabi_f2iz>
1000589c:	1c03      	adds	r3, r0, #0
1000589e:	b29a      	uxth	r2, r3
100058a0:	2308      	movs	r3, #8
100058a2:	18fb      	adds	r3, r7, r3
100058a4:	805a      	strh	r2, [r3, #2]
100058a6:	687b      	ldr	r3, [r7, #4]
100058a8:	3308      	adds	r3, #8
100058aa:	681b      	ldr	r3, [r3, #0]
100058ac:	1c18      	adds	r0, r3, #0
100058ae:	4916      	ldr	r1, [pc, #88]	; (10005908 <CAN_send_Speeds+0xa8>)
100058b0:	f002 fb42 	bl	10007f38 <__aeabi_fmul>
100058b4:	1c03      	adds	r3, r0, #0
100058b6:	1c18      	adds	r0, r3, #0
100058b8:	f002 fdee 	bl	10008498 <__aeabi_f2iz>
100058bc:	1c03      	adds	r3, r0, #0
100058be:	b29a      	uxth	r2, r3
100058c0:	2308      	movs	r3, #8
100058c2:	18fb      	adds	r3, r7, r3
100058c4:	809a      	strh	r2, [r3, #4]
100058c6:	687b      	ldr	r3, [r7, #4]
100058c8:	330c      	adds	r3, #12
100058ca:	681b      	ldr	r3, [r3, #0]
100058cc:	1c18      	adds	r0, r3, #0
100058ce:	490e      	ldr	r1, [pc, #56]	; (10005908 <CAN_send_Speeds+0xa8>)
100058d0:	f002 fb32 	bl	10007f38 <__aeabi_fmul>
100058d4:	1c03      	adds	r3, r0, #0
100058d6:	1c18      	adds	r0, r3, #0
100058d8:	f002 fdde 	bl	10008498 <__aeabi_f2iz>
100058dc:	1c03      	adds	r3, r0, #0
100058de:	b29a      	uxth	r2, r3
100058e0:	2308      	movs	r3, #8
100058e2:	18fb      	adds	r3, r7, r3
100058e4:	80da      	strh	r2, [r3, #6]

	CAN_NODE_MO_UpdateData((void*) CAN_NODE_0.lmobj_ptr[0], (uint8_t*)Speeds_int16);
100058e6:	4b09      	ldr	r3, [pc, #36]	; (1000590c <CAN_send_Speeds+0xac>)
100058e8:	68da      	ldr	r2, [r3, #12]
100058ea:	2308      	movs	r3, #8
100058ec:	18fb      	adds	r3, r7, r3
100058ee:	1c10      	adds	r0, r2, #0
100058f0:	1c19      	adds	r1, r3, #0
100058f2:	f7fe fa6b 	bl	10003dcc <CAN_NODE_MO_UpdateData>
	CAN_NODE_MO_Transmit((void*) CAN_NODE_0.lmobj_ptr[0]); //Transmit the data of message object1
100058f6:	4b05      	ldr	r3, [pc, #20]	; (1000590c <CAN_send_Speeds+0xac>)
100058f8:	68db      	ldr	r3, [r3, #12]
100058fa:	1c18      	adds	r0, r3, #0
100058fc:	f7fe fa36 	bl	10003d6c <CAN_NODE_MO_Transmit>

}
10005900:	46bd      	mov	sp, r7
10005902:	b004      	add	sp, #16
10005904:	bd80      	pop	{r7, pc}
10005906:	46c0      	nop			; (mov r8, r8)
10005908:	447a0000 	.word	0x447a0000
1000590c:	1000a94c 	.word	0x1000a94c

10005910 <IRQ8_Handler>:

void INTERRUPT_TIMER_10us_ISR(void){ // every 1ms so 10kHz
10005910:	b580      	push	{r7, lr}
10005912:	af00      	add	r7, sp, #0
	if(RC_Gear_state == 1)RC_gear_100us_counter ++;
10005914:	4b0a      	ldr	r3, [pc, #40]	; (10005940 <IRQ8_Handler+0x30>)
10005916:	781b      	ldrb	r3, [r3, #0]
10005918:	b2db      	uxtb	r3, r3
1000591a:	2b01      	cmp	r3, #1
1000591c:	d104      	bne.n	10005928 <IRQ8_Handler+0x18>
1000591e:	4b09      	ldr	r3, [pc, #36]	; (10005944 <IRQ8_Handler+0x34>)
10005920:	681b      	ldr	r3, [r3, #0]
10005922:	1c5a      	adds	r2, r3, #1
10005924:	4b07      	ldr	r3, [pc, #28]	; (10005944 <IRQ8_Handler+0x34>)
10005926:	601a      	str	r2, [r3, #0]
	if(RC_AUX1_state == 1)RC_AUX1_100us_counter ++;
10005928:	4b07      	ldr	r3, [pc, #28]	; (10005948 <IRQ8_Handler+0x38>)
1000592a:	781b      	ldrb	r3, [r3, #0]
1000592c:	b2db      	uxtb	r3, r3
1000592e:	2b01      	cmp	r3, #1
10005930:	d104      	bne.n	1000593c <IRQ8_Handler+0x2c>
10005932:	4b06      	ldr	r3, [pc, #24]	; (1000594c <IRQ8_Handler+0x3c>)
10005934:	681b      	ldr	r3, [r3, #0]
10005936:	1c5a      	adds	r2, r3, #1
10005938:	4b04      	ldr	r3, [pc, #16]	; (1000594c <IRQ8_Handler+0x3c>)
1000593a:	601a      	str	r2, [r3, #0]
}
1000593c:	46bd      	mov	sp, r7
1000593e:	bd80      	pop	{r7, pc}
10005940:	20000848 	.word	0x20000848
10005944:	200009c0 	.word	0x200009c0
10005948:	20000849 	.word	0x20000849
1000594c:	200009c4 	.word	0x200009c4

10005950 <Steering_set_Angles>:

void Steering_set_Angles(float Angles_data[4]){
10005950:	b590      	push	{r4, r7, lr}
10005952:	b085      	sub	sp, #20
10005954:	af00      	add	r7, sp, #0
10005956:	6078      	str	r0, [r7, #4]
	float deg_PWM = 0.645; // deg to PWM singlan converstion factor
10005958:	4b3e      	ldr	r3, [pc, #248]	; (10005a54 <Steering_set_Angles+0x104>)
1000595a:	60bb      	str	r3, [r7, #8]

	// calcuation of PWM for Angle on each wheel
	int i;
	for(i = 0 ; i < 4 ; i ++){
1000595c:	2300      	movs	r3, #0
1000595e:	60fb      	str	r3, [r7, #12]
10005960:	e01f      	b.n	100059a2 <Steering_set_Angles+0x52>
		Servo_PWMs[i] = Angles_data[i]*deg_PWM + NP[i];
10005962:	68fb      	ldr	r3, [r7, #12]
10005964:	009b      	lsls	r3, r3, #2
10005966:	687a      	ldr	r2, [r7, #4]
10005968:	18d3      	adds	r3, r2, r3
1000596a:	681b      	ldr	r3, [r3, #0]
1000596c:	1c18      	adds	r0, r3, #0
1000596e:	68b9      	ldr	r1, [r7, #8]
10005970:	f002 fae2 	bl	10007f38 <__aeabi_fmul>
10005974:	1c03      	adds	r3, r0, #0
10005976:	1c1c      	adds	r4, r3, #0
10005978:	4b37      	ldr	r3, [pc, #220]	; (10005a58 <Steering_set_Angles+0x108>)
1000597a:	68fa      	ldr	r2, [r7, #12]
1000597c:	0092      	lsls	r2, r2, #2
1000597e:	58d3      	ldr	r3, [r2, r3]
10005980:	1c18      	adds	r0, r3, #0
10005982:	f002 fda9 	bl	100084d8 <__aeabi_i2f>
10005986:	1c03      	adds	r3, r0, #0
10005988:	1c20      	adds	r0, r4, #0
1000598a:	1c19      	adds	r1, r3, #0
1000598c:	f001 ff66 	bl	1000785c <__aeabi_fadd>
10005990:	1c03      	adds	r3, r0, #0
10005992:	1c19      	adds	r1, r3, #0
10005994:	4b31      	ldr	r3, [pc, #196]	; (10005a5c <Steering_set_Angles+0x10c>)
10005996:	68fa      	ldr	r2, [r7, #12]
10005998:	0092      	lsls	r2, r2, #2
1000599a:	50d1      	str	r1, [r2, r3]
void Steering_set_Angles(float Angles_data[4]){
	float deg_PWM = 0.645; // deg to PWM singlan converstion factor

	// calcuation of PWM for Angle on each wheel
	int i;
	for(i = 0 ; i < 4 ; i ++){
1000599c:	68fb      	ldr	r3, [r7, #12]
1000599e:	3301      	adds	r3, #1
100059a0:	60fb      	str	r3, [r7, #12]
100059a2:	68fb      	ldr	r3, [r7, #12]
100059a4:	2b03      	cmp	r3, #3
100059a6:	dddc      	ble.n	10005962 <Steering_set_Angles+0x12>
		Servo_PWMs[i] = Angles_data[i]*deg_PWM + NP[i];
		}

	//limitinbg max servor Angle to 1.75 rot in each dirction
	for(i = 0 ; i < 4 ; i ++){
100059a8:	2300      	movs	r3, #0
100059aa:	60fb      	str	r3, [r7, #12]
100059ac:	e020      	b.n	100059f0 <Steering_set_Angles+0xa0>
		if(Servo_PWMs[i] > 950) { Servo_PWMs[i] = 950;}
100059ae:	4b2b      	ldr	r3, [pc, #172]	; (10005a5c <Steering_set_Angles+0x10c>)
100059b0:	68fa      	ldr	r2, [r7, #12]
100059b2:	0092      	lsls	r2, r2, #2
100059b4:	58d3      	ldr	r3, [r2, r3]
100059b6:	1c18      	adds	r0, r3, #0
100059b8:	4929      	ldr	r1, [pc, #164]	; (10005a60 <Steering_set_Angles+0x110>)
100059ba:	f001 fe85 	bl	100076c8 <__aeabi_fcmpgt>
100059be:	1e03      	subs	r3, r0, #0
100059c0:	d004      	beq.n	100059cc <Steering_set_Angles+0x7c>
100059c2:	4b26      	ldr	r3, [pc, #152]	; (10005a5c <Steering_set_Angles+0x10c>)
100059c4:	68fa      	ldr	r2, [r7, #12]
100059c6:	0092      	lsls	r2, r2, #2
100059c8:	4925      	ldr	r1, [pc, #148]	; (10005a60 <Steering_set_Angles+0x110>)
100059ca:	50d1      	str	r1, [r2, r3]
		if(Servo_PWMs[i] < 550) { Servo_PWMs[i] = 550;}
100059cc:	4b23      	ldr	r3, [pc, #140]	; (10005a5c <Steering_set_Angles+0x10c>)
100059ce:	68fa      	ldr	r2, [r7, #12]
100059d0:	0092      	lsls	r2, r2, #2
100059d2:	58d3      	ldr	r3, [r2, r3]
100059d4:	1c18      	adds	r0, r3, #0
100059d6:	4923      	ldr	r1, [pc, #140]	; (10005a64 <Steering_set_Angles+0x114>)
100059d8:	f001 fe62 	bl	100076a0 <__aeabi_fcmplt>
100059dc:	1e03      	subs	r3, r0, #0
100059de:	d004      	beq.n	100059ea <Steering_set_Angles+0x9a>
100059e0:	4b1e      	ldr	r3, [pc, #120]	; (10005a5c <Steering_set_Angles+0x10c>)
100059e2:	68fa      	ldr	r2, [r7, #12]
100059e4:	0092      	lsls	r2, r2, #2
100059e6:	491f      	ldr	r1, [pc, #124]	; (10005a64 <Steering_set_Angles+0x114>)
100059e8:	50d1      	str	r1, [r2, r3]
	for(i = 0 ; i < 4 ; i ++){
		Servo_PWMs[i] = Angles_data[i]*deg_PWM + NP[i];
		}

	//limitinbg max servor Angle to 1.75 rot in each dirction
	for(i = 0 ; i < 4 ; i ++){
100059ea:	68fb      	ldr	r3, [r7, #12]
100059ec:	3301      	adds	r3, #1
100059ee:	60fb      	str	r3, [r7, #12]
100059f0:	68fb      	ldr	r3, [r7, #12]
100059f2:	2b03      	cmp	r3, #3
100059f4:	dddb      	ble.n	100059ae <Steering_set_Angles+0x5e>
		if(Servo_PWMs[i] > 950) { Servo_PWMs[i] = 950;}
		if(Servo_PWMs[i] < 550) { Servo_PWMs[i] = 550;}
	}

	//seting PWM values
	PWM_SetDutyCycle(&PWM_servo_fl,Servo_PWMs[0]);
100059f6:	4b19      	ldr	r3, [pc, #100]	; (10005a5c <Steering_set_Angles+0x10c>)
100059f8:	681b      	ldr	r3, [r3, #0]
100059fa:	1c18      	adds	r0, r3, #0
100059fc:	f001 fee0 	bl	100077c0 <__aeabi_f2uiz>
10005a00:	1c02      	adds	r2, r0, #0
10005a02:	4b19      	ldr	r3, [pc, #100]	; (10005a68 <Steering_set_Angles+0x118>)
10005a04:	1c18      	adds	r0, r3, #0
10005a06:	1c11      	adds	r1, r2, #0
10005a08:	f7fd f996 	bl	10002d38 <PWM_SetDutyCycle>
	PWM_SetDutyCycle(&PWM_servo_fr,Servo_PWMs[1]);
10005a0c:	4b13      	ldr	r3, [pc, #76]	; (10005a5c <Steering_set_Angles+0x10c>)
10005a0e:	685b      	ldr	r3, [r3, #4]
10005a10:	1c18      	adds	r0, r3, #0
10005a12:	f001 fed5 	bl	100077c0 <__aeabi_f2uiz>
10005a16:	1c02      	adds	r2, r0, #0
10005a18:	4b14      	ldr	r3, [pc, #80]	; (10005a6c <Steering_set_Angles+0x11c>)
10005a1a:	1c18      	adds	r0, r3, #0
10005a1c:	1c11      	adds	r1, r2, #0
10005a1e:	f7fd f98b 	bl	10002d38 <PWM_SetDutyCycle>
	PWM_SetDutyCycle(&PWM_servo_rl,Servo_PWMs[2]);
10005a22:	4b0e      	ldr	r3, [pc, #56]	; (10005a5c <Steering_set_Angles+0x10c>)
10005a24:	689b      	ldr	r3, [r3, #8]
10005a26:	1c18      	adds	r0, r3, #0
10005a28:	f001 feca 	bl	100077c0 <__aeabi_f2uiz>
10005a2c:	1c02      	adds	r2, r0, #0
10005a2e:	4b10      	ldr	r3, [pc, #64]	; (10005a70 <Steering_set_Angles+0x120>)
10005a30:	1c18      	adds	r0, r3, #0
10005a32:	1c11      	adds	r1, r2, #0
10005a34:	f7fd f980 	bl	10002d38 <PWM_SetDutyCycle>
	PWM_SetDutyCycle(&PWM_servo_rr,Servo_PWMs[3]);
10005a38:	4b08      	ldr	r3, [pc, #32]	; (10005a5c <Steering_set_Angles+0x10c>)
10005a3a:	68db      	ldr	r3, [r3, #12]
10005a3c:	1c18      	adds	r0, r3, #0
10005a3e:	f001 febf 	bl	100077c0 <__aeabi_f2uiz>
10005a42:	1c02      	adds	r2, r0, #0
10005a44:	4b0b      	ldr	r3, [pc, #44]	; (10005a74 <Steering_set_Angles+0x124>)
10005a46:	1c18      	adds	r0, r3, #0
10005a48:	1c11      	adds	r1, r2, #0
10005a4a:	f7fd f975 	bl	10002d38 <PWM_SetDutyCycle>

}
10005a4e:	46bd      	mov	sp, r7
10005a50:	b005      	add	sp, #20
10005a52:	bd90      	pop	{r4, r7, pc}
10005a54:	3f251eb8 	.word	0x3f251eb8
10005a58:	20000828 	.word	0x20000828
10005a5c:	20000a10 	.word	0x20000a10
10005a60:	446d8000 	.word	0x446d8000
10005a64:	44098000 	.word	0x44098000
10005a68:	200005dc 	.word	0x200005dc
10005a6c:	20000610 	.word	0x20000610
10005a70:	20000644 	.word	0x20000644
10005a74:	20000678 	.word	0x20000678

10005a78 <RC_Recive>:

void RC_Recive(void){
10005a78:	b5f8      	push	{r3, r4, r5, r6, r7, lr}
10005a7a:	af00      	add	r7, sp, #0

	CAPTURE_Start(&CAPTURE_RC_Steering);
10005a7c:	4b78      	ldr	r3, [pc, #480]	; (10005c60 <RC_Recive+0x1e8>)
10005a7e:	1c18      	adds	r0, r3, #0
10005a80:	f7fd fda0 	bl	100035c4 <CAPTURE_Start>
	CAPTURE_Start(&CAPTURE_RC_Speed);
10005a84:	4b77      	ldr	r3, [pc, #476]	; (10005c64 <RC_Recive+0x1ec>)
10005a86:	1c18      	adds	r0, r3, #0
10005a88:	f7fd fd9c 	bl	100035c4 <CAPTURE_Start>

	CAPTURE_GetCapturedTimeInNanoSec(&CAPTURE_RC_Steering, &captured_time_Steering);
10005a8c:	4a74      	ldr	r2, [pc, #464]	; (10005c60 <RC_Recive+0x1e8>)
10005a8e:	4b76      	ldr	r3, [pc, #472]	; (10005c68 <RC_Recive+0x1f0>)
10005a90:	1c10      	adds	r0, r2, #0
10005a92:	1c19      	adds	r1, r3, #0
10005a94:	f7fd fdcc 	bl	10003630 <CAPTURE_GetCapturedTimeInNanoSec>
	CAPTURE_GetCapturedTimeInNanoSec(&CAPTURE_RC_Speed, &captured_time_Speed);
10005a98:	4a72      	ldr	r2, [pc, #456]	; (10005c64 <RC_Recive+0x1ec>)
10005a9a:	4b74      	ldr	r3, [pc, #464]	; (10005c6c <RC_Recive+0x1f4>)
10005a9c:	1c10      	adds	r0, r2, #0
10005a9e:	1c19      	adds	r1, r3, #0
10005aa0:	f7fd fdc6 	bl	10003630 <CAPTURE_GetCapturedTimeInNanoSec>

	if(RC_Speed_Stop == 1){
10005aa4:	4b72      	ldr	r3, [pc, #456]	; (10005c70 <RC_Recive+0x1f8>)
10005aa6:	781b      	ldrb	r3, [r3, #0]
10005aa8:	2b01      	cmp	r3, #1
10005aaa:	d15c      	bne.n	10005b66 <RC_Recive+0xee>
		if((captured_time_Speed >= 1000000) && (captured_time_Speed <= 2000000)){
10005aac:	4b6f      	ldr	r3, [pc, #444]	; (10005c6c <RC_Recive+0x1f4>)
10005aae:	681b      	ldr	r3, [r3, #0]
10005ab0:	4a70      	ldr	r2, [pc, #448]	; (10005c74 <RC_Recive+0x1fc>)
10005ab2:	4293      	cmp	r3, r2
10005ab4:	d950      	bls.n	10005b58 <RC_Recive+0xe0>
10005ab6:	4b6d      	ldr	r3, [pc, #436]	; (10005c6c <RC_Recive+0x1f4>)
10005ab8:	681b      	ldr	r3, [r3, #0]
10005aba:	4a6f      	ldr	r2, [pc, #444]	; (10005c78 <RC_Recive+0x200>)
10005abc:	4293      	cmp	r3, r2
10005abe:	d84b      	bhi.n	10005b58 <RC_Recive+0xe0>
		  RC_Speed = ((double)captured_time_Speed - RC_NP_SPEED) * RC_Speed_ns_to_mps; // form +-0.6m/s
10005ac0:	4b6a      	ldr	r3, [pc, #424]	; (10005c6c <RC_Recive+0x1f4>)
10005ac2:	681b      	ldr	r3, [r3, #0]
10005ac4:	1c18      	adds	r0, r3, #0
10005ac6:	f004 fb3b 	bl	1000a140 <__aeabi_ui2d>
10005aca:	1c03      	adds	r3, r0, #0
10005acc:	1c0c      	adds	r4, r1, #0
10005ace:	1c18      	adds	r0, r3, #0
10005ad0:	1c21      	adds	r1, r4, #0
10005ad2:	2200      	movs	r2, #0
10005ad4:	4b69      	ldr	r3, [pc, #420]	; (10005c7c <RC_Recive+0x204>)
10005ad6:	f003 ff47 	bl	10009968 <__aeabi_dsub>
10005ada:	1c03      	adds	r3, r0, #0
10005adc:	1c0c      	adds	r4, r1, #0
10005ade:	1c1d      	adds	r5, r3, #0
10005ae0:	1c26      	adds	r6, r4, #0
10005ae2:	4b67      	ldr	r3, [pc, #412]	; (10005c80 <RC_Recive+0x208>)
10005ae4:	681b      	ldr	r3, [r3, #0]
10005ae6:	1c18      	adds	r0, r3, #0
10005ae8:	f004 fb5c 	bl	1000a1a4 <__aeabi_f2d>
10005aec:	1c03      	adds	r3, r0, #0
10005aee:	1c0c      	adds	r4, r1, #0
10005af0:	1c28      	adds	r0, r5, #0
10005af2:	1c31      	adds	r1, r6, #0
10005af4:	1c1a      	adds	r2, r3, #0
10005af6:	1c23      	adds	r3, r4, #0
10005af8:	f003 fc9c 	bl	10009434 <__aeabi_dmul>
10005afc:	1c03      	adds	r3, r0, #0
10005afe:	1c0c      	adds	r4, r1, #0
10005b00:	1c18      	adds	r0, r3, #0
10005b02:	1c21      	adds	r1, r4, #0
10005b04:	f004 fba2 	bl	1000a24c <__aeabi_d2f>
10005b08:	1c02      	adds	r2, r0, #0
10005b0a:	4b5e      	ldr	r3, [pc, #376]	; (10005c84 <RC_Recive+0x20c>)
10005b0c:	601a      	str	r2, [r3, #0]
		  if((RC_Speed < 0.1) && (RC_Speed > -0.1)) RC_Speed = 0; // to have accutal 0
10005b0e:	4b5d      	ldr	r3, [pc, #372]	; (10005c84 <RC_Recive+0x20c>)
10005b10:	681b      	ldr	r3, [r3, #0]
10005b12:	1c18      	adds	r0, r3, #0
10005b14:	f004 fb46 	bl	1000a1a4 <__aeabi_f2d>
10005b18:	1c03      	adds	r3, r0, #0
10005b1a:	1c0c      	adds	r4, r1, #0
10005b1c:	1c18      	adds	r0, r3, #0
10005b1e:	1c21      	adds	r1, r4, #0
10005b20:	4a59      	ldr	r2, [pc, #356]	; (10005c88 <RC_Recive+0x210>)
10005b22:	4b5a      	ldr	r3, [pc, #360]	; (10005c8c <RC_Recive+0x214>)
10005b24:	f001 fd82 	bl	1000762c <__aeabi_dcmplt>
10005b28:	1e03      	subs	r3, r0, #0
10005b2a:	d011      	beq.n	10005b50 <RC_Recive+0xd8>
10005b2c:	4b55      	ldr	r3, [pc, #340]	; (10005c84 <RC_Recive+0x20c>)
10005b2e:	681b      	ldr	r3, [r3, #0]
10005b30:	1c18      	adds	r0, r3, #0
10005b32:	f004 fb37 	bl	1000a1a4 <__aeabi_f2d>
10005b36:	1c03      	adds	r3, r0, #0
10005b38:	1c0c      	adds	r4, r1, #0
10005b3a:	1c18      	adds	r0, r3, #0
10005b3c:	1c21      	adds	r1, r4, #0
10005b3e:	4a52      	ldr	r2, [pc, #328]	; (10005c88 <RC_Recive+0x210>)
10005b40:	4b53      	ldr	r3, [pc, #332]	; (10005c90 <RC_Recive+0x218>)
10005b42:	f001 fd87 	bl	10007654 <__aeabi_dcmpgt>
10005b46:	1e03      	subs	r3, r0, #0
10005b48:	d002      	beq.n	10005b50 <RC_Recive+0xd8>
10005b4a:	4b4e      	ldr	r3, [pc, #312]	; (10005c84 <RC_Recive+0x20c>)
10005b4c:	2200      	movs	r2, #0
10005b4e:	601a      	str	r2, [r3, #0]
		  RC_no_Speed_data_counter = 0;
10005b50:	4b50      	ldr	r3, [pc, #320]	; (10005c94 <RC_Recive+0x21c>)
10005b52:	2200      	movs	r2, #0
10005b54:	701a      	strb	r2, [r3, #0]
10005b56:	e009      	b.n	10005b6c <RC_Recive+0xf4>
		}
		else{
			RC_no_Speed_data_counter ++;
10005b58:	4b4e      	ldr	r3, [pc, #312]	; (10005c94 <RC_Recive+0x21c>)
10005b5a:	781b      	ldrb	r3, [r3, #0]
10005b5c:	3301      	adds	r3, #1
10005b5e:	b2da      	uxtb	r2, r3
10005b60:	4b4c      	ldr	r3, [pc, #304]	; (10005c94 <RC_Recive+0x21c>)
10005b62:	701a      	strb	r2, [r3, #0]
10005b64:	e002      	b.n	10005b6c <RC_Recive+0xf4>
		}
	}
	else RC_Speed = 0;
10005b66:	4b47      	ldr	r3, [pc, #284]	; (10005c84 <RC_Recive+0x20c>)
10005b68:	2200      	movs	r2, #0
10005b6a:	601a      	str	r2, [r3, #0]

	if((captured_time_Steering >= 1000000) && (captured_time_Steering <= 2000000)){
10005b6c:	4b3e      	ldr	r3, [pc, #248]	; (10005c68 <RC_Recive+0x1f0>)
10005b6e:	681b      	ldr	r3, [r3, #0]
10005b70:	4a40      	ldr	r2, [pc, #256]	; (10005c74 <RC_Recive+0x1fc>)
10005b72:	4293      	cmp	r3, r2
10005b74:	d944      	bls.n	10005c00 <RC_Recive+0x188>
10005b76:	4b3c      	ldr	r3, [pc, #240]	; (10005c68 <RC_Recive+0x1f0>)
10005b78:	681b      	ldr	r3, [r3, #0]
10005b7a:	4a3f      	ldr	r2, [pc, #252]	; (10005c78 <RC_Recive+0x200>)
10005b7c:	4293      	cmp	r3, r2
10005b7e:	d83f      	bhi.n	10005c00 <RC_Recive+0x188>
	  RC_Steering = (((double)captured_time_Steering - RC_NP_STEERING) * RC_Steering_ns_to_deg); // form +-90m/s
10005b80:	4b39      	ldr	r3, [pc, #228]	; (10005c68 <RC_Recive+0x1f0>)
10005b82:	681b      	ldr	r3, [r3, #0]
10005b84:	1c18      	adds	r0, r3, #0
10005b86:	f004 fadb 	bl	1000a140 <__aeabi_ui2d>
10005b8a:	1c03      	adds	r3, r0, #0
10005b8c:	1c0c      	adds	r4, r1, #0
10005b8e:	1c18      	adds	r0, r3, #0
10005b90:	1c21      	adds	r1, r4, #0
10005b92:	2200      	movs	r2, #0
10005b94:	4b40      	ldr	r3, [pc, #256]	; (10005c98 <RC_Recive+0x220>)
10005b96:	f003 fee7 	bl	10009968 <__aeabi_dsub>
10005b9a:	1c03      	adds	r3, r0, #0
10005b9c:	1c0c      	adds	r4, r1, #0
10005b9e:	1c1d      	adds	r5, r3, #0
10005ba0:	1c26      	adds	r6, r4, #0
10005ba2:	4b3e      	ldr	r3, [pc, #248]	; (10005c9c <RC_Recive+0x224>)
10005ba4:	681b      	ldr	r3, [r3, #0]
10005ba6:	1c18      	adds	r0, r3, #0
10005ba8:	f004 fafc 	bl	1000a1a4 <__aeabi_f2d>
10005bac:	1c03      	adds	r3, r0, #0
10005bae:	1c0c      	adds	r4, r1, #0
10005bb0:	1c28      	adds	r0, r5, #0
10005bb2:	1c31      	adds	r1, r6, #0
10005bb4:	1c1a      	adds	r2, r3, #0
10005bb6:	1c23      	adds	r3, r4, #0
10005bb8:	f003 fc3c 	bl	10009434 <__aeabi_dmul>
10005bbc:	1c03      	adds	r3, r0, #0
10005bbe:	1c0c      	adds	r4, r1, #0
10005bc0:	1c18      	adds	r0, r3, #0
10005bc2:	1c21      	adds	r1, r4, #0
10005bc4:	f004 fb42 	bl	1000a24c <__aeabi_d2f>
10005bc8:	1c02      	adds	r2, r0, #0
10005bca:	4b35      	ldr	r3, [pc, #212]	; (10005ca0 <RC_Recive+0x228>)
10005bcc:	601a      	str	r2, [r3, #0]
	  if((RC_Steering < 2) && (RC_Steering > -2)) RC_Steering = 0; // to have accutal 0
10005bce:	4b34      	ldr	r3, [pc, #208]	; (10005ca0 <RC_Recive+0x228>)
10005bd0:	681b      	ldr	r3, [r3, #0]
10005bd2:	1c18      	adds	r0, r3, #0
10005bd4:	2180      	movs	r1, #128	; 0x80
10005bd6:	05c9      	lsls	r1, r1, #23
10005bd8:	f001 fd62 	bl	100076a0 <__aeabi_fcmplt>
10005bdc:	1e03      	subs	r3, r0, #0
10005bde:	d00b      	beq.n	10005bf8 <RC_Recive+0x180>
10005be0:	4b2f      	ldr	r3, [pc, #188]	; (10005ca0 <RC_Recive+0x228>)
10005be2:	681b      	ldr	r3, [r3, #0]
10005be4:	1c18      	adds	r0, r3, #0
10005be6:	21c0      	movs	r1, #192	; 0xc0
10005be8:	0609      	lsls	r1, r1, #24
10005bea:	f001 fd6d 	bl	100076c8 <__aeabi_fcmpgt>
10005bee:	1e03      	subs	r3, r0, #0
10005bf0:	d002      	beq.n	10005bf8 <RC_Recive+0x180>
10005bf2:	4b2b      	ldr	r3, [pc, #172]	; (10005ca0 <RC_Recive+0x228>)
10005bf4:	2200      	movs	r2, #0
10005bf6:	601a      	str	r2, [r3, #0]
	  RC_no_Steering_data_counter = 0;
10005bf8:	4b2a      	ldr	r3, [pc, #168]	; (10005ca4 <RC_Recive+0x22c>)
10005bfa:	2200      	movs	r2, #0
10005bfc:	701a      	strb	r2, [r3, #0]
10005bfe:	e005      	b.n	10005c0c <RC_Recive+0x194>
	}
	else{
	  RC_no_Steering_data_counter ++;
10005c00:	4b28      	ldr	r3, [pc, #160]	; (10005ca4 <RC_Recive+0x22c>)
10005c02:	781b      	ldrb	r3, [r3, #0]
10005c04:	3301      	adds	r3, #1
10005c06:	b2da      	uxtb	r2, r3
10005c08:	4b26      	ldr	r3, [pc, #152]	; (10005ca4 <RC_Recive+0x22c>)
10005c0a:	701a      	strb	r2, [r3, #0]
	}

	if(RC_no_Speed_data_counter > 20 || RC_no_Steering_data_counter > 20 ){ // internall values not ok
10005c0c:	4b21      	ldr	r3, [pc, #132]	; (10005c94 <RC_Recive+0x21c>)
10005c0e:	781b      	ldrb	r3, [r3, #0]
10005c10:	2b14      	cmp	r3, #20
10005c12:	d803      	bhi.n	10005c1c <RC_Recive+0x1a4>
10005c14:	4b23      	ldr	r3, [pc, #140]	; (10005ca4 <RC_Recive+0x22c>)
10005c16:	781b      	ldrb	r3, [r3, #0]
10005c18:	2b14      	cmp	r3, #20
10005c1a:	d910      	bls.n	10005c3e <RC_Recive+0x1c6>
	  DIGITAL_IO_SetOutputLow(&RC_no_data_LED);
10005c1c:	4b22      	ldr	r3, [pc, #136]	; (10005ca8 <RC_Recive+0x230>)
10005c1e:	1c18      	adds	r0, r3, #0
10005c20:	f7fe fb2c 	bl	1000427c <DIGITAL_IO_SetOutputLow>
	  RC_no_Speed_data_counter = 20;
10005c24:	4b1b      	ldr	r3, [pc, #108]	; (10005c94 <RC_Recive+0x21c>)
10005c26:	2214      	movs	r2, #20
10005c28:	701a      	strb	r2, [r3, #0]
	  RC_no_Steering_data_counter = 20;
10005c2a:	4b1e      	ldr	r3, [pc, #120]	; (10005ca4 <RC_Recive+0x22c>)
10005c2c:	2214      	movs	r2, #20
10005c2e:	701a      	strb	r2, [r3, #0]

	  //set gobal vars 0
	  Driving_speed = 0;
10005c30:	4b1e      	ldr	r3, [pc, #120]	; (10005cac <RC_Recive+0x234>)
10005c32:	2200      	movs	r2, #0
10005c34:	601a      	str	r2, [r3, #0]
	  Steering_direction = 0;
10005c36:	4b1e      	ldr	r3, [pc, #120]	; (10005cb0 <RC_Recive+0x238>)
10005c38:	2200      	movs	r2, #0
10005c3a:	601a      	str	r2, [r3, #0]
10005c3c:	e00b      	b.n	10005c56 <RC_Recive+0x1de>
	}
	else{ // values filternig
	  DIGITAL_IO_SetOutputHigh(&RC_no_data_LED);
10005c3e:	4b1a      	ldr	r3, [pc, #104]	; (10005ca8 <RC_Recive+0x230>)
10005c40:	1c18      	adds	r0, r3, #0
10005c42:	f7fe fb0b 	bl	1000425c <DIGITAL_IO_SetOutputHigh>

	  //set gobal vars stanart
	  Driving_speed = RC_Speed;
10005c46:	4b0f      	ldr	r3, [pc, #60]	; (10005c84 <RC_Recive+0x20c>)
10005c48:	681a      	ldr	r2, [r3, #0]
10005c4a:	4b18      	ldr	r3, [pc, #96]	; (10005cac <RC_Recive+0x234>)
10005c4c:	601a      	str	r2, [r3, #0]
	  Steering_direction = RC_Steering;
10005c4e:	4b14      	ldr	r3, [pc, #80]	; (10005ca0 <RC_Recive+0x228>)
10005c50:	681a      	ldr	r2, [r3, #0]
10005c52:	4b17      	ldr	r3, [pc, #92]	; (10005cb0 <RC_Recive+0x238>)
10005c54:	601a      	str	r2, [r3, #0]
	}

	New_Input = 1; //goalb var to tell it that there in new data to calculate
10005c56:	4b17      	ldr	r3, [pc, #92]	; (10005cb4 <RC_Recive+0x23c>)
10005c58:	2201      	movs	r2, #1
10005c5a:	701a      	strb	r2, [r3, #0]
}
10005c5c:	46bd      	mov	sp, r7
10005c5e:	bdf8      	pop	{r3, r4, r5, r6, r7, pc}
10005c60:	200006e0 	.word	0x200006e0
10005c64:	20000714 	.word	0x20000714
10005c68:	200009ac 	.word	0x200009ac
10005c6c:	200009b0 	.word	0x200009b0
10005c70:	2000084d 	.word	0x2000084d
10005c74:	000f423f 	.word	0x000f423f
10005c78:	001e8480 	.word	0x001e8480
10005c7c:	4136e360 	.word	0x4136e360
10005c80:	20000840 	.word	0x20000840
10005c84:	200009b8 	.word	0x200009b8
10005c88:	9999999a 	.word	0x9999999a
10005c8c:	3fb99999 	.word	0x3fb99999
10005c90:	bfb99999 	.word	0xbfb99999
10005c94:	200009b4 	.word	0x200009b4
10005c98:	41377fa0 	.word	0x41377fa0
10005c9c:	20000844 	.word	0x20000844
10005ca0:	200009bc 	.word	0x200009bc
10005ca4:	200009b5 	.word	0x200009b5
10005ca8:	1000a808 	.word	0x1000a808
10005cac:	200009cc 	.word	0x200009cc
10005cb0:	200009c8 	.word	0x200009c8
10005cb4:	20000964 	.word	0x20000964

10005cb8 <IRQ12_Handler>:

void RC_Connected_ISR(void){
10005cb8:	b580      	push	{r7, lr}
10005cba:	b082      	sub	sp, #8
10005cbc:	af00      	add	r7, sp, #0

	if(RC_controll == 1){
10005cbe:	4b29      	ldr	r3, [pc, #164]	; (10005d64 <IRQ12_Handler+0xac>)
10005cc0:	781b      	ldrb	r3, [r3, #0]
10005cc2:	b2db      	uxtb	r3, r3
10005cc4:	2b01      	cmp	r3, #1
10005cc6:	d149      	bne.n	10005d5c <IRQ12_Handler+0xa4>

		RC_Gear_state =  PIN_INTERRUPT_GetPinValue(&RC_Connected); // pin haig or low
10005cc8:	4b27      	ldr	r3, [pc, #156]	; (10005d68 <IRQ12_Handler+0xb0>)
10005cca:	1c18      	adds	r0, r3, #0
10005ccc:	f7fe fae6 	bl	1000429c <PIN_INTERRUPT_GetPinValue>
10005cd0:	1c03      	adds	r3, r0, #0
10005cd2:	b2da      	uxtb	r2, r3
10005cd4:	4b25      	ldr	r3, [pc, #148]	; (10005d6c <IRQ12_Handler+0xb4>)
10005cd6:	701a      	strb	r2, [r3, #0]

		if(RC_Gear_state == 0){// do nothing during high
10005cd8:	4b24      	ldr	r3, [pc, #144]	; (10005d6c <IRQ12_Handler+0xb4>)
10005cda:	781b      	ldrb	r3, [r3, #0]
10005cdc:	b2db      	uxtb	r3, r3
10005cde:	2b00      	cmp	r3, #0
10005ce0:	d13c      	bne.n	10005d5c <IRQ12_Handler+0xa4>

			RC_Recive(); // get speed and steering data
10005ce2:	f7ff fec9 	bl	10005a78 <RC_Recive>

			uint32_t RC_Gear_on_time_100us = RC_gear_100us_counter;
10005ce6:	4b22      	ldr	r3, [pc, #136]	; (10005d70 <IRQ12_Handler+0xb8>)
10005ce8:	681b      	ldr	r3, [r3, #0]
10005cea:	607b      	str	r3, [r7, #4]
			RC_gear_100us_counter = 0;
10005cec:	4b20      	ldr	r3, [pc, #128]	; (10005d70 <IRQ12_Handler+0xb8>)
10005cee:	2200      	movs	r2, #0
10005cf0:	601a      	str	r2, [r3, #0]

			if((80 < RC_Gear_on_time_100us) && (RC_Gear_on_time_100us < 150)) RC_Gear_duty= 0;
10005cf2:	687b      	ldr	r3, [r7, #4]
10005cf4:	2b50      	cmp	r3, #80	; 0x50
10005cf6:	d906      	bls.n	10005d06 <IRQ12_Handler+0x4e>
10005cf8:	687b      	ldr	r3, [r7, #4]
10005cfa:	2b95      	cmp	r3, #149	; 0x95
10005cfc:	d803      	bhi.n	10005d06 <IRQ12_Handler+0x4e>
10005cfe:	4b1d      	ldr	r3, [pc, #116]	; (10005d74 <IRQ12_Handler+0xbc>)
10005d00:	2200      	movs	r2, #0
10005d02:	701a      	strb	r2, [r3, #0]
10005d04:	e00c      	b.n	10005d20 <IRQ12_Handler+0x68>
			else if ((150 < RC_Gear_on_time_100us) && (RC_Gear_on_time_100us < 210)) RC_Gear_duty = 1;
10005d06:	687b      	ldr	r3, [r7, #4]
10005d08:	2b96      	cmp	r3, #150	; 0x96
10005d0a:	d906      	bls.n	10005d1a <IRQ12_Handler+0x62>
10005d0c:	687b      	ldr	r3, [r7, #4]
10005d0e:	2bd1      	cmp	r3, #209	; 0xd1
10005d10:	d803      	bhi.n	10005d1a <IRQ12_Handler+0x62>
10005d12:	4b18      	ldr	r3, [pc, #96]	; (10005d74 <IRQ12_Handler+0xbc>)
10005d14:	2201      	movs	r2, #1
10005d16:	701a      	strb	r2, [r3, #0]
10005d18:	e002      	b.n	10005d20 <IRQ12_Handler+0x68>
			else RC_Gear_duty = 2;
10005d1a:	4b16      	ldr	r3, [pc, #88]	; (10005d74 <IRQ12_Handler+0xbc>)
10005d1c:	2202      	movs	r2, #2
10005d1e:	701a      	strb	r2, [r3, #0]

			if(RC_Gear_duty == 1 && RC_Gear_duty_OLD == 0){
10005d20:	4b14      	ldr	r3, [pc, #80]	; (10005d74 <IRQ12_Handler+0xbc>)
10005d22:	781b      	ldrb	r3, [r3, #0]
10005d24:	b2db      	uxtb	r3, r3
10005d26:	2b01      	cmp	r3, #1
10005d28:	d113      	bne.n	10005d52 <IRQ12_Handler+0x9a>
10005d2a:	4b13      	ldr	r3, [pc, #76]	; (10005d78 <IRQ12_Handler+0xc0>)
10005d2c:	781b      	ldrb	r3, [r3, #0]
10005d2e:	b2db      	uxtb	r3, r3
10005d30:	2b00      	cmp	r3, #0
10005d32:	d10e      	bne.n	10005d52 <IRQ12_Handler+0x9a>
				Steering_mode ++;
10005d34:	4b11      	ldr	r3, [pc, #68]	; (10005d7c <IRQ12_Handler+0xc4>)
10005d36:	781b      	ldrb	r3, [r3, #0]
10005d38:	b2db      	uxtb	r3, r3
10005d3a:	3301      	adds	r3, #1
10005d3c:	b2da      	uxtb	r2, r3
10005d3e:	4b0f      	ldr	r3, [pc, #60]	; (10005d7c <IRQ12_Handler+0xc4>)
10005d40:	701a      	strb	r2, [r3, #0]
				if(Steering_mode > 5)Steering_mode = 0;
10005d42:	4b0e      	ldr	r3, [pc, #56]	; (10005d7c <IRQ12_Handler+0xc4>)
10005d44:	781b      	ldrb	r3, [r3, #0]
10005d46:	b2db      	uxtb	r3, r3
10005d48:	2b05      	cmp	r3, #5
10005d4a:	d902      	bls.n	10005d52 <IRQ12_Handler+0x9a>
10005d4c:	4b0b      	ldr	r3, [pc, #44]	; (10005d7c <IRQ12_Handler+0xc4>)
10005d4e:	2200      	movs	r2, #0
10005d50:	701a      	strb	r2, [r3, #0]
			}
		RC_Gear_duty_OLD = RC_Gear_duty;
10005d52:	4b08      	ldr	r3, [pc, #32]	; (10005d74 <IRQ12_Handler+0xbc>)
10005d54:	781b      	ldrb	r3, [r3, #0]
10005d56:	b2da      	uxtb	r2, r3
10005d58:	4b07      	ldr	r3, [pc, #28]	; (10005d78 <IRQ12_Handler+0xc0>)
10005d5a:	701a      	strb	r2, [r3, #0]
		}
	}
}
10005d5c:	46bd      	mov	sp, r7
10005d5e:	b002      	add	sp, #8
10005d60:	bd80      	pop	{r7, pc}
10005d62:	46c0      	nop			; (mov r8, r8)
10005d64:	20000838 	.word	0x20000838
10005d68:	1000a7a0 	.word	0x1000a7a0
10005d6c:	20000848 	.word	0x20000848
10005d70:	200009c0 	.word	0x200009c0
10005d74:	2000084a 	.word	0x2000084a
10005d78:	2000084b 	.word	0x2000084b
10005d7c:	20000839 	.word	0x20000839

10005d80 <IRQ6_Handler>:

void RC_AUX1_ISR(void){
10005d80:	b580      	push	{r7, lr}
10005d82:	b082      	sub	sp, #8
10005d84:	af00      	add	r7, sp, #0
	if(RC_controll == 1){
10005d86:	4b1f      	ldr	r3, [pc, #124]	; (10005e04 <IRQ6_Handler+0x84>)
10005d88:	781b      	ldrb	r3, [r3, #0]
10005d8a:	b2db      	uxtb	r3, r3
10005d8c:	2b01      	cmp	r3, #1
10005d8e:	d135      	bne.n	10005dfc <IRQ6_Handler+0x7c>
		RC_AUX1_state =  PIN_INTERRUPT_GetPinValue(&RC_AUX1); // pin haig or low
10005d90:	4b1d      	ldr	r3, [pc, #116]	; (10005e08 <IRQ6_Handler+0x88>)
10005d92:	1c18      	adds	r0, r3, #0
10005d94:	f7fe fa82 	bl	1000429c <PIN_INTERRUPT_GetPinValue>
10005d98:	1c03      	adds	r3, r0, #0
10005d9a:	b2da      	uxtb	r2, r3
10005d9c:	4b1b      	ldr	r3, [pc, #108]	; (10005e0c <IRQ6_Handler+0x8c>)
10005d9e:	701a      	strb	r2, [r3, #0]

		if(RC_AUX1_state == 0){// do nothing during high
10005da0:	4b1a      	ldr	r3, [pc, #104]	; (10005e0c <IRQ6_Handler+0x8c>)
10005da2:	781b      	ldrb	r3, [r3, #0]
10005da4:	b2db      	uxtb	r3, r3
10005da6:	2b00      	cmp	r3, #0
10005da8:	d128      	bne.n	10005dfc <IRQ6_Handler+0x7c>
			uint32_t RC_AUX1_on_time_100us = RC_AUX1_100us_counter;
10005daa:	4b19      	ldr	r3, [pc, #100]	; (10005e10 <IRQ6_Handler+0x90>)
10005dac:	681b      	ldr	r3, [r3, #0]
10005dae:	607b      	str	r3, [r7, #4]
			RC_AUX1_100us_counter = 0;
10005db0:	4b17      	ldr	r3, [pc, #92]	; (10005e10 <IRQ6_Handler+0x90>)
10005db2:	2200      	movs	r2, #0
10005db4:	601a      	str	r2, [r3, #0]

			if((80 < RC_AUX1_on_time_100us) && (RC_AUX1_on_time_100us < 150)) RC_AUX1_duty= 0;
10005db6:	687b      	ldr	r3, [r7, #4]
10005db8:	2b50      	cmp	r3, #80	; 0x50
10005dba:	d906      	bls.n	10005dca <IRQ6_Handler+0x4a>
10005dbc:	687b      	ldr	r3, [r7, #4]
10005dbe:	2b95      	cmp	r3, #149	; 0x95
10005dc0:	d803      	bhi.n	10005dca <IRQ6_Handler+0x4a>
10005dc2:	4b14      	ldr	r3, [pc, #80]	; (10005e14 <IRQ6_Handler+0x94>)
10005dc4:	2200      	movs	r2, #0
10005dc6:	701a      	strb	r2, [r3, #0]
10005dc8:	e00c      	b.n	10005de4 <IRQ6_Handler+0x64>
			else if ((150 < RC_AUX1_on_time_100us) && (RC_AUX1_on_time_100us < 210)) RC_AUX1_duty = 1;
10005dca:	687b      	ldr	r3, [r7, #4]
10005dcc:	2b96      	cmp	r3, #150	; 0x96
10005dce:	d906      	bls.n	10005dde <IRQ6_Handler+0x5e>
10005dd0:	687b      	ldr	r3, [r7, #4]
10005dd2:	2bd1      	cmp	r3, #209	; 0xd1
10005dd4:	d803      	bhi.n	10005dde <IRQ6_Handler+0x5e>
10005dd6:	4b0f      	ldr	r3, [pc, #60]	; (10005e14 <IRQ6_Handler+0x94>)
10005dd8:	2201      	movs	r2, #1
10005dda:	701a      	strb	r2, [r3, #0]
10005ddc:	e002      	b.n	10005de4 <IRQ6_Handler+0x64>
			else RC_AUX1_duty = 2;
10005dde:	4b0d      	ldr	r3, [pc, #52]	; (10005e14 <IRQ6_Handler+0x94>)
10005de0:	2202      	movs	r2, #2
10005de2:	701a      	strb	r2, [r3, #0]


			if(RC_AUX1_duty == 1)RC_Speed_Stop = 1;
10005de4:	4b0b      	ldr	r3, [pc, #44]	; (10005e14 <IRQ6_Handler+0x94>)
10005de6:	781b      	ldrb	r3, [r3, #0]
10005de8:	b2db      	uxtb	r3, r3
10005dea:	2b01      	cmp	r3, #1
10005dec:	d103      	bne.n	10005df6 <IRQ6_Handler+0x76>
10005dee:	4b0a      	ldr	r3, [pc, #40]	; (10005e18 <IRQ6_Handler+0x98>)
10005df0:	2201      	movs	r2, #1
10005df2:	701a      	strb	r2, [r3, #0]
10005df4:	e002      	b.n	10005dfc <IRQ6_Handler+0x7c>
			else RC_Speed_Stop = 0;
10005df6:	4b08      	ldr	r3, [pc, #32]	; (10005e18 <IRQ6_Handler+0x98>)
10005df8:	2200      	movs	r2, #0
10005dfa:	701a      	strb	r2, [r3, #0]
		}
	}
}
10005dfc:	46bd      	mov	sp, r7
10005dfe:	b002      	add	sp, #8
10005e00:	bd80      	pop	{r7, pc}
10005e02:	46c0      	nop			; (mov r8, r8)
10005e04:	20000838 	.word	0x20000838
10005e08:	1000a7c0 	.word	0x1000a7c0
10005e0c:	20000849 	.word	0x20000849
10005e10:	200009c4 	.word	0x200009c4
10005e14:	2000084c 	.word	0x2000084c
10005e18:	2000084d 	.word	0x2000084d

10005e1c <IRQ7_Handler>:

void TIMER_CONTROL_ISR(void){
10005e1c:	b580      	push	{r7, lr}
10005e1e:	b082      	sub	sp, #8
10005e20:	af00      	add	r7, sp, #0
	DIGITAL_IO_SetOutputHigh(&CALC_TIME_INDICATOR);
10005e22:	4b3a      	ldr	r3, [pc, #232]	; (10005f0c <IRQ7_Handler+0xf0>)
10005e24:	1c18      	adds	r0, r3, #0
10005e26:	f7fe fa19 	bl	1000425c <DIGITAL_IO_SetOutputHigh>
	mode_led(Steering_mode);
10005e2a:	4b39      	ldr	r3, [pc, #228]	; (10005f10 <IRQ7_Handler+0xf4>)
10005e2c:	781b      	ldrb	r3, [r3, #0]
10005e2e:	b2db      	uxtb	r3, r3
10005e30:	1c18      	adds	r0, r3, #0
10005e32:	f000 f883 	bl	10005f3c <mode_led>

	if(RC_controll == 1){
10005e36:	4b37      	ldr	r3, [pc, #220]	; (10005f14 <IRQ7_Handler+0xf8>)
10005e38:	781b      	ldrb	r3, [r3, #0]
10005e3a:	b2db      	uxtb	r3, r3
10005e3c:	2b01      	cmp	r3, #1
10005e3e:	d107      	bne.n	10005e50 <IRQ7_Handler+0x34>
		if( NO_New_Input_counter > 9){
10005e40:	4b35      	ldr	r3, [pc, #212]	; (10005f18 <IRQ7_Handler+0xfc>)
10005e42:	681b      	ldr	r3, [r3, #0]
10005e44:	2b09      	cmp	r3, #9
10005e46:	d903      	bls.n	10005e50 <IRQ7_Handler+0x34>
			DIGITAL_IO_SetOutputLow(&RC_no_data_LED);
10005e48:	4b34      	ldr	r3, [pc, #208]	; (10005f1c <IRQ7_Handler+0x100>)
10005e4a:	1c18      	adds	r0, r3, #0
10005e4c:	f7fe fa16 	bl	1000427c <DIGITAL_IO_SetOutputLow>
		}
	}


	if(New_Input == 1){
10005e50:	4b33      	ldr	r3, [pc, #204]	; (10005f20 <IRQ7_Handler+0x104>)
10005e52:	781b      	ldrb	r3, [r3, #0]
10005e54:	b2db      	uxtb	r3, r3
10005e56:	2b01      	cmp	r3, #1
10005e58:	d10f      	bne.n	10005e7a <IRQ7_Handler+0x5e>
	Steering_Function(Steering_direction, Driving_speed, Steering_mode);
10005e5a:	4b32      	ldr	r3, [pc, #200]	; (10005f24 <IRQ7_Handler+0x108>)
10005e5c:	6819      	ldr	r1, [r3, #0]
10005e5e:	4b32      	ldr	r3, [pc, #200]	; (10005f28 <IRQ7_Handler+0x10c>)
10005e60:	681a      	ldr	r2, [r3, #0]
10005e62:	4b2b      	ldr	r3, [pc, #172]	; (10005f10 <IRQ7_Handler+0xf4>)
10005e64:	781b      	ldrb	r3, [r3, #0]
10005e66:	b2db      	uxtb	r3, r3
10005e68:	1c08      	adds	r0, r1, #0
10005e6a:	1c11      	adds	r1, r2, #0
10005e6c:	1c1a      	adds	r2, r3, #0
10005e6e:	f7fe fa81 	bl	10004374 <Steering_Function>
	NO_New_Input_counter = 0;
10005e72:	4b29      	ldr	r3, [pc, #164]	; (10005f18 <IRQ7_Handler+0xfc>)
10005e74:	2200      	movs	r2, #0
10005e76:	601a      	str	r2, [r3, #0]
10005e78:	e023      	b.n	10005ec2 <IRQ7_Handler+0xa6>
	}
	else{
		NO_New_Input_counter ++;
10005e7a:	4b27      	ldr	r3, [pc, #156]	; (10005f18 <IRQ7_Handler+0xfc>)
10005e7c:	681b      	ldr	r3, [r3, #0]
10005e7e:	1c5a      	adds	r2, r3, #1
10005e80:	4b25      	ldr	r3, [pc, #148]	; (10005f18 <IRQ7_Handler+0xfc>)
10005e82:	601a      	str	r2, [r3, #0]
		if( NO_New_Input_counter > 10){
10005e84:	4b24      	ldr	r3, [pc, #144]	; (10005f18 <IRQ7_Handler+0xfc>)
10005e86:	681b      	ldr	r3, [r3, #0]
10005e88:	2b0a      	cmp	r3, #10
10005e8a:	d91a      	bls.n	10005ec2 <IRQ7_Handler+0xa6>
			NO_New_Input_counter = 10;
10005e8c:	4b22      	ldr	r3, [pc, #136]	; (10005f18 <IRQ7_Handler+0xfc>)
10005e8e:	220a      	movs	r2, #10
10005e90:	601a      	str	r2, [r3, #0]

			  Steering_Angles[0] = 0;
10005e92:	4b26      	ldr	r3, [pc, #152]	; (10005f2c <IRQ7_Handler+0x110>)
10005e94:	2200      	movs	r2, #0
10005e96:	601a      	str	r2, [r3, #0]
			  Steering_Angles[1] = 0;
10005e98:	4b24      	ldr	r3, [pc, #144]	; (10005f2c <IRQ7_Handler+0x110>)
10005e9a:	2200      	movs	r2, #0
10005e9c:	605a      	str	r2, [r3, #4]
			  Steering_Angles[2] = 0;
10005e9e:	4b23      	ldr	r3, [pc, #140]	; (10005f2c <IRQ7_Handler+0x110>)
10005ea0:	2200      	movs	r2, #0
10005ea2:	609a      	str	r2, [r3, #8]
			  Steering_Angles[3] = 0;
10005ea4:	4b21      	ldr	r3, [pc, #132]	; (10005f2c <IRQ7_Handler+0x110>)
10005ea6:	2200      	movs	r2, #0
10005ea8:	60da      	str	r2, [r3, #12]

			  Speeds[0] = 0;
10005eaa:	4b21      	ldr	r3, [pc, #132]	; (10005f30 <IRQ7_Handler+0x114>)
10005eac:	2200      	movs	r2, #0
10005eae:	601a      	str	r2, [r3, #0]
			  Speeds[1] = 0;
10005eb0:	4b1f      	ldr	r3, [pc, #124]	; (10005f30 <IRQ7_Handler+0x114>)
10005eb2:	2200      	movs	r2, #0
10005eb4:	605a      	str	r2, [r3, #4]
			  Speeds[2] = 0;
10005eb6:	4b1e      	ldr	r3, [pc, #120]	; (10005f30 <IRQ7_Handler+0x114>)
10005eb8:	2200      	movs	r2, #0
10005eba:	609a      	str	r2, [r3, #8]
			  Speeds[3] = 0;
10005ebc:	4b1c      	ldr	r3, [pc, #112]	; (10005f30 <IRQ7_Handler+0x114>)
10005ebe:	2200      	movs	r2, #0
10005ec0:	60da      	str	r2, [r3, #12]
		}
	}

	//send traget speeds to inverter
	CAN_send_Speeds(Speeds);
10005ec2:	4b1b      	ldr	r3, [pc, #108]	; (10005f30 <IRQ7_Handler+0x114>)
10005ec4:	1c18      	adds	r0, r3, #0
10005ec6:	f7ff fccb 	bl	10005860 <CAN_send_Speeds>
	//set Angles PWM
	Steering_set_Angles(Steering_Angles);
10005eca:	4b18      	ldr	r3, [pc, #96]	; (10005f2c <IRQ7_Handler+0x110>)
10005ecc:	1c18      	adds	r0, r3, #0
10005ece:	f7ff fd3f 	bl	10005950 <Steering_set_Angles>

	//
	if(reset_distance == 1){
10005ed2:	4b18      	ldr	r3, [pc, #96]	; (10005f34 <IRQ7_Handler+0x118>)
10005ed4:	781b      	ldrb	r3, [r3, #0]
10005ed6:	b2db      	uxtb	r3, r3
10005ed8:	2b01      	cmp	r3, #1
10005eda:	d110      	bne.n	10005efe <IRQ7_Handler+0xe2>
		reset_distance = 0;
10005edc:	4b15      	ldr	r3, [pc, #84]	; (10005f34 <IRQ7_Handler+0x118>)
10005ede:	2200      	movs	r2, #0
10005ee0:	701a      	strb	r2, [r3, #0]
		uint8_t all[4] = {1,1,1,1};
10005ee2:	1d3a      	adds	r2, r7, #4
10005ee4:	4b14      	ldr	r3, [pc, #80]	; (10005f38 <IRQ7_Handler+0x11c>)
10005ee6:	1c11      	adds	r1, r2, #0
10005ee8:	1c1a      	adds	r2, r3, #0
10005eea:	2304      	movs	r3, #4
10005eec:	1c08      	adds	r0, r1, #0
10005eee:	1c11      	adds	r1, r2, #0
10005ef0:	1c1a      	adds	r2, r3, #0
10005ef2:	f004 fc13 	bl	1000a71c <memcpy>
		CAN_reset_distance(all);
10005ef6:	1d3b      	adds	r3, r7, #4
10005ef8:	1c18      	adds	r0, r3, #0
10005efa:	f7ff fc77 	bl	100057ec <CAN_reset_distance>
	}


	DIGITAL_IO_SetOutputLow(&CALC_TIME_INDICATOR);
10005efe:	4b03      	ldr	r3, [pc, #12]	; (10005f0c <IRQ7_Handler+0xf0>)
10005f00:	1c18      	adds	r0, r3, #0
10005f02:	f7fe f9bb 	bl	1000427c <DIGITAL_IO_SetOutputLow>
}
10005f06:	46bd      	mov	sp, r7
10005f08:	b002      	add	sp, #8
10005f0a:	bd80      	pop	{r7, pc}
10005f0c:	1000a818 	.word	0x1000a818
10005f10:	20000839 	.word	0x20000839
10005f14:	20000838 	.word	0x20000838
10005f18:	20000968 	.word	0x20000968
10005f1c:	1000a808 	.word	0x1000a808
10005f20:	20000964 	.word	0x20000964
10005f24:	200009c8 	.word	0x200009c8
10005f28:	200009cc 	.word	0x200009cc
10005f2c:	20000a00 	.word	0x20000a00
10005f30:	200009f0 	.word	0x200009f0
10005f34:	20000970 	.word	0x20000970
10005f38:	1000aa0c 	.word	0x1000aa0c

10005f3c <mode_led>:
        sum += a[i];
    }
    return sum / num_values;
}

void mode_led(uint8_t var){
10005f3c:	b580      	push	{r7, lr}
10005f3e:	b082      	sub	sp, #8
10005f40:	af00      	add	r7, sp, #0
10005f42:	1c02      	adds	r2, r0, #0
10005f44:	1dfb      	adds	r3, r7, #7
10005f46:	701a      	strb	r2, [r3, #0]
	if(CHECK_BIT(var,0)){
10005f48:	1dfb      	adds	r3, r7, #7
10005f4a:	781b      	ldrb	r3, [r3, #0]
10005f4c:	2201      	movs	r2, #1
10005f4e:	4013      	ands	r3, r2
10005f50:	d004      	beq.n	10005f5c <mode_led+0x20>
		DIGITAL_IO_SetOutputLow(&MODE_001);
10005f52:	4b17      	ldr	r3, [pc, #92]	; (10005fb0 <mode_led+0x74>)
10005f54:	1c18      	adds	r0, r3, #0
10005f56:	f7fe f991 	bl	1000427c <DIGITAL_IO_SetOutputLow>
10005f5a:	e003      	b.n	10005f64 <mode_led+0x28>
	}
	else{
		DIGITAL_IO_SetOutputHigh(&MODE_001);
10005f5c:	4b14      	ldr	r3, [pc, #80]	; (10005fb0 <mode_led+0x74>)
10005f5e:	1c18      	adds	r0, r3, #0
10005f60:	f7fe f97c 	bl	1000425c <DIGITAL_IO_SetOutputHigh>
	}

	if(CHECK_BIT(var,1)){
10005f64:	1dfb      	adds	r3, r7, #7
10005f66:	781b      	ldrb	r3, [r3, #0]
10005f68:	085b      	lsrs	r3, r3, #1
10005f6a:	b2db      	uxtb	r3, r3
10005f6c:	1c1a      	adds	r2, r3, #0
10005f6e:	2301      	movs	r3, #1
10005f70:	4013      	ands	r3, r2
10005f72:	d004      	beq.n	10005f7e <mode_led+0x42>
		DIGITAL_IO_SetOutputLow(&MODE_010);
10005f74:	4b0f      	ldr	r3, [pc, #60]	; (10005fb4 <mode_led+0x78>)
10005f76:	1c18      	adds	r0, r3, #0
10005f78:	f7fe f980 	bl	1000427c <DIGITAL_IO_SetOutputLow>
10005f7c:	e003      	b.n	10005f86 <mode_led+0x4a>
	}
	else{
		DIGITAL_IO_SetOutputHigh(&MODE_010);
10005f7e:	4b0d      	ldr	r3, [pc, #52]	; (10005fb4 <mode_led+0x78>)
10005f80:	1c18      	adds	r0, r3, #0
10005f82:	f7fe f96b 	bl	1000425c <DIGITAL_IO_SetOutputHigh>
	}

	if(CHECK_BIT(var,2)){
10005f86:	1dfb      	adds	r3, r7, #7
10005f88:	781b      	ldrb	r3, [r3, #0]
10005f8a:	089b      	lsrs	r3, r3, #2
10005f8c:	b2db      	uxtb	r3, r3
10005f8e:	1c1a      	adds	r2, r3, #0
10005f90:	2301      	movs	r3, #1
10005f92:	4013      	ands	r3, r2
10005f94:	d004      	beq.n	10005fa0 <mode_led+0x64>
		DIGITAL_IO_SetOutputLow(&MODE_100);
10005f96:	4b08      	ldr	r3, [pc, #32]	; (10005fb8 <mode_led+0x7c>)
10005f98:	1c18      	adds	r0, r3, #0
10005f9a:	f7fe f96f 	bl	1000427c <DIGITAL_IO_SetOutputLow>
10005f9e:	e003      	b.n	10005fa8 <mode_led+0x6c>
	}
	else{
		DIGITAL_IO_SetOutputHigh(&MODE_100);
10005fa0:	4b05      	ldr	r3, [pc, #20]	; (10005fb8 <mode_led+0x7c>)
10005fa2:	1c18      	adds	r0, r3, #0
10005fa4:	f7fe f95a 	bl	1000425c <DIGITAL_IO_SetOutputHigh>
	}
}
10005fa8:	46bd      	mov	sp, r7
10005faa:	b002      	add	sp, #8
10005fac:	bd80      	pop	{r7, pc}
10005fae:	46c0      	nop			; (mov r8, r8)
10005fb0:	1000a828 	.word	0x1000a828
10005fb4:	1000a838 	.word	0x1000a838
10005fb8:	1000a848 	.word	0x1000a848

10005fbc <atan>:
10005fbc:	b5f8      	push	{r3, r4, r5, r6, r7, lr}
10005fbe:	4656      	mov	r6, sl
10005fc0:	464d      	mov	r5, r9
10005fc2:	4644      	mov	r4, r8
10005fc4:	465f      	mov	r7, fp
10005fc6:	4ba5      	ldr	r3, [pc, #660]	; (1000625c <atan+0x2a0>)
10005fc8:	b4f0      	push	{r4, r5, r6, r7}
10005fca:	004e      	lsls	r6, r1, #1
10005fcc:	4680      	mov	r8, r0
10005fce:	4689      	mov	r9, r1
10005fd0:	468a      	mov	sl, r1
10005fd2:	0876      	lsrs	r6, r6, #1
10005fd4:	429e      	cmp	r6, r3
10005fd6:	dd0c      	ble.n	10005ff2 <atan+0x36>
10005fd8:	4ba1      	ldr	r3, [pc, #644]	; (10006260 <atan+0x2a4>)
10005fda:	429e      	cmp	r6, r3
10005fdc:	dd00      	ble.n	10005fe0 <atan+0x24>
10005fde:	e0a0      	b.n	10006122 <atan+0x166>
10005fe0:	d100      	bne.n	10005fe4 <atan+0x28>
10005fe2:	e09b      	b.n	1000611c <atan+0x160>
10005fe4:	4653      	mov	r3, sl
10005fe6:	2b00      	cmp	r3, #0
10005fe8:	dc00      	bgt.n	10005fec <atan+0x30>
10005fea:	e0de      	b.n	100061aa <atan+0x1ee>
10005fec:	4b9d      	ldr	r3, [pc, #628]	; (10006264 <atan+0x2a8>)
10005fee:	4a9e      	ldr	r2, [pc, #632]	; (10006268 <atan+0x2ac>)
10005ff0:	e09f      	b.n	10006132 <atan+0x176>
10005ff2:	4b9e      	ldr	r3, [pc, #632]	; (1000626c <atan+0x2b0>)
10005ff4:	429e      	cmp	r6, r3
10005ff6:	dd00      	ble.n	10005ffa <atan+0x3e>
10005ff8:	e0b1      	b.n	1000615e <atan+0x1a2>
10005ffa:	4b9d      	ldr	r3, [pc, #628]	; (10006270 <atan+0x2b4>)
10005ffc:	429e      	cmp	r6, r3
10005ffe:	dc00      	bgt.n	10006002 <atan+0x46>
10006000:	e09f      	b.n	10006142 <atan+0x186>
10006002:	2301      	movs	r3, #1
10006004:	425b      	negs	r3, r3
10006006:	469b      	mov	fp, r3
10006008:	4642      	mov	r2, r8
1000600a:	464b      	mov	r3, r9
1000600c:	4640      	mov	r0, r8
1000600e:	4649      	mov	r1, r9
10006010:	f003 fa10 	bl	10009434 <__aeabi_dmul>
10006014:	1c06      	adds	r6, r0, #0
10006016:	1c0f      	adds	r7, r1, #0
10006018:	1c32      	adds	r2, r6, #0
1000601a:	1c3b      	adds	r3, r7, #0
1000601c:	f003 fa0a 	bl	10009434 <__aeabi_dmul>
10006020:	1c04      	adds	r4, r0, #0
10006022:	1c0d      	adds	r5, r1, #0
10006024:	4a93      	ldr	r2, [pc, #588]	; (10006274 <atan+0x2b8>)
10006026:	4b94      	ldr	r3, [pc, #592]	; (10006278 <atan+0x2bc>)
10006028:	f003 fa04 	bl	10009434 <__aeabi_dmul>
1000602c:	4a93      	ldr	r2, [pc, #588]	; (1000627c <atan+0x2c0>)
1000602e:	4b94      	ldr	r3, [pc, #592]	; (10006280 <atan+0x2c4>)
10006030:	f002 fa9a 	bl	10008568 <__aeabi_dadd>
10006034:	1c22      	adds	r2, r4, #0
10006036:	1c2b      	adds	r3, r5, #0
10006038:	f003 f9fc 	bl	10009434 <__aeabi_dmul>
1000603c:	4a91      	ldr	r2, [pc, #580]	; (10006284 <atan+0x2c8>)
1000603e:	4b92      	ldr	r3, [pc, #584]	; (10006288 <atan+0x2cc>)
10006040:	f002 fa92 	bl	10008568 <__aeabi_dadd>
10006044:	1c22      	adds	r2, r4, #0
10006046:	1c2b      	adds	r3, r5, #0
10006048:	f003 f9f4 	bl	10009434 <__aeabi_dmul>
1000604c:	4a8f      	ldr	r2, [pc, #572]	; (1000628c <atan+0x2d0>)
1000604e:	4b90      	ldr	r3, [pc, #576]	; (10006290 <atan+0x2d4>)
10006050:	f002 fa8a 	bl	10008568 <__aeabi_dadd>
10006054:	1c22      	adds	r2, r4, #0
10006056:	1c2b      	adds	r3, r5, #0
10006058:	f003 f9ec 	bl	10009434 <__aeabi_dmul>
1000605c:	4a8d      	ldr	r2, [pc, #564]	; (10006294 <atan+0x2d8>)
1000605e:	4b8e      	ldr	r3, [pc, #568]	; (10006298 <atan+0x2dc>)
10006060:	f002 fa82 	bl	10008568 <__aeabi_dadd>
10006064:	1c22      	adds	r2, r4, #0
10006066:	1c2b      	adds	r3, r5, #0
10006068:	f003 f9e4 	bl	10009434 <__aeabi_dmul>
1000606c:	4a8b      	ldr	r2, [pc, #556]	; (1000629c <atan+0x2e0>)
1000606e:	4b8c      	ldr	r3, [pc, #560]	; (100062a0 <atan+0x2e4>)
10006070:	f002 fa7a 	bl	10008568 <__aeabi_dadd>
10006074:	1c32      	adds	r2, r6, #0
10006076:	1c3b      	adds	r3, r7, #0
10006078:	f003 f9dc 	bl	10009434 <__aeabi_dmul>
1000607c:	4a89      	ldr	r2, [pc, #548]	; (100062a4 <atan+0x2e8>)
1000607e:	4b8a      	ldr	r3, [pc, #552]	; (100062a8 <atan+0x2ec>)
10006080:	1c06      	adds	r6, r0, #0
10006082:	1c0f      	adds	r7, r1, #0
10006084:	1c20      	adds	r0, r4, #0
10006086:	1c29      	adds	r1, r5, #0
10006088:	f003 f9d4 	bl	10009434 <__aeabi_dmul>
1000608c:	4a87      	ldr	r2, [pc, #540]	; (100062ac <atan+0x2f0>)
1000608e:	4b88      	ldr	r3, [pc, #544]	; (100062b0 <atan+0x2f4>)
10006090:	f003 fc6a 	bl	10009968 <__aeabi_dsub>
10006094:	1c22      	adds	r2, r4, #0
10006096:	1c2b      	adds	r3, r5, #0
10006098:	f003 f9cc 	bl	10009434 <__aeabi_dmul>
1000609c:	4a85      	ldr	r2, [pc, #532]	; (100062b4 <atan+0x2f8>)
1000609e:	4b86      	ldr	r3, [pc, #536]	; (100062b8 <atan+0x2fc>)
100060a0:	f003 fc62 	bl	10009968 <__aeabi_dsub>
100060a4:	1c22      	adds	r2, r4, #0
100060a6:	1c2b      	adds	r3, r5, #0
100060a8:	f003 f9c4 	bl	10009434 <__aeabi_dmul>
100060ac:	4a83      	ldr	r2, [pc, #524]	; (100062bc <atan+0x300>)
100060ae:	4b84      	ldr	r3, [pc, #528]	; (100062c0 <atan+0x304>)
100060b0:	f003 fc5a 	bl	10009968 <__aeabi_dsub>
100060b4:	1c22      	adds	r2, r4, #0
100060b6:	1c2b      	adds	r3, r5, #0
100060b8:	f003 f9bc 	bl	10009434 <__aeabi_dmul>
100060bc:	4a81      	ldr	r2, [pc, #516]	; (100062c4 <atan+0x308>)
100060be:	4b82      	ldr	r3, [pc, #520]	; (100062c8 <atan+0x30c>)
100060c0:	f003 fc52 	bl	10009968 <__aeabi_dsub>
100060c4:	1c22      	adds	r2, r4, #0
100060c6:	1c2b      	adds	r3, r5, #0
100060c8:	f003 f9b4 	bl	10009434 <__aeabi_dmul>
100060cc:	1c0b      	adds	r3, r1, #0
100060ce:	4659      	mov	r1, fp
100060d0:	1c02      	adds	r2, r0, #0
100060d2:	3101      	adds	r1, #1
100060d4:	d100      	bne.n	100060d8 <atan+0x11c>
100060d6:	e070      	b.n	100061ba <atan+0x1fe>
100060d8:	4659      	mov	r1, fp
100060da:	1c30      	adds	r0, r6, #0
100060dc:	00cc      	lsls	r4, r1, #3
100060de:	1c39      	adds	r1, r7, #0
100060e0:	f002 fa42 	bl	10008568 <__aeabi_dadd>
100060e4:	4642      	mov	r2, r8
100060e6:	464b      	mov	r3, r9
100060e8:	f003 f9a4 	bl	10009434 <__aeabi_dmul>
100060ec:	4d77      	ldr	r5, [pc, #476]	; (100062cc <atan+0x310>)
100060ee:	4b78      	ldr	r3, [pc, #480]	; (100062d0 <atan+0x314>)
100060f0:	192d      	adds	r5, r5, r4
100060f2:	191c      	adds	r4, r3, r4
100060f4:	6822      	ldr	r2, [r4, #0]
100060f6:	6863      	ldr	r3, [r4, #4]
100060f8:	f003 fc36 	bl	10009968 <__aeabi_dsub>
100060fc:	4642      	mov	r2, r8
100060fe:	464b      	mov	r3, r9
10006100:	f003 fc32 	bl	10009968 <__aeabi_dsub>
10006104:	1c02      	adds	r2, r0, #0
10006106:	1c0b      	adds	r3, r1, #0
10006108:	6828      	ldr	r0, [r5, #0]
1000610a:	6869      	ldr	r1, [r5, #4]
1000610c:	f003 fc2c 	bl	10009968 <__aeabi_dsub>
10006110:	4653      	mov	r3, sl
10006112:	1c0a      	adds	r2, r1, #0
10006114:	2b00      	cmp	r3, #0
10006116:	db4b      	blt.n	100061b0 <atan+0x1f4>
10006118:	1c03      	adds	r3, r0, #0
1000611a:	e00a      	b.n	10006132 <atan+0x176>
1000611c:	2800      	cmp	r0, #0
1000611e:	d100      	bne.n	10006122 <atan+0x166>
10006120:	e760      	b.n	10005fe4 <atan+0x28>
10006122:	4642      	mov	r2, r8
10006124:	464b      	mov	r3, r9
10006126:	4640      	mov	r0, r8
10006128:	4649      	mov	r1, r9
1000612a:	f002 fa1d 	bl	10008568 <__aeabi_dadd>
1000612e:	1c03      	adds	r3, r0, #0
10006130:	1c0a      	adds	r2, r1, #0
10006132:	1c18      	adds	r0, r3, #0
10006134:	1c11      	adds	r1, r2, #0
10006136:	bc3c      	pop	{r2, r3, r4, r5}
10006138:	4690      	mov	r8, r2
1000613a:	4699      	mov	r9, r3
1000613c:	46a2      	mov	sl, r4
1000613e:	46ab      	mov	fp, r5
10006140:	bdf8      	pop	{r3, r4, r5, r6, r7, pc}
10006142:	4a64      	ldr	r2, [pc, #400]	; (100062d4 <atan+0x318>)
10006144:	4b64      	ldr	r3, [pc, #400]	; (100062d8 <atan+0x31c>)
10006146:	f002 fa0f 	bl	10008568 <__aeabi_dadd>
1000614a:	2200      	movs	r2, #0
1000614c:	4b63      	ldr	r3, [pc, #396]	; (100062dc <atan+0x320>)
1000614e:	f001 fa81 	bl	10007654 <__aeabi_dcmpgt>
10006152:	2800      	cmp	r0, #0
10006154:	d100      	bne.n	10006158 <atan+0x19c>
10006156:	e754      	b.n	10006002 <atan+0x46>
10006158:	4643      	mov	r3, r8
1000615a:	464a      	mov	r2, r9
1000615c:	e7e9      	b.n	10006132 <atan+0x176>
1000615e:	f000 f8cb 	bl	100062f8 <fabs>
10006162:	4b5f      	ldr	r3, [pc, #380]	; (100062e0 <atan+0x324>)
10006164:	1c04      	adds	r4, r0, #0
10006166:	1c0d      	adds	r5, r1, #0
10006168:	429e      	cmp	r6, r3
1000616a:	dc37      	bgt.n	100061dc <atan+0x220>
1000616c:	4b5d      	ldr	r3, [pc, #372]	; (100062e4 <atan+0x328>)
1000616e:	429e      	cmp	r6, r3
10006170:	dc5d      	bgt.n	1000622e <atan+0x272>
10006172:	1c22      	adds	r2, r4, #0
10006174:	1c2b      	adds	r3, r5, #0
10006176:	f002 f9f7 	bl	10008568 <__aeabi_dadd>
1000617a:	2200      	movs	r2, #0
1000617c:	4b57      	ldr	r3, [pc, #348]	; (100062dc <atan+0x320>)
1000617e:	f003 fbf3 	bl	10009968 <__aeabi_dsub>
10006182:	2380      	movs	r3, #128	; 0x80
10006184:	1c06      	adds	r6, r0, #0
10006186:	1c0f      	adds	r7, r1, #0
10006188:	2200      	movs	r2, #0
1000618a:	05db      	lsls	r3, r3, #23
1000618c:	1c20      	adds	r0, r4, #0
1000618e:	1c29      	adds	r1, r5, #0
10006190:	f002 f9ea 	bl	10008568 <__aeabi_dadd>
10006194:	1c0b      	adds	r3, r1, #0
10006196:	1c02      	adds	r2, r0, #0
10006198:	1c39      	adds	r1, r7, #0
1000619a:	1c30      	adds	r0, r6, #0
1000619c:	f002 fd0c 	bl	10008bb8 <__aeabi_ddiv>
100061a0:	2300      	movs	r3, #0
100061a2:	4680      	mov	r8, r0
100061a4:	4689      	mov	r9, r1
100061a6:	469b      	mov	fp, r3
100061a8:	e72e      	b.n	10006008 <atan+0x4c>
100061aa:	4b2e      	ldr	r3, [pc, #184]	; (10006264 <atan+0x2a8>)
100061ac:	4a4e      	ldr	r2, [pc, #312]	; (100062e8 <atan+0x32c>)
100061ae:	e7c0      	b.n	10006132 <atan+0x176>
100061b0:	2280      	movs	r2, #128	; 0x80
100061b2:	0612      	lsls	r2, r2, #24
100061b4:	1c03      	adds	r3, r0, #0
100061b6:	188a      	adds	r2, r1, r2
100061b8:	e7bb      	b.n	10006132 <atan+0x176>
100061ba:	1c30      	adds	r0, r6, #0
100061bc:	1c39      	adds	r1, r7, #0
100061be:	f002 f9d3 	bl	10008568 <__aeabi_dadd>
100061c2:	4642      	mov	r2, r8
100061c4:	464b      	mov	r3, r9
100061c6:	f003 f935 	bl	10009434 <__aeabi_dmul>
100061ca:	1c02      	adds	r2, r0, #0
100061cc:	1c0b      	adds	r3, r1, #0
100061ce:	4640      	mov	r0, r8
100061d0:	4649      	mov	r1, r9
100061d2:	f003 fbc9 	bl	10009968 <__aeabi_dsub>
100061d6:	1c03      	adds	r3, r0, #0
100061d8:	1c0a      	adds	r2, r1, #0
100061da:	e7aa      	b.n	10006132 <atan+0x176>
100061dc:	4b43      	ldr	r3, [pc, #268]	; (100062ec <atan+0x330>)
100061de:	429e      	cmp	r6, r3
100061e0:	dc1a      	bgt.n	10006218 <atan+0x25c>
100061e2:	2200      	movs	r2, #0
100061e4:	4b42      	ldr	r3, [pc, #264]	; (100062f0 <atan+0x334>)
100061e6:	f003 fbbf 	bl	10009968 <__aeabi_dsub>
100061ea:	2200      	movs	r2, #0
100061ec:	1c06      	adds	r6, r0, #0
100061ee:	1c0f      	adds	r7, r1, #0
100061f0:	4b3f      	ldr	r3, [pc, #252]	; (100062f0 <atan+0x334>)
100061f2:	1c20      	adds	r0, r4, #0
100061f4:	1c29      	adds	r1, r5, #0
100061f6:	f003 f91d 	bl	10009434 <__aeabi_dmul>
100061fa:	2200      	movs	r2, #0
100061fc:	4b37      	ldr	r3, [pc, #220]	; (100062dc <atan+0x320>)
100061fe:	f002 f9b3 	bl	10008568 <__aeabi_dadd>
10006202:	1c0b      	adds	r3, r1, #0
10006204:	1c02      	adds	r2, r0, #0
10006206:	1c39      	adds	r1, r7, #0
10006208:	1c30      	adds	r0, r6, #0
1000620a:	f002 fcd5 	bl	10008bb8 <__aeabi_ddiv>
1000620e:	2302      	movs	r3, #2
10006210:	4680      	mov	r8, r0
10006212:	4689      	mov	r9, r1
10006214:	469b      	mov	fp, r3
10006216:	e6f7      	b.n	10006008 <atan+0x4c>
10006218:	1c2b      	adds	r3, r5, #0
1000621a:	2000      	movs	r0, #0
1000621c:	4935      	ldr	r1, [pc, #212]	; (100062f4 <atan+0x338>)
1000621e:	1c22      	adds	r2, r4, #0
10006220:	f002 fcca 	bl	10008bb8 <__aeabi_ddiv>
10006224:	2303      	movs	r3, #3
10006226:	4680      	mov	r8, r0
10006228:	4689      	mov	r9, r1
1000622a:	469b      	mov	fp, r3
1000622c:	e6ec      	b.n	10006008 <atan+0x4c>
1000622e:	2200      	movs	r2, #0
10006230:	4b2a      	ldr	r3, [pc, #168]	; (100062dc <atan+0x320>)
10006232:	f003 fb99 	bl	10009968 <__aeabi_dsub>
10006236:	2200      	movs	r2, #0
10006238:	1c06      	adds	r6, r0, #0
1000623a:	1c0f      	adds	r7, r1, #0
1000623c:	4b27      	ldr	r3, [pc, #156]	; (100062dc <atan+0x320>)
1000623e:	1c20      	adds	r0, r4, #0
10006240:	1c29      	adds	r1, r5, #0
10006242:	f002 f991 	bl	10008568 <__aeabi_dadd>
10006246:	1c0b      	adds	r3, r1, #0
10006248:	1c02      	adds	r2, r0, #0
1000624a:	1c39      	adds	r1, r7, #0
1000624c:	1c30      	adds	r0, r6, #0
1000624e:	f002 fcb3 	bl	10008bb8 <__aeabi_ddiv>
10006252:	2301      	movs	r3, #1
10006254:	4680      	mov	r8, r0
10006256:	4689      	mov	r9, r1
10006258:	469b      	mov	fp, r3
1000625a:	e6d5      	b.n	10006008 <atan+0x4c>
1000625c:	440fffff 	.word	0x440fffff
10006260:	7ff00000 	.word	0x7ff00000
10006264:	54442d18 	.word	0x54442d18
10006268:	3ff921fb 	.word	0x3ff921fb
1000626c:	3fdbffff 	.word	0x3fdbffff
10006270:	3e1fffff 	.word	0x3e1fffff
10006274:	e322da11 	.word	0xe322da11
10006278:	3f90ad3a 	.word	0x3f90ad3a
1000627c:	24760deb 	.word	0x24760deb
10006280:	3fa97b4b 	.word	0x3fa97b4b
10006284:	a0d03d51 	.word	0xa0d03d51
10006288:	3fb10d66 	.word	0x3fb10d66
1000628c:	c54c206e 	.word	0xc54c206e
10006290:	3fb745cd 	.word	0x3fb745cd
10006294:	920083ff 	.word	0x920083ff
10006298:	3fc24924 	.word	0x3fc24924
1000629c:	5555550d 	.word	0x5555550d
100062a0:	3fd55555 	.word	0x3fd55555
100062a4:	2c6a6c2f 	.word	0x2c6a6c2f
100062a8:	bfa2b444 	.word	0xbfa2b444
100062ac:	52defd9a 	.word	0x52defd9a
100062b0:	3fadde2d 	.word	0x3fadde2d
100062b4:	af749a6d 	.word	0xaf749a6d
100062b8:	3fb3b0f2 	.word	0x3fb3b0f2
100062bc:	fe231671 	.word	0xfe231671
100062c0:	3fbc71c6 	.word	0x3fbc71c6
100062c4:	9998ebc4 	.word	0x9998ebc4
100062c8:	3fc99999 	.word	0x3fc99999
100062cc:	1000aa30 	.word	0x1000aa30
100062d0:	1000aa10 	.word	0x1000aa10
100062d4:	8800759c 	.word	0x8800759c
100062d8:	7e37e43c 	.word	0x7e37e43c
100062dc:	3ff00000 	.word	0x3ff00000
100062e0:	3ff2ffff 	.word	0x3ff2ffff
100062e4:	3fe5ffff 	.word	0x3fe5ffff
100062e8:	bff921fb 	.word	0xbff921fb
100062ec:	40037fff 	.word	0x40037fff
100062f0:	3ff80000 	.word	0x3ff80000
100062f4:	bff00000 	.word	0xbff00000

100062f8 <fabs>:
100062f8:	0049      	lsls	r1, r1, #1
100062fa:	084b      	lsrs	r3, r1, #1
100062fc:	1c19      	adds	r1, r3, #0
100062fe:	4770      	bx	lr

10006300 <tan>:
10006300:	b530      	push	{r4, r5, lr}
10006302:	4a13      	ldr	r2, [pc, #76]	; (10006350 <tan+0x50>)
10006304:	004b      	lsls	r3, r1, #1
10006306:	b087      	sub	sp, #28
10006308:	1c05      	adds	r5, r0, #0
1000630a:	1c0c      	adds	r4, r1, #0
1000630c:	085b      	lsrs	r3, r3, #1
1000630e:	4293      	cmp	r3, r2
10006310:	dd17      	ble.n	10006342 <tan+0x42>
10006312:	4a10      	ldr	r2, [pc, #64]	; (10006354 <tan+0x54>)
10006314:	4293      	cmp	r3, r2
10006316:	dd05      	ble.n	10006324 <tan+0x24>
10006318:	1c2a      	adds	r2, r5, #0
1000631a:	1c23      	adds	r3, r4, #0
1000631c:	f003 fb24 	bl	10009968 <__aeabi_dsub>
10006320:	b007      	add	sp, #28
10006322:	bd30      	pop	{r4, r5, pc}
10006324:	aa02      	add	r2, sp, #8
10006326:	f000 f817 	bl	10006358 <__ieee754_rem_pio2>
1000632a:	9a04      	ldr	r2, [sp, #16]
1000632c:	9b05      	ldr	r3, [sp, #20]
1000632e:	2101      	movs	r1, #1
10006330:	4008      	ands	r0, r1
10006332:	0040      	lsls	r0, r0, #1
10006334:	1a08      	subs	r0, r1, r0
10006336:	9000      	str	r0, [sp, #0]
10006338:	9802      	ldr	r0, [sp, #8]
1000633a:	9903      	ldr	r1, [sp, #12]
1000633c:	f000 fe6c 	bl	10007018 <__kernel_tan>
10006340:	e7ee      	b.n	10006320 <tan+0x20>
10006342:	2301      	movs	r3, #1
10006344:	2200      	movs	r2, #0
10006346:	9300      	str	r3, [sp, #0]
10006348:	2300      	movs	r3, #0
1000634a:	f000 fe65 	bl	10007018 <__kernel_tan>
1000634e:	e7e7      	b.n	10006320 <tan+0x20>
10006350:	3fe921fb 	.word	0x3fe921fb
10006354:	7fefffff 	.word	0x7fefffff

10006358 <__ieee754_rem_pio2>:
10006358:	b5f0      	push	{r4, r5, r6, r7, lr}
1000635a:	4656      	mov	r6, sl
1000635c:	465f      	mov	r7, fp
1000635e:	464d      	mov	r5, r9
10006360:	b4e0      	push	{r5, r6, r7}
10006362:	004b      	lsls	r3, r1, #1
10006364:	085e      	lsrs	r6, r3, #1
10006366:	4bd4      	ldr	r3, [pc, #848]	; (100066b8 <__ieee754_rem_pio2+0x360>)
10006368:	b090      	sub	sp, #64	; 0x40
1000636a:	468a      	mov	sl, r1
1000636c:	429e      	cmp	r6, r3
1000636e:	dc00      	bgt.n	10006372 <__ieee754_rem_pio2+0x1a>
10006370:	e089      	b.n	10006486 <__ieee754_rem_pio2+0x12e>
10006372:	4bd2      	ldr	r3, [pc, #840]	; (100066bc <__ieee754_rem_pio2+0x364>)
10006374:	4691      	mov	r9, r2
10006376:	1c0c      	adds	r4, r1, #0
10006378:	1c05      	adds	r5, r0, #0
1000637a:	429e      	cmp	r6, r3
1000637c:	dc22      	bgt.n	100063c4 <__ieee754_rem_pio2+0x6c>
1000637e:	4ad0      	ldr	r2, [pc, #832]	; (100066c0 <__ieee754_rem_pio2+0x368>)
10006380:	2c00      	cmp	r4, #0
10006382:	dc00      	bgt.n	10006386 <__ieee754_rem_pio2+0x2e>
10006384:	e1be      	b.n	10006704 <__ieee754_rem_pio2+0x3ac>
10006386:	4bcf      	ldr	r3, [pc, #828]	; (100066c4 <__ieee754_rem_pio2+0x36c>)
10006388:	f003 faee 	bl	10009968 <__aeabi_dsub>
1000638c:	4bcd      	ldr	r3, [pc, #820]	; (100066c4 <__ieee754_rem_pio2+0x36c>)
1000638e:	1c04      	adds	r4, r0, #0
10006390:	1c0d      	adds	r5, r1, #0
10006392:	429e      	cmp	r6, r3
10006394:	d100      	bne.n	10006398 <__ieee754_rem_pio2+0x40>
10006396:	e090      	b.n	100064ba <__ieee754_rem_pio2+0x162>
10006398:	4acb      	ldr	r2, [pc, #812]	; (100066c8 <__ieee754_rem_pio2+0x370>)
1000639a:	4bcc      	ldr	r3, [pc, #816]	; (100066cc <__ieee754_rem_pio2+0x374>)
1000639c:	f003 fae4 	bl	10009968 <__aeabi_dsub>
100063a0:	1c02      	adds	r2, r0, #0
100063a2:	1c0b      	adds	r3, r1, #0
100063a4:	4649      	mov	r1, r9
100063a6:	1c20      	adds	r0, r4, #0
100063a8:	600a      	str	r2, [r1, #0]
100063aa:	604b      	str	r3, [r1, #4]
100063ac:	1c29      	adds	r1, r5, #0
100063ae:	f003 fadb 	bl	10009968 <__aeabi_dsub>
100063b2:	4bc6      	ldr	r3, [pc, #792]	; (100066cc <__ieee754_rem_pio2+0x374>)
100063b4:	4ac4      	ldr	r2, [pc, #784]	; (100066c8 <__ieee754_rem_pio2+0x370>)
100063b6:	f003 fad7 	bl	10009968 <__aeabi_dsub>
100063ba:	464b      	mov	r3, r9
100063bc:	6098      	str	r0, [r3, #8]
100063be:	60d9      	str	r1, [r3, #12]
100063c0:	2001      	movs	r0, #1
100063c2:	e069      	b.n	10006498 <__ieee754_rem_pio2+0x140>
100063c4:	4bc2      	ldr	r3, [pc, #776]	; (100066d0 <__ieee754_rem_pio2+0x378>)
100063c6:	429e      	cmp	r6, r3
100063c8:	dc00      	bgt.n	100063cc <__ieee754_rem_pio2+0x74>
100063ca:	e093      	b.n	100064f4 <__ieee754_rem_pio2+0x19c>
100063cc:	4bc1      	ldr	r3, [pc, #772]	; (100066d4 <__ieee754_rem_pio2+0x37c>)
100063ce:	429e      	cmp	r6, r3
100063d0:	dc68      	bgt.n	100064a4 <__ieee754_rem_pio2+0x14c>
100063d2:	49c1      	ldr	r1, [pc, #772]	; (100066d8 <__ieee754_rem_pio2+0x380>)
100063d4:	1532      	asrs	r2, r6, #20
100063d6:	468b      	mov	fp, r1
100063d8:	4493      	add	fp, r2
100063da:	465b      	mov	r3, fp
100063dc:	051b      	lsls	r3, r3, #20
100063de:	1af5      	subs	r5, r6, r3
100063e0:	1c29      	adds	r1, r5, #0
100063e2:	1c04      	adds	r4, r0, #0
100063e4:	f003 fe3a 	bl	1000a05c <__aeabi_d2iz>
100063e8:	f003 fe6e 	bl	1000a0c8 <__aeabi_i2d>
100063ec:	1c02      	adds	r2, r0, #0
100063ee:	1c0b      	adds	r3, r1, #0
100063f0:	1c20      	adds	r0, r4, #0
100063f2:	1c29      	adds	r1, r5, #0
100063f4:	920a      	str	r2, [sp, #40]	; 0x28
100063f6:	930b      	str	r3, [sp, #44]	; 0x2c
100063f8:	f003 fab6 	bl	10009968 <__aeabi_dsub>
100063fc:	2200      	movs	r2, #0
100063fe:	4bb7      	ldr	r3, [pc, #732]	; (100066dc <__ieee754_rem_pio2+0x384>)
10006400:	f003 f818 	bl	10009434 <__aeabi_dmul>
10006404:	1c0f      	adds	r7, r1, #0
10006406:	1c06      	adds	r6, r0, #0
10006408:	f003 fe28 	bl	1000a05c <__aeabi_d2iz>
1000640c:	f003 fe5c 	bl	1000a0c8 <__aeabi_i2d>
10006410:	1c04      	adds	r4, r0, #0
10006412:	1c0d      	adds	r5, r1, #0
10006414:	1c22      	adds	r2, r4, #0
10006416:	1c2b      	adds	r3, r5, #0
10006418:	1c30      	adds	r0, r6, #0
1000641a:	1c39      	adds	r1, r7, #0
1000641c:	940c      	str	r4, [sp, #48]	; 0x30
1000641e:	950d      	str	r5, [sp, #52]	; 0x34
10006420:	f003 faa2 	bl	10009968 <__aeabi_dsub>
10006424:	2200      	movs	r2, #0
10006426:	4bad      	ldr	r3, [pc, #692]	; (100066dc <__ieee754_rem_pio2+0x384>)
10006428:	f003 f804 	bl	10009434 <__aeabi_dmul>
1000642c:	2200      	movs	r2, #0
1000642e:	2300      	movs	r3, #0
10006430:	900e      	str	r0, [sp, #56]	; 0x38
10006432:	910f      	str	r1, [sp, #60]	; 0x3c
10006434:	f001 f8f4 	bl	10007620 <__aeabi_dcmpeq>
10006438:	2800      	cmp	r0, #0
1000643a:	d100      	bne.n	1000643e <__ieee754_rem_pio2+0xe6>
1000643c:	e181      	b.n	10006742 <__ieee754_rem_pio2+0x3ea>
1000643e:	2300      	movs	r3, #0
10006440:	2200      	movs	r2, #0
10006442:	1c20      	adds	r0, r4, #0
10006444:	1c29      	adds	r1, r5, #0
10006446:	f001 f8eb 	bl	10007620 <__aeabi_dcmpeq>
1000644a:	2202      	movs	r2, #2
1000644c:	1e43      	subs	r3, r0, #1
1000644e:	4198      	sbcs	r0, r3
10006450:	1a13      	subs	r3, r2, r0
10006452:	2202      	movs	r2, #2
10006454:	9200      	str	r2, [sp, #0]
10006456:	4aa2      	ldr	r2, [pc, #648]	; (100066e0 <__ieee754_rem_pio2+0x388>)
10006458:	a80a      	add	r0, sp, #40	; 0x28
1000645a:	9201      	str	r2, [sp, #4]
1000645c:	4649      	mov	r1, r9
1000645e:	465a      	mov	r2, fp
10006460:	f000 f992 	bl	10006788 <__kernel_rem_pio2>
10006464:	4653      	mov	r3, sl
10006466:	2b00      	cmp	r3, #0
10006468:	da16      	bge.n	10006498 <__ieee754_rem_pio2+0x140>
1000646a:	2280      	movs	r2, #128	; 0x80
1000646c:	464b      	mov	r3, r9
1000646e:	0612      	lsls	r2, r2, #24
10006470:	4694      	mov	ip, r2
10006472:	464a      	mov	r2, r9
10006474:	685b      	ldr	r3, [r3, #4]
10006476:	4240      	negs	r0, r0
10006478:	4463      	add	r3, ip
1000647a:	6053      	str	r3, [r2, #4]
1000647c:	68d3      	ldr	r3, [r2, #12]
1000647e:	464a      	mov	r2, r9
10006480:	4463      	add	r3, ip
10006482:	60d3      	str	r3, [r2, #12]
10006484:	e008      	b.n	10006498 <__ieee754_rem_pio2+0x140>
10006486:	1c04      	adds	r4, r0, #0
10006488:	1c0d      	adds	r5, r1, #0
1000648a:	2000      	movs	r0, #0
1000648c:	2100      	movs	r1, #0
1000648e:	6090      	str	r0, [r2, #8]
10006490:	60d1      	str	r1, [r2, #12]
10006492:	2000      	movs	r0, #0
10006494:	6014      	str	r4, [r2, #0]
10006496:	6055      	str	r5, [r2, #4]
10006498:	b010      	add	sp, #64	; 0x40
1000649a:	bc1c      	pop	{r2, r3, r4}
1000649c:	4691      	mov	r9, r2
1000649e:	469a      	mov	sl, r3
100064a0:	46a3      	mov	fp, r4
100064a2:	bdf0      	pop	{r4, r5, r6, r7, pc}
100064a4:	4653      	mov	r3, sl
100064a6:	1c2a      	adds	r2, r5, #0
100064a8:	f003 fa5e 	bl	10009968 <__aeabi_dsub>
100064ac:	464b      	mov	r3, r9
100064ae:	6098      	str	r0, [r3, #8]
100064b0:	60d9      	str	r1, [r3, #12]
100064b2:	6018      	str	r0, [r3, #0]
100064b4:	6059      	str	r1, [r3, #4]
100064b6:	2000      	movs	r0, #0
100064b8:	e7ee      	b.n	10006498 <__ieee754_rem_pio2+0x140>
100064ba:	22d3      	movs	r2, #211	; 0xd3
100064bc:	4b83      	ldr	r3, [pc, #524]	; (100066cc <__ieee754_rem_pio2+0x374>)
100064be:	0552      	lsls	r2, r2, #21
100064c0:	f003 fa52 	bl	10009968 <__aeabi_dsub>
100064c4:	4a87      	ldr	r2, [pc, #540]	; (100066e4 <__ieee754_rem_pio2+0x38c>)
100064c6:	4b88      	ldr	r3, [pc, #544]	; (100066e8 <__ieee754_rem_pio2+0x390>)
100064c8:	1c04      	adds	r4, r0, #0
100064ca:	1c0d      	adds	r5, r1, #0
100064cc:	f003 fa4c 	bl	10009968 <__aeabi_dsub>
100064d0:	1c02      	adds	r2, r0, #0
100064d2:	1c0b      	adds	r3, r1, #0
100064d4:	4649      	mov	r1, r9
100064d6:	1c20      	adds	r0, r4, #0
100064d8:	600a      	str	r2, [r1, #0]
100064da:	604b      	str	r3, [r1, #4]
100064dc:	1c29      	adds	r1, r5, #0
100064de:	f003 fa43 	bl	10009968 <__aeabi_dsub>
100064e2:	4b81      	ldr	r3, [pc, #516]	; (100066e8 <__ieee754_rem_pio2+0x390>)
100064e4:	4a7f      	ldr	r2, [pc, #508]	; (100066e4 <__ieee754_rem_pio2+0x38c>)
100064e6:	f003 fa3f 	bl	10009968 <__aeabi_dsub>
100064ea:	464b      	mov	r3, r9
100064ec:	6098      	str	r0, [r3, #8]
100064ee:	60d9      	str	r1, [r3, #12]
100064f0:	2001      	movs	r0, #1
100064f2:	e7d1      	b.n	10006498 <__ieee754_rem_pio2+0x140>
100064f4:	f7ff ff00 	bl	100062f8 <fabs>
100064f8:	4a7c      	ldr	r2, [pc, #496]	; (100066ec <__ieee754_rem_pio2+0x394>)
100064fa:	4b7d      	ldr	r3, [pc, #500]	; (100066f0 <__ieee754_rem_pio2+0x398>)
100064fc:	1c04      	adds	r4, r0, #0
100064fe:	1c0d      	adds	r5, r1, #0
10006500:	f002 ff98 	bl	10009434 <__aeabi_dmul>
10006504:	2200      	movs	r2, #0
10006506:	4b7b      	ldr	r3, [pc, #492]	; (100066f4 <__ieee754_rem_pio2+0x39c>)
10006508:	f002 f82e 	bl	10008568 <__aeabi_dadd>
1000650c:	f003 fda6 	bl	1000a05c <__aeabi_d2iz>
10006510:	1c07      	adds	r7, r0, #0
10006512:	f003 fdd9 	bl	1000a0c8 <__aeabi_i2d>
10006516:	4a6a      	ldr	r2, [pc, #424]	; (100066c0 <__ieee754_rem_pio2+0x368>)
10006518:	4b6a      	ldr	r3, [pc, #424]	; (100066c4 <__ieee754_rem_pio2+0x36c>)
1000651a:	9004      	str	r0, [sp, #16]
1000651c:	9105      	str	r1, [sp, #20]
1000651e:	f002 ff89 	bl	10009434 <__aeabi_dmul>
10006522:	1c02      	adds	r2, r0, #0
10006524:	1c0b      	adds	r3, r1, #0
10006526:	1c20      	adds	r0, r4, #0
10006528:	1c29      	adds	r1, r5, #0
1000652a:	f003 fa1d 	bl	10009968 <__aeabi_dsub>
1000652e:	4a66      	ldr	r2, [pc, #408]	; (100066c8 <__ieee754_rem_pio2+0x370>)
10006530:	9002      	str	r0, [sp, #8]
10006532:	9103      	str	r1, [sp, #12]
10006534:	9804      	ldr	r0, [sp, #16]
10006536:	9905      	ldr	r1, [sp, #20]
10006538:	4b64      	ldr	r3, [pc, #400]	; (100066cc <__ieee754_rem_pio2+0x374>)
1000653a:	f002 ff7b 	bl	10009434 <__aeabi_dmul>
1000653e:	9006      	str	r0, [sp, #24]
10006540:	9107      	str	r1, [sp, #28]
10006542:	9802      	ldr	r0, [sp, #8]
10006544:	9903      	ldr	r1, [sp, #12]
10006546:	2f1f      	cmp	r7, #31
10006548:	dc33      	bgt.n	100065b2 <__ieee754_rem_pio2+0x25a>
1000654a:	1e7b      	subs	r3, r7, #1
1000654c:	4a6a      	ldr	r2, [pc, #424]	; (100066f8 <__ieee754_rem_pio2+0x3a0>)
1000654e:	009b      	lsls	r3, r3, #2
10006550:	589b      	ldr	r3, [r3, r2]
10006552:	42b3      	cmp	r3, r6
10006554:	d02d      	beq.n	100065b2 <__ieee754_rem_pio2+0x25a>
10006556:	9a06      	ldr	r2, [sp, #24]
10006558:	9b07      	ldr	r3, [sp, #28]
1000655a:	f003 fa05 	bl	10009968 <__aeabi_dsub>
1000655e:	1c0b      	adds	r3, r1, #0
10006560:	1c0c      	adds	r4, r1, #0
10006562:	1c02      	adds	r2, r0, #0
10006564:	4649      	mov	r1, r9
10006566:	1c05      	adds	r5, r0, #0
10006568:	600a      	str	r2, [r1, #0]
1000656a:	604b      	str	r3, [r1, #4]
1000656c:	9802      	ldr	r0, [sp, #8]
1000656e:	9903      	ldr	r1, [sp, #12]
10006570:	1c2a      	adds	r2, r5, #0
10006572:	1c23      	adds	r3, r4, #0
10006574:	f003 f9f8 	bl	10009968 <__aeabi_dsub>
10006578:	9a06      	ldr	r2, [sp, #24]
1000657a:	9b07      	ldr	r3, [sp, #28]
1000657c:	f003 f9f4 	bl	10009968 <__aeabi_dsub>
10006580:	1c06      	adds	r6, r0, #0
10006582:	1c0b      	adds	r3, r1, #0
10006584:	4648      	mov	r0, r9
10006586:	1c32      	adds	r2, r6, #0
10006588:	6082      	str	r2, [r0, #8]
1000658a:	60c3      	str	r3, [r0, #12]
1000658c:	4653      	mov	r3, sl
1000658e:	1c38      	adds	r0, r7, #0
10006590:	2b00      	cmp	r3, #0
10006592:	db00      	blt.n	10006596 <__ieee754_rem_pio2+0x23e>
10006594:	e780      	b.n	10006498 <__ieee754_rem_pio2+0x140>
10006596:	464b      	mov	r3, r9
10006598:	601d      	str	r5, [r3, #0]
1000659a:	2380      	movs	r3, #128	; 0x80
1000659c:	061b      	lsls	r3, r3, #24
1000659e:	469c      	mov	ip, r3
100065a0:	464b      	mov	r3, r9
100065a2:	4464      	add	r4, ip
100065a4:	605c      	str	r4, [r3, #4]
100065a6:	609e      	str	r6, [r3, #8]
100065a8:	464b      	mov	r3, r9
100065aa:	4461      	add	r1, ip
100065ac:	60d9      	str	r1, [r3, #12]
100065ae:	4278      	negs	r0, r7
100065b0:	e772      	b.n	10006498 <__ieee754_rem_pio2+0x140>
100065b2:	9a06      	ldr	r2, [sp, #24]
100065b4:	9b07      	ldr	r3, [sp, #28]
100065b6:	f003 f9d7 	bl	10009968 <__aeabi_dsub>
100065ba:	1c0b      	adds	r3, r1, #0
100065bc:	1c0c      	adds	r4, r1, #0
100065be:	1c02      	adds	r2, r0, #0
100065c0:	4649      	mov	r1, r9
100065c2:	600a      	str	r2, [r1, #0]
100065c4:	604b      	str	r3, [r1, #4]
100065c6:	0063      	lsls	r3, r4, #1
100065c8:	1536      	asrs	r6, r6, #20
100065ca:	0d5b      	lsrs	r3, r3, #21
100065cc:	1c05      	adds	r5, r0, #0
100065ce:	1af3      	subs	r3, r6, r3
100065d0:	2b10      	cmp	r3, #16
100065d2:	ddcb      	ble.n	1000656c <__ieee754_rem_pio2+0x214>
100065d4:	9804      	ldr	r0, [sp, #16]
100065d6:	9905      	ldr	r1, [sp, #20]
100065d8:	22d3      	movs	r2, #211	; 0xd3
100065da:	4b3c      	ldr	r3, [pc, #240]	; (100066cc <__ieee754_rem_pio2+0x374>)
100065dc:	0552      	lsls	r2, r2, #21
100065de:	f002 ff29 	bl	10009434 <__aeabi_dmul>
100065e2:	1c04      	adds	r4, r0, #0
100065e4:	1c0d      	adds	r5, r1, #0
100065e6:	9802      	ldr	r0, [sp, #8]
100065e8:	9903      	ldr	r1, [sp, #12]
100065ea:	1c22      	adds	r2, r4, #0
100065ec:	1c2b      	adds	r3, r5, #0
100065ee:	f003 f9bb 	bl	10009968 <__aeabi_dsub>
100065f2:	1c02      	adds	r2, r0, #0
100065f4:	1c0b      	adds	r3, r1, #0
100065f6:	9802      	ldr	r0, [sp, #8]
100065f8:	9903      	ldr	r1, [sp, #12]
100065fa:	9208      	str	r2, [sp, #32]
100065fc:	9309      	str	r3, [sp, #36]	; 0x24
100065fe:	f003 f9b3 	bl	10009968 <__aeabi_dsub>
10006602:	1c22      	adds	r2, r4, #0
10006604:	1c2b      	adds	r3, r5, #0
10006606:	f003 f9af 	bl	10009968 <__aeabi_dsub>
1000660a:	1c04      	adds	r4, r0, #0
1000660c:	1c0d      	adds	r5, r1, #0
1000660e:	9804      	ldr	r0, [sp, #16]
10006610:	9905      	ldr	r1, [sp, #20]
10006612:	4a34      	ldr	r2, [pc, #208]	; (100066e4 <__ieee754_rem_pio2+0x38c>)
10006614:	4b34      	ldr	r3, [pc, #208]	; (100066e8 <__ieee754_rem_pio2+0x390>)
10006616:	f002 ff0d 	bl	10009434 <__aeabi_dmul>
1000661a:	1c22      	adds	r2, r4, #0
1000661c:	1c2b      	adds	r3, r5, #0
1000661e:	f003 f9a3 	bl	10009968 <__aeabi_dsub>
10006622:	1c03      	adds	r3, r0, #0
10006624:	1c0c      	adds	r4, r1, #0
10006626:	9808      	ldr	r0, [sp, #32]
10006628:	9909      	ldr	r1, [sp, #36]	; 0x24
1000662a:	9306      	str	r3, [sp, #24]
1000662c:	9407      	str	r4, [sp, #28]
1000662e:	1c1a      	adds	r2, r3, #0
10006630:	1c23      	adds	r3, r4, #0
10006632:	f003 f999 	bl	10009968 <__aeabi_dsub>
10006636:	1c02      	adds	r2, r0, #0
10006638:	1c0b      	adds	r3, r1, #0
1000663a:	1c05      	adds	r5, r0, #0
1000663c:	4648      	mov	r0, r9
1000663e:	6002      	str	r2, [r0, #0]
10006640:	6043      	str	r3, [r0, #4]
10006642:	004b      	lsls	r3, r1, #1
10006644:	0d5b      	lsrs	r3, r3, #21
10006646:	1c0c      	adds	r4, r1, #0
10006648:	9908      	ldr	r1, [sp, #32]
1000664a:	9a09      	ldr	r2, [sp, #36]	; 0x24
1000664c:	1af3      	subs	r3, r6, r3
1000664e:	9102      	str	r1, [sp, #8]
10006650:	9203      	str	r2, [sp, #12]
10006652:	2b31      	cmp	r3, #49	; 0x31
10006654:	dd8a      	ble.n	1000656c <__ieee754_rem_pio2+0x214>
10006656:	9804      	ldr	r0, [sp, #16]
10006658:	9905      	ldr	r1, [sp, #20]
1000665a:	22b8      	movs	r2, #184	; 0xb8
1000665c:	4b22      	ldr	r3, [pc, #136]	; (100066e8 <__ieee754_rem_pio2+0x390>)
1000665e:	0592      	lsls	r2, r2, #22
10006660:	f002 fee8 	bl	10009434 <__aeabi_dmul>
10006664:	1c04      	adds	r4, r0, #0
10006666:	1c0d      	adds	r5, r1, #0
10006668:	9802      	ldr	r0, [sp, #8]
1000666a:	9903      	ldr	r1, [sp, #12]
1000666c:	1c22      	adds	r2, r4, #0
1000666e:	1c2b      	adds	r3, r5, #0
10006670:	f003 f97a 	bl	10009968 <__aeabi_dsub>
10006674:	1c02      	adds	r2, r0, #0
10006676:	1c0b      	adds	r3, r1, #0
10006678:	9808      	ldr	r0, [sp, #32]
1000667a:	9909      	ldr	r1, [sp, #36]	; 0x24
1000667c:	9202      	str	r2, [sp, #8]
1000667e:	9303      	str	r3, [sp, #12]
10006680:	f003 f972 	bl	10009968 <__aeabi_dsub>
10006684:	1c22      	adds	r2, r4, #0
10006686:	1c2b      	adds	r3, r5, #0
10006688:	f003 f96e 	bl	10009968 <__aeabi_dsub>
1000668c:	1c04      	adds	r4, r0, #0
1000668e:	1c0d      	adds	r5, r1, #0
10006690:	9804      	ldr	r0, [sp, #16]
10006692:	9905      	ldr	r1, [sp, #20]
10006694:	4a19      	ldr	r2, [pc, #100]	; (100066fc <__ieee754_rem_pio2+0x3a4>)
10006696:	4b1a      	ldr	r3, [pc, #104]	; (10006700 <__ieee754_rem_pio2+0x3a8>)
10006698:	f002 fecc 	bl	10009434 <__aeabi_dmul>
1000669c:	1c22      	adds	r2, r4, #0
1000669e:	1c2b      	adds	r3, r5, #0
100066a0:	f003 f962 	bl	10009968 <__aeabi_dsub>
100066a4:	1c03      	adds	r3, r0, #0
100066a6:	1c0c      	adds	r4, r1, #0
100066a8:	9802      	ldr	r0, [sp, #8]
100066aa:	9903      	ldr	r1, [sp, #12]
100066ac:	9306      	str	r3, [sp, #24]
100066ae:	9407      	str	r4, [sp, #28]
100066b0:	1c1a      	adds	r2, r3, #0
100066b2:	1c23      	adds	r3, r4, #0
100066b4:	e751      	b.n	1000655a <__ieee754_rem_pio2+0x202>
100066b6:	46c0      	nop			; (mov r8, r8)
100066b8:	3fe921fb 	.word	0x3fe921fb
100066bc:	4002d97b 	.word	0x4002d97b
100066c0:	54400000 	.word	0x54400000
100066c4:	3ff921fb 	.word	0x3ff921fb
100066c8:	1a626331 	.word	0x1a626331
100066cc:	3dd0b461 	.word	0x3dd0b461
100066d0:	413921fb 	.word	0x413921fb
100066d4:	7fefffff 	.word	0x7fefffff
100066d8:	fffffbea 	.word	0xfffffbea
100066dc:	41700000 	.word	0x41700000
100066e0:	1000aad0 	.word	0x1000aad0
100066e4:	2e037073 	.word	0x2e037073
100066e8:	3ba3198a 	.word	0x3ba3198a
100066ec:	6dc9c883 	.word	0x6dc9c883
100066f0:	3fe45f30 	.word	0x3fe45f30
100066f4:	3fe00000 	.word	0x3fe00000
100066f8:	1000aa50 	.word	0x1000aa50
100066fc:	252049c1 	.word	0x252049c1
10006700:	397b839a 	.word	0x397b839a
10006704:	4b1b      	ldr	r3, [pc, #108]	; (10006774 <__ieee754_rem_pio2+0x41c>)
10006706:	f001 ff2f 	bl	10008568 <__aeabi_dadd>
1000670a:	4b1a      	ldr	r3, [pc, #104]	; (10006774 <__ieee754_rem_pio2+0x41c>)
1000670c:	1c04      	adds	r4, r0, #0
1000670e:	1c0d      	adds	r5, r1, #0
10006710:	429e      	cmp	r6, r3
10006712:	d018      	beq.n	10006746 <__ieee754_rem_pio2+0x3ee>
10006714:	4a18      	ldr	r2, [pc, #96]	; (10006778 <__ieee754_rem_pio2+0x420>)
10006716:	4b19      	ldr	r3, [pc, #100]	; (1000677c <__ieee754_rem_pio2+0x424>)
10006718:	f001 ff26 	bl	10008568 <__aeabi_dadd>
1000671c:	1c02      	adds	r2, r0, #0
1000671e:	1c0b      	adds	r3, r1, #0
10006720:	4649      	mov	r1, r9
10006722:	1c20      	adds	r0, r4, #0
10006724:	600a      	str	r2, [r1, #0]
10006726:	604b      	str	r3, [r1, #4]
10006728:	1c29      	adds	r1, r5, #0
1000672a:	f003 f91d 	bl	10009968 <__aeabi_dsub>
1000672e:	4a12      	ldr	r2, [pc, #72]	; (10006778 <__ieee754_rem_pio2+0x420>)
10006730:	4b12      	ldr	r3, [pc, #72]	; (1000677c <__ieee754_rem_pio2+0x424>)
10006732:	f001 ff19 	bl	10008568 <__aeabi_dadd>
10006736:	464b      	mov	r3, r9
10006738:	6098      	str	r0, [r3, #8]
1000673a:	60d9      	str	r1, [r3, #12]
1000673c:	2001      	movs	r0, #1
1000673e:	4240      	negs	r0, r0
10006740:	e6aa      	b.n	10006498 <__ieee754_rem_pio2+0x140>
10006742:	2303      	movs	r3, #3
10006744:	e685      	b.n	10006452 <__ieee754_rem_pio2+0xfa>
10006746:	22d3      	movs	r2, #211	; 0xd3
10006748:	4b0c      	ldr	r3, [pc, #48]	; (1000677c <__ieee754_rem_pio2+0x424>)
1000674a:	0552      	lsls	r2, r2, #21
1000674c:	f001 ff0c 	bl	10008568 <__aeabi_dadd>
10006750:	4a0b      	ldr	r2, [pc, #44]	; (10006780 <__ieee754_rem_pio2+0x428>)
10006752:	4b0c      	ldr	r3, [pc, #48]	; (10006784 <__ieee754_rem_pio2+0x42c>)
10006754:	1c04      	adds	r4, r0, #0
10006756:	1c0d      	adds	r5, r1, #0
10006758:	f001 ff06 	bl	10008568 <__aeabi_dadd>
1000675c:	1c02      	adds	r2, r0, #0
1000675e:	1c0b      	adds	r3, r1, #0
10006760:	4649      	mov	r1, r9
10006762:	1c20      	adds	r0, r4, #0
10006764:	600a      	str	r2, [r1, #0]
10006766:	604b      	str	r3, [r1, #4]
10006768:	1c29      	adds	r1, r5, #0
1000676a:	f003 f8fd 	bl	10009968 <__aeabi_dsub>
1000676e:	4a04      	ldr	r2, [pc, #16]	; (10006780 <__ieee754_rem_pio2+0x428>)
10006770:	4b04      	ldr	r3, [pc, #16]	; (10006784 <__ieee754_rem_pio2+0x42c>)
10006772:	e7de      	b.n	10006732 <__ieee754_rem_pio2+0x3da>
10006774:	3ff921fb 	.word	0x3ff921fb
10006778:	1a626331 	.word	0x1a626331
1000677c:	3dd0b461 	.word	0x3dd0b461
10006780:	2e037073 	.word	0x2e037073
10006784:	3ba3198a 	.word	0x3ba3198a

10006788 <__kernel_rem_pio2>:
10006788:	b5f0      	push	{r4, r5, r6, r7, lr}
1000678a:	4656      	mov	r6, sl
1000678c:	464d      	mov	r5, r9
1000678e:	4644      	mov	r4, r8
10006790:	465f      	mov	r7, fp
10006792:	b4f0      	push	{r4, r5, r6, r7}
10006794:	4c8e      	ldr	r4, [pc, #568]	; (100069d0 <__kernel_rem_pio2+0x248>)
10006796:	44a5      	add	sp, r4
10006798:	9108      	str	r1, [sp, #32]
1000679a:	1c19      	adds	r1, r3, #0
1000679c:	1c14      	adds	r4, r2, #0
1000679e:	9aa6      	ldr	r2, [sp, #664]	; 0x298
100067a0:	9309      	str	r3, [sp, #36]	; 0x24
100067a2:	4b8c      	ldr	r3, [pc, #560]	; (100069d4 <__kernel_rem_pio2+0x24c>)
100067a4:	0092      	lsls	r2, r2, #2
100067a6:	58d2      	ldr	r2, [r2, r3]
100067a8:	1c0b      	adds	r3, r1, #0
100067aa:	9002      	str	r0, [sp, #8]
100067ac:	3b01      	subs	r3, #1
100067ae:	1ee0      	subs	r0, r4, #3
100067b0:	2118      	movs	r1, #24
100067b2:	1c1d      	adds	r5, r3, #0
100067b4:	1c16      	adds	r6, r2, #0
100067b6:	9207      	str	r2, [sp, #28]
100067b8:	9300      	str	r3, [sp, #0]
100067ba:	f7fb ff55 	bl	10002668 <__aeabi_idiv>
100067be:	43c3      	mvns	r3, r0
100067c0:	1c02      	adds	r2, r0, #0
100067c2:	17db      	asrs	r3, r3, #31
100067c4:	401a      	ands	r2, r3
100067c6:	43d3      	mvns	r3, r2
100067c8:	1c11      	adds	r1, r2, #0
100067ca:	920c      	str	r2, [sp, #48]	; 0x30
100067cc:	005a      	lsls	r2, r3, #1
100067ce:	18d3      	adds	r3, r2, r3
100067d0:	00db      	lsls	r3, r3, #3
100067d2:	191b      	adds	r3, r3, r4
100067d4:	9304      	str	r3, [sp, #16]
100067d6:	1b4c      	subs	r4, r1, r5
100067d8:	19ae      	adds	r6, r5, r6
100067da:	d418      	bmi.n	1000680e <__kernel_rem_pio2+0x86>
100067dc:	9ba7      	ldr	r3, [sp, #668]	; 0x29c
100067de:	00a5      	lsls	r5, r4, #2
100067e0:	469c      	mov	ip, r3
100067e2:	19a6      	adds	r6, r4, r6
100067e4:	af24      	add	r7, sp, #144	; 0x90
100067e6:	4465      	add	r5, ip
100067e8:	3601      	adds	r6, #1
100067ea:	e007      	b.n	100067fc <__kernel_rem_pio2+0x74>
100067ec:	6828      	ldr	r0, [r5, #0]
100067ee:	f003 fc6b 	bl	1000a0c8 <__aeabi_i2d>
100067f2:	3401      	adds	r4, #1
100067f4:	c703      	stmia	r7!, {r0, r1}
100067f6:	3504      	adds	r5, #4
100067f8:	42b4      	cmp	r4, r6
100067fa:	d008      	beq.n	1000680e <__kernel_rem_pio2+0x86>
100067fc:	2c00      	cmp	r4, #0
100067fe:	daf5      	bge.n	100067ec <__kernel_rem_pio2+0x64>
10006800:	2000      	movs	r0, #0
10006802:	2100      	movs	r1, #0
10006804:	3401      	adds	r4, #1
10006806:	c703      	stmia	r7!, {r0, r1}
10006808:	3504      	adds	r5, #4
1000680a:	42b4      	cmp	r4, r6
1000680c:	d1f6      	bne.n	100067fc <__kernel_rem_pio2+0x74>
1000680e:	9b07      	ldr	r3, [sp, #28]
10006810:	2b00      	cmp	r3, #0
10006812:	da01      	bge.n	10006818 <__kernel_rem_pio2+0x90>
10006814:	f000 fbec 	bl	10006ff0 <__kernel_rem_pio2+0x868>
10006818:	2200      	movs	r2, #0
1000681a:	9b07      	ldr	r3, [sp, #28]
1000681c:	4691      	mov	r9, r2
1000681e:	3301      	adds	r3, #1
10006820:	00db      	lsls	r3, r3, #3
10006822:	469a      	mov	sl, r3
10006824:	9b09      	ldr	r3, [sp, #36]	; 0x24
10006826:	aa74      	add	r2, sp, #464	; 0x1d0
10006828:	00db      	lsls	r3, r3, #3
1000682a:	9206      	str	r2, [sp, #24]
1000682c:	2208      	movs	r2, #8
1000682e:	469c      	mov	ip, r3
10006830:	4252      	negs	r2, r2
10006832:	4462      	add	r2, ip
10006834:	4693      	mov	fp, r2
10006836:	9303      	str	r3, [sp, #12]
10006838:	9b00      	ldr	r3, [sp, #0]
1000683a:	2b00      	cmp	r3, #0
1000683c:	da00      	bge.n	10006840 <__kernel_rem_pio2+0xb8>
1000683e:	e290      	b.n	10006d62 <__kernel_rem_pio2+0x5da>
10006840:	ab24      	add	r3, sp, #144	; 0x90
10006842:	469c      	mov	ip, r3
10006844:	465c      	mov	r4, fp
10006846:	464b      	mov	r3, r9
10006848:	46e0      	mov	r8, ip
1000684a:	2600      	movs	r6, #0
1000684c:	2700      	movs	r7, #0
1000684e:	444c      	add	r4, r9
10006850:	3b08      	subs	r3, #8
10006852:	9d02      	ldr	r5, [sp, #8]
10006854:	4464      	add	r4, ip
10006856:	4498      	add	r8, r3
10006858:	6822      	ldr	r2, [r4, #0]
1000685a:	6863      	ldr	r3, [r4, #4]
1000685c:	cd03      	ldmia	r5!, {r0, r1}
1000685e:	f002 fde9 	bl	10009434 <__aeabi_dmul>
10006862:	1c02      	adds	r2, r0, #0
10006864:	1c0b      	adds	r3, r1, #0
10006866:	1c30      	adds	r0, r6, #0
10006868:	1c39      	adds	r1, r7, #0
1000686a:	f001 fe7d 	bl	10008568 <__aeabi_dadd>
1000686e:	3c08      	subs	r4, #8
10006870:	1c06      	adds	r6, r0, #0
10006872:	1c0f      	adds	r7, r1, #0
10006874:	4544      	cmp	r4, r8
10006876:	d1ef      	bne.n	10006858 <__kernel_rem_pio2+0xd0>
10006878:	9b06      	ldr	r3, [sp, #24]
1000687a:	444b      	add	r3, r9
1000687c:	601e      	str	r6, [r3, #0]
1000687e:	605f      	str	r7, [r3, #4]
10006880:	2308      	movs	r3, #8
10006882:	469c      	mov	ip, r3
10006884:	44e1      	add	r9, ip
10006886:	45d1      	cmp	r9, sl
10006888:	d1d6      	bne.n	10006838 <__kernel_rem_pio2+0xb0>
1000688a:	9a07      	ldr	r2, [sp, #28]
1000688c:	4952      	ldr	r1, [pc, #328]	; (100069d8 <__kernel_rem_pio2+0x250>)
1000688e:	1c13      	adds	r3, r2, #0
10006890:	468c      	mov	ip, r1
10006892:	4463      	add	r3, ip
10006894:	009b      	lsls	r3, r3, #2
10006896:	a810      	add	r0, sp, #64	; 0x40
10006898:	1c19      	adds	r1, r3, #0
1000689a:	4684      	mov	ip, r0
1000689c:	4691      	mov	r9, r2
1000689e:	3304      	adds	r3, #4
100068a0:	4461      	add	r1, ip
100068a2:	4463      	add	r3, ip
100068a4:	910b      	str	r1, [sp, #44]	; 0x2c
100068a6:	930d      	str	r3, [sp, #52]	; 0x34
100068a8:	464b      	mov	r3, r9
100068aa:	00db      	lsls	r3, r3, #3
100068ac:	1c1a      	adds	r2, r3, #0
100068ae:	9906      	ldr	r1, [sp, #24]
100068b0:	930a      	str	r3, [sp, #40]	; 0x28
100068b2:	4694      	mov	ip, r2
100068b4:	1c0b      	adds	r3, r1, #0
100068b6:	4463      	add	r3, ip
100068b8:	681e      	ldr	r6, [r3, #0]
100068ba:	685f      	ldr	r7, [r3, #4]
100068bc:	464b      	mov	r3, r9
100068be:	2b00      	cmp	r3, #0
100068c0:	dd32      	ble.n	10006928 <__kernel_rem_pio2+0x1a0>
100068c2:	4688      	mov	r8, r1
100068c4:	ab10      	add	r3, sp, #64	; 0x40
100068c6:	469a      	mov	sl, r3
100068c8:	4b44      	ldr	r3, [pc, #272]	; (100069dc <__kernel_rem_pio2+0x254>)
100068ca:	444b      	add	r3, r9
100068cc:	00db      	lsls	r3, r3, #3
100068ce:	4498      	add	r8, r3
100068d0:	ab72      	add	r3, sp, #456	; 0x1c8
100068d2:	469b      	mov	fp, r3
100068d4:	2200      	movs	r2, #0
100068d6:	4b42      	ldr	r3, [pc, #264]	; (100069e0 <__kernel_rem_pio2+0x258>)
100068d8:	1c30      	adds	r0, r6, #0
100068da:	1c39      	adds	r1, r7, #0
100068dc:	f002 fdaa 	bl	10009434 <__aeabi_dmul>
100068e0:	f003 fbbc 	bl	1000a05c <__aeabi_d2iz>
100068e4:	f003 fbf0 	bl	1000a0c8 <__aeabi_i2d>
100068e8:	2200      	movs	r2, #0
100068ea:	4b3e      	ldr	r3, [pc, #248]	; (100069e4 <__kernel_rem_pio2+0x25c>)
100068ec:	1c04      	adds	r4, r0, #0
100068ee:	1c0d      	adds	r5, r1, #0
100068f0:	f002 fda0 	bl	10009434 <__aeabi_dmul>
100068f4:	1c02      	adds	r2, r0, #0
100068f6:	1c0b      	adds	r3, r1, #0
100068f8:	1c30      	adds	r0, r6, #0
100068fa:	1c39      	adds	r1, r7, #0
100068fc:	f003 f834 	bl	10009968 <__aeabi_dsub>
10006900:	f003 fbac 	bl	1000a05c <__aeabi_d2iz>
10006904:	4653      	mov	r3, sl
10006906:	c301      	stmia	r3!, {r0}
10006908:	469a      	mov	sl, r3
1000690a:	4643      	mov	r3, r8
1000690c:	1c20      	adds	r0, r4, #0
1000690e:	681a      	ldr	r2, [r3, #0]
10006910:	685b      	ldr	r3, [r3, #4]
10006912:	1c29      	adds	r1, r5, #0
10006914:	f001 fe28 	bl	10008568 <__aeabi_dadd>
10006918:	2308      	movs	r3, #8
1000691a:	425b      	negs	r3, r3
1000691c:	469c      	mov	ip, r3
1000691e:	44e0      	add	r8, ip
10006920:	1c06      	adds	r6, r0, #0
10006922:	1c0f      	adds	r7, r1, #0
10006924:	45d8      	cmp	r8, fp
10006926:	d1d5      	bne.n	100068d4 <__kernel_rem_pio2+0x14c>
10006928:	9b04      	ldr	r3, [sp, #16]
1000692a:	1c30      	adds	r0, r6, #0
1000692c:	1c1a      	adds	r2, r3, #0
1000692e:	1c39      	adds	r1, r7, #0
10006930:	4698      	mov	r8, r3
10006932:	f000 fde1 	bl	100074f8 <scalbn>
10006936:	23ff      	movs	r3, #255	; 0xff
10006938:	2200      	movs	r2, #0
1000693a:	059b      	lsls	r3, r3, #22
1000693c:	1c04      	adds	r4, r0, #0
1000693e:	1c0d      	adds	r5, r1, #0
10006940:	f002 fd78 	bl	10009434 <__aeabi_dmul>
10006944:	f000 fd32 	bl	100073ac <floor>
10006948:	2200      	movs	r2, #0
1000694a:	4b27      	ldr	r3, [pc, #156]	; (100069e8 <__kernel_rem_pio2+0x260>)
1000694c:	f002 fd72 	bl	10009434 <__aeabi_dmul>
10006950:	1c02      	adds	r2, r0, #0
10006952:	1c0b      	adds	r3, r1, #0
10006954:	1c20      	adds	r0, r4, #0
10006956:	1c29      	adds	r1, r5, #0
10006958:	f003 f806 	bl	10009968 <__aeabi_dsub>
1000695c:	1c0d      	adds	r5, r1, #0
1000695e:	1c04      	adds	r4, r0, #0
10006960:	f003 fb7c 	bl	1000a05c <__aeabi_d2iz>
10006964:	4682      	mov	sl, r0
10006966:	f003 fbaf 	bl	1000a0c8 <__aeabi_i2d>
1000696a:	1c02      	adds	r2, r0, #0
1000696c:	1c0b      	adds	r3, r1, #0
1000696e:	1c20      	adds	r0, r4, #0
10006970:	1c29      	adds	r1, r5, #0
10006972:	f002 fff9 	bl	10009968 <__aeabi_dsub>
10006976:	1c06      	adds	r6, r0, #0
10006978:	4640      	mov	r0, r8
1000697a:	1c0f      	adds	r7, r1, #0
1000697c:	2800      	cmp	r0, #0
1000697e:	dc00      	bgt.n	10006982 <__kernel_rem_pio2+0x1fa>
10006980:	e1cf      	b.n	10006d22 <__kernel_rem_pio2+0x59a>
10006982:	464b      	mov	r3, r9
10006984:	1e5a      	subs	r2, r3, #1
10006986:	0092      	lsls	r2, r2, #2
10006988:	ab10      	add	r3, sp, #64	; 0x40
1000698a:	589b      	ldr	r3, [r3, r2]
1000698c:	2518      	movs	r5, #24
1000698e:	1c19      	adds	r1, r3, #0
10006990:	1a2d      	subs	r5, r5, r0
10006992:	4129      	asrs	r1, r5
10006994:	448a      	add	sl, r1
10006996:	40a9      	lsls	r1, r5
10006998:	2517      	movs	r5, #23
1000699a:	1a5b      	subs	r3, r3, r1
1000699c:	1a2d      	subs	r5, r5, r0
1000699e:	a910      	add	r1, sp, #64	; 0x40
100069a0:	508b      	str	r3, [r1, r2]
100069a2:	412b      	asrs	r3, r5
100069a4:	9305      	str	r3, [sp, #20]
100069a6:	9b05      	ldr	r3, [sp, #20]
100069a8:	2b00      	cmp	r3, #0
100069aa:	dd4c      	ble.n	10006a46 <__kernel_rem_pio2+0x2be>
100069ac:	2301      	movs	r3, #1
100069ae:	469c      	mov	ip, r3
100069b0:	464b      	mov	r3, r9
100069b2:	44e2      	add	sl, ip
100069b4:	2b00      	cmp	r3, #0
100069b6:	dc00      	bgt.n	100069ba <__kernel_rem_pio2+0x232>
100069b8:	e318      	b.n	10006fec <__kernel_rem_pio2+0x864>
100069ba:	2580      	movs	r5, #128	; 0x80
100069bc:	960e      	str	r6, [sp, #56]	; 0x38
100069be:	970f      	str	r7, [sp, #60]	; 0x3c
100069c0:	ab10      	add	r3, sp, #64	; 0x40
100069c2:	2100      	movs	r1, #0
100069c4:	2400      	movs	r4, #0
100069c6:	4809      	ldr	r0, [pc, #36]	; (100069ec <__kernel_rem_pio2+0x264>)
100069c8:	046d      	lsls	r5, r5, #17
100069ca:	464e      	mov	r6, r9
100069cc:	e019      	b.n	10006a02 <__kernel_rem_pio2+0x27a>
100069ce:	46c0      	nop			; (mov r8, r8)
100069d0:	fffffd8c 	.word	0xfffffd8c
100069d4:	1000abd8 	.word	0x1000abd8
100069d8:	3ffffffe 	.word	0x3ffffffe
100069dc:	1fffffff 	.word	0x1fffffff
100069e0:	3e700000 	.word	0x3e700000
100069e4:	41700000 	.word	0x41700000
100069e8:	40200000 	.word	0x40200000
100069ec:	00ffffff 	.word	0x00ffffff
100069f0:	2a00      	cmp	r2, #0
100069f2:	d002      	beq.n	100069fa <__kernel_rem_pio2+0x272>
100069f4:	1aaa      	subs	r2, r5, r2
100069f6:	601a      	str	r2, [r3, #0]
100069f8:	3401      	adds	r4, #1
100069fa:	3101      	adds	r1, #1
100069fc:	3304      	adds	r3, #4
100069fe:	428e      	cmp	r6, r1
10006a00:	dd09      	ble.n	10006a16 <__kernel_rem_pio2+0x28e>
10006a02:	681a      	ldr	r2, [r3, #0]
10006a04:	2c00      	cmp	r4, #0
10006a06:	d0f3      	beq.n	100069f0 <__kernel_rem_pio2+0x268>
10006a08:	1a82      	subs	r2, r0, r2
10006a0a:	3101      	adds	r1, #1
10006a0c:	601a      	str	r2, [r3, #0]
10006a0e:	2401      	movs	r4, #1
10006a10:	3304      	adds	r3, #4
10006a12:	428e      	cmp	r6, r1
10006a14:	dcf5      	bgt.n	10006a02 <__kernel_rem_pio2+0x27a>
10006a16:	46b1      	mov	r9, r6
10006a18:	9e0e      	ldr	r6, [sp, #56]	; 0x38
10006a1a:	9f0f      	ldr	r7, [sp, #60]	; 0x3c
10006a1c:	9b04      	ldr	r3, [sp, #16]
10006a1e:	2b00      	cmp	r3, #0
10006a20:	dd0e      	ble.n	10006a40 <__kernel_rem_pio2+0x2b8>
10006a22:	2b01      	cmp	r3, #1
10006a24:	d100      	bne.n	10006a28 <__kernel_rem_pio2+0x2a0>
10006a26:	e187      	b.n	10006d38 <__kernel_rem_pio2+0x5b0>
10006a28:	2b02      	cmp	r3, #2
10006a2a:	d109      	bne.n	10006a40 <__kernel_rem_pio2+0x2b8>
10006a2c:	464b      	mov	r3, r9
10006a2e:	1e5a      	subs	r2, r3, #1
10006a30:	0092      	lsls	r2, r2, #2
10006a32:	ab10      	add	r3, sp, #64	; 0x40
10006a34:	589b      	ldr	r3, [r3, r2]
10006a36:	a910      	add	r1, sp, #64	; 0x40
10006a38:	930e      	str	r3, [sp, #56]	; 0x38
10006a3a:	029b      	lsls	r3, r3, #10
10006a3c:	0a9b      	lsrs	r3, r3, #10
10006a3e:	508b      	str	r3, [r1, r2]
10006a40:	9b05      	ldr	r3, [sp, #20]
10006a42:	2b02      	cmp	r3, #2
10006a44:	d07a      	beq.n	10006b3c <__kernel_rem_pio2+0x3b4>
10006a46:	1c30      	adds	r0, r6, #0
10006a48:	1c39      	adds	r1, r7, #0
10006a4a:	2200      	movs	r2, #0
10006a4c:	2300      	movs	r3, #0
10006a4e:	f000 fde7 	bl	10007620 <__aeabi_dcmpeq>
10006a52:	2800      	cmp	r0, #0
10006a54:	d100      	bne.n	10006a58 <__kernel_rem_pio2+0x2d0>
10006a56:	e092      	b.n	10006b7e <__kernel_rem_pio2+0x3f6>
10006a58:	464b      	mov	r3, r9
10006a5a:	1e59      	subs	r1, r3, #1
10006a5c:	9b07      	ldr	r3, [sp, #28]
10006a5e:	428b      	cmp	r3, r1
10006a60:	dc0f      	bgt.n	10006a82 <__kernel_rem_pio2+0x2fa>
10006a62:	aa10      	add	r2, sp, #64	; 0x40
10006a64:	4694      	mov	ip, r2
10006a66:	2200      	movs	r2, #0
10006a68:	4bce      	ldr	r3, [pc, #824]	; (10006da4 <__kernel_rem_pio2+0x61c>)
10006a6a:	980d      	ldr	r0, [sp, #52]	; 0x34
10006a6c:	444b      	add	r3, r9
10006a6e:	009b      	lsls	r3, r3, #2
10006a70:	4463      	add	r3, ip
10006a72:	681c      	ldr	r4, [r3, #0]
10006a74:	3b04      	subs	r3, #4
10006a76:	4322      	orrs	r2, r4
10006a78:	4283      	cmp	r3, r0
10006a7a:	d1fa      	bne.n	10006a72 <__kernel_rem_pio2+0x2ea>
10006a7c:	2a00      	cmp	r2, #0
10006a7e:	d000      	beq.n	10006a82 <__kernel_rem_pio2+0x2fa>
10006a80:	e1e5      	b.n	10006e4e <__kernel_rem_pio2+0x6c6>
10006a82:	9b07      	ldr	r3, [sp, #28]
10006a84:	aa10      	add	r2, sp, #64	; 0x40
10006a86:	3b01      	subs	r3, #1
10006a88:	009b      	lsls	r3, r3, #2
10006a8a:	58d3      	ldr	r3, [r2, r3]
10006a8c:	2b00      	cmp	r3, #0
10006a8e:	d000      	beq.n	10006a92 <__kernel_rem_pio2+0x30a>
10006a90:	e2aa      	b.n	10006fe8 <__kernel_rem_pio2+0x860>
10006a92:	2201      	movs	r2, #1
10006a94:	9b0b      	ldr	r3, [sp, #44]	; 0x2c
10006a96:	3b04      	subs	r3, #4
10006a98:	6859      	ldr	r1, [r3, #4]
10006a9a:	3201      	adds	r2, #1
10006a9c:	2900      	cmp	r1, #0
10006a9e:	d0fa      	beq.n	10006a96 <__kernel_rem_pio2+0x30e>
10006aa0:	464b      	mov	r3, r9
10006aa2:	444a      	add	r2, r9
10006aa4:	3301      	adds	r3, #1
10006aa6:	9205      	str	r2, [sp, #20]
10006aa8:	4293      	cmp	r3, r2
10006aaa:	dc41      	bgt.n	10006b30 <__kernel_rem_pio2+0x3a8>
10006aac:	99a7      	ldr	r1, [sp, #668]	; 0x29c
10006aae:	9a0c      	ldr	r2, [sp, #48]	; 0x30
10006ab0:	468a      	mov	sl, r1
10006ab2:	189a      	adds	r2, r3, r2
10006ab4:	0092      	lsls	r2, r2, #2
10006ab6:	4492      	add	sl, r2
10006ab8:	9a0a      	ldr	r2, [sp, #40]	; 0x28
10006aba:	9906      	ldr	r1, [sp, #24]
10006abc:	4691      	mov	r9, r2
10006abe:	9a00      	ldr	r2, [sp, #0]
10006ac0:	468b      	mov	fp, r1
10006ac2:	4694      	mov	ip, r2
10006ac4:	9a09      	ldr	r2, [sp, #36]	; 0x24
10006ac6:	4463      	add	r3, ip
10006ac8:	1a9b      	subs	r3, r3, r2
10006aca:	aa24      	add	r2, sp, #144	; 0x90
10006acc:	4690      	mov	r8, r2
10006ace:	00db      	lsls	r3, r3, #3
10006ad0:	4498      	add	r8, r3
10006ad2:	9b05      	ldr	r3, [sp, #20]
10006ad4:	44d9      	add	r9, fp
10006ad6:	00db      	lsls	r3, r3, #3
10006ad8:	449b      	add	fp, r3
10006ada:	9b03      	ldr	r3, [sp, #12]
10006adc:	4443      	add	r3, r8
10006ade:	1c1c      	adds	r4, r3, #0
10006ae0:	4653      	mov	r3, sl
10006ae2:	6818      	ldr	r0, [r3, #0]
10006ae4:	f003 faf0 	bl	1000a0c8 <__aeabi_i2d>
10006ae8:	9b00      	ldr	r3, [sp, #0]
10006aea:	6020      	str	r0, [r4, #0]
10006aec:	6061      	str	r1, [r4, #4]
10006aee:	2b00      	cmp	r3, #0
10006af0:	db21      	blt.n	10006b36 <__kernel_rem_pio2+0x3ae>
10006af2:	2600      	movs	r6, #0
10006af4:	2700      	movs	r7, #0
10006af6:	9d02      	ldr	r5, [sp, #8]
10006af8:	6822      	ldr	r2, [r4, #0]
10006afa:	6863      	ldr	r3, [r4, #4]
10006afc:	cd03      	ldmia	r5!, {r0, r1}
10006afe:	f002 fc99 	bl	10009434 <__aeabi_dmul>
10006b02:	1c02      	adds	r2, r0, #0
10006b04:	1c0b      	adds	r3, r1, #0
10006b06:	1c30      	adds	r0, r6, #0
10006b08:	1c39      	adds	r1, r7, #0
10006b0a:	f001 fd2d 	bl	10008568 <__aeabi_dadd>
10006b0e:	3c08      	subs	r4, #8
10006b10:	1c06      	adds	r6, r0, #0
10006b12:	1c0f      	adds	r7, r1, #0
10006b14:	4544      	cmp	r4, r8
10006b16:	d1ef      	bne.n	10006af8 <__kernel_rem_pio2+0x370>
10006b18:	464b      	mov	r3, r9
10006b1a:	609e      	str	r6, [r3, #8]
10006b1c:	60df      	str	r7, [r3, #12]
10006b1e:	2304      	movs	r3, #4
10006b20:	469c      	mov	ip, r3
10006b22:	3304      	adds	r3, #4
10006b24:	44e2      	add	sl, ip
10006b26:	469c      	mov	ip, r3
10006b28:	44e1      	add	r9, ip
10006b2a:	44e0      	add	r8, ip
10006b2c:	45d9      	cmp	r9, fp
10006b2e:	d1d4      	bne.n	10006ada <__kernel_rem_pio2+0x352>
10006b30:	9b05      	ldr	r3, [sp, #20]
10006b32:	4699      	mov	r9, r3
10006b34:	e6b8      	b.n	100068a8 <__kernel_rem_pio2+0x120>
10006b36:	2600      	movs	r6, #0
10006b38:	2700      	movs	r7, #0
10006b3a:	e7ed      	b.n	10006b18 <__kernel_rem_pio2+0x390>
10006b3c:	1c32      	adds	r2, r6, #0
10006b3e:	1c3b      	adds	r3, r7, #0
10006b40:	2000      	movs	r0, #0
10006b42:	4999      	ldr	r1, [pc, #612]	; (10006da8 <__kernel_rem_pio2+0x620>)
10006b44:	f002 ff10 	bl	10009968 <__aeabi_dsub>
10006b48:	1c06      	adds	r6, r0, #0
10006b4a:	1c0f      	adds	r7, r1, #0
10006b4c:	2c00      	cmp	r4, #0
10006b4e:	d100      	bne.n	10006b52 <__kernel_rem_pio2+0x3ca>
10006b50:	e779      	b.n	10006a46 <__kernel_rem_pio2+0x2be>
10006b52:	9a04      	ldr	r2, [sp, #16]
10006b54:	2000      	movs	r0, #0
10006b56:	4994      	ldr	r1, [pc, #592]	; (10006da8 <__kernel_rem_pio2+0x620>)
10006b58:	f000 fcce 	bl	100074f8 <scalbn>
10006b5c:	1c02      	adds	r2, r0, #0
10006b5e:	1c0b      	adds	r3, r1, #0
10006b60:	1c30      	adds	r0, r6, #0
10006b62:	1c39      	adds	r1, r7, #0
10006b64:	f002 ff00 	bl	10009968 <__aeabi_dsub>
10006b68:	1c06      	adds	r6, r0, #0
10006b6a:	1c0f      	adds	r7, r1, #0
10006b6c:	1c30      	adds	r0, r6, #0
10006b6e:	1c39      	adds	r1, r7, #0
10006b70:	2200      	movs	r2, #0
10006b72:	2300      	movs	r3, #0
10006b74:	f000 fd54 	bl	10007620 <__aeabi_dcmpeq>
10006b78:	2800      	cmp	r0, #0
10006b7a:	d000      	beq.n	10006b7e <__kernel_rem_pio2+0x3f6>
10006b7c:	e76c      	b.n	10006a58 <__kernel_rem_pio2+0x2d0>
10006b7e:	4653      	mov	r3, sl
10006b80:	9309      	str	r3, [sp, #36]	; 0x24
10006b82:	9b04      	ldr	r3, [sp, #16]
10006b84:	1c30      	adds	r0, r6, #0
10006b86:	425a      	negs	r2, r3
10006b88:	1c39      	adds	r1, r7, #0
10006b8a:	f000 fcb5 	bl	100074f8 <scalbn>
10006b8e:	2200      	movs	r2, #0
10006b90:	4b86      	ldr	r3, [pc, #536]	; (10006dac <__kernel_rem_pio2+0x624>)
10006b92:	1c04      	adds	r4, r0, #0
10006b94:	1c0d      	adds	r5, r1, #0
10006b96:	f000 fd67 	bl	10007668 <__aeabi_dcmpge>
10006b9a:	2800      	cmp	r0, #0
10006b9c:	d100      	bne.n	10006ba0 <__kernel_rem_pio2+0x418>
10006b9e:	e22d      	b.n	10006ffc <__kernel_rem_pio2+0x874>
10006ba0:	2200      	movs	r2, #0
10006ba2:	4b83      	ldr	r3, [pc, #524]	; (10006db0 <__kernel_rem_pio2+0x628>)
10006ba4:	1c20      	adds	r0, r4, #0
10006ba6:	1c29      	adds	r1, r5, #0
10006ba8:	f002 fc44 	bl	10009434 <__aeabi_dmul>
10006bac:	f003 fa56 	bl	1000a05c <__aeabi_d2iz>
10006bb0:	464b      	mov	r3, r9
10006bb2:	1c06      	adds	r6, r0, #0
10006bb4:	009f      	lsls	r7, r3, #2
10006bb6:	f003 fa87 	bl	1000a0c8 <__aeabi_i2d>
10006bba:	2200      	movs	r2, #0
10006bbc:	4b7b      	ldr	r3, [pc, #492]	; (10006dac <__kernel_rem_pio2+0x624>)
10006bbe:	f002 fc39 	bl	10009434 <__aeabi_dmul>
10006bc2:	1c02      	adds	r2, r0, #0
10006bc4:	1c0b      	adds	r3, r1, #0
10006bc6:	1c20      	adds	r0, r4, #0
10006bc8:	1c29      	adds	r1, r5, #0
10006bca:	f002 fecd 	bl	10009968 <__aeabi_dsub>
10006bce:	f003 fa45 	bl	1000a05c <__aeabi_d2iz>
10006bd2:	ab10      	add	r3, sp, #64	; 0x40
10006bd4:	51d8      	str	r0, [r3, r7]
10006bd6:	2301      	movs	r3, #1
10006bd8:	444b      	add	r3, r9
10006bda:	4698      	mov	r8, r3
10006bdc:	9b04      	ldr	r3, [sp, #16]
10006bde:	aa10      	add	r2, sp, #64	; 0x40
10006be0:	3318      	adds	r3, #24
10006be2:	9304      	str	r3, [sp, #16]
10006be4:	4643      	mov	r3, r8
10006be6:	009b      	lsls	r3, r3, #2
10006be8:	50d6      	str	r6, [r2, r3]
10006bea:	2000      	movs	r0, #0
10006bec:	496e      	ldr	r1, [pc, #440]	; (10006da8 <__kernel_rem_pio2+0x620>)
10006bee:	9a04      	ldr	r2, [sp, #16]
10006bf0:	f000 fc82 	bl	100074f8 <scalbn>
10006bf4:	4643      	mov	r3, r8
10006bf6:	1c04      	adds	r4, r0, #0
10006bf8:	1c0d      	adds	r5, r1, #0
10006bfa:	2b00      	cmp	r3, #0
10006bfc:	da00      	bge.n	10006c00 <__kernel_rem_pio2+0x478>
10006bfe:	e0c8      	b.n	10006d92 <__kernel_rem_pio2+0x60a>
10006c00:	009f      	lsls	r7, r3, #2
10006c02:	ab10      	add	r3, sp, #64	; 0x40
10006c04:	469c      	mov	ip, r3
10006c06:	4643      	mov	r3, r8
10006c08:	00db      	lsls	r3, r3, #3
10006c0a:	4467      	add	r7, ip
10006c0c:	469c      	mov	ip, r3
10006c0e:	9303      	str	r3, [sp, #12]
10006c10:	ab72      	add	r3, sp, #456	; 0x1c8
10006c12:	4699      	mov	r9, r3
10006c14:	9e06      	ldr	r6, [sp, #24]
10006c16:	4466      	add	r6, ip
10006c18:	9600      	str	r6, [sp, #0]
10006c1a:	6838      	ldr	r0, [r7, #0]
10006c1c:	f003 fa54 	bl	1000a0c8 <__aeabi_i2d>
10006c20:	1c22      	adds	r2, r4, #0
10006c22:	1c2b      	adds	r3, r5, #0
10006c24:	f002 fc06 	bl	10009434 <__aeabi_dmul>
10006c28:	2200      	movs	r2, #0
10006c2a:	6030      	str	r0, [r6, #0]
10006c2c:	6071      	str	r1, [r6, #4]
10006c2e:	4b60      	ldr	r3, [pc, #384]	; (10006db0 <__kernel_rem_pio2+0x628>)
10006c30:	1c20      	adds	r0, r4, #0
10006c32:	1c29      	adds	r1, r5, #0
10006c34:	f002 fbfe 	bl	10009434 <__aeabi_dmul>
10006c38:	3e08      	subs	r6, #8
10006c3a:	1c04      	adds	r4, r0, #0
10006c3c:	1c0d      	adds	r5, r1, #0
10006c3e:	3f04      	subs	r7, #4
10006c40:	454e      	cmp	r6, r9
10006c42:	d1ea      	bne.n	10006c1a <__kernel_rem_pio2+0x492>
10006c44:	4643      	mov	r3, r8
10006c46:	3301      	adds	r3, #1
10006c48:	9302      	str	r3, [sp, #8]
10006c4a:	2300      	movs	r3, #0
10006c4c:	469b      	mov	fp, r3
10006c4e:	ab4c      	add	r3, sp, #304	; 0x130
10006c50:	4699      	mov	r9, r3
10006c52:	9b07      	ldr	r3, [sp, #28]
10006c54:	469a      	mov	sl, r3
10006c56:	4643      	mov	r3, r8
10006c58:	9304      	str	r3, [sp, #16]
10006c5a:	4653      	mov	r3, sl
10006c5c:	2b00      	cmp	r3, #0
10006c5e:	da00      	bge.n	10006c62 <__kernel_rem_pio2+0x4da>
10006c60:	e094      	b.n	10006d8c <__kernel_rem_pio2+0x604>
10006c62:	465b      	mov	r3, fp
10006c64:	2b00      	cmp	r3, #0
10006c66:	da00      	bge.n	10006c6a <__kernel_rem_pio2+0x4e2>
10006c68:	e090      	b.n	10006d8c <__kernel_rem_pio2+0x604>
10006c6a:	4b52      	ldr	r3, [pc, #328]	; (10006db4 <__kernel_rem_pio2+0x62c>)
10006c6c:	9d00      	ldr	r5, [sp, #0]
10006c6e:	4698      	mov	r8, r3
10006c70:	2600      	movs	r6, #0
10006c72:	2700      	movs	r7, #0
10006c74:	2400      	movs	r4, #0
10006c76:	e005      	b.n	10006c84 <__kernel_rem_pio2+0x4fc>
10006c78:	2308      	movs	r3, #8
10006c7a:	469c      	mov	ip, r3
10006c7c:	3508      	adds	r5, #8
10006c7e:	44e0      	add	r8, ip
10006c80:	455c      	cmp	r4, fp
10006c82:	dc11      	bgt.n	10006ca8 <__kernel_rem_pio2+0x520>
10006c84:	4643      	mov	r3, r8
10006c86:	6818      	ldr	r0, [r3, #0]
10006c88:	6859      	ldr	r1, [r3, #4]
10006c8a:	682a      	ldr	r2, [r5, #0]
10006c8c:	686b      	ldr	r3, [r5, #4]
10006c8e:	f002 fbd1 	bl	10009434 <__aeabi_dmul>
10006c92:	1c02      	adds	r2, r0, #0
10006c94:	1c0b      	adds	r3, r1, #0
10006c96:	1c30      	adds	r0, r6, #0
10006c98:	1c39      	adds	r1, r7, #0
10006c9a:	f001 fc65 	bl	10008568 <__aeabi_dadd>
10006c9e:	3401      	adds	r4, #1
10006ca0:	1c06      	adds	r6, r0, #0
10006ca2:	1c0f      	adds	r7, r1, #0
10006ca4:	45a2      	cmp	sl, r4
10006ca6:	dae7      	bge.n	10006c78 <__kernel_rem_pio2+0x4f0>
10006ca8:	465b      	mov	r3, fp
10006caa:	00db      	lsls	r3, r3, #3
10006cac:	444b      	add	r3, r9
10006cae:	601e      	str	r6, [r3, #0]
10006cb0:	605f      	str	r7, [r3, #4]
10006cb2:	2301      	movs	r3, #1
10006cb4:	469c      	mov	ip, r3
10006cb6:	9b00      	ldr	r3, [sp, #0]
10006cb8:	44e3      	add	fp, ip
10006cba:	3b08      	subs	r3, #8
10006cbc:	9300      	str	r3, [sp, #0]
10006cbe:	9b02      	ldr	r3, [sp, #8]
10006cc0:	459b      	cmp	fp, r3
10006cc2:	d1ca      	bne.n	10006c5a <__kernel_rem_pio2+0x4d2>
10006cc4:	9b04      	ldr	r3, [sp, #16]
10006cc6:	4698      	mov	r8, r3
10006cc8:	9ba6      	ldr	r3, [sp, #664]	; 0x298
10006cca:	2b02      	cmp	r3, #2
10006ccc:	dd00      	ble.n	10006cd0 <__kernel_rem_pio2+0x548>
10006cce:	e100      	b.n	10006ed2 <__kernel_rem_pio2+0x74a>
10006cd0:	2b00      	cmp	r3, #0
10006cd2:	dd00      	ble.n	10006cd6 <__kernel_rem_pio2+0x54e>
10006cd4:	e0d7      	b.n	10006e86 <__kernel_rem_pio2+0x6fe>
10006cd6:	d118      	bne.n	10006d0a <__kernel_rem_pio2+0x582>
10006cd8:	9b03      	ldr	r3, [sp, #12]
10006cda:	2000      	movs	r0, #0
10006cdc:	444b      	add	r3, r9
10006cde:	1c1c      	adds	r4, r3, #0
10006ce0:	2100      	movs	r1, #0
10006ce2:	4645      	mov	r5, r8
10006ce4:	6822      	ldr	r2, [r4, #0]
10006ce6:	6863      	ldr	r3, [r4, #4]
10006ce8:	f001 fc3e 	bl	10008568 <__aeabi_dadd>
10006cec:	3c08      	subs	r4, #8
10006cee:	3d01      	subs	r5, #1
10006cf0:	d2f8      	bcs.n	10006ce4 <__kernel_rem_pio2+0x55c>
10006cf2:	9b05      	ldr	r3, [sp, #20]
10006cf4:	2b00      	cmp	r3, #0
10006cf6:	d003      	beq.n	10006d00 <__kernel_rem_pio2+0x578>
10006cf8:	2380      	movs	r3, #128	; 0x80
10006cfa:	061b      	lsls	r3, r3, #24
10006cfc:	469c      	mov	ip, r3
10006cfe:	4461      	add	r1, ip
10006d00:	1c0b      	adds	r3, r1, #0
10006d02:	1c02      	adds	r2, r0, #0
10006d04:	9908      	ldr	r1, [sp, #32]
10006d06:	600a      	str	r2, [r1, #0]
10006d08:	604b      	str	r3, [r1, #4]
10006d0a:	2007      	movs	r0, #7
10006d0c:	9b09      	ldr	r3, [sp, #36]	; 0x24
10006d0e:	4018      	ands	r0, r3
10006d10:	239d      	movs	r3, #157	; 0x9d
10006d12:	009b      	lsls	r3, r3, #2
10006d14:	449d      	add	sp, r3
10006d16:	bc3c      	pop	{r2, r3, r4, r5}
10006d18:	4690      	mov	r8, r2
10006d1a:	4699      	mov	r9, r3
10006d1c:	46a2      	mov	sl, r4
10006d1e:	46ab      	mov	fp, r5
10006d20:	bdf0      	pop	{r4, r5, r6, r7, pc}
10006d22:	9b04      	ldr	r3, [sp, #16]
10006d24:	2b00      	cmp	r3, #0
10006d26:	d112      	bne.n	10006d4e <__kernel_rem_pio2+0x5c6>
10006d28:	464b      	mov	r3, r9
10006d2a:	3b01      	subs	r3, #1
10006d2c:	009b      	lsls	r3, r3, #2
10006d2e:	aa10      	add	r2, sp, #64	; 0x40
10006d30:	58d5      	ldr	r5, [r2, r3]
10006d32:	15eb      	asrs	r3, r5, #23
10006d34:	9305      	str	r3, [sp, #20]
10006d36:	e636      	b.n	100069a6 <__kernel_rem_pio2+0x21e>
10006d38:	464b      	mov	r3, r9
10006d3a:	1e5a      	subs	r2, r3, #1
10006d3c:	0092      	lsls	r2, r2, #2
10006d3e:	ab10      	add	r3, sp, #64	; 0x40
10006d40:	589b      	ldr	r3, [r3, r2]
10006d42:	a910      	add	r1, sp, #64	; 0x40
10006d44:	930e      	str	r3, [sp, #56]	; 0x38
10006d46:	025b      	lsls	r3, r3, #9
10006d48:	0a5b      	lsrs	r3, r3, #9
10006d4a:	508b      	str	r3, [r1, r2]
10006d4c:	e678      	b.n	10006a40 <__kernel_rem_pio2+0x2b8>
10006d4e:	1c30      	adds	r0, r6, #0
10006d50:	2200      	movs	r2, #0
10006d52:	4b19      	ldr	r3, [pc, #100]	; (10006db8 <__kernel_rem_pio2+0x630>)
10006d54:	f000 fc88 	bl	10007668 <__aeabi_dcmpge>
10006d58:	2800      	cmp	r0, #0
10006d5a:	d105      	bne.n	10006d68 <__kernel_rem_pio2+0x5e0>
10006d5c:	2300      	movs	r3, #0
10006d5e:	9305      	str	r3, [sp, #20]
10006d60:	e671      	b.n	10006a46 <__kernel_rem_pio2+0x2be>
10006d62:	2600      	movs	r6, #0
10006d64:	2700      	movs	r7, #0
10006d66:	e587      	b.n	10006878 <__kernel_rem_pio2+0xf0>
10006d68:	2301      	movs	r3, #1
10006d6a:	469c      	mov	ip, r3
10006d6c:	3301      	adds	r3, #1
10006d6e:	9305      	str	r3, [sp, #20]
10006d70:	464b      	mov	r3, r9
10006d72:	44e2      	add	sl, ip
10006d74:	2b00      	cmp	r3, #0
10006d76:	dd00      	ble.n	10006d7a <__kernel_rem_pio2+0x5f2>
10006d78:	e61f      	b.n	100069ba <__kernel_rem_pio2+0x232>
10006d7a:	1c32      	adds	r2, r6, #0
10006d7c:	1c3b      	adds	r3, r7, #0
10006d7e:	2000      	movs	r0, #0
10006d80:	4909      	ldr	r1, [pc, #36]	; (10006da8 <__kernel_rem_pio2+0x620>)
10006d82:	f002 fdf1 	bl	10009968 <__aeabi_dsub>
10006d86:	1c06      	adds	r6, r0, #0
10006d88:	1c0f      	adds	r7, r1, #0
10006d8a:	e65c      	b.n	10006a46 <__kernel_rem_pio2+0x2be>
10006d8c:	2600      	movs	r6, #0
10006d8e:	2700      	movs	r7, #0
10006d90:	e78a      	b.n	10006ca8 <__kernel_rem_pio2+0x520>
10006d92:	9ba6      	ldr	r3, [sp, #664]	; 0x298
10006d94:	2b02      	cmp	r3, #2
10006d96:	dc39      	bgt.n	10006e0c <__kernel_rem_pio2+0x684>
10006d98:	2b00      	cmp	r3, #0
10006d9a:	dc0f      	bgt.n	10006dbc <__kernel_rem_pio2+0x634>
10006d9c:	d1b5      	bne.n	10006d0a <__kernel_rem_pio2+0x582>
10006d9e:	2000      	movs	r0, #0
10006da0:	2100      	movs	r1, #0
10006da2:	e7a6      	b.n	10006cf2 <__kernel_rem_pio2+0x56a>
10006da4:	3fffffff 	.word	0x3fffffff
10006da8:	3ff00000 	.word	0x3ff00000
10006dac:	41700000 	.word	0x41700000
10006db0:	3e700000 	.word	0x3e700000
10006db4:	1000abe8 	.word	0x1000abe8
10006db8:	3fe00000 	.word	0x3fe00000
10006dbc:	9905      	ldr	r1, [sp, #20]
10006dbe:	2200      	movs	r2, #0
10006dc0:	2300      	movs	r3, #0
10006dc2:	2900      	cmp	r1, #0
10006dc4:	d073      	beq.n	10006eae <__kernel_rem_pio2+0x726>
10006dc6:	2180      	movs	r1, #128	; 0x80
10006dc8:	9808      	ldr	r0, [sp, #32]
10006dca:	0609      	lsls	r1, r1, #24
10006dcc:	1859      	adds	r1, r3, r1
10006dce:	6002      	str	r2, [r0, #0]
10006dd0:	6041      	str	r1, [r0, #4]
10006dd2:	984c      	ldr	r0, [sp, #304]	; 0x130
10006dd4:	994d      	ldr	r1, [sp, #308]	; 0x134
10006dd6:	f002 fdc7 	bl	10009968 <__aeabi_dsub>
10006dda:	4643      	mov	r3, r8
10006ddc:	2b00      	cmp	r3, #0
10006dde:	dd0b      	ble.n	10006df8 <__kernel_rem_pio2+0x670>
10006de0:	2401      	movs	r4, #1
10006de2:	4646      	mov	r6, r8
10006de4:	ad4e      	add	r5, sp, #312	; 0x138
10006de6:	cd0c      	ldmia	r5!, {r2, r3}
10006de8:	3401      	adds	r4, #1
10006dea:	f001 fbbd 	bl	10008568 <__aeabi_dadd>
10006dee:	42a6      	cmp	r6, r4
10006df0:	daf9      	bge.n	10006de6 <__kernel_rem_pio2+0x65e>
10006df2:	9b05      	ldr	r3, [sp, #20]
10006df4:	2b00      	cmp	r3, #0
10006df6:	d003      	beq.n	10006e00 <__kernel_rem_pio2+0x678>
10006df8:	2380      	movs	r3, #128	; 0x80
10006dfa:	061b      	lsls	r3, r3, #24
10006dfc:	469c      	mov	ip, r3
10006dfe:	4461      	add	r1, ip
10006e00:	1c0b      	adds	r3, r1, #0
10006e02:	1c02      	adds	r2, r0, #0
10006e04:	9908      	ldr	r1, [sp, #32]
10006e06:	608a      	str	r2, [r1, #8]
10006e08:	60cb      	str	r3, [r1, #12]
10006e0a:	e77e      	b.n	10006d0a <__kernel_rem_pio2+0x582>
10006e0c:	ab4c      	add	r3, sp, #304	; 0x130
10006e0e:	4699      	mov	r9, r3
10006e10:	9ba6      	ldr	r3, [sp, #664]	; 0x298
10006e12:	2b03      	cmp	r3, #3
10006e14:	d000      	beq.n	10006e18 <__kernel_rem_pio2+0x690>
10006e16:	e778      	b.n	10006d0a <__kernel_rem_pio2+0x582>
10006e18:	9b05      	ldr	r3, [sp, #20]
10006e1a:	2000      	movs	r0, #0
10006e1c:	2100      	movs	r1, #0
10006e1e:	2b00      	cmp	r3, #0
10006e20:	d100      	bne.n	10006e24 <__kernel_rem_pio2+0x69c>
10006e22:	e0d0      	b.n	10006fc6 <__kernel_rem_pio2+0x83e>
10006e24:	2480      	movs	r4, #128	; 0x80
10006e26:	9a08      	ldr	r2, [sp, #32]
10006e28:	9b4c      	ldr	r3, [sp, #304]	; 0x130
10006e2a:	0624      	lsls	r4, r4, #24
10006e2c:	6013      	str	r3, [r2, #0]
10006e2e:	464b      	mov	r3, r9
10006e30:	46a4      	mov	ip, r4
10006e32:	685b      	ldr	r3, [r3, #4]
10006e34:	4461      	add	r1, ip
10006e36:	4463      	add	r3, ip
10006e38:	6053      	str	r3, [r2, #4]
10006e3a:	464b      	mov	r3, r9
10006e3c:	689b      	ldr	r3, [r3, #8]
10006e3e:	6110      	str	r0, [r2, #16]
10006e40:	6093      	str	r3, [r2, #8]
10006e42:	464b      	mov	r3, r9
10006e44:	68db      	ldr	r3, [r3, #12]
10006e46:	6151      	str	r1, [r2, #20]
10006e48:	4463      	add	r3, ip
10006e4a:	60d3      	str	r3, [r2, #12]
10006e4c:	e75d      	b.n	10006d0a <__kernel_rem_pio2+0x582>
10006e4e:	4653      	mov	r3, sl
10006e50:	4688      	mov	r8, r1
10006e52:	9309      	str	r3, [sp, #36]	; 0x24
10006e54:	4643      	mov	r3, r8
10006e56:	9904      	ldr	r1, [sp, #16]
10006e58:	009b      	lsls	r3, r3, #2
10006e5a:	aa10      	add	r2, sp, #64	; 0x40
10006e5c:	58d3      	ldr	r3, [r2, r3]
10006e5e:	3918      	subs	r1, #24
10006e60:	9104      	str	r1, [sp, #16]
10006e62:	2b00      	cmp	r3, #0
10006e64:	d000      	beq.n	10006e68 <__kernel_rem_pio2+0x6e0>
10006e66:	e6c0      	b.n	10006bea <__kernel_rem_pio2+0x462>
10006e68:	4694      	mov	ip, r2
10006e6a:	4642      	mov	r2, r8
10006e6c:	4b68      	ldr	r3, [pc, #416]	; (10007010 <__kernel_rem_pio2+0x888>)
10006e6e:	4443      	add	r3, r8
10006e70:	009b      	lsls	r3, r3, #2
10006e72:	4463      	add	r3, ip
10006e74:	3b04      	subs	r3, #4
10006e76:	6858      	ldr	r0, [r3, #4]
10006e78:	3a01      	subs	r2, #1
10006e7a:	3918      	subs	r1, #24
10006e7c:	2800      	cmp	r0, #0
10006e7e:	d0f9      	beq.n	10006e74 <__kernel_rem_pio2+0x6ec>
10006e80:	4690      	mov	r8, r2
10006e82:	9104      	str	r1, [sp, #16]
10006e84:	e6b1      	b.n	10006bea <__kernel_rem_pio2+0x462>
10006e86:	9b03      	ldr	r3, [sp, #12]
10006e88:	2200      	movs	r2, #0
10006e8a:	444b      	add	r3, r9
10006e8c:	1c1c      	adds	r4, r3, #0
10006e8e:	2300      	movs	r3, #0
10006e90:	ad4a      	add	r5, sp, #296	; 0x128
10006e92:	1c10      	adds	r0, r2, #0
10006e94:	1c19      	adds	r1, r3, #0
10006e96:	6822      	ldr	r2, [r4, #0]
10006e98:	6863      	ldr	r3, [r4, #4]
10006e9a:	f001 fb65 	bl	10008568 <__aeabi_dadd>
10006e9e:	3c08      	subs	r4, #8
10006ea0:	1c02      	adds	r2, r0, #0
10006ea2:	1c0b      	adds	r3, r1, #0
10006ea4:	42ac      	cmp	r4, r5
10006ea6:	d1f4      	bne.n	10006e92 <__kernel_rem_pio2+0x70a>
10006ea8:	9905      	ldr	r1, [sp, #20]
10006eaa:	2900      	cmp	r1, #0
10006eac:	d18b      	bne.n	10006dc6 <__kernel_rem_pio2+0x63e>
10006eae:	1c19      	adds	r1, r3, #0
10006eb0:	1c10      	adds	r0, r2, #0
10006eb2:	9c08      	ldr	r4, [sp, #32]
10006eb4:	6020      	str	r0, [r4, #0]
10006eb6:	6061      	str	r1, [r4, #4]
10006eb8:	984c      	ldr	r0, [sp, #304]	; 0x130
10006eba:	994d      	ldr	r1, [sp, #308]	; 0x134
10006ebc:	f002 fd54 	bl	10009968 <__aeabi_dsub>
10006ec0:	4643      	mov	r3, r8
10006ec2:	2b00      	cmp	r3, #0
10006ec4:	dc8c      	bgt.n	10006de0 <__kernel_rem_pio2+0x658>
10006ec6:	1c0b      	adds	r3, r1, #0
10006ec8:	1c02      	adds	r2, r0, #0
10006eca:	9908      	ldr	r1, [sp, #32]
10006ecc:	608a      	str	r2, [r1, #8]
10006ece:	60cb      	str	r3, [r1, #12]
10006ed0:	e71b      	b.n	10006d0a <__kernel_rem_pio2+0x582>
10006ed2:	9ba6      	ldr	r3, [sp, #664]	; 0x298
10006ed4:	2b03      	cmp	r3, #3
10006ed6:	d000      	beq.n	10006eda <__kernel_rem_pio2+0x752>
10006ed8:	e717      	b.n	10006d0a <__kernel_rem_pio2+0x582>
10006eda:	4643      	mov	r3, r8
10006edc:	2b00      	cmp	r3, #0
10006ede:	dd9b      	ble.n	10006e18 <__kernel_rem_pio2+0x690>
10006ee0:	9b03      	ldr	r3, [sp, #12]
10006ee2:	444b      	add	r3, r9
10006ee4:	681e      	ldr	r6, [r3, #0]
10006ee6:	685f      	ldr	r7, [r3, #4]
10006ee8:	4b4a      	ldr	r3, [pc, #296]	; (10007014 <__kernel_rem_pio2+0x88c>)
10006eea:	4443      	add	r3, r8
10006eec:	469b      	mov	fp, r3
10006eee:	00db      	lsls	r3, r3, #3
10006ef0:	444b      	add	r3, r9
10006ef2:	469a      	mov	sl, r3
10006ef4:	4653      	mov	r3, sl
10006ef6:	1c30      	adds	r0, r6, #0
10006ef8:	685c      	ldr	r4, [r3, #4]
10006efa:	681b      	ldr	r3, [r3, #0]
10006efc:	1c39      	adds	r1, r7, #0
10006efe:	9300      	str	r3, [sp, #0]
10006f00:	9401      	str	r4, [sp, #4]
10006f02:	1c1a      	adds	r2, r3, #0
10006f04:	1c23      	adds	r3, r4, #0
10006f06:	f001 fb2f 	bl	10008568 <__aeabi_dadd>
10006f0a:	1c04      	adds	r4, r0, #0
10006f0c:	1c0d      	adds	r5, r1, #0
10006f0e:	9800      	ldr	r0, [sp, #0]
10006f10:	9901      	ldr	r1, [sp, #4]
10006f12:	1c22      	adds	r2, r4, #0
10006f14:	1c2b      	adds	r3, r5, #0
10006f16:	f002 fd27 	bl	10009968 <__aeabi_dsub>
10006f1a:	1c0b      	adds	r3, r1, #0
10006f1c:	1c02      	adds	r2, r0, #0
10006f1e:	1c39      	adds	r1, r7, #0
10006f20:	1c30      	adds	r0, r6, #0
10006f22:	f001 fb21 	bl	10008568 <__aeabi_dadd>
10006f26:	4653      	mov	r3, sl
10006f28:	6098      	str	r0, [r3, #8]
10006f2a:	60d9      	str	r1, [r3, #12]
10006f2c:	601c      	str	r4, [r3, #0]
10006f2e:	605d      	str	r5, [r3, #4]
10006f30:	2308      	movs	r3, #8
10006f32:	425b      	negs	r3, r3
10006f34:	469c      	mov	ip, r3
10006f36:	ab4a      	add	r3, sp, #296	; 0x128
10006f38:	44e2      	add	sl, ip
10006f3a:	1c26      	adds	r6, r4, #0
10006f3c:	1c2f      	adds	r7, r5, #0
10006f3e:	459a      	cmp	sl, r3
10006f40:	d1d8      	bne.n	10006ef4 <__kernel_rem_pio2+0x76c>
10006f42:	4643      	mov	r3, r8
10006f44:	2b01      	cmp	r3, #1
10006f46:	dc00      	bgt.n	10006f4a <__kernel_rem_pio2+0x7c2>
10006f48:	e766      	b.n	10006e18 <__kernel_rem_pio2+0x690>
10006f4a:	9b03      	ldr	r3, [sp, #12]
10006f4c:	46ca      	mov	sl, r9
10006f4e:	444b      	add	r3, r9
10006f50:	681e      	ldr	r6, [r3, #0]
10006f52:	685f      	ldr	r7, [r3, #4]
10006f54:	465b      	mov	r3, fp
10006f56:	00db      	lsls	r3, r3, #3
10006f58:	4698      	mov	r8, r3
10006f5a:	44c2      	add	sl, r8
10006f5c:	4653      	mov	r3, sl
10006f5e:	1c32      	adds	r2, r6, #0
10006f60:	685c      	ldr	r4, [r3, #4]
10006f62:	681b      	ldr	r3, [r3, #0]
10006f64:	9300      	str	r3, [sp, #0]
10006f66:	9401      	str	r4, [sp, #4]
10006f68:	1c18      	adds	r0, r3, #0
10006f6a:	1c21      	adds	r1, r4, #0
10006f6c:	1c3b      	adds	r3, r7, #0
10006f6e:	f001 fafb 	bl	10008568 <__aeabi_dadd>
10006f72:	1c04      	adds	r4, r0, #0
10006f74:	1c0d      	adds	r5, r1, #0
10006f76:	9800      	ldr	r0, [sp, #0]
10006f78:	9901      	ldr	r1, [sp, #4]
10006f7a:	1c22      	adds	r2, r4, #0
10006f7c:	1c2b      	adds	r3, r5, #0
10006f7e:	f002 fcf3 	bl	10009968 <__aeabi_dsub>
10006f82:	1c3b      	adds	r3, r7, #0
10006f84:	1c32      	adds	r2, r6, #0
10006f86:	f001 faef 	bl	10008568 <__aeabi_dadd>
10006f8a:	4653      	mov	r3, sl
10006f8c:	6098      	str	r0, [r3, #8]
10006f8e:	60d9      	str	r1, [r3, #12]
10006f90:	601c      	str	r4, [r3, #0]
10006f92:	605d      	str	r5, [r3, #4]
10006f94:	2308      	movs	r3, #8
10006f96:	425b      	negs	r3, r3
10006f98:	469c      	mov	ip, r3
10006f9a:	44e2      	add	sl, ip
10006f9c:	1c26      	adds	r6, r4, #0
10006f9e:	1c2f      	adds	r7, r5, #0
10006fa0:	45d1      	cmp	r9, sl
10006fa2:	d1db      	bne.n	10006f5c <__kernel_rem_pio2+0x7d4>
10006fa4:	4644      	mov	r4, r8
10006fa6:	2000      	movs	r0, #0
10006fa8:	2100      	movs	r1, #0
10006faa:	3408      	adds	r4, #8
10006fac:	444c      	add	r4, r9
10006fae:	ad4e      	add	r5, sp, #312	; 0x138
10006fb0:	6822      	ldr	r2, [r4, #0]
10006fb2:	6863      	ldr	r3, [r4, #4]
10006fb4:	3c08      	subs	r4, #8
10006fb6:	f001 fad7 	bl	10008568 <__aeabi_dadd>
10006fba:	42ac      	cmp	r4, r5
10006fbc:	d1f8      	bne.n	10006fb0 <__kernel_rem_pio2+0x828>
10006fbe:	9b05      	ldr	r3, [sp, #20]
10006fc0:	2b00      	cmp	r3, #0
10006fc2:	d000      	beq.n	10006fc6 <__kernel_rem_pio2+0x83e>
10006fc4:	e72e      	b.n	10006e24 <__kernel_rem_pio2+0x69c>
10006fc6:	9a4c      	ldr	r2, [sp, #304]	; 0x130
10006fc8:	9b4d      	ldr	r3, [sp, #308]	; 0x134
10006fca:	9c08      	ldr	r4, [sp, #32]
10006fcc:	6022      	str	r2, [r4, #0]
10006fce:	6063      	str	r3, [r4, #4]
10006fd0:	464b      	mov	r3, r9
10006fd2:	689a      	ldr	r2, [r3, #8]
10006fd4:	68db      	ldr	r3, [r3, #12]
10006fd6:	9200      	str	r2, [sp, #0]
10006fd8:	9301      	str	r3, [sp, #4]
10006fda:	60a2      	str	r2, [r4, #8]
10006fdc:	60e3      	str	r3, [r4, #12]
10006fde:	1c02      	adds	r2, r0, #0
10006fe0:	1c0b      	adds	r3, r1, #0
10006fe2:	6122      	str	r2, [r4, #16]
10006fe4:	6163      	str	r3, [r4, #20]
10006fe6:	e690      	b.n	10006d0a <__kernel_rem_pio2+0x582>
10006fe8:	2201      	movs	r2, #1
10006fea:	e559      	b.n	10006aa0 <__kernel_rem_pio2+0x318>
10006fec:	2400      	movs	r4, #0
10006fee:	e515      	b.n	10006a1c <__kernel_rem_pio2+0x294>
10006ff0:	9b09      	ldr	r3, [sp, #36]	; 0x24
10006ff2:	00db      	lsls	r3, r3, #3
10006ff4:	9303      	str	r3, [sp, #12]
10006ff6:	ab74      	add	r3, sp, #464	; 0x1d0
10006ff8:	9306      	str	r3, [sp, #24]
10006ffa:	e446      	b.n	1000688a <__kernel_rem_pio2+0x102>
10006ffc:	464b      	mov	r3, r9
10006ffe:	1c20      	adds	r0, r4, #0
10007000:	1c29      	adds	r1, r5, #0
10007002:	009e      	lsls	r6, r3, #2
10007004:	f003 f82a 	bl	1000a05c <__aeabi_d2iz>
10007008:	ab10      	add	r3, sp, #64	; 0x40
1000700a:	5198      	str	r0, [r3, r6]
1000700c:	46c8      	mov	r8, r9
1000700e:	e5ec      	b.n	10006bea <__kernel_rem_pio2+0x462>
10007010:	3fffffff 	.word	0x3fffffff
10007014:	1fffffff 	.word	0x1fffffff

10007018 <__kernel_tan>:
10007018:	b5f0      	push	{r4, r5, r6, r7, lr}
1000701a:	465f      	mov	r7, fp
1000701c:	4656      	mov	r6, sl
1000701e:	464d      	mov	r5, r9
10007020:	4644      	mov	r4, r8
10007022:	b4f0      	push	{r4, r5, r6, r7}
10007024:	b089      	sub	sp, #36	; 0x24
10007026:	9300      	str	r3, [sp, #0]
10007028:	004b      	lsls	r3, r1, #1
1000702a:	085b      	lsrs	r3, r3, #1
1000702c:	469a      	mov	sl, r3
1000702e:	4bbd      	ldr	r3, [pc, #756]	; (10007324 <__kernel_tan+0x30c>)
10007030:	4681      	mov	r9, r0
10007032:	4688      	mov	r8, r1
10007034:	9202      	str	r2, [sp, #8]
10007036:	468b      	mov	fp, r1
10007038:	459a      	cmp	sl, r3
1000703a:	dc18      	bgt.n	1000706e <__kernel_tan+0x56>
1000703c:	4648      	mov	r0, r9
1000703e:	4641      	mov	r1, r8
10007040:	f003 f80c 	bl	1000a05c <__aeabi_d2iz>
10007044:	2800      	cmp	r0, #0
10007046:	d131      	bne.n	100070ac <__kernel_tan+0x94>
10007048:	464b      	mov	r3, r9
1000704a:	4652      	mov	r2, sl
1000704c:	431a      	orrs	r2, r3
1000704e:	9b12      	ldr	r3, [sp, #72]	; 0x48
10007050:	3301      	adds	r3, #1
10007052:	4313      	orrs	r3, r2
10007054:	d100      	bne.n	10007058 <__kernel_tan+0x40>
10007056:	e14b      	b.n	100072f0 <__kernel_tan+0x2d8>
10007058:	9b12      	ldr	r3, [sp, #72]	; 0x48
1000705a:	2b01      	cmp	r3, #1
1000705c:	d100      	bne.n	10007060 <__kernel_tan+0x48>
1000705e:	e15e      	b.n	1000731e <__kernel_tan+0x306>
10007060:	464a      	mov	r2, r9
10007062:	4643      	mov	r3, r8
10007064:	2000      	movs	r0, #0
10007066:	49b0      	ldr	r1, [pc, #704]	; (10007328 <__kernel_tan+0x310>)
10007068:	f001 fda6 	bl	10008bb8 <__aeabi_ddiv>
1000706c:	e0fb      	b.n	10007266 <__kernel_tan+0x24e>
1000706e:	4baf      	ldr	r3, [pc, #700]	; (1000732c <__kernel_tan+0x314>)
10007070:	459a      	cmp	sl, r3
10007072:	dd1b      	ble.n	100070ac <__kernel_tan+0x94>
10007074:	2900      	cmp	r1, #0
10007076:	da00      	bge.n	1000707a <__kernel_tan+0x62>
10007078:	e145      	b.n	10007306 <__kernel_tan+0x2ee>
1000707a:	464a      	mov	r2, r9
1000707c:	4643      	mov	r3, r8
1000707e:	48ac      	ldr	r0, [pc, #688]	; (10007330 <__kernel_tan+0x318>)
10007080:	49ac      	ldr	r1, [pc, #688]	; (10007334 <__kernel_tan+0x31c>)
10007082:	f002 fc71 	bl	10009968 <__aeabi_dsub>
10007086:	9a02      	ldr	r2, [sp, #8]
10007088:	9b00      	ldr	r3, [sp, #0]
1000708a:	1c04      	adds	r4, r0, #0
1000708c:	1c0d      	adds	r5, r1, #0
1000708e:	48aa      	ldr	r0, [pc, #680]	; (10007338 <__kernel_tan+0x320>)
10007090:	49aa      	ldr	r1, [pc, #680]	; (1000733c <__kernel_tan+0x324>)
10007092:	f002 fc69 	bl	10009968 <__aeabi_dsub>
10007096:	1c0b      	adds	r3, r1, #0
10007098:	1c02      	adds	r2, r0, #0
1000709a:	1c29      	adds	r1, r5, #0
1000709c:	1c20      	adds	r0, r4, #0
1000709e:	f001 fa63 	bl	10008568 <__aeabi_dadd>
100070a2:	2300      	movs	r3, #0
100070a4:	4681      	mov	r9, r0
100070a6:	4688      	mov	r8, r1
100070a8:	9302      	str	r3, [sp, #8]
100070aa:	9300      	str	r3, [sp, #0]
100070ac:	464a      	mov	r2, r9
100070ae:	4643      	mov	r3, r8
100070b0:	4648      	mov	r0, r9
100070b2:	4641      	mov	r1, r8
100070b4:	f002 f9be 	bl	10009434 <__aeabi_dmul>
100070b8:	1c06      	adds	r6, r0, #0
100070ba:	1c0f      	adds	r7, r1, #0
100070bc:	1c32      	adds	r2, r6, #0
100070be:	1c3b      	adds	r3, r7, #0
100070c0:	f002 f9b8 	bl	10009434 <__aeabi_dmul>
100070c4:	464a      	mov	r2, r9
100070c6:	1c04      	adds	r4, r0, #0
100070c8:	1c0d      	adds	r5, r1, #0
100070ca:	4643      	mov	r3, r8
100070cc:	1c30      	adds	r0, r6, #0
100070ce:	1c39      	adds	r1, r7, #0
100070d0:	f002 f9b0 	bl	10009434 <__aeabi_dmul>
100070d4:	4a9a      	ldr	r2, [pc, #616]	; (10007340 <__kernel_tan+0x328>)
100070d6:	9004      	str	r0, [sp, #16]
100070d8:	9105      	str	r1, [sp, #20]
100070da:	4b9a      	ldr	r3, [pc, #616]	; (10007344 <__kernel_tan+0x32c>)
100070dc:	1c20      	adds	r0, r4, #0
100070de:	1c29      	adds	r1, r5, #0
100070e0:	f002 f9a8 	bl	10009434 <__aeabi_dmul>
100070e4:	4a98      	ldr	r2, [pc, #608]	; (10007348 <__kernel_tan+0x330>)
100070e6:	4b99      	ldr	r3, [pc, #612]	; (1000734c <__kernel_tan+0x334>)
100070e8:	f001 fa3e 	bl	10008568 <__aeabi_dadd>
100070ec:	1c22      	adds	r2, r4, #0
100070ee:	1c2b      	adds	r3, r5, #0
100070f0:	f002 f9a0 	bl	10009434 <__aeabi_dmul>
100070f4:	4a96      	ldr	r2, [pc, #600]	; (10007350 <__kernel_tan+0x338>)
100070f6:	4b97      	ldr	r3, [pc, #604]	; (10007354 <__kernel_tan+0x33c>)
100070f8:	f001 fa36 	bl	10008568 <__aeabi_dadd>
100070fc:	1c22      	adds	r2, r4, #0
100070fe:	1c2b      	adds	r3, r5, #0
10007100:	f002 f998 	bl	10009434 <__aeabi_dmul>
10007104:	4a94      	ldr	r2, [pc, #592]	; (10007358 <__kernel_tan+0x340>)
10007106:	4b95      	ldr	r3, [pc, #596]	; (1000735c <__kernel_tan+0x344>)
10007108:	f001 fa2e 	bl	10008568 <__aeabi_dadd>
1000710c:	1c22      	adds	r2, r4, #0
1000710e:	1c2b      	adds	r3, r5, #0
10007110:	f002 f990 	bl	10009434 <__aeabi_dmul>
10007114:	4a92      	ldr	r2, [pc, #584]	; (10007360 <__kernel_tan+0x348>)
10007116:	4b93      	ldr	r3, [pc, #588]	; (10007364 <__kernel_tan+0x34c>)
10007118:	f001 fa26 	bl	10008568 <__aeabi_dadd>
1000711c:	1c22      	adds	r2, r4, #0
1000711e:	1c2b      	adds	r3, r5, #0
10007120:	f002 f988 	bl	10009434 <__aeabi_dmul>
10007124:	4a90      	ldr	r2, [pc, #576]	; (10007368 <__kernel_tan+0x350>)
10007126:	4b91      	ldr	r3, [pc, #580]	; (1000736c <__kernel_tan+0x354>)
10007128:	f001 fa1e 	bl	10008568 <__aeabi_dadd>
1000712c:	4a90      	ldr	r2, [pc, #576]	; (10007370 <__kernel_tan+0x358>)
1000712e:	9006      	str	r0, [sp, #24]
10007130:	9107      	str	r1, [sp, #28]
10007132:	4b90      	ldr	r3, [pc, #576]	; (10007374 <__kernel_tan+0x35c>)
10007134:	1c20      	adds	r0, r4, #0
10007136:	1c29      	adds	r1, r5, #0
10007138:	f002 f97c 	bl	10009434 <__aeabi_dmul>
1000713c:	4a8e      	ldr	r2, [pc, #568]	; (10007378 <__kernel_tan+0x360>)
1000713e:	4b8f      	ldr	r3, [pc, #572]	; (1000737c <__kernel_tan+0x364>)
10007140:	f001 fa12 	bl	10008568 <__aeabi_dadd>
10007144:	1c22      	adds	r2, r4, #0
10007146:	1c2b      	adds	r3, r5, #0
10007148:	f002 f974 	bl	10009434 <__aeabi_dmul>
1000714c:	4a8c      	ldr	r2, [pc, #560]	; (10007380 <__kernel_tan+0x368>)
1000714e:	4b8d      	ldr	r3, [pc, #564]	; (10007384 <__kernel_tan+0x36c>)
10007150:	f001 fa0a 	bl	10008568 <__aeabi_dadd>
10007154:	1c22      	adds	r2, r4, #0
10007156:	1c2b      	adds	r3, r5, #0
10007158:	f002 f96c 	bl	10009434 <__aeabi_dmul>
1000715c:	4a8a      	ldr	r2, [pc, #552]	; (10007388 <__kernel_tan+0x370>)
1000715e:	4b8b      	ldr	r3, [pc, #556]	; (1000738c <__kernel_tan+0x374>)
10007160:	f001 fa02 	bl	10008568 <__aeabi_dadd>
10007164:	1c22      	adds	r2, r4, #0
10007166:	1c2b      	adds	r3, r5, #0
10007168:	f002 f964 	bl	10009434 <__aeabi_dmul>
1000716c:	4a88      	ldr	r2, [pc, #544]	; (10007390 <__kernel_tan+0x378>)
1000716e:	4b89      	ldr	r3, [pc, #548]	; (10007394 <__kernel_tan+0x37c>)
10007170:	f001 f9fa 	bl	10008568 <__aeabi_dadd>
10007174:	1c22      	adds	r2, r4, #0
10007176:	1c2b      	adds	r3, r5, #0
10007178:	f002 f95c 	bl	10009434 <__aeabi_dmul>
1000717c:	4a86      	ldr	r2, [pc, #536]	; (10007398 <__kernel_tan+0x380>)
1000717e:	4b87      	ldr	r3, [pc, #540]	; (1000739c <__kernel_tan+0x384>)
10007180:	f001 f9f2 	bl	10008568 <__aeabi_dadd>
10007184:	1c32      	adds	r2, r6, #0
10007186:	1c3b      	adds	r3, r7, #0
10007188:	f002 f954 	bl	10009434 <__aeabi_dmul>
1000718c:	1c02      	adds	r2, r0, #0
1000718e:	1c0b      	adds	r3, r1, #0
10007190:	9806      	ldr	r0, [sp, #24]
10007192:	9907      	ldr	r1, [sp, #28]
10007194:	f001 f9e8 	bl	10008568 <__aeabi_dadd>
10007198:	9a04      	ldr	r2, [sp, #16]
1000719a:	9b05      	ldr	r3, [sp, #20]
1000719c:	f002 f94a 	bl	10009434 <__aeabi_dmul>
100071a0:	9d02      	ldr	r5, [sp, #8]
100071a2:	9c00      	ldr	r4, [sp, #0]
100071a4:	1c2a      	adds	r2, r5, #0
100071a6:	1c23      	adds	r3, r4, #0
100071a8:	f001 f9de 	bl	10008568 <__aeabi_dadd>
100071ac:	1c32      	adds	r2, r6, #0
100071ae:	1c3b      	adds	r3, r7, #0
100071b0:	f002 f940 	bl	10009434 <__aeabi_dmul>
100071b4:	1c2a      	adds	r2, r5, #0
100071b6:	1c23      	adds	r3, r4, #0
100071b8:	f001 f9d6 	bl	10008568 <__aeabi_dadd>
100071bc:	1c04      	adds	r4, r0, #0
100071be:	1c0d      	adds	r5, r1, #0
100071c0:	9804      	ldr	r0, [sp, #16]
100071c2:	9905      	ldr	r1, [sp, #20]
100071c4:	4a76      	ldr	r2, [pc, #472]	; (100073a0 <__kernel_tan+0x388>)
100071c6:	4b77      	ldr	r3, [pc, #476]	; (100073a4 <__kernel_tan+0x38c>)
100071c8:	f002 f934 	bl	10009434 <__aeabi_dmul>
100071cc:	1c22      	adds	r2, r4, #0
100071ce:	1c2b      	adds	r3, r5, #0
100071d0:	f001 f9ca 	bl	10008568 <__aeabi_dadd>
100071d4:	1c0b      	adds	r3, r1, #0
100071d6:	1c02      	adds	r2, r0, #0
100071d8:	4641      	mov	r1, r8
100071da:	4648      	mov	r0, r9
100071dc:	9200      	str	r2, [sp, #0]
100071de:	9301      	str	r3, [sp, #4]
100071e0:	f001 f9c2 	bl	10008568 <__aeabi_dadd>
100071e4:	4b51      	ldr	r3, [pc, #324]	; (1000732c <__kernel_tan+0x314>)
100071e6:	1c04      	adds	r4, r0, #0
100071e8:	1c0d      	adds	r5, r1, #0
100071ea:	459a      	cmp	sl, r3
100071ec:	dc42      	bgt.n	10007274 <__kernel_tan+0x25c>
100071ee:	9b12      	ldr	r3, [sp, #72]	; 0x48
100071f0:	2b01      	cmp	r3, #1
100071f2:	d038      	beq.n	10007266 <__kernel_tan+0x24e>
100071f4:	1c0b      	adds	r3, r1, #0
100071f6:	2200      	movs	r2, #0
100071f8:	2000      	movs	r0, #0
100071fa:	9202      	str	r2, [sp, #8]
100071fc:	9303      	str	r3, [sp, #12]
100071fe:	494a      	ldr	r1, [pc, #296]	; (10007328 <__kernel_tan+0x310>)
10007200:	1c22      	adds	r2, r4, #0
10007202:	1c2b      	adds	r3, r5, #0
10007204:	f001 fcd8 	bl	10008bb8 <__aeabi_ddiv>
10007208:	464a      	mov	r2, r9
1000720a:	1c0d      	adds	r5, r1, #0
1000720c:	1c04      	adds	r4, r0, #0
1000720e:	9802      	ldr	r0, [sp, #8]
10007210:	9903      	ldr	r1, [sp, #12]
10007212:	4643      	mov	r3, r8
10007214:	f002 fba8 	bl	10009968 <__aeabi_dsub>
10007218:	1c02      	adds	r2, r0, #0
1000721a:	1c0b      	adds	r3, r1, #0
1000721c:	9800      	ldr	r0, [sp, #0]
1000721e:	9901      	ldr	r1, [sp, #4]
10007220:	f002 fba2 	bl	10009968 <__aeabi_dsub>
10007224:	2600      	movs	r6, #0
10007226:	1c02      	adds	r2, r0, #0
10007228:	1c0b      	adds	r3, r1, #0
1000722a:	1c30      	adds	r0, r6, #0
1000722c:	1c29      	adds	r1, r5, #0
1000722e:	f002 f901 	bl	10009434 <__aeabi_dmul>
10007232:	9a02      	ldr	r2, [sp, #8]
10007234:	9b03      	ldr	r3, [sp, #12]
10007236:	9000      	str	r0, [sp, #0]
10007238:	9101      	str	r1, [sp, #4]
1000723a:	1c30      	adds	r0, r6, #0
1000723c:	1c29      	adds	r1, r5, #0
1000723e:	f002 f8f9 	bl	10009434 <__aeabi_dmul>
10007242:	2200      	movs	r2, #0
10007244:	4b58      	ldr	r3, [pc, #352]	; (100073a8 <__kernel_tan+0x390>)
10007246:	f001 f98f 	bl	10008568 <__aeabi_dadd>
1000724a:	1c02      	adds	r2, r0, #0
1000724c:	1c0b      	adds	r3, r1, #0
1000724e:	9800      	ldr	r0, [sp, #0]
10007250:	9901      	ldr	r1, [sp, #4]
10007252:	f001 f989 	bl	10008568 <__aeabi_dadd>
10007256:	1c22      	adds	r2, r4, #0
10007258:	1c2b      	adds	r3, r5, #0
1000725a:	f002 f8eb 	bl	10009434 <__aeabi_dmul>
1000725e:	1c32      	adds	r2, r6, #0
10007260:	1c2b      	adds	r3, r5, #0
10007262:	f001 f981 	bl	10008568 <__aeabi_dadd>
10007266:	b009      	add	sp, #36	; 0x24
10007268:	bc3c      	pop	{r2, r3, r4, r5}
1000726a:	4690      	mov	r8, r2
1000726c:	4699      	mov	r9, r3
1000726e:	46a2      	mov	sl, r4
10007270:	46ab      	mov	fp, r5
10007272:	bdf0      	pop	{r4, r5, r6, r7, pc}
10007274:	9812      	ldr	r0, [sp, #72]	; 0x48
10007276:	f002 ff27 	bl	1000a0c8 <__aeabi_i2d>
1000727a:	465b      	mov	r3, fp
1000727c:	1c06      	adds	r6, r0, #0
1000727e:	1798      	asrs	r0, r3, #30
10007280:	2302      	movs	r3, #2
10007282:	4018      	ands	r0, r3
10007284:	3b01      	subs	r3, #1
10007286:	1a18      	subs	r0, r3, r0
10007288:	1c0f      	adds	r7, r1, #0
1000728a:	f002 ff1d 	bl	1000a0c8 <__aeabi_i2d>
1000728e:	1c22      	adds	r2, r4, #0
10007290:	9002      	str	r0, [sp, #8]
10007292:	9103      	str	r1, [sp, #12]
10007294:	1c2b      	adds	r3, r5, #0
10007296:	1c20      	adds	r0, r4, #0
10007298:	1c29      	adds	r1, r5, #0
1000729a:	f002 f8cb 	bl	10009434 <__aeabi_dmul>
1000729e:	1c32      	adds	r2, r6, #0
100072a0:	9004      	str	r0, [sp, #16]
100072a2:	9105      	str	r1, [sp, #20]
100072a4:	1c3b      	adds	r3, r7, #0
100072a6:	1c20      	adds	r0, r4, #0
100072a8:	1c29      	adds	r1, r5, #0
100072aa:	f001 f95d 	bl	10008568 <__aeabi_dadd>
100072ae:	1c02      	adds	r2, r0, #0
100072b0:	1c0b      	adds	r3, r1, #0
100072b2:	9804      	ldr	r0, [sp, #16]
100072b4:	9905      	ldr	r1, [sp, #20]
100072b6:	f001 fc7f 	bl	10008bb8 <__aeabi_ddiv>
100072ba:	9a00      	ldr	r2, [sp, #0]
100072bc:	9b01      	ldr	r3, [sp, #4]
100072be:	f002 fb53 	bl	10009968 <__aeabi_dsub>
100072c2:	1c02      	adds	r2, r0, #0
100072c4:	1c0b      	adds	r3, r1, #0
100072c6:	4648      	mov	r0, r9
100072c8:	4641      	mov	r1, r8
100072ca:	f002 fb4d 	bl	10009968 <__aeabi_dsub>
100072ce:	1c02      	adds	r2, r0, #0
100072d0:	1c0b      	adds	r3, r1, #0
100072d2:	f001 f949 	bl	10008568 <__aeabi_dadd>
100072d6:	1c02      	adds	r2, r0, #0
100072d8:	1c0b      	adds	r3, r1, #0
100072da:	1c30      	adds	r0, r6, #0
100072dc:	1c39      	adds	r1, r7, #0
100072de:	f002 fb43 	bl	10009968 <__aeabi_dsub>
100072e2:	1c02      	adds	r2, r0, #0
100072e4:	1c0b      	adds	r3, r1, #0
100072e6:	9802      	ldr	r0, [sp, #8]
100072e8:	9903      	ldr	r1, [sp, #12]
100072ea:	f002 f8a3 	bl	10009434 <__aeabi_dmul>
100072ee:	e7ba      	b.n	10007266 <__kernel_tan+0x24e>
100072f0:	4648      	mov	r0, r9
100072f2:	4641      	mov	r1, r8
100072f4:	f7ff f800 	bl	100062f8 <fabs>
100072f8:	1c02      	adds	r2, r0, #0
100072fa:	1c0b      	adds	r3, r1, #0
100072fc:	2000      	movs	r0, #0
100072fe:	492a      	ldr	r1, [pc, #168]	; (100073a8 <__kernel_tan+0x390>)
10007300:	f001 fc5a 	bl	10008bb8 <__aeabi_ddiv>
10007304:	e7af      	b.n	10007266 <__kernel_tan+0x24e>
10007306:	2280      	movs	r2, #128	; 0x80
10007308:	2180      	movs	r1, #128	; 0x80
1000730a:	0612      	lsls	r2, r2, #24
1000730c:	4694      	mov	ip, r2
1000730e:	9b00      	ldr	r3, [sp, #0]
10007310:	0609      	lsls	r1, r1, #24
10007312:	4441      	add	r1, r8
10007314:	4463      	add	r3, ip
10007316:	4681      	mov	r9, r0
10007318:	4688      	mov	r8, r1
1000731a:	9300      	str	r3, [sp, #0]
1000731c:	e6ad      	b.n	1000707a <__kernel_tan+0x62>
1000731e:	4648      	mov	r0, r9
10007320:	4641      	mov	r1, r8
10007322:	e7a0      	b.n	10007266 <__kernel_tan+0x24e>
10007324:	3e2fffff 	.word	0x3e2fffff
10007328:	bff00000 	.word	0xbff00000
1000732c:	3fe59427 	.word	0x3fe59427
10007330:	54442d18 	.word	0x54442d18
10007334:	3fe921fb 	.word	0x3fe921fb
10007338:	33145c07 	.word	0x33145c07
1000733c:	3c81a626 	.word	0x3c81a626
10007340:	db605373 	.word	0xdb605373
10007344:	bef375cb 	.word	0xbef375cb
10007348:	a03792a6 	.word	0xa03792a6
1000734c:	3f147e88 	.word	0x3f147e88
10007350:	f2f26501 	.word	0xf2f26501
10007354:	3f4344d8 	.word	0x3f4344d8
10007358:	c9560328 	.word	0xc9560328
1000735c:	3f6d6d22 	.word	0x3f6d6d22
10007360:	8406d637 	.word	0x8406d637
10007364:	3f9664f4 	.word	0x3f9664f4
10007368:	1110fe7a 	.word	0x1110fe7a
1000736c:	3fc11111 	.word	0x3fc11111
10007370:	74bf7ad4 	.word	0x74bf7ad4
10007374:	3efb2a70 	.word	0x3efb2a70
10007378:	32f0a7e9 	.word	0x32f0a7e9
1000737c:	3f12b80f 	.word	0x3f12b80f
10007380:	1a8d1068 	.word	0x1a8d1068
10007384:	3f3026f7 	.word	0x3f3026f7
10007388:	fee08315 	.word	0xfee08315
1000738c:	3f57dbc8 	.word	0x3f57dbc8
10007390:	e96e8493 	.word	0xe96e8493
10007394:	3f8226e3 	.word	0x3f8226e3
10007398:	1bb341fe 	.word	0x1bb341fe
1000739c:	3faba1ba 	.word	0x3faba1ba
100073a0:	55555563 	.word	0x55555563
100073a4:	3fd55555 	.word	0x3fd55555
100073a8:	3ff00000 	.word	0x3ff00000

100073ac <floor>:
100073ac:	b5f0      	push	{r4, r5, r6, r7, lr}
100073ae:	465f      	mov	r7, fp
100073b0:	464d      	mov	r5, r9
100073b2:	4644      	mov	r4, r8
100073b4:	4656      	mov	r6, sl
100073b6:	b4f0      	push	{r4, r5, r6, r7}
100073b8:	4b48      	ldr	r3, [pc, #288]	; (100074dc <floor+0x130>)
100073ba:	004d      	lsls	r5, r1, #1
100073bc:	0d6d      	lsrs	r5, r5, #21
100073be:	18ef      	adds	r7, r5, r3
100073c0:	b083      	sub	sp, #12
100073c2:	1c06      	adds	r6, r0, #0
100073c4:	1c0c      	adds	r4, r1, #0
100073c6:	4688      	mov	r8, r1
100073c8:	468b      	mov	fp, r1
100073ca:	4681      	mov	r9, r0
100073cc:	2f13      	cmp	r7, #19
100073ce:	dc27      	bgt.n	10007420 <floor+0x74>
100073d0:	2f00      	cmp	r7, #0
100073d2:	db54      	blt.n	1000747e <floor+0xd2>
100073d4:	4d42      	ldr	r5, [pc, #264]	; (100074e0 <floor+0x134>)
100073d6:	4641      	mov	r1, r8
100073d8:	413d      	asrs	r5, r7
100073da:	4029      	ands	r1, r5
100073dc:	4301      	orrs	r1, r0
100073de:	1c02      	adds	r2, r0, #0
100073e0:	1c23      	adds	r3, r4, #0
100073e2:	2900      	cmp	r1, #0
100073e4:	d013      	beq.n	1000740e <floor+0x62>
100073e6:	4a3f      	ldr	r2, [pc, #252]	; (100074e4 <floor+0x138>)
100073e8:	4b3f      	ldr	r3, [pc, #252]	; (100074e8 <floor+0x13c>)
100073ea:	1c21      	adds	r1, r4, #0
100073ec:	f001 f8bc 	bl	10008568 <__aeabi_dadd>
100073f0:	2200      	movs	r2, #0
100073f2:	2300      	movs	r3, #0
100073f4:	f000 f92e 	bl	10007654 <__aeabi_dcmpgt>
100073f8:	2800      	cmp	r0, #0
100073fa:	d006      	beq.n	1000740a <floor+0x5e>
100073fc:	2c00      	cmp	r4, #0
100073fe:	db4e      	blt.n	1000749e <floor+0xf2>
10007400:	465b      	mov	r3, fp
10007402:	43ab      	bics	r3, r5
10007404:	4698      	mov	r8, r3
10007406:	2300      	movs	r3, #0
10007408:	4699      	mov	r9, r3
1000740a:	4643      	mov	r3, r8
1000740c:	464a      	mov	r2, r9
1000740e:	1c10      	adds	r0, r2, #0
10007410:	1c19      	adds	r1, r3, #0
10007412:	b003      	add	sp, #12
10007414:	bc3c      	pop	{r2, r3, r4, r5}
10007416:	4690      	mov	r8, r2
10007418:	4699      	mov	r9, r3
1000741a:	46a2      	mov	sl, r4
1000741c:	46ab      	mov	fp, r5
1000741e:	bdf0      	pop	{r4, r5, r6, r7, pc}
10007420:	2f33      	cmp	r7, #51	; 0x33
10007422:	dd0c      	ble.n	1000743e <floor+0x92>
10007424:	1c0b      	adds	r3, r1, #0
10007426:	2180      	movs	r1, #128	; 0x80
10007428:	1c02      	adds	r2, r0, #0
1000742a:	00c9      	lsls	r1, r1, #3
1000742c:	428f      	cmp	r7, r1
1000742e:	d1ee      	bne.n	1000740e <floor+0x62>
10007430:	1c32      	adds	r2, r6, #0
10007432:	1c21      	adds	r1, r4, #0
10007434:	f001 f898 	bl	10008568 <__aeabi_dadd>
10007438:	1c02      	adds	r2, r0, #0
1000743a:	1c0b      	adds	r3, r1, #0
1000743c:	e7e7      	b.n	1000740e <floor+0x62>
1000743e:	2201      	movs	r2, #1
10007440:	4b2a      	ldr	r3, [pc, #168]	; (100074ec <floor+0x140>)
10007442:	4252      	negs	r2, r2
10007444:	18eb      	adds	r3, r5, r3
10007446:	40da      	lsrs	r2, r3
10007448:	1c11      	adds	r1, r2, #0
1000744a:	9201      	str	r2, [sp, #4]
1000744c:	1c23      	adds	r3, r4, #0
1000744e:	1c02      	adds	r2, r0, #0
10007450:	4201      	tst	r1, r0
10007452:	d0dc      	beq.n	1000740e <floor+0x62>
10007454:	4a23      	ldr	r2, [pc, #140]	; (100074e4 <floor+0x138>)
10007456:	4b24      	ldr	r3, [pc, #144]	; (100074e8 <floor+0x13c>)
10007458:	1c21      	adds	r1, r4, #0
1000745a:	f001 f885 	bl	10008568 <__aeabi_dadd>
1000745e:	2200      	movs	r2, #0
10007460:	2300      	movs	r3, #0
10007462:	f000 f8f7 	bl	10007654 <__aeabi_dcmpgt>
10007466:	2800      	cmp	r0, #0
10007468:	d0cf      	beq.n	1000740a <floor+0x5e>
1000746a:	2c00      	cmp	r4, #0
1000746c:	db1c      	blt.n	100074a8 <floor+0xfc>
1000746e:	464b      	mov	r3, r9
10007470:	9a01      	ldr	r2, [sp, #4]
10007472:	46d8      	mov	r8, fp
10007474:	4393      	bics	r3, r2
10007476:	4699      	mov	r9, r3
10007478:	4643      	mov	r3, r8
1000747a:	464a      	mov	r2, r9
1000747c:	e7c7      	b.n	1000740e <floor+0x62>
1000747e:	4a19      	ldr	r2, [pc, #100]	; (100074e4 <floor+0x138>)
10007480:	4b19      	ldr	r3, [pc, #100]	; (100074e8 <floor+0x13c>)
10007482:	f001 f871 	bl	10008568 <__aeabi_dadd>
10007486:	2200      	movs	r2, #0
10007488:	2300      	movs	r3, #0
1000748a:	f000 f8e3 	bl	10007654 <__aeabi_dcmpgt>
1000748e:	2800      	cmp	r0, #0
10007490:	d0bb      	beq.n	1000740a <floor+0x5e>
10007492:	2c00      	cmp	r4, #0
10007494:	db15      	blt.n	100074c2 <floor+0x116>
10007496:	2300      	movs	r3, #0
10007498:	4699      	mov	r9, r3
1000749a:	4698      	mov	r8, r3
1000749c:	e7b5      	b.n	1000740a <floor+0x5e>
1000749e:	2380      	movs	r3, #128	; 0x80
100074a0:	035b      	lsls	r3, r3, #13
100074a2:	413b      	asrs	r3, r7
100074a4:	449b      	add	fp, r3
100074a6:	e7ab      	b.n	10007400 <floor+0x54>
100074a8:	2f14      	cmp	r7, #20
100074aa:	d013      	beq.n	100074d4 <floor+0x128>
100074ac:	4b10      	ldr	r3, [pc, #64]	; (100074f0 <floor+0x144>)
100074ae:	1b5d      	subs	r5, r3, r5
100074b0:	2301      	movs	r3, #1
100074b2:	40ab      	lsls	r3, r5
100074b4:	4699      	mov	r9, r3
100074b6:	44b1      	add	r9, r6
100074b8:	45b1      	cmp	r9, r6
100074ba:	419b      	sbcs	r3, r3
100074bc:	425b      	negs	r3, r3
100074be:	449b      	add	fp, r3
100074c0:	e7d5      	b.n	1000746e <floor+0xc2>
100074c2:	2300      	movs	r3, #0
100074c4:	0064      	lsls	r4, r4, #1
100074c6:	0864      	lsrs	r4, r4, #1
100074c8:	4326      	orrs	r6, r4
100074ca:	4699      	mov	r9, r3
100074cc:	d09d      	beq.n	1000740a <floor+0x5e>
100074ce:	4b09      	ldr	r3, [pc, #36]	; (100074f4 <floor+0x148>)
100074d0:	4698      	mov	r8, r3
100074d2:	e79a      	b.n	1000740a <floor+0x5e>
100074d4:	2301      	movs	r3, #1
100074d6:	469c      	mov	ip, r3
100074d8:	44e3      	add	fp, ip
100074da:	e7c8      	b.n	1000746e <floor+0xc2>
100074dc:	fffffc01 	.word	0xfffffc01
100074e0:	000fffff 	.word	0x000fffff
100074e4:	8800759c 	.word	0x8800759c
100074e8:	7e37e43c 	.word	0x7e37e43c
100074ec:	fffffbed 	.word	0xfffffbed
100074f0:	00000433 	.word	0x00000433
100074f4:	bff00000 	.word	0xbff00000

100074f8 <scalbn>:
100074f8:	b5f8      	push	{r3, r4, r5, r6, r7, lr}
100074fa:	4f31      	ldr	r7, [pc, #196]	; (100075c0 <scalbn+0xc8>)
100074fc:	1c16      	adds	r6, r2, #0
100074fe:	1c3b      	adds	r3, r7, #0
10007500:	400b      	ands	r3, r1
10007502:	1c04      	adds	r4, r0, #0
10007504:	1c0d      	adds	r5, r1, #0
10007506:	1c0a      	adds	r2, r1, #0
10007508:	151b      	asrs	r3, r3, #20
1000750a:	d120      	bne.n	1000754e <scalbn+0x56>
1000750c:	004b      	lsls	r3, r1, #1
1000750e:	085b      	lsrs	r3, r3, #1
10007510:	4303      	orrs	r3, r0
10007512:	d01b      	beq.n	1000754c <scalbn+0x54>
10007514:	2200      	movs	r2, #0
10007516:	4b2b      	ldr	r3, [pc, #172]	; (100075c4 <scalbn+0xcc>)
10007518:	f001 ff8c 	bl	10009434 <__aeabi_dmul>
1000751c:	4b2a      	ldr	r3, [pc, #168]	; (100075c8 <scalbn+0xd0>)
1000751e:	1c04      	adds	r4, r0, #0
10007520:	1c0d      	adds	r5, r1, #0
10007522:	1c0a      	adds	r2, r1, #0
10007524:	429e      	cmp	r6, r3
10007526:	db22      	blt.n	1000756e <scalbn+0x76>
10007528:	400f      	ands	r7, r1
1000752a:	153f      	asrs	r7, r7, #20
1000752c:	1c3b      	adds	r3, r7, #0
1000752e:	4927      	ldr	r1, [pc, #156]	; (100075cc <scalbn+0xd4>)
10007530:	3b36      	subs	r3, #54	; 0x36
10007532:	199b      	adds	r3, r3, r6
10007534:	428b      	cmp	r3, r1
10007536:	dd11      	ble.n	1000755c <scalbn+0x64>
10007538:	1c22      	adds	r2, r4, #0
1000753a:	1c2b      	adds	r3, r5, #0
1000753c:	4824      	ldr	r0, [pc, #144]	; (100075d0 <scalbn+0xd8>)
1000753e:	4925      	ldr	r1, [pc, #148]	; (100075d4 <scalbn+0xdc>)
10007540:	f000 f856 	bl	100075f0 <copysign>
10007544:	4a22      	ldr	r2, [pc, #136]	; (100075d0 <scalbn+0xd8>)
10007546:	4b23      	ldr	r3, [pc, #140]	; (100075d4 <scalbn+0xdc>)
10007548:	f001 ff74 	bl	10009434 <__aeabi_dmul>
1000754c:	bdf8      	pop	{r3, r4, r5, r6, r7, pc}
1000754e:	4922      	ldr	r1, [pc, #136]	; (100075d8 <scalbn+0xe0>)
10007550:	428b      	cmp	r3, r1
10007552:	d022      	beq.n	1000759a <scalbn+0xa2>
10007554:	491d      	ldr	r1, [pc, #116]	; (100075cc <scalbn+0xd4>)
10007556:	199b      	adds	r3, r3, r6
10007558:	428b      	cmp	r3, r1
1000755a:	dced      	bgt.n	10007538 <scalbn+0x40>
1000755c:	2b00      	cmp	r3, #0
1000755e:	dd0b      	ble.n	10007578 <scalbn+0x80>
10007560:	491e      	ldr	r1, [pc, #120]	; (100075dc <scalbn+0xe4>)
10007562:	051b      	lsls	r3, r3, #20
10007564:	400a      	ands	r2, r1
10007566:	4313      	orrs	r3, r2
10007568:	1c20      	adds	r0, r4, #0
1000756a:	1c19      	adds	r1, r3, #0
1000756c:	e7ee      	b.n	1000754c <scalbn+0x54>
1000756e:	4a1c      	ldr	r2, [pc, #112]	; (100075e0 <scalbn+0xe8>)
10007570:	4b1c      	ldr	r3, [pc, #112]	; (100075e4 <scalbn+0xec>)
10007572:	f001 ff5f 	bl	10009434 <__aeabi_dmul>
10007576:	e7e9      	b.n	1000754c <scalbn+0x54>
10007578:	1c19      	adds	r1, r3, #0
1000757a:	3135      	adds	r1, #53	; 0x35
1000757c:	da13      	bge.n	100075a6 <scalbn+0xae>
1000757e:	4b1a      	ldr	r3, [pc, #104]	; (100075e8 <scalbn+0xf0>)
10007580:	429e      	cmp	r6, r3
10007582:	dcd9      	bgt.n	10007538 <scalbn+0x40>
10007584:	1c22      	adds	r2, r4, #0
10007586:	1c2b      	adds	r3, r5, #0
10007588:	4815      	ldr	r0, [pc, #84]	; (100075e0 <scalbn+0xe8>)
1000758a:	4916      	ldr	r1, [pc, #88]	; (100075e4 <scalbn+0xec>)
1000758c:	f000 f830 	bl	100075f0 <copysign>
10007590:	4a13      	ldr	r2, [pc, #76]	; (100075e0 <scalbn+0xe8>)
10007592:	4b14      	ldr	r3, [pc, #80]	; (100075e4 <scalbn+0xec>)
10007594:	f001 ff4e 	bl	10009434 <__aeabi_dmul>
10007598:	e7d8      	b.n	1000754c <scalbn+0x54>
1000759a:	1c29      	adds	r1, r5, #0
1000759c:	1c22      	adds	r2, r4, #0
1000759e:	1c2b      	adds	r3, r5, #0
100075a0:	f000 ffe2 	bl	10008568 <__aeabi_dadd>
100075a4:	e7d2      	b.n	1000754c <scalbn+0x54>
100075a6:	490d      	ldr	r1, [pc, #52]	; (100075dc <scalbn+0xe4>)
100075a8:	3336      	adds	r3, #54	; 0x36
100075aa:	400a      	ands	r2, r1
100075ac:	051b      	lsls	r3, r3, #20
100075ae:	4313      	orrs	r3, r2
100075b0:	1c20      	adds	r0, r4, #0
100075b2:	1c19      	adds	r1, r3, #0
100075b4:	2200      	movs	r2, #0
100075b6:	4b0d      	ldr	r3, [pc, #52]	; (100075ec <scalbn+0xf4>)
100075b8:	f001 ff3c 	bl	10009434 <__aeabi_dmul>
100075bc:	e7c6      	b.n	1000754c <scalbn+0x54>
100075be:	46c0      	nop			; (mov r8, r8)
100075c0:	7ff00000 	.word	0x7ff00000
100075c4:	43500000 	.word	0x43500000
100075c8:	ffff3cb0 	.word	0xffff3cb0
100075cc:	000007fe 	.word	0x000007fe
100075d0:	8800759c 	.word	0x8800759c
100075d4:	7e37e43c 	.word	0x7e37e43c
100075d8:	000007ff 	.word	0x000007ff
100075dc:	800fffff 	.word	0x800fffff
100075e0:	c2f8f359 	.word	0xc2f8f359
100075e4:	01a56e1f 	.word	0x01a56e1f
100075e8:	0000c350 	.word	0x0000c350
100075ec:	3c900000 	.word	0x3c900000

100075f0 <copysign>:
100075f0:	b530      	push	{r4, r5, lr}
100075f2:	004a      	lsls	r2, r1, #1
100075f4:	0fdb      	lsrs	r3, r3, #31
100075f6:	0852      	lsrs	r2, r2, #1
100075f8:	07db      	lsls	r3, r3, #31
100075fa:	4313      	orrs	r3, r2
100075fc:	1c19      	adds	r1, r3, #0
100075fe:	bd30      	pop	{r4, r5, pc}

10007600 <__aeabi_cdrcmple>:
10007600:	4684      	mov	ip, r0
10007602:	1c10      	adds	r0, r2, #0
10007604:	4662      	mov	r2, ip
10007606:	468c      	mov	ip, r1
10007608:	1c19      	adds	r1, r3, #0
1000760a:	4663      	mov	r3, ip
1000760c:	e000      	b.n	10007610 <__aeabi_cdcmpeq>
1000760e:	46c0      	nop			; (mov r8, r8)

10007610 <__aeabi_cdcmpeq>:
10007610:	b51f      	push	{r0, r1, r2, r3, r4, lr}
10007612:	f001 fea9 	bl	10009368 <__ledf2>
10007616:	2800      	cmp	r0, #0
10007618:	d401      	bmi.n	1000761e <__aeabi_cdcmpeq+0xe>
1000761a:	2100      	movs	r1, #0
1000761c:	42c8      	cmn	r0, r1
1000761e:	bd1f      	pop	{r0, r1, r2, r3, r4, pc}

10007620 <__aeabi_dcmpeq>:
10007620:	b510      	push	{r4, lr}
10007622:	f001 fded 	bl	10009200 <__eqdf2>
10007626:	4240      	negs	r0, r0
10007628:	3001      	adds	r0, #1
1000762a:	bd10      	pop	{r4, pc}

1000762c <__aeabi_dcmplt>:
1000762c:	b510      	push	{r4, lr}
1000762e:	f001 fe9b 	bl	10009368 <__ledf2>
10007632:	2800      	cmp	r0, #0
10007634:	db01      	blt.n	1000763a <__aeabi_dcmplt+0xe>
10007636:	2000      	movs	r0, #0
10007638:	bd10      	pop	{r4, pc}
1000763a:	2001      	movs	r0, #1
1000763c:	bd10      	pop	{r4, pc}
1000763e:	46c0      	nop			; (mov r8, r8)

10007640 <__aeabi_dcmple>:
10007640:	b510      	push	{r4, lr}
10007642:	f001 fe91 	bl	10009368 <__ledf2>
10007646:	2800      	cmp	r0, #0
10007648:	dd01      	ble.n	1000764e <__aeabi_dcmple+0xe>
1000764a:	2000      	movs	r0, #0
1000764c:	bd10      	pop	{r4, pc}
1000764e:	2001      	movs	r0, #1
10007650:	bd10      	pop	{r4, pc}
10007652:	46c0      	nop			; (mov r8, r8)

10007654 <__aeabi_dcmpgt>:
10007654:	b510      	push	{r4, lr}
10007656:	f001 fe17 	bl	10009288 <__gedf2>
1000765a:	2800      	cmp	r0, #0
1000765c:	dc01      	bgt.n	10007662 <__aeabi_dcmpgt+0xe>
1000765e:	2000      	movs	r0, #0
10007660:	bd10      	pop	{r4, pc}
10007662:	2001      	movs	r0, #1
10007664:	bd10      	pop	{r4, pc}
10007666:	46c0      	nop			; (mov r8, r8)

10007668 <__aeabi_dcmpge>:
10007668:	b510      	push	{r4, lr}
1000766a:	f001 fe0d 	bl	10009288 <__gedf2>
1000766e:	2800      	cmp	r0, #0
10007670:	da01      	bge.n	10007676 <__aeabi_dcmpge+0xe>
10007672:	2000      	movs	r0, #0
10007674:	bd10      	pop	{r4, pc}
10007676:	2001      	movs	r0, #1
10007678:	bd10      	pop	{r4, pc}
1000767a:	46c0      	nop			; (mov r8, r8)

1000767c <__aeabi_cfrcmple>:
1000767c:	4684      	mov	ip, r0
1000767e:	1c08      	adds	r0, r1, #0
10007680:	4661      	mov	r1, ip
10007682:	e7ff      	b.n	10007684 <__aeabi_cfcmpeq>

10007684 <__aeabi_cfcmpeq>:
10007684:	b51f      	push	{r0, r1, r2, r3, r4, lr}
10007686:	f000 fc11 	bl	10007eac <__lesf2>
1000768a:	2800      	cmp	r0, #0
1000768c:	d401      	bmi.n	10007692 <__aeabi_cfcmpeq+0xe>
1000768e:	2100      	movs	r1, #0
10007690:	42c8      	cmn	r0, r1
10007692:	bd1f      	pop	{r0, r1, r2, r3, r4, pc}

10007694 <__aeabi_fcmpeq>:
10007694:	b510      	push	{r4, lr}
10007696:	f000 fb95 	bl	10007dc4 <__eqsf2>
1000769a:	4240      	negs	r0, r0
1000769c:	3001      	adds	r0, #1
1000769e:	bd10      	pop	{r4, pc}

100076a0 <__aeabi_fcmplt>:
100076a0:	b510      	push	{r4, lr}
100076a2:	f000 fc03 	bl	10007eac <__lesf2>
100076a6:	2800      	cmp	r0, #0
100076a8:	db01      	blt.n	100076ae <__aeabi_fcmplt+0xe>
100076aa:	2000      	movs	r0, #0
100076ac:	bd10      	pop	{r4, pc}
100076ae:	2001      	movs	r0, #1
100076b0:	bd10      	pop	{r4, pc}
100076b2:	46c0      	nop			; (mov r8, r8)

100076b4 <__aeabi_fcmple>:
100076b4:	b510      	push	{r4, lr}
100076b6:	f000 fbf9 	bl	10007eac <__lesf2>
100076ba:	2800      	cmp	r0, #0
100076bc:	dd01      	ble.n	100076c2 <__aeabi_fcmple+0xe>
100076be:	2000      	movs	r0, #0
100076c0:	bd10      	pop	{r4, pc}
100076c2:	2001      	movs	r0, #1
100076c4:	bd10      	pop	{r4, pc}
100076c6:	46c0      	nop			; (mov r8, r8)

100076c8 <__aeabi_fcmpgt>:
100076c8:	b510      	push	{r4, lr}
100076ca:	f000 fba5 	bl	10007e18 <__gesf2>
100076ce:	2800      	cmp	r0, #0
100076d0:	dc01      	bgt.n	100076d6 <__aeabi_fcmpgt+0xe>
100076d2:	2000      	movs	r0, #0
100076d4:	bd10      	pop	{r4, pc}
100076d6:	2001      	movs	r0, #1
100076d8:	bd10      	pop	{r4, pc}
100076da:	46c0      	nop			; (mov r8, r8)

100076dc <__aeabi_fcmpge>:
100076dc:	b510      	push	{r4, lr}
100076de:	f000 fb9b 	bl	10007e18 <__gesf2>
100076e2:	2800      	cmp	r0, #0
100076e4:	da01      	bge.n	100076ea <__aeabi_fcmpge+0xe>
100076e6:	2000      	movs	r0, #0
100076e8:	bd10      	pop	{r4, pc}
100076ea:	2001      	movs	r0, #1
100076ec:	bd10      	pop	{r4, pc}
100076ee:	46c0      	nop			; (mov r8, r8)

100076f0 <__clzsi2>:
100076f0:	211c      	movs	r1, #28
100076f2:	2301      	movs	r3, #1
100076f4:	041b      	lsls	r3, r3, #16
100076f6:	4298      	cmp	r0, r3
100076f8:	d301      	bcc.n	100076fe <__clzsi2+0xe>
100076fa:	0c00      	lsrs	r0, r0, #16
100076fc:	3910      	subs	r1, #16
100076fe:	0a1b      	lsrs	r3, r3, #8
10007700:	4298      	cmp	r0, r3
10007702:	d301      	bcc.n	10007708 <__clzsi2+0x18>
10007704:	0a00      	lsrs	r0, r0, #8
10007706:	3908      	subs	r1, #8
10007708:	091b      	lsrs	r3, r3, #4
1000770a:	4298      	cmp	r0, r3
1000770c:	d301      	bcc.n	10007712 <__clzsi2+0x22>
1000770e:	0900      	lsrs	r0, r0, #4
10007710:	3904      	subs	r1, #4
10007712:	a202      	add	r2, pc, #8	; (adr r2, 1000771c <__clzsi2+0x2c>)
10007714:	5c10      	ldrb	r0, [r2, r0]
10007716:	1840      	adds	r0, r0, r1
10007718:	4770      	bx	lr
1000771a:	46c0      	nop			; (mov r8, r8)
1000771c:	02020304 	.word	0x02020304
10007720:	01010101 	.word	0x01010101
	...

1000772c <__aeabi_uldivmod>:
1000772c:	2b00      	cmp	r3, #0
1000772e:	d111      	bne.n	10007754 <__aeabi_uldivmod+0x28>
10007730:	2a00      	cmp	r2, #0
10007732:	d10f      	bne.n	10007754 <__aeabi_uldivmod+0x28>
10007734:	2900      	cmp	r1, #0
10007736:	d100      	bne.n	1000773a <__aeabi_uldivmod+0xe>
10007738:	2800      	cmp	r0, #0
1000773a:	d002      	beq.n	10007742 <__aeabi_uldivmod+0x16>
1000773c:	2100      	movs	r1, #0
1000773e:	43c9      	mvns	r1, r1
10007740:	1c08      	adds	r0, r1, #0
10007742:	b407      	push	{r0, r1, r2}
10007744:	4802      	ldr	r0, [pc, #8]	; (10007750 <__aeabi_uldivmod+0x24>)
10007746:	a102      	add	r1, pc, #8	; (adr r1, 10007750 <__aeabi_uldivmod+0x24>)
10007748:	1840      	adds	r0, r0, r1
1000774a:	9002      	str	r0, [sp, #8]
1000774c:	bd03      	pop	{r0, r1, pc}
1000774e:	46c0      	nop			; (mov r8, r8)
10007750:	00002c1d 	.word	0x00002c1d
10007754:	b403      	push	{r0, r1}
10007756:	4668      	mov	r0, sp
10007758:	b501      	push	{r0, lr}
1000775a:	9802      	ldr	r0, [sp, #8]
1000775c:	f000 f864 	bl	10007828 <__gnu_uldivmod_helper>
10007760:	9b01      	ldr	r3, [sp, #4]
10007762:	469e      	mov	lr, r3
10007764:	b002      	add	sp, #8
10007766:	bc0c      	pop	{r2, r3}
10007768:	4770      	bx	lr
1000776a:	46c0      	nop			; (mov r8, r8)

1000776c <__aeabi_lmul>:
1000776c:	b5f0      	push	{r4, r5, r6, r7, lr}
1000776e:	464f      	mov	r7, r9
10007770:	4646      	mov	r6, r8
10007772:	0405      	lsls	r5, r0, #16
10007774:	0c2d      	lsrs	r5, r5, #16
10007776:	1c2c      	adds	r4, r5, #0
10007778:	b4c0      	push	{r6, r7}
1000777a:	0417      	lsls	r7, r2, #16
1000777c:	0c16      	lsrs	r6, r2, #16
1000777e:	0c3f      	lsrs	r7, r7, #16
10007780:	4699      	mov	r9, r3
10007782:	0c03      	lsrs	r3, r0, #16
10007784:	437c      	muls	r4, r7
10007786:	4375      	muls	r5, r6
10007788:	435f      	muls	r7, r3
1000778a:	4373      	muls	r3, r6
1000778c:	197d      	adds	r5, r7, r5
1000778e:	0c26      	lsrs	r6, r4, #16
10007790:	19ad      	adds	r5, r5, r6
10007792:	469c      	mov	ip, r3
10007794:	42af      	cmp	r7, r5
10007796:	d903      	bls.n	100077a0 <__aeabi_lmul+0x34>
10007798:	2380      	movs	r3, #128	; 0x80
1000779a:	025b      	lsls	r3, r3, #9
1000779c:	4698      	mov	r8, r3
1000779e:	44c4      	add	ip, r8
100077a0:	464b      	mov	r3, r9
100077a2:	4351      	muls	r1, r2
100077a4:	4343      	muls	r3, r0
100077a6:	0424      	lsls	r4, r4, #16
100077a8:	0c2e      	lsrs	r6, r5, #16
100077aa:	0c24      	lsrs	r4, r4, #16
100077ac:	042d      	lsls	r5, r5, #16
100077ae:	4466      	add	r6, ip
100077b0:	192c      	adds	r4, r5, r4
100077b2:	1859      	adds	r1, r3, r1
100077b4:	1989      	adds	r1, r1, r6
100077b6:	1c20      	adds	r0, r4, #0
100077b8:	bc0c      	pop	{r2, r3}
100077ba:	4690      	mov	r8, r2
100077bc:	4699      	mov	r9, r3
100077be:	bdf0      	pop	{r4, r5, r6, r7, pc}

100077c0 <__aeabi_f2uiz>:
100077c0:	219e      	movs	r1, #158	; 0x9e
100077c2:	b510      	push	{r4, lr}
100077c4:	05c9      	lsls	r1, r1, #23
100077c6:	1c04      	adds	r4, r0, #0
100077c8:	f7ff ff88 	bl	100076dc <__aeabi_fcmpge>
100077cc:	2800      	cmp	r0, #0
100077ce:	d103      	bne.n	100077d8 <__aeabi_f2uiz+0x18>
100077d0:	1c20      	adds	r0, r4, #0
100077d2:	f000 fe61 	bl	10008498 <__aeabi_f2iz>
100077d6:	bd10      	pop	{r4, pc}
100077d8:	219e      	movs	r1, #158	; 0x9e
100077da:	1c20      	adds	r0, r4, #0
100077dc:	05c9      	lsls	r1, r1, #23
100077de:	f000 fcdd 	bl	1000819c <__aeabi_fsub>
100077e2:	f000 fe59 	bl	10008498 <__aeabi_f2iz>
100077e6:	2380      	movs	r3, #128	; 0x80
100077e8:	061b      	lsls	r3, r3, #24
100077ea:	469c      	mov	ip, r3
100077ec:	4460      	add	r0, ip
100077ee:	e7f2      	b.n	100077d6 <__aeabi_f2uiz+0x16>

100077f0 <__gnu_ldivmod_helper>:
100077f0:	b5f0      	push	{r4, r5, r6, r7, lr}
100077f2:	b083      	sub	sp, #12
100077f4:	1c16      	adds	r6, r2, #0
100077f6:	1c1f      	adds	r7, r3, #0
100077f8:	9000      	str	r0, [sp, #0]
100077fa:	9101      	str	r1, [sp, #4]
100077fc:	f002 fdb8 	bl	1000a370 <__divdi3>
10007800:	1c04      	adds	r4, r0, #0
10007802:	1c0d      	adds	r5, r1, #0
10007804:	1c22      	adds	r2, r4, #0
10007806:	1c2b      	adds	r3, r5, #0
10007808:	1c30      	adds	r0, r6, #0
1000780a:	1c39      	adds	r1, r7, #0
1000780c:	f7ff ffae 	bl	1000776c <__aeabi_lmul>
10007810:	9a00      	ldr	r2, [sp, #0]
10007812:	9b01      	ldr	r3, [sp, #4]
10007814:	1a12      	subs	r2, r2, r0
10007816:	418b      	sbcs	r3, r1
10007818:	9908      	ldr	r1, [sp, #32]
1000781a:	1c20      	adds	r0, r4, #0
1000781c:	600a      	str	r2, [r1, #0]
1000781e:	604b      	str	r3, [r1, #4]
10007820:	1c29      	adds	r1, r5, #0
10007822:	b003      	add	sp, #12
10007824:	bdf0      	pop	{r4, r5, r6, r7, pc}
10007826:	46c0      	nop			; (mov r8, r8)

10007828 <__gnu_uldivmod_helper>:
10007828:	b5f0      	push	{r4, r5, r6, r7, lr}
1000782a:	1c14      	adds	r4, r2, #0
1000782c:	b083      	sub	sp, #12
1000782e:	1c1d      	adds	r5, r3, #0
10007830:	9000      	str	r0, [sp, #0]
10007832:	9101      	str	r1, [sp, #4]
10007834:	f002 fe94 	bl	1000a560 <__udivdi3>
10007838:	1c22      	adds	r2, r4, #0
1000783a:	1c2b      	adds	r3, r5, #0
1000783c:	1c06      	adds	r6, r0, #0
1000783e:	1c0f      	adds	r7, r1, #0
10007840:	f7ff ff94 	bl	1000776c <__aeabi_lmul>
10007844:	9a00      	ldr	r2, [sp, #0]
10007846:	9b01      	ldr	r3, [sp, #4]
10007848:	1a12      	subs	r2, r2, r0
1000784a:	418b      	sbcs	r3, r1
1000784c:	9908      	ldr	r1, [sp, #32]
1000784e:	1c30      	adds	r0, r6, #0
10007850:	600a      	str	r2, [r1, #0]
10007852:	604b      	str	r3, [r1, #4]
10007854:	1c39      	adds	r1, r7, #0
10007856:	b003      	add	sp, #12
10007858:	bdf0      	pop	{r4, r5, r6, r7, pc}
1000785a:	46c0      	nop			; (mov r8, r8)

1000785c <__aeabi_fadd>:
1000785c:	b5f8      	push	{r3, r4, r5, r6, r7, lr}
1000785e:	004a      	lsls	r2, r1, #1
10007860:	0243      	lsls	r3, r0, #9
10007862:	0044      	lsls	r4, r0, #1
10007864:	024e      	lsls	r6, r1, #9
10007866:	0fc5      	lsrs	r5, r0, #31
10007868:	0e24      	lsrs	r4, r4, #24
1000786a:	1c28      	adds	r0, r5, #0
1000786c:	099b      	lsrs	r3, r3, #6
1000786e:	0e12      	lsrs	r2, r2, #24
10007870:	0fc9      	lsrs	r1, r1, #31
10007872:	09b7      	lsrs	r7, r6, #6
10007874:	428d      	cmp	r5, r1
10007876:	d040      	beq.n	100078fa <__aeabi_fadd+0x9e>
10007878:	1aa0      	subs	r0, r4, r2
1000787a:	2800      	cmp	r0, #0
1000787c:	dc00      	bgt.n	10007880 <__aeabi_fadd+0x24>
1000787e:	e084      	b.n	1000798a <__aeabi_fadd+0x12e>
10007880:	2a00      	cmp	r2, #0
10007882:	d11c      	bne.n	100078be <__aeabi_fadd+0x62>
10007884:	2f00      	cmp	r7, #0
10007886:	d15c      	bne.n	10007942 <__aeabi_fadd+0xe6>
10007888:	075a      	lsls	r2, r3, #29
1000788a:	d004      	beq.n	10007896 <__aeabi_fadd+0x3a>
1000788c:	220f      	movs	r2, #15
1000788e:	401a      	ands	r2, r3
10007890:	2a04      	cmp	r2, #4
10007892:	d000      	beq.n	10007896 <__aeabi_fadd+0x3a>
10007894:	3304      	adds	r3, #4
10007896:	2280      	movs	r2, #128	; 0x80
10007898:	04d2      	lsls	r2, r2, #19
1000789a:	401a      	ands	r2, r3
1000789c:	1c28      	adds	r0, r5, #0
1000789e:	2a00      	cmp	r2, #0
100078a0:	d024      	beq.n	100078ec <__aeabi_fadd+0x90>
100078a2:	3401      	adds	r4, #1
100078a4:	2cff      	cmp	r4, #255	; 0xff
100078a6:	d100      	bne.n	100078aa <__aeabi_fadd+0x4e>
100078a8:	e07b      	b.n	100079a2 <__aeabi_fadd+0x146>
100078aa:	019b      	lsls	r3, r3, #6
100078ac:	0a5b      	lsrs	r3, r3, #9
100078ae:	b2e4      	uxtb	r4, r4
100078b0:	025b      	lsls	r3, r3, #9
100078b2:	05e4      	lsls	r4, r4, #23
100078b4:	0a5b      	lsrs	r3, r3, #9
100078b6:	4323      	orrs	r3, r4
100078b8:	07c0      	lsls	r0, r0, #31
100078ba:	4318      	orrs	r0, r3
100078bc:	bdf8      	pop	{r3, r4, r5, r6, r7, pc}
100078be:	2cff      	cmp	r4, #255	; 0xff
100078c0:	d0e2      	beq.n	10007888 <__aeabi_fadd+0x2c>
100078c2:	2280      	movs	r2, #128	; 0x80
100078c4:	04d2      	lsls	r2, r2, #19
100078c6:	4317      	orrs	r7, r2
100078c8:	2601      	movs	r6, #1
100078ca:	281b      	cmp	r0, #27
100078cc:	dc08      	bgt.n	100078e0 <__aeabi_fadd+0x84>
100078ce:	1c39      	adds	r1, r7, #0
100078d0:	2220      	movs	r2, #32
100078d2:	1c3e      	adds	r6, r7, #0
100078d4:	40c1      	lsrs	r1, r0
100078d6:	1a10      	subs	r0, r2, r0
100078d8:	4086      	lsls	r6, r0
100078da:	1e77      	subs	r7, r6, #1
100078dc:	41be      	sbcs	r6, r7
100078de:	430e      	orrs	r6, r1
100078e0:	1b9b      	subs	r3, r3, r6
100078e2:	015a      	lsls	r2, r3, #5
100078e4:	d433      	bmi.n	1000794e <__aeabi_fadd+0xf2>
100078e6:	1c28      	adds	r0, r5, #0
100078e8:	075a      	lsls	r2, r3, #29
100078ea:	d1cf      	bne.n	1000788c <__aeabi_fadd+0x30>
100078ec:	08db      	lsrs	r3, r3, #3
100078ee:	2cff      	cmp	r4, #255	; 0xff
100078f0:	d01e      	beq.n	10007930 <__aeabi_fadd+0xd4>
100078f2:	025b      	lsls	r3, r3, #9
100078f4:	0a5b      	lsrs	r3, r3, #9
100078f6:	b2e4      	uxtb	r4, r4
100078f8:	e7da      	b.n	100078b0 <__aeabi_fadd+0x54>
100078fa:	1aa1      	subs	r1, r4, r2
100078fc:	2900      	cmp	r1, #0
100078fe:	dd57      	ble.n	100079b0 <__aeabi_fadd+0x154>
10007900:	2a00      	cmp	r2, #0
10007902:	d03a      	beq.n	1000797a <__aeabi_fadd+0x11e>
10007904:	2cff      	cmp	r4, #255	; 0xff
10007906:	d0bf      	beq.n	10007888 <__aeabi_fadd+0x2c>
10007908:	2280      	movs	r2, #128	; 0x80
1000790a:	04d2      	lsls	r2, r2, #19
1000790c:	4317      	orrs	r7, r2
1000790e:	2601      	movs	r6, #1
10007910:	291b      	cmp	r1, #27
10007912:	dd72      	ble.n	100079fa <__aeabi_fadd+0x19e>
10007914:	199b      	adds	r3, r3, r6
10007916:	015a      	lsls	r2, r3, #5
10007918:	d5e5      	bpl.n	100078e6 <__aeabi_fadd+0x8a>
1000791a:	3401      	adds	r4, #1
1000791c:	2cff      	cmp	r4, #255	; 0xff
1000791e:	d100      	bne.n	10007922 <__aeabi_fadd+0xc6>
10007920:	e087      	b.n	10007a32 <__aeabi_fadd+0x1d6>
10007922:	2101      	movs	r1, #1
10007924:	4a8a      	ldr	r2, [pc, #552]	; (10007b50 <__aeabi_fadd+0x2f4>)
10007926:	4019      	ands	r1, r3
10007928:	4013      	ands	r3, r2
1000792a:	085b      	lsrs	r3, r3, #1
1000792c:	430b      	orrs	r3, r1
1000792e:	e7ab      	b.n	10007888 <__aeabi_fadd+0x2c>
10007930:	2b00      	cmp	r3, #0
10007932:	d036      	beq.n	100079a2 <__aeabi_fadd+0x146>
10007934:	2280      	movs	r2, #128	; 0x80
10007936:	03d2      	lsls	r2, r2, #15
10007938:	4313      	orrs	r3, r2
1000793a:	025b      	lsls	r3, r3, #9
1000793c:	0a5b      	lsrs	r3, r3, #9
1000793e:	24ff      	movs	r4, #255	; 0xff
10007940:	e7b6      	b.n	100078b0 <__aeabi_fadd+0x54>
10007942:	3801      	subs	r0, #1
10007944:	2800      	cmp	r0, #0
10007946:	d13f      	bne.n	100079c8 <__aeabi_fadd+0x16c>
10007948:	1bdb      	subs	r3, r3, r7
1000794a:	015a      	lsls	r2, r3, #5
1000794c:	d5cb      	bpl.n	100078e6 <__aeabi_fadd+0x8a>
1000794e:	019b      	lsls	r3, r3, #6
10007950:	099e      	lsrs	r6, r3, #6
10007952:	1c30      	adds	r0, r6, #0
10007954:	f7ff fecc 	bl	100076f0 <__clzsi2>
10007958:	3805      	subs	r0, #5
1000795a:	4086      	lsls	r6, r0
1000795c:	4284      	cmp	r4, r0
1000795e:	dc23      	bgt.n	100079a8 <__aeabi_fadd+0x14c>
10007960:	1b00      	subs	r0, r0, r4
10007962:	241f      	movs	r4, #31
10007964:	1c32      	adds	r2, r6, #0
10007966:	1c43      	adds	r3, r0, #1
10007968:	1a20      	subs	r0, r4, r0
1000796a:	40da      	lsrs	r2, r3
1000796c:	4086      	lsls	r6, r0
1000796e:	1c13      	adds	r3, r2, #0
10007970:	1e74      	subs	r4, r6, #1
10007972:	41a6      	sbcs	r6, r4
10007974:	2400      	movs	r4, #0
10007976:	4333      	orrs	r3, r6
10007978:	e786      	b.n	10007888 <__aeabi_fadd+0x2c>
1000797a:	2f00      	cmp	r7, #0
1000797c:	d100      	bne.n	10007980 <__aeabi_fadd+0x124>
1000797e:	e783      	b.n	10007888 <__aeabi_fadd+0x2c>
10007980:	3901      	subs	r1, #1
10007982:	2900      	cmp	r1, #0
10007984:	d150      	bne.n	10007a28 <__aeabi_fadd+0x1cc>
10007986:	19db      	adds	r3, r3, r7
10007988:	e7c5      	b.n	10007916 <__aeabi_fadd+0xba>
1000798a:	2800      	cmp	r0, #0
1000798c:	d120      	bne.n	100079d0 <__aeabi_fadd+0x174>
1000798e:	1c62      	adds	r2, r4, #1
10007990:	b2d2      	uxtb	r2, r2
10007992:	2a01      	cmp	r2, #1
10007994:	dd5e      	ble.n	10007a54 <__aeabi_fadd+0x1f8>
10007996:	1bde      	subs	r6, r3, r7
10007998:	0172      	lsls	r2, r6, #5
1000799a:	d528      	bpl.n	100079ee <__aeabi_fadd+0x192>
1000799c:	1afe      	subs	r6, r7, r3
1000799e:	1c0d      	adds	r5, r1, #0
100079a0:	e7d7      	b.n	10007952 <__aeabi_fadd+0xf6>
100079a2:	24ff      	movs	r4, #255	; 0xff
100079a4:	2300      	movs	r3, #0
100079a6:	e783      	b.n	100078b0 <__aeabi_fadd+0x54>
100079a8:	4b69      	ldr	r3, [pc, #420]	; (10007b50 <__aeabi_fadd+0x2f4>)
100079aa:	1a24      	subs	r4, r4, r0
100079ac:	4033      	ands	r3, r6
100079ae:	e76b      	b.n	10007888 <__aeabi_fadd+0x2c>
100079b0:	2900      	cmp	r1, #0
100079b2:	d158      	bne.n	10007a66 <__aeabi_fadd+0x20a>
100079b4:	1c62      	adds	r2, r4, #1
100079b6:	b2d1      	uxtb	r1, r2
100079b8:	2901      	cmp	r1, #1
100079ba:	dd3c      	ble.n	10007a36 <__aeabi_fadd+0x1da>
100079bc:	2aff      	cmp	r2, #255	; 0xff
100079be:	d037      	beq.n	10007a30 <__aeabi_fadd+0x1d4>
100079c0:	18fb      	adds	r3, r7, r3
100079c2:	085b      	lsrs	r3, r3, #1
100079c4:	1c14      	adds	r4, r2, #0
100079c6:	e75f      	b.n	10007888 <__aeabi_fadd+0x2c>
100079c8:	2cff      	cmp	r4, #255	; 0xff
100079ca:	d000      	beq.n	100079ce <__aeabi_fadd+0x172>
100079cc:	e77c      	b.n	100078c8 <__aeabi_fadd+0x6c>
100079ce:	e75b      	b.n	10007888 <__aeabi_fadd+0x2c>
100079d0:	2c00      	cmp	r4, #0
100079d2:	d01e      	beq.n	10007a12 <__aeabi_fadd+0x1b6>
100079d4:	2aff      	cmp	r2, #255	; 0xff
100079d6:	d023      	beq.n	10007a20 <__aeabi_fadd+0x1c4>
100079d8:	2480      	movs	r4, #128	; 0x80
100079da:	04e4      	lsls	r4, r4, #19
100079dc:	4240      	negs	r0, r0
100079de:	4323      	orrs	r3, r4
100079e0:	281b      	cmp	r0, #27
100079e2:	dd5b      	ble.n	10007a9c <__aeabi_fadd+0x240>
100079e4:	2301      	movs	r3, #1
100079e6:	1afb      	subs	r3, r7, r3
100079e8:	1c14      	adds	r4, r2, #0
100079ea:	1c0d      	adds	r5, r1, #0
100079ec:	e7ad      	b.n	1000794a <__aeabi_fadd+0xee>
100079ee:	2e00      	cmp	r6, #0
100079f0:	d1af      	bne.n	10007952 <__aeabi_fadd+0xf6>
100079f2:	2300      	movs	r3, #0
100079f4:	2000      	movs	r0, #0
100079f6:	2400      	movs	r4, #0
100079f8:	e778      	b.n	100078ec <__aeabi_fadd+0x90>
100079fa:	1c3a      	adds	r2, r7, #0
100079fc:	40ca      	lsrs	r2, r1
100079fe:	4694      	mov	ip, r2
10007a00:	2220      	movs	r2, #32
10007a02:	1c3e      	adds	r6, r7, #0
10007a04:	1a51      	subs	r1, r2, r1
10007a06:	408e      	lsls	r6, r1
10007a08:	4662      	mov	r2, ip
10007a0a:	1e77      	subs	r7, r6, #1
10007a0c:	41be      	sbcs	r6, r7
10007a0e:	4316      	orrs	r6, r2
10007a10:	e780      	b.n	10007914 <__aeabi_fadd+0xb8>
10007a12:	2b00      	cmp	r3, #0
10007a14:	d03e      	beq.n	10007a94 <__aeabi_fadd+0x238>
10007a16:	43c0      	mvns	r0, r0
10007a18:	2800      	cmp	r0, #0
10007a1a:	d0e4      	beq.n	100079e6 <__aeabi_fadd+0x18a>
10007a1c:	2aff      	cmp	r2, #255	; 0xff
10007a1e:	d1df      	bne.n	100079e0 <__aeabi_fadd+0x184>
10007a20:	1c3b      	adds	r3, r7, #0
10007a22:	24ff      	movs	r4, #255	; 0xff
10007a24:	1c0d      	adds	r5, r1, #0
10007a26:	e72f      	b.n	10007888 <__aeabi_fadd+0x2c>
10007a28:	2cff      	cmp	r4, #255	; 0xff
10007a2a:	d000      	beq.n	10007a2e <__aeabi_fadd+0x1d2>
10007a2c:	e76f      	b.n	1000790e <__aeabi_fadd+0xb2>
10007a2e:	e72b      	b.n	10007888 <__aeabi_fadd+0x2c>
10007a30:	24ff      	movs	r4, #255	; 0xff
10007a32:	2300      	movs	r3, #0
10007a34:	e75a      	b.n	100078ec <__aeabi_fadd+0x90>
10007a36:	2c00      	cmp	r4, #0
10007a38:	d15a      	bne.n	10007af0 <__aeabi_fadd+0x294>
10007a3a:	2b00      	cmp	r3, #0
10007a3c:	d07f      	beq.n	10007b3e <__aeabi_fadd+0x2e2>
10007a3e:	2f00      	cmp	r7, #0
10007a40:	d100      	bne.n	10007a44 <__aeabi_fadd+0x1e8>
10007a42:	e721      	b.n	10007888 <__aeabi_fadd+0x2c>
10007a44:	19db      	adds	r3, r3, r7
10007a46:	015a      	lsls	r2, r3, #5
10007a48:	d400      	bmi.n	10007a4c <__aeabi_fadd+0x1f0>
10007a4a:	e74c      	b.n	100078e6 <__aeabi_fadd+0x8a>
10007a4c:	4a40      	ldr	r2, [pc, #256]	; (10007b50 <__aeabi_fadd+0x2f4>)
10007a4e:	3401      	adds	r4, #1
10007a50:	4013      	ands	r3, r2
10007a52:	e719      	b.n	10007888 <__aeabi_fadd+0x2c>
10007a54:	2c00      	cmp	r4, #0
10007a56:	d115      	bne.n	10007a84 <__aeabi_fadd+0x228>
10007a58:	2b00      	cmp	r3, #0
10007a5a:	d12f      	bne.n	10007abc <__aeabi_fadd+0x260>
10007a5c:	2f00      	cmp	r7, #0
10007a5e:	d05d      	beq.n	10007b1c <__aeabi_fadd+0x2c0>
10007a60:	1c3b      	adds	r3, r7, #0
10007a62:	1c0d      	adds	r5, r1, #0
10007a64:	e710      	b.n	10007888 <__aeabi_fadd+0x2c>
10007a66:	2c00      	cmp	r4, #0
10007a68:	d121      	bne.n	10007aae <__aeabi_fadd+0x252>
10007a6a:	2b00      	cmp	r3, #0
10007a6c:	d053      	beq.n	10007b16 <__aeabi_fadd+0x2ba>
10007a6e:	43c9      	mvns	r1, r1
10007a70:	2900      	cmp	r1, #0
10007a72:	d004      	beq.n	10007a7e <__aeabi_fadd+0x222>
10007a74:	2aff      	cmp	r2, #255	; 0xff
10007a76:	d04b      	beq.n	10007b10 <__aeabi_fadd+0x2b4>
10007a78:	291b      	cmp	r1, #27
10007a7a:	dd57      	ble.n	10007b2c <__aeabi_fadd+0x2d0>
10007a7c:	2301      	movs	r3, #1
10007a7e:	19db      	adds	r3, r3, r7
10007a80:	1c14      	adds	r4, r2, #0
10007a82:	e748      	b.n	10007916 <__aeabi_fadd+0xba>
10007a84:	2b00      	cmp	r3, #0
10007a86:	d122      	bne.n	10007ace <__aeabi_fadd+0x272>
10007a88:	2f00      	cmp	r7, #0
10007a8a:	d04a      	beq.n	10007b22 <__aeabi_fadd+0x2c6>
10007a8c:	1c3b      	adds	r3, r7, #0
10007a8e:	1c0d      	adds	r5, r1, #0
10007a90:	24ff      	movs	r4, #255	; 0xff
10007a92:	e6f9      	b.n	10007888 <__aeabi_fadd+0x2c>
10007a94:	1c3b      	adds	r3, r7, #0
10007a96:	1c14      	adds	r4, r2, #0
10007a98:	1c0d      	adds	r5, r1, #0
10007a9a:	e6f5      	b.n	10007888 <__aeabi_fadd+0x2c>
10007a9c:	1c1d      	adds	r5, r3, #0
10007a9e:	2420      	movs	r4, #32
10007aa0:	40c5      	lsrs	r5, r0
10007aa2:	1a20      	subs	r0, r4, r0
10007aa4:	4083      	lsls	r3, r0
10007aa6:	1e58      	subs	r0, r3, #1
10007aa8:	4183      	sbcs	r3, r0
10007aaa:	432b      	orrs	r3, r5
10007aac:	e79b      	b.n	100079e6 <__aeabi_fadd+0x18a>
10007aae:	2aff      	cmp	r2, #255	; 0xff
10007ab0:	d02e      	beq.n	10007b10 <__aeabi_fadd+0x2b4>
10007ab2:	2480      	movs	r4, #128	; 0x80
10007ab4:	04e4      	lsls	r4, r4, #19
10007ab6:	4249      	negs	r1, r1
10007ab8:	4323      	orrs	r3, r4
10007aba:	e7dd      	b.n	10007a78 <__aeabi_fadd+0x21c>
10007abc:	2f00      	cmp	r7, #0
10007abe:	d100      	bne.n	10007ac2 <__aeabi_fadd+0x266>
10007ac0:	e6e2      	b.n	10007888 <__aeabi_fadd+0x2c>
10007ac2:	1bda      	subs	r2, r3, r7
10007ac4:	0150      	lsls	r0, r2, #5
10007ac6:	d53c      	bpl.n	10007b42 <__aeabi_fadd+0x2e6>
10007ac8:	1afb      	subs	r3, r7, r3
10007aca:	1c0d      	adds	r5, r1, #0
10007acc:	e6dc      	b.n	10007888 <__aeabi_fadd+0x2c>
10007ace:	24ff      	movs	r4, #255	; 0xff
10007ad0:	2f00      	cmp	r7, #0
10007ad2:	d100      	bne.n	10007ad6 <__aeabi_fadd+0x27a>
10007ad4:	e6d8      	b.n	10007888 <__aeabi_fadd+0x2c>
10007ad6:	2280      	movs	r2, #128	; 0x80
10007ad8:	08db      	lsrs	r3, r3, #3
10007ada:	03d2      	lsls	r2, r2, #15
10007adc:	4213      	tst	r3, r2
10007ade:	d004      	beq.n	10007aea <__aeabi_fadd+0x28e>
10007ae0:	08fe      	lsrs	r6, r7, #3
10007ae2:	4216      	tst	r6, r2
10007ae4:	d101      	bne.n	10007aea <__aeabi_fadd+0x28e>
10007ae6:	1c33      	adds	r3, r6, #0
10007ae8:	1c0d      	adds	r5, r1, #0
10007aea:	00db      	lsls	r3, r3, #3
10007aec:	24ff      	movs	r4, #255	; 0xff
10007aee:	e6cb      	b.n	10007888 <__aeabi_fadd+0x2c>
10007af0:	2b00      	cmp	r3, #0
10007af2:	d00d      	beq.n	10007b10 <__aeabi_fadd+0x2b4>
10007af4:	24ff      	movs	r4, #255	; 0xff
10007af6:	2f00      	cmp	r7, #0
10007af8:	d100      	bne.n	10007afc <__aeabi_fadd+0x2a0>
10007afa:	e6c5      	b.n	10007888 <__aeabi_fadd+0x2c>
10007afc:	2280      	movs	r2, #128	; 0x80
10007afe:	08db      	lsrs	r3, r3, #3
10007b00:	03d2      	lsls	r2, r2, #15
10007b02:	4213      	tst	r3, r2
10007b04:	d0f1      	beq.n	10007aea <__aeabi_fadd+0x28e>
10007b06:	08fe      	lsrs	r6, r7, #3
10007b08:	4216      	tst	r6, r2
10007b0a:	d1ee      	bne.n	10007aea <__aeabi_fadd+0x28e>
10007b0c:	1c33      	adds	r3, r6, #0
10007b0e:	e7ec      	b.n	10007aea <__aeabi_fadd+0x28e>
10007b10:	1c3b      	adds	r3, r7, #0
10007b12:	24ff      	movs	r4, #255	; 0xff
10007b14:	e6b8      	b.n	10007888 <__aeabi_fadd+0x2c>
10007b16:	1c3b      	adds	r3, r7, #0
10007b18:	1c14      	adds	r4, r2, #0
10007b1a:	e6b5      	b.n	10007888 <__aeabi_fadd+0x2c>
10007b1c:	1c23      	adds	r3, r4, #0
10007b1e:	2000      	movs	r0, #0
10007b20:	e6e4      	b.n	100078ec <__aeabi_fadd+0x90>
10007b22:	2380      	movs	r3, #128	; 0x80
10007b24:	2000      	movs	r0, #0
10007b26:	049b      	lsls	r3, r3, #18
10007b28:	24ff      	movs	r4, #255	; 0xff
10007b2a:	e6df      	b.n	100078ec <__aeabi_fadd+0x90>
10007b2c:	1c1e      	adds	r6, r3, #0
10007b2e:	2420      	movs	r4, #32
10007b30:	40ce      	lsrs	r6, r1
10007b32:	1a61      	subs	r1, r4, r1
10007b34:	408b      	lsls	r3, r1
10007b36:	1e59      	subs	r1, r3, #1
10007b38:	418b      	sbcs	r3, r1
10007b3a:	4333      	orrs	r3, r6
10007b3c:	e79f      	b.n	10007a7e <__aeabi_fadd+0x222>
10007b3e:	1c3b      	adds	r3, r7, #0
10007b40:	e6a2      	b.n	10007888 <__aeabi_fadd+0x2c>
10007b42:	1e13      	subs	r3, r2, #0
10007b44:	d000      	beq.n	10007b48 <__aeabi_fadd+0x2ec>
10007b46:	e6ce      	b.n	100078e6 <__aeabi_fadd+0x8a>
10007b48:	2300      	movs	r3, #0
10007b4a:	2000      	movs	r0, #0
10007b4c:	e6ce      	b.n	100078ec <__aeabi_fadd+0x90>
10007b4e:	46c0      	nop			; (mov r8, r8)
10007b50:	fbffffff 	.word	0xfbffffff

10007b54 <__aeabi_fdiv>:
10007b54:	b5f0      	push	{r4, r5, r6, r7, lr}
10007b56:	4656      	mov	r6, sl
10007b58:	464d      	mov	r5, r9
10007b5a:	465f      	mov	r7, fp
10007b5c:	4644      	mov	r4, r8
10007b5e:	b4f0      	push	{r4, r5, r6, r7}
10007b60:	0243      	lsls	r3, r0, #9
10007b62:	0045      	lsls	r5, r0, #1
10007b64:	0fc7      	lsrs	r7, r0, #31
10007b66:	b083      	sub	sp, #12
10007b68:	468a      	mov	sl, r1
10007b6a:	0a5c      	lsrs	r4, r3, #9
10007b6c:	0e2e      	lsrs	r6, r5, #24
10007b6e:	46b9      	mov	r9, r7
10007b70:	d041      	beq.n	10007bf6 <__aeabi_fdiv+0xa2>
10007b72:	2eff      	cmp	r6, #255	; 0xff
10007b74:	d026      	beq.n	10007bc4 <__aeabi_fdiv+0x70>
10007b76:	2380      	movs	r3, #128	; 0x80
10007b78:	041b      	lsls	r3, r3, #16
10007b7a:	4323      	orrs	r3, r4
10007b7c:	00dc      	lsls	r4, r3, #3
10007b7e:	2300      	movs	r3, #0
10007b80:	4698      	mov	r8, r3
10007b82:	469b      	mov	fp, r3
10007b84:	3e7f      	subs	r6, #127	; 0x7f
10007b86:	4653      	mov	r3, sl
10007b88:	025b      	lsls	r3, r3, #9
10007b8a:	0a5d      	lsrs	r5, r3, #9
10007b8c:	4653      	mov	r3, sl
10007b8e:	005a      	lsls	r2, r3, #1
10007b90:	0fdb      	lsrs	r3, r3, #31
10007b92:	0e12      	lsrs	r2, r2, #24
10007b94:	469a      	mov	sl, r3
10007b96:	d039      	beq.n	10007c0c <__aeabi_fdiv+0xb8>
10007b98:	2aff      	cmp	r2, #255	; 0xff
10007b9a:	d033      	beq.n	10007c04 <__aeabi_fdiv+0xb0>
10007b9c:	2380      	movs	r3, #128	; 0x80
10007b9e:	041b      	lsls	r3, r3, #16
10007ba0:	432b      	orrs	r3, r5
10007ba2:	00dd      	lsls	r5, r3, #3
10007ba4:	2300      	movs	r3, #0
10007ba6:	3a7f      	subs	r2, #127	; 0x7f
10007ba8:	4651      	mov	r1, sl
10007baa:	1ab2      	subs	r2, r6, r2
10007bac:	4646      	mov	r6, r8
10007bae:	4079      	eors	r1, r7
10007bb0:	1c08      	adds	r0, r1, #0
10007bb2:	9201      	str	r2, [sp, #4]
10007bb4:	431e      	orrs	r6, r3
10007bb6:	2e0f      	cmp	r6, #15
10007bb8:	d900      	bls.n	10007bbc <__aeabi_fdiv+0x68>
10007bba:	e076      	b.n	10007caa <__aeabi_fdiv+0x156>
10007bbc:	4a7e      	ldr	r2, [pc, #504]	; (10007db8 <__aeabi_fdiv+0x264>)
10007bbe:	00b6      	lsls	r6, r6, #2
10007bc0:	5996      	ldr	r6, [r2, r6]
10007bc2:	46b7      	mov	pc, r6
10007bc4:	2c00      	cmp	r4, #0
10007bc6:	d130      	bne.n	10007c2a <__aeabi_fdiv+0xd6>
10007bc8:	2308      	movs	r3, #8
10007bca:	4698      	mov	r8, r3
10007bcc:	3b06      	subs	r3, #6
10007bce:	469b      	mov	fp, r3
10007bd0:	e7d9      	b.n	10007b86 <__aeabi_fdiv+0x32>
10007bd2:	2380      	movs	r3, #128	; 0x80
10007bd4:	2100      	movs	r1, #0
10007bd6:	03db      	lsls	r3, r3, #15
10007bd8:	24ff      	movs	r4, #255	; 0xff
10007bda:	025b      	lsls	r3, r3, #9
10007bdc:	05e4      	lsls	r4, r4, #23
10007bde:	0a5b      	lsrs	r3, r3, #9
10007be0:	07c9      	lsls	r1, r1, #31
10007be2:	4323      	orrs	r3, r4
10007be4:	430b      	orrs	r3, r1
10007be6:	1c18      	adds	r0, r3, #0
10007be8:	b003      	add	sp, #12
10007bea:	bc3c      	pop	{r2, r3, r4, r5}
10007bec:	4690      	mov	r8, r2
10007bee:	4699      	mov	r9, r3
10007bf0:	46a2      	mov	sl, r4
10007bf2:	46ab      	mov	fp, r5
10007bf4:	bdf0      	pop	{r4, r5, r6, r7, pc}
10007bf6:	2c00      	cmp	r4, #0
10007bf8:	d128      	bne.n	10007c4c <__aeabi_fdiv+0xf8>
10007bfa:	2304      	movs	r3, #4
10007bfc:	4698      	mov	r8, r3
10007bfe:	3b03      	subs	r3, #3
10007c00:	469b      	mov	fp, r3
10007c02:	e7c0      	b.n	10007b86 <__aeabi_fdiv+0x32>
10007c04:	2d00      	cmp	r5, #0
10007c06:	d11f      	bne.n	10007c48 <__aeabi_fdiv+0xf4>
10007c08:	2302      	movs	r3, #2
10007c0a:	e002      	b.n	10007c12 <__aeabi_fdiv+0xbe>
10007c0c:	2d00      	cmp	r5, #0
10007c0e:	d111      	bne.n	10007c34 <__aeabi_fdiv+0xe0>
10007c10:	2301      	movs	r3, #1
10007c12:	1ab2      	subs	r2, r6, r2
10007c14:	4650      	mov	r0, sl
10007c16:	4646      	mov	r6, r8
10007c18:	4078      	eors	r0, r7
10007c1a:	9201      	str	r2, [sp, #4]
10007c1c:	431e      	orrs	r6, r3
10007c1e:	2e0f      	cmp	r6, #15
10007c20:	d827      	bhi.n	10007c72 <__aeabi_fdiv+0x11e>
10007c22:	4966      	ldr	r1, [pc, #408]	; (10007dbc <__aeabi_fdiv+0x268>)
10007c24:	00b6      	lsls	r6, r6, #2
10007c26:	5989      	ldr	r1, [r1, r6]
10007c28:	468f      	mov	pc, r1
10007c2a:	230c      	movs	r3, #12
10007c2c:	4698      	mov	r8, r3
10007c2e:	3b09      	subs	r3, #9
10007c30:	469b      	mov	fp, r3
10007c32:	e7a8      	b.n	10007b86 <__aeabi_fdiv+0x32>
10007c34:	1c28      	adds	r0, r5, #0
10007c36:	f7ff fd5b 	bl	100076f0 <__clzsi2>
10007c3a:	2276      	movs	r2, #118	; 0x76
10007c3c:	1f43      	subs	r3, r0, #5
10007c3e:	4252      	negs	r2, r2
10007c40:	409d      	lsls	r5, r3
10007c42:	1a12      	subs	r2, r2, r0
10007c44:	2300      	movs	r3, #0
10007c46:	e7af      	b.n	10007ba8 <__aeabi_fdiv+0x54>
10007c48:	2303      	movs	r3, #3
10007c4a:	e7ad      	b.n	10007ba8 <__aeabi_fdiv+0x54>
10007c4c:	1c20      	adds	r0, r4, #0
10007c4e:	f7ff fd4f 	bl	100076f0 <__clzsi2>
10007c52:	1f43      	subs	r3, r0, #5
10007c54:	409c      	lsls	r4, r3
10007c56:	2376      	movs	r3, #118	; 0x76
10007c58:	425b      	negs	r3, r3
10007c5a:	1a1e      	subs	r6, r3, r0
10007c5c:	2300      	movs	r3, #0
10007c5e:	4698      	mov	r8, r3
10007c60:	469b      	mov	fp, r3
10007c62:	e790      	b.n	10007b86 <__aeabi_fdiv+0x32>
10007c64:	2500      	movs	r5, #0
10007c66:	46d1      	mov	r9, sl
10007c68:	469b      	mov	fp, r3
10007c6a:	465b      	mov	r3, fp
10007c6c:	4648      	mov	r0, r9
10007c6e:	2b02      	cmp	r3, #2
10007c70:	d16f      	bne.n	10007d52 <__aeabi_fdiv+0x1fe>
10007c72:	2101      	movs	r1, #1
10007c74:	24ff      	movs	r4, #255	; 0xff
10007c76:	4001      	ands	r1, r0
10007c78:	2300      	movs	r3, #0
10007c7a:	e7ae      	b.n	10007bda <__aeabi_fdiv+0x86>
10007c7c:	237e      	movs	r3, #126	; 0x7e
10007c7e:	9a01      	ldr	r2, [sp, #4]
10007c80:	425b      	negs	r3, r3
10007c82:	1a9b      	subs	r3, r3, r2
10007c84:	2b1b      	cmp	r3, #27
10007c86:	dd6d      	ble.n	10007d64 <__aeabi_fdiv+0x210>
10007c88:	2101      	movs	r1, #1
10007c8a:	464b      	mov	r3, r9
10007c8c:	4019      	ands	r1, r3
10007c8e:	2400      	movs	r4, #0
10007c90:	2300      	movs	r3, #0
10007c92:	e7a2      	b.n	10007bda <__aeabi_fdiv+0x86>
10007c94:	2380      	movs	r3, #128	; 0x80
10007c96:	03db      	lsls	r3, r3, #15
10007c98:	421c      	tst	r4, r3
10007c9a:	d149      	bne.n	10007d30 <__aeabi_fdiv+0x1dc>
10007c9c:	2380      	movs	r3, #128	; 0x80
10007c9e:	03db      	lsls	r3, r3, #15
10007ca0:	4323      	orrs	r3, r4
10007ca2:	025b      	lsls	r3, r3, #9
10007ca4:	0a5b      	lsrs	r3, r3, #9
10007ca6:	1c39      	adds	r1, r7, #0
10007ca8:	e796      	b.n	10007bd8 <__aeabi_fdiv+0x84>
10007caa:	0163      	lsls	r3, r4, #5
10007cac:	016d      	lsls	r5, r5, #5
10007cae:	42ab      	cmp	r3, r5
10007cb0:	d337      	bcc.n	10007d22 <__aeabi_fdiv+0x1ce>
10007cb2:	4689      	mov	r9, r1
10007cb4:	201a      	movs	r0, #26
10007cb6:	2101      	movs	r1, #1
10007cb8:	1b5b      	subs	r3, r3, r5
10007cba:	2401      	movs	r4, #1
10007cbc:	1c1e      	adds	r6, r3, #0
10007cbe:	0049      	lsls	r1, r1, #1
10007cc0:	005b      	lsls	r3, r3, #1
10007cc2:	2e00      	cmp	r6, #0
10007cc4:	db01      	blt.n	10007cca <__aeabi_fdiv+0x176>
10007cc6:	42ab      	cmp	r3, r5
10007cc8:	d301      	bcc.n	10007cce <__aeabi_fdiv+0x17a>
10007cca:	1b5b      	subs	r3, r3, r5
10007ccc:	4321      	orrs	r1, r4
10007cce:	3801      	subs	r0, #1
10007cd0:	2800      	cmp	r0, #0
10007cd2:	d1f3      	bne.n	10007cbc <__aeabi_fdiv+0x168>
10007cd4:	1e58      	subs	r0, r3, #1
10007cd6:	4183      	sbcs	r3, r0
10007cd8:	430b      	orrs	r3, r1
10007cda:	1c1d      	adds	r5, r3, #0
10007cdc:	9c01      	ldr	r4, [sp, #4]
10007cde:	347f      	adds	r4, #127	; 0x7f
10007ce0:	2c00      	cmp	r4, #0
10007ce2:	ddcb      	ble.n	10007c7c <__aeabi_fdiv+0x128>
10007ce4:	076b      	lsls	r3, r5, #29
10007ce6:	d004      	beq.n	10007cf2 <__aeabi_fdiv+0x19e>
10007ce8:	230f      	movs	r3, #15
10007cea:	402b      	ands	r3, r5
10007cec:	2b04      	cmp	r3, #4
10007cee:	d000      	beq.n	10007cf2 <__aeabi_fdiv+0x19e>
10007cf0:	3504      	adds	r5, #4
10007cf2:	012b      	lsls	r3, r5, #4
10007cf4:	d504      	bpl.n	10007d00 <__aeabi_fdiv+0x1ac>
10007cf6:	9a01      	ldr	r2, [sp, #4]
10007cf8:	4b31      	ldr	r3, [pc, #196]	; (10007dc0 <__aeabi_fdiv+0x26c>)
10007cfa:	3280      	adds	r2, #128	; 0x80
10007cfc:	1c14      	adds	r4, r2, #0
10007cfe:	401d      	ands	r5, r3
10007d00:	2cfe      	cmp	r4, #254	; 0xfe
10007d02:	dd07      	ble.n	10007d14 <__aeabi_fdiv+0x1c0>
10007d04:	464b      	mov	r3, r9
10007d06:	2101      	movs	r1, #1
10007d08:	24ff      	movs	r4, #255	; 0xff
10007d0a:	4019      	ands	r1, r3
10007d0c:	2300      	movs	r3, #0
10007d0e:	e764      	b.n	10007bda <__aeabi_fdiv+0x86>
10007d10:	1c25      	adds	r5, r4, #0
10007d12:	e7aa      	b.n	10007c6a <__aeabi_fdiv+0x116>
10007d14:	2101      	movs	r1, #1
10007d16:	464a      	mov	r2, r9
10007d18:	01ab      	lsls	r3, r5, #6
10007d1a:	0a5b      	lsrs	r3, r3, #9
10007d1c:	b2e4      	uxtb	r4, r4
10007d1e:	4011      	ands	r1, r2
10007d20:	e75b      	b.n	10007bda <__aeabi_fdiv+0x86>
10007d22:	9a01      	ldr	r2, [sp, #4]
10007d24:	4689      	mov	r9, r1
10007d26:	3a01      	subs	r2, #1
10007d28:	9201      	str	r2, [sp, #4]
10007d2a:	201b      	movs	r0, #27
10007d2c:	2100      	movs	r1, #0
10007d2e:	e7c4      	b.n	10007cba <__aeabi_fdiv+0x166>
10007d30:	421d      	tst	r5, r3
10007d32:	d007      	beq.n	10007d44 <__aeabi_fdiv+0x1f0>
10007d34:	4323      	orrs	r3, r4
10007d36:	025b      	lsls	r3, r3, #9
10007d38:	0a5b      	lsrs	r3, r3, #9
10007d3a:	1c39      	adds	r1, r7, #0
10007d3c:	e74c      	b.n	10007bd8 <__aeabi_fdiv+0x84>
10007d3e:	2500      	movs	r5, #0
10007d40:	0263      	lsls	r3, r4, #9
10007d42:	d5ab      	bpl.n	10007c9c <__aeabi_fdiv+0x148>
10007d44:	2380      	movs	r3, #128	; 0x80
10007d46:	03db      	lsls	r3, r3, #15
10007d48:	432b      	orrs	r3, r5
10007d4a:	025b      	lsls	r3, r3, #9
10007d4c:	0a5b      	lsrs	r3, r3, #9
10007d4e:	4651      	mov	r1, sl
10007d50:	e742      	b.n	10007bd8 <__aeabi_fdiv+0x84>
10007d52:	2b03      	cmp	r3, #3
10007d54:	d025      	beq.n	10007da2 <__aeabi_fdiv+0x24e>
10007d56:	2b01      	cmp	r3, #1
10007d58:	d1c0      	bne.n	10007cdc <__aeabi_fdiv+0x188>
10007d5a:	2101      	movs	r1, #1
10007d5c:	2400      	movs	r4, #0
10007d5e:	4001      	ands	r1, r0
10007d60:	2300      	movs	r3, #0
10007d62:	e73a      	b.n	10007bda <__aeabi_fdiv+0x86>
10007d64:	1c29      	adds	r1, r5, #0
10007d66:	40d9      	lsrs	r1, r3
10007d68:	1c2b      	adds	r3, r5, #0
10007d6a:	9a01      	ldr	r2, [sp, #4]
10007d6c:	329e      	adds	r2, #158	; 0x9e
10007d6e:	4093      	lsls	r3, r2
10007d70:	1e5d      	subs	r5, r3, #1
10007d72:	41ab      	sbcs	r3, r5
10007d74:	430b      	orrs	r3, r1
10007d76:	075a      	lsls	r2, r3, #29
10007d78:	d004      	beq.n	10007d84 <__aeabi_fdiv+0x230>
10007d7a:	220f      	movs	r2, #15
10007d7c:	401a      	ands	r2, r3
10007d7e:	2a04      	cmp	r2, #4
10007d80:	d000      	beq.n	10007d84 <__aeabi_fdiv+0x230>
10007d82:	3304      	adds	r3, #4
10007d84:	015a      	lsls	r2, r3, #5
10007d86:	d505      	bpl.n	10007d94 <__aeabi_fdiv+0x240>
10007d88:	464b      	mov	r3, r9
10007d8a:	2101      	movs	r1, #1
10007d8c:	2401      	movs	r4, #1
10007d8e:	4019      	ands	r1, r3
10007d90:	2300      	movs	r3, #0
10007d92:	e722      	b.n	10007bda <__aeabi_fdiv+0x86>
10007d94:	2101      	movs	r1, #1
10007d96:	464a      	mov	r2, r9
10007d98:	019b      	lsls	r3, r3, #6
10007d9a:	0a5b      	lsrs	r3, r3, #9
10007d9c:	4011      	ands	r1, r2
10007d9e:	2400      	movs	r4, #0
10007da0:	e71b      	b.n	10007bda <__aeabi_fdiv+0x86>
10007da2:	2380      	movs	r3, #128	; 0x80
10007da4:	2101      	movs	r1, #1
10007da6:	464a      	mov	r2, r9
10007da8:	03db      	lsls	r3, r3, #15
10007daa:	432b      	orrs	r3, r5
10007dac:	025b      	lsls	r3, r3, #9
10007dae:	400a      	ands	r2, r1
10007db0:	0a5b      	lsrs	r3, r3, #9
10007db2:	1c11      	adds	r1, r2, #0
10007db4:	e710      	b.n	10007bd8 <__aeabi_fdiv+0x84>
10007db6:	46c0      	nop			; (mov r8, r8)
10007db8:	1000ac28 	.word	0x1000ac28
10007dbc:	1000ac68 	.word	0x1000ac68
10007dc0:	f7ffffff 	.word	0xf7ffffff

10007dc4 <__eqsf2>:
10007dc4:	0243      	lsls	r3, r0, #9
10007dc6:	b570      	push	{r4, r5, r6, lr}
10007dc8:	0042      	lsls	r2, r0, #1
10007dca:	004c      	lsls	r4, r1, #1
10007dcc:	0a5d      	lsrs	r5, r3, #9
10007dce:	0fc3      	lsrs	r3, r0, #31
10007dd0:	0248      	lsls	r0, r1, #9
10007dd2:	0e12      	lsrs	r2, r2, #24
10007dd4:	0a46      	lsrs	r6, r0, #9
10007dd6:	0e24      	lsrs	r4, r4, #24
10007dd8:	0fc9      	lsrs	r1, r1, #31
10007dda:	2aff      	cmp	r2, #255	; 0xff
10007ddc:	d005      	beq.n	10007dea <__eqsf2+0x26>
10007dde:	2cff      	cmp	r4, #255	; 0xff
10007de0:	d008      	beq.n	10007df4 <__eqsf2+0x30>
10007de2:	2001      	movs	r0, #1
10007de4:	42a2      	cmp	r2, r4
10007de6:	d00b      	beq.n	10007e00 <__eqsf2+0x3c>
10007de8:	bd70      	pop	{r4, r5, r6, pc}
10007dea:	2001      	movs	r0, #1
10007dec:	2d00      	cmp	r5, #0
10007dee:	d1fb      	bne.n	10007de8 <__eqsf2+0x24>
10007df0:	2cff      	cmp	r4, #255	; 0xff
10007df2:	d1f6      	bne.n	10007de2 <__eqsf2+0x1e>
10007df4:	2001      	movs	r0, #1
10007df6:	2e00      	cmp	r6, #0
10007df8:	d1f6      	bne.n	10007de8 <__eqsf2+0x24>
10007dfa:	2001      	movs	r0, #1
10007dfc:	42a2      	cmp	r2, r4
10007dfe:	d1f3      	bne.n	10007de8 <__eqsf2+0x24>
10007e00:	42b5      	cmp	r5, r6
10007e02:	d1f1      	bne.n	10007de8 <__eqsf2+0x24>
10007e04:	428b      	cmp	r3, r1
10007e06:	d005      	beq.n	10007e14 <__eqsf2+0x50>
10007e08:	2a00      	cmp	r2, #0
10007e0a:	d1ed      	bne.n	10007de8 <__eqsf2+0x24>
10007e0c:	1c28      	adds	r0, r5, #0
10007e0e:	1e43      	subs	r3, r0, #1
10007e10:	4198      	sbcs	r0, r3
10007e12:	e7e9      	b.n	10007de8 <__eqsf2+0x24>
10007e14:	2000      	movs	r0, #0
10007e16:	e7e7      	b.n	10007de8 <__eqsf2+0x24>

10007e18 <__gesf2>:
10007e18:	b5f0      	push	{r4, r5, r6, r7, lr}
10007e1a:	0243      	lsls	r3, r0, #9
10007e1c:	024d      	lsls	r5, r1, #9
10007e1e:	004a      	lsls	r2, r1, #1
10007e20:	0044      	lsls	r4, r0, #1
10007e22:	0a5e      	lsrs	r6, r3, #9
10007e24:	0e24      	lsrs	r4, r4, #24
10007e26:	0fc3      	lsrs	r3, r0, #31
10007e28:	0a6d      	lsrs	r5, r5, #9
10007e2a:	0e12      	lsrs	r2, r2, #24
10007e2c:	0fc9      	lsrs	r1, r1, #31
10007e2e:	2cff      	cmp	r4, #255	; 0xff
10007e30:	d00d      	beq.n	10007e4e <__gesf2+0x36>
10007e32:	2aff      	cmp	r2, #255	; 0xff
10007e34:	d031      	beq.n	10007e9a <__gesf2+0x82>
10007e36:	2c00      	cmp	r4, #0
10007e38:	d10d      	bne.n	10007e56 <__gesf2+0x3e>
10007e3a:	4277      	negs	r7, r6
10007e3c:	4177      	adcs	r7, r6
10007e3e:	2a00      	cmp	r2, #0
10007e40:	d123      	bne.n	10007e8a <__gesf2+0x72>
10007e42:	2d00      	cmp	r5, #0
10007e44:	d121      	bne.n	10007e8a <__gesf2+0x72>
10007e46:	2000      	movs	r0, #0
10007e48:	2f00      	cmp	r7, #0
10007e4a:	d10b      	bne.n	10007e64 <__gesf2+0x4c>
10007e4c:	e007      	b.n	10007e5e <__gesf2+0x46>
10007e4e:	2e00      	cmp	r6, #0
10007e50:	d128      	bne.n	10007ea4 <__gesf2+0x8c>
10007e52:	2aff      	cmp	r2, #255	; 0xff
10007e54:	d021      	beq.n	10007e9a <__gesf2+0x82>
10007e56:	2a00      	cmp	r2, #0
10007e58:	d005      	beq.n	10007e66 <__gesf2+0x4e>
10007e5a:	428b      	cmp	r3, r1
10007e5c:	d007      	beq.n	10007e6e <__gesf2+0x56>
10007e5e:	4258      	negs	r0, r3
10007e60:	2301      	movs	r3, #1
10007e62:	4318      	orrs	r0, r3
10007e64:	bdf0      	pop	{r4, r5, r6, r7, pc}
10007e66:	2d00      	cmp	r5, #0
10007e68:	d0f9      	beq.n	10007e5e <__gesf2+0x46>
10007e6a:	428b      	cmp	r3, r1
10007e6c:	d1f7      	bne.n	10007e5e <__gesf2+0x46>
10007e6e:	4294      	cmp	r4, r2
10007e70:	dcf5      	bgt.n	10007e5e <__gesf2+0x46>
10007e72:	db04      	blt.n	10007e7e <__gesf2+0x66>
10007e74:	42ae      	cmp	r6, r5
10007e76:	d8f2      	bhi.n	10007e5e <__gesf2+0x46>
10007e78:	2000      	movs	r0, #0
10007e7a:	42ae      	cmp	r6, r5
10007e7c:	d2f2      	bcs.n	10007e64 <__gesf2+0x4c>
10007e7e:	4258      	negs	r0, r3
10007e80:	4143      	adcs	r3, r0
10007e82:	2001      	movs	r0, #1
10007e84:	425b      	negs	r3, r3
10007e86:	4318      	orrs	r0, r3
10007e88:	e7ec      	b.n	10007e64 <__gesf2+0x4c>
10007e8a:	2f00      	cmp	r7, #0
10007e8c:	d0e5      	beq.n	10007e5a <__gesf2+0x42>
10007e8e:	4248      	negs	r0, r1
10007e90:	4141      	adcs	r1, r0
10007e92:	2001      	movs	r0, #1
10007e94:	4249      	negs	r1, r1
10007e96:	4308      	orrs	r0, r1
10007e98:	e7e4      	b.n	10007e64 <__gesf2+0x4c>
10007e9a:	2d00      	cmp	r5, #0
10007e9c:	d102      	bne.n	10007ea4 <__gesf2+0x8c>
10007e9e:	2c00      	cmp	r4, #0
10007ea0:	d0cb      	beq.n	10007e3a <__gesf2+0x22>
10007ea2:	e7da      	b.n	10007e5a <__gesf2+0x42>
10007ea4:	2002      	movs	r0, #2
10007ea6:	4240      	negs	r0, r0
10007ea8:	e7dc      	b.n	10007e64 <__gesf2+0x4c>
10007eaa:	46c0      	nop			; (mov r8, r8)

10007eac <__lesf2>:
10007eac:	0243      	lsls	r3, r0, #9
10007eae:	b5f0      	push	{r4, r5, r6, r7, lr}
10007eb0:	0042      	lsls	r2, r0, #1
10007eb2:	004c      	lsls	r4, r1, #1
10007eb4:	0a5e      	lsrs	r6, r3, #9
10007eb6:	0fc3      	lsrs	r3, r0, #31
10007eb8:	0248      	lsls	r0, r1, #9
10007eba:	0e12      	lsrs	r2, r2, #24
10007ebc:	0a45      	lsrs	r5, r0, #9
10007ebe:	0e24      	lsrs	r4, r4, #24
10007ec0:	0fc9      	lsrs	r1, r1, #31
10007ec2:	2aff      	cmp	r2, #255	; 0xff
10007ec4:	d00f      	beq.n	10007ee6 <__lesf2+0x3a>
10007ec6:	2cff      	cmp	r4, #255	; 0xff
10007ec8:	d01a      	beq.n	10007f00 <__lesf2+0x54>
10007eca:	2a00      	cmp	r2, #0
10007ecc:	d110      	bne.n	10007ef0 <__lesf2+0x44>
10007ece:	4277      	negs	r7, r6
10007ed0:	4177      	adcs	r7, r6
10007ed2:	2c00      	cmp	r4, #0
10007ed4:	d029      	beq.n	10007f2a <__lesf2+0x7e>
10007ed6:	2f00      	cmp	r7, #0
10007ed8:	d017      	beq.n	10007f0a <__lesf2+0x5e>
10007eda:	4248      	negs	r0, r1
10007edc:	4141      	adcs	r1, r0
10007ede:	2001      	movs	r0, #1
10007ee0:	4249      	negs	r1, r1
10007ee2:	4308      	orrs	r0, r1
10007ee4:	e00b      	b.n	10007efe <__lesf2+0x52>
10007ee6:	2002      	movs	r0, #2
10007ee8:	2e00      	cmp	r6, #0
10007eea:	d108      	bne.n	10007efe <__lesf2+0x52>
10007eec:	2cff      	cmp	r4, #255	; 0xff
10007eee:	d007      	beq.n	10007f00 <__lesf2+0x54>
10007ef0:	2c00      	cmp	r4, #0
10007ef2:	d10a      	bne.n	10007f0a <__lesf2+0x5e>
10007ef4:	2d00      	cmp	r5, #0
10007ef6:	d108      	bne.n	10007f0a <__lesf2+0x5e>
10007ef8:	4258      	negs	r0, r3
10007efa:	2301      	movs	r3, #1
10007efc:	4318      	orrs	r0, r3
10007efe:	bdf0      	pop	{r4, r5, r6, r7, pc}
10007f00:	2002      	movs	r0, #2
10007f02:	2d00      	cmp	r5, #0
10007f04:	d1fb      	bne.n	10007efe <__lesf2+0x52>
10007f06:	2a00      	cmp	r2, #0
10007f08:	d0e1      	beq.n	10007ece <__lesf2+0x22>
10007f0a:	428b      	cmp	r3, r1
10007f0c:	d1f4      	bne.n	10007ef8 <__lesf2+0x4c>
10007f0e:	42a2      	cmp	r2, r4
10007f10:	dcf2      	bgt.n	10007ef8 <__lesf2+0x4c>
10007f12:	db04      	blt.n	10007f1e <__lesf2+0x72>
10007f14:	42ae      	cmp	r6, r5
10007f16:	d8ef      	bhi.n	10007ef8 <__lesf2+0x4c>
10007f18:	2000      	movs	r0, #0
10007f1a:	42ae      	cmp	r6, r5
10007f1c:	d2ef      	bcs.n	10007efe <__lesf2+0x52>
10007f1e:	4258      	negs	r0, r3
10007f20:	4143      	adcs	r3, r0
10007f22:	2001      	movs	r0, #1
10007f24:	425b      	negs	r3, r3
10007f26:	4318      	orrs	r0, r3
10007f28:	e7e9      	b.n	10007efe <__lesf2+0x52>
10007f2a:	2d00      	cmp	r5, #0
10007f2c:	d1d3      	bne.n	10007ed6 <__lesf2+0x2a>
10007f2e:	2000      	movs	r0, #0
10007f30:	2f00      	cmp	r7, #0
10007f32:	d1e4      	bne.n	10007efe <__lesf2+0x52>
10007f34:	e7e0      	b.n	10007ef8 <__lesf2+0x4c>
10007f36:	46c0      	nop			; (mov r8, r8)

10007f38 <__aeabi_fmul>:
10007f38:	b5f0      	push	{r4, r5, r6, r7, lr}
10007f3a:	465f      	mov	r7, fp
10007f3c:	4656      	mov	r6, sl
10007f3e:	464d      	mov	r5, r9
10007f40:	4644      	mov	r4, r8
10007f42:	b4f0      	push	{r4, r5, r6, r7}
10007f44:	0245      	lsls	r5, r0, #9
10007f46:	0046      	lsls	r6, r0, #1
10007f48:	0fc4      	lsrs	r4, r0, #31
10007f4a:	b083      	sub	sp, #12
10007f4c:	1c0f      	adds	r7, r1, #0
10007f4e:	0a6d      	lsrs	r5, r5, #9
10007f50:	0e36      	lsrs	r6, r6, #24
10007f52:	46a3      	mov	fp, r4
10007f54:	d045      	beq.n	10007fe2 <__aeabi_fmul+0xaa>
10007f56:	2eff      	cmp	r6, #255	; 0xff
10007f58:	d025      	beq.n	10007fa6 <__aeabi_fmul+0x6e>
10007f5a:	2380      	movs	r3, #128	; 0x80
10007f5c:	041b      	lsls	r3, r3, #16
10007f5e:	431d      	orrs	r5, r3
10007f60:	2300      	movs	r3, #0
10007f62:	469a      	mov	sl, r3
10007f64:	00ed      	lsls	r5, r5, #3
10007f66:	3e7f      	subs	r6, #127	; 0x7f
10007f68:	9301      	str	r3, [sp, #4]
10007f6a:	027b      	lsls	r3, r7, #9
10007f6c:	0a5b      	lsrs	r3, r3, #9
10007f6e:	4698      	mov	r8, r3
10007f70:	0078      	lsls	r0, r7, #1
10007f72:	0ffb      	lsrs	r3, r7, #31
10007f74:	0e00      	lsrs	r0, r0, #24
10007f76:	4699      	mov	r9, r3
10007f78:	d040      	beq.n	10007ffc <__aeabi_fmul+0xc4>
10007f7a:	28ff      	cmp	r0, #255	; 0xff
10007f7c:	d038      	beq.n	10007ff0 <__aeabi_fmul+0xb8>
10007f7e:	2380      	movs	r3, #128	; 0x80
10007f80:	4642      	mov	r2, r8
10007f82:	041b      	lsls	r3, r3, #16
10007f84:	4313      	orrs	r3, r2
10007f86:	00db      	lsls	r3, r3, #3
10007f88:	4698      	mov	r8, r3
10007f8a:	2300      	movs	r3, #0
10007f8c:	387f      	subs	r0, #127	; 0x7f
10007f8e:	464a      	mov	r2, r9
10007f90:	9f01      	ldr	r7, [sp, #4]
10007f92:	1830      	adds	r0, r6, r0
10007f94:	4062      	eors	r2, r4
10007f96:	1c41      	adds	r1, r0, #1
10007f98:	431f      	orrs	r7, r3
10007f9a:	2f0f      	cmp	r7, #15
10007f9c:	d869      	bhi.n	10008072 <__aeabi_fmul+0x13a>
10007f9e:	4e7d      	ldr	r6, [pc, #500]	; (10008194 <__aeabi_fmul+0x25c>)
10007fa0:	00bf      	lsls	r7, r7, #2
10007fa2:	59f6      	ldr	r6, [r6, r7]
10007fa4:	46b7      	mov	pc, r6
10007fa6:	2d00      	cmp	r5, #0
10007fa8:	d145      	bne.n	10008036 <__aeabi_fmul+0xfe>
10007faa:	2308      	movs	r3, #8
10007fac:	9301      	str	r3, [sp, #4]
10007fae:	3b06      	subs	r3, #6
10007fb0:	469a      	mov	sl, r3
10007fb2:	e7da      	b.n	10007f6a <__aeabi_fmul+0x32>
10007fb4:	4693      	mov	fp, r2
10007fb6:	4653      	mov	r3, sl
10007fb8:	2b02      	cmp	r3, #2
10007fba:	d12f      	bne.n	1000801c <__aeabi_fmul+0xe4>
10007fbc:	465b      	mov	r3, fp
10007fbe:	2401      	movs	r4, #1
10007fc0:	2500      	movs	r5, #0
10007fc2:	401c      	ands	r4, r3
10007fc4:	23ff      	movs	r3, #255	; 0xff
10007fc6:	026d      	lsls	r5, r5, #9
10007fc8:	05db      	lsls	r3, r3, #23
10007fca:	0a6d      	lsrs	r5, r5, #9
10007fcc:	07e4      	lsls	r4, r4, #31
10007fce:	431d      	orrs	r5, r3
10007fd0:	4325      	orrs	r5, r4
10007fd2:	1c28      	adds	r0, r5, #0
10007fd4:	b003      	add	sp, #12
10007fd6:	bc3c      	pop	{r2, r3, r4, r5}
10007fd8:	4690      	mov	r8, r2
10007fda:	4699      	mov	r9, r3
10007fdc:	46a2      	mov	sl, r4
10007fde:	46ab      	mov	fp, r5
10007fe0:	bdf0      	pop	{r4, r5, r6, r7, pc}
10007fe2:	2d00      	cmp	r5, #0
10007fe4:	d12c      	bne.n	10008040 <__aeabi_fmul+0x108>
10007fe6:	2304      	movs	r3, #4
10007fe8:	9301      	str	r3, [sp, #4]
10007fea:	3b03      	subs	r3, #3
10007fec:	469a      	mov	sl, r3
10007fee:	e7bc      	b.n	10007f6a <__aeabi_fmul+0x32>
10007ff0:	4643      	mov	r3, r8
10007ff2:	425a      	negs	r2, r3
10007ff4:	4153      	adcs	r3, r2
10007ff6:	2203      	movs	r2, #3
10007ff8:	1ad3      	subs	r3, r2, r3
10007ffa:	e7c8      	b.n	10007f8e <__aeabi_fmul+0x56>
10007ffc:	4642      	mov	r2, r8
10007ffe:	2301      	movs	r3, #1
10008000:	2a00      	cmp	r2, #0
10008002:	d0c4      	beq.n	10007f8e <__aeabi_fmul+0x56>
10008004:	4640      	mov	r0, r8
10008006:	f7ff fb73 	bl	100076f0 <__clzsi2>
1000800a:	4642      	mov	r2, r8
1000800c:	1f43      	subs	r3, r0, #5
1000800e:	409a      	lsls	r2, r3
10008010:	2376      	movs	r3, #118	; 0x76
10008012:	425b      	negs	r3, r3
10008014:	1a18      	subs	r0, r3, r0
10008016:	4690      	mov	r8, r2
10008018:	2300      	movs	r3, #0
1000801a:	e7b8      	b.n	10007f8e <__aeabi_fmul+0x56>
1000801c:	2b03      	cmp	r3, #3
1000801e:	d100      	bne.n	10008022 <__aeabi_fmul+0xea>
10008020:	e0ad      	b.n	1000817e <__aeabi_fmul+0x246>
10008022:	2b01      	cmp	r3, #1
10008024:	d000      	beq.n	10008028 <__aeabi_fmul+0xf0>
10008026:	e08c      	b.n	10008142 <__aeabi_fmul+0x20a>
10008028:	465b      	mov	r3, fp
1000802a:	4654      	mov	r4, sl
1000802c:	401c      	ands	r4, r3
1000802e:	b2e4      	uxtb	r4, r4
10008030:	2300      	movs	r3, #0
10008032:	2500      	movs	r5, #0
10008034:	e7c7      	b.n	10007fc6 <__aeabi_fmul+0x8e>
10008036:	230c      	movs	r3, #12
10008038:	9301      	str	r3, [sp, #4]
1000803a:	3b09      	subs	r3, #9
1000803c:	469a      	mov	sl, r3
1000803e:	e794      	b.n	10007f6a <__aeabi_fmul+0x32>
10008040:	1c28      	adds	r0, r5, #0
10008042:	f7ff fb55 	bl	100076f0 <__clzsi2>
10008046:	2676      	movs	r6, #118	; 0x76
10008048:	1f43      	subs	r3, r0, #5
1000804a:	409d      	lsls	r5, r3
1000804c:	2300      	movs	r3, #0
1000804e:	4276      	negs	r6, r6
10008050:	1a36      	subs	r6, r6, r0
10008052:	9301      	str	r3, [sp, #4]
10008054:	469a      	mov	sl, r3
10008056:	e788      	b.n	10007f6a <__aeabi_fmul+0x32>
10008058:	2580      	movs	r5, #128	; 0x80
1000805a:	2400      	movs	r4, #0
1000805c:	03ed      	lsls	r5, r5, #15
1000805e:	23ff      	movs	r3, #255	; 0xff
10008060:	e7b1      	b.n	10007fc6 <__aeabi_fmul+0x8e>
10008062:	4645      	mov	r5, r8
10008064:	46cb      	mov	fp, r9
10008066:	469a      	mov	sl, r3
10008068:	e7a5      	b.n	10007fb6 <__aeabi_fmul+0x7e>
1000806a:	4645      	mov	r5, r8
1000806c:	4693      	mov	fp, r2
1000806e:	469a      	mov	sl, r3
10008070:	e7a1      	b.n	10007fb6 <__aeabi_fmul+0x7e>
10008072:	4643      	mov	r3, r8
10008074:	042c      	lsls	r4, r5, #16
10008076:	0c1b      	lsrs	r3, r3, #16
10008078:	469c      	mov	ip, r3
1000807a:	0c23      	lsrs	r3, r4, #16
1000807c:	4644      	mov	r4, r8
1000807e:	0426      	lsls	r6, r4, #16
10008080:	1c1c      	adds	r4, r3, #0
10008082:	0c36      	lsrs	r6, r6, #16
10008084:	0c2f      	lsrs	r7, r5, #16
10008086:	4374      	muls	r4, r6
10008088:	1c35      	adds	r5, r6, #0
1000808a:	4666      	mov	r6, ip
1000808c:	437d      	muls	r5, r7
1000808e:	4373      	muls	r3, r6
10008090:	4377      	muls	r7, r6
10008092:	18eb      	adds	r3, r5, r3
10008094:	0c26      	lsrs	r6, r4, #16
10008096:	199e      	adds	r6, r3, r6
10008098:	42b5      	cmp	r5, r6
1000809a:	d903      	bls.n	100080a4 <__aeabi_fmul+0x16c>
1000809c:	2380      	movs	r3, #128	; 0x80
1000809e:	025b      	lsls	r3, r3, #9
100080a0:	469c      	mov	ip, r3
100080a2:	4467      	add	r7, ip
100080a4:	0424      	lsls	r4, r4, #16
100080a6:	0433      	lsls	r3, r6, #16
100080a8:	0c24      	lsrs	r4, r4, #16
100080aa:	191b      	adds	r3, r3, r4
100080ac:	019d      	lsls	r5, r3, #6
100080ae:	1e6c      	subs	r4, r5, #1
100080b0:	41a5      	sbcs	r5, r4
100080b2:	0e9b      	lsrs	r3, r3, #26
100080b4:	0c36      	lsrs	r6, r6, #16
100080b6:	432b      	orrs	r3, r5
100080b8:	19bd      	adds	r5, r7, r6
100080ba:	01ad      	lsls	r5, r5, #6
100080bc:	431d      	orrs	r5, r3
100080be:	012b      	lsls	r3, r5, #4
100080c0:	d504      	bpl.n	100080cc <__aeabi_fmul+0x194>
100080c2:	2301      	movs	r3, #1
100080c4:	0868      	lsrs	r0, r5, #1
100080c6:	401d      	ands	r5, r3
100080c8:	4305      	orrs	r5, r0
100080ca:	1c08      	adds	r0, r1, #0
100080cc:	1c03      	adds	r3, r0, #0
100080ce:	337f      	adds	r3, #127	; 0x7f
100080d0:	2b00      	cmp	r3, #0
100080d2:	dd2c      	ble.n	1000812e <__aeabi_fmul+0x1f6>
100080d4:	0769      	lsls	r1, r5, #29
100080d6:	d004      	beq.n	100080e2 <__aeabi_fmul+0x1aa>
100080d8:	210f      	movs	r1, #15
100080da:	4029      	ands	r1, r5
100080dc:	2904      	cmp	r1, #4
100080de:	d000      	beq.n	100080e2 <__aeabi_fmul+0x1aa>
100080e0:	3504      	adds	r5, #4
100080e2:	0129      	lsls	r1, r5, #4
100080e4:	d503      	bpl.n	100080ee <__aeabi_fmul+0x1b6>
100080e6:	4b2c      	ldr	r3, [pc, #176]	; (10008198 <__aeabi_fmul+0x260>)
100080e8:	401d      	ands	r5, r3
100080ea:	1c03      	adds	r3, r0, #0
100080ec:	3380      	adds	r3, #128	; 0x80
100080ee:	2bfe      	cmp	r3, #254	; 0xfe
100080f0:	dd17      	ble.n	10008122 <__aeabi_fmul+0x1ea>
100080f2:	2401      	movs	r4, #1
100080f4:	23ff      	movs	r3, #255	; 0xff
100080f6:	4014      	ands	r4, r2
100080f8:	2500      	movs	r5, #0
100080fa:	e764      	b.n	10007fc6 <__aeabi_fmul+0x8e>
100080fc:	2080      	movs	r0, #128	; 0x80
100080fe:	03c0      	lsls	r0, r0, #15
10008100:	4205      	tst	r5, r0
10008102:	d009      	beq.n	10008118 <__aeabi_fmul+0x1e0>
10008104:	4643      	mov	r3, r8
10008106:	4203      	tst	r3, r0
10008108:	d106      	bne.n	10008118 <__aeabi_fmul+0x1e0>
1000810a:	4645      	mov	r5, r8
1000810c:	4305      	orrs	r5, r0
1000810e:	026d      	lsls	r5, r5, #9
10008110:	0a6d      	lsrs	r5, r5, #9
10008112:	464c      	mov	r4, r9
10008114:	23ff      	movs	r3, #255	; 0xff
10008116:	e756      	b.n	10007fc6 <__aeabi_fmul+0x8e>
10008118:	4305      	orrs	r5, r0
1000811a:	026d      	lsls	r5, r5, #9
1000811c:	0a6d      	lsrs	r5, r5, #9
1000811e:	23ff      	movs	r3, #255	; 0xff
10008120:	e751      	b.n	10007fc6 <__aeabi_fmul+0x8e>
10008122:	2401      	movs	r4, #1
10008124:	01ad      	lsls	r5, r5, #6
10008126:	0a6d      	lsrs	r5, r5, #9
10008128:	b2db      	uxtb	r3, r3
1000812a:	4014      	ands	r4, r2
1000812c:	e74b      	b.n	10007fc6 <__aeabi_fmul+0x8e>
1000812e:	237e      	movs	r3, #126	; 0x7e
10008130:	425b      	negs	r3, r3
10008132:	1a1b      	subs	r3, r3, r0
10008134:	2b1b      	cmp	r3, #27
10008136:	dd07      	ble.n	10008148 <__aeabi_fmul+0x210>
10008138:	2401      	movs	r4, #1
1000813a:	2300      	movs	r3, #0
1000813c:	4014      	ands	r4, r2
1000813e:	2500      	movs	r5, #0
10008140:	e741      	b.n	10007fc6 <__aeabi_fmul+0x8e>
10008142:	1c08      	adds	r0, r1, #0
10008144:	465a      	mov	r2, fp
10008146:	e7c1      	b.n	100080cc <__aeabi_fmul+0x194>
10008148:	309e      	adds	r0, #158	; 0x9e
1000814a:	1c29      	adds	r1, r5, #0
1000814c:	4085      	lsls	r5, r0
1000814e:	40d9      	lsrs	r1, r3
10008150:	1e68      	subs	r0, r5, #1
10008152:	4185      	sbcs	r5, r0
10008154:	430d      	orrs	r5, r1
10008156:	076b      	lsls	r3, r5, #29
10008158:	d004      	beq.n	10008164 <__aeabi_fmul+0x22c>
1000815a:	230f      	movs	r3, #15
1000815c:	402b      	ands	r3, r5
1000815e:	2b04      	cmp	r3, #4
10008160:	d000      	beq.n	10008164 <__aeabi_fmul+0x22c>
10008162:	3504      	adds	r5, #4
10008164:	016b      	lsls	r3, r5, #5
10008166:	d504      	bpl.n	10008172 <__aeabi_fmul+0x23a>
10008168:	2401      	movs	r4, #1
1000816a:	2301      	movs	r3, #1
1000816c:	4014      	ands	r4, r2
1000816e:	2500      	movs	r5, #0
10008170:	e729      	b.n	10007fc6 <__aeabi_fmul+0x8e>
10008172:	2401      	movs	r4, #1
10008174:	01ad      	lsls	r5, r5, #6
10008176:	0a6d      	lsrs	r5, r5, #9
10008178:	4014      	ands	r4, r2
1000817a:	2300      	movs	r3, #0
1000817c:	e723      	b.n	10007fc6 <__aeabi_fmul+0x8e>
1000817e:	2380      	movs	r3, #128	; 0x80
10008180:	03db      	lsls	r3, r3, #15
10008182:	431d      	orrs	r5, r3
10008184:	2401      	movs	r4, #1
10008186:	465b      	mov	r3, fp
10008188:	026d      	lsls	r5, r5, #9
1000818a:	4023      	ands	r3, r4
1000818c:	1c1c      	adds	r4, r3, #0
1000818e:	0a6d      	lsrs	r5, r5, #9
10008190:	23ff      	movs	r3, #255	; 0xff
10008192:	e718      	b.n	10007fc6 <__aeabi_fmul+0x8e>
10008194:	1000aca8 	.word	0x1000aca8
10008198:	f7ffffff 	.word	0xf7ffffff

1000819c <__aeabi_fsub>:
1000819c:	b5f8      	push	{r3, r4, r5, r6, r7, lr}
1000819e:	004a      	lsls	r2, r1, #1
100081a0:	0243      	lsls	r3, r0, #9
100081a2:	0044      	lsls	r4, r0, #1
100081a4:	024d      	lsls	r5, r1, #9
100081a6:	0fc0      	lsrs	r0, r0, #31
100081a8:	0e24      	lsrs	r4, r4, #24
100081aa:	1c06      	adds	r6, r0, #0
100081ac:	099b      	lsrs	r3, r3, #6
100081ae:	0e12      	lsrs	r2, r2, #24
100081b0:	0fc9      	lsrs	r1, r1, #31
100081b2:	09ad      	lsrs	r5, r5, #6
100081b4:	2aff      	cmp	r2, #255	; 0xff
100081b6:	d100      	bne.n	100081ba <__aeabi_fsub+0x1e>
100081b8:	e075      	b.n	100082a6 <__aeabi_fsub+0x10a>
100081ba:	2701      	movs	r7, #1
100081bc:	4079      	eors	r1, r7
100081be:	4288      	cmp	r0, r1
100081c0:	d050      	beq.n	10008264 <__aeabi_fsub+0xc8>
100081c2:	1aa0      	subs	r0, r4, r2
100081c4:	2800      	cmp	r0, #0
100081c6:	dc00      	bgt.n	100081ca <__aeabi_fsub+0x2e>
100081c8:	e08f      	b.n	100082ea <__aeabi_fsub+0x14e>
100081ca:	2a00      	cmp	r2, #0
100081cc:	d11e      	bne.n	1000820c <__aeabi_fsub+0x70>
100081ce:	2d00      	cmp	r5, #0
100081d0:	d000      	beq.n	100081d4 <__aeabi_fsub+0x38>
100081d2:	e075      	b.n	100082c0 <__aeabi_fsub+0x124>
100081d4:	075a      	lsls	r2, r3, #29
100081d6:	d004      	beq.n	100081e2 <__aeabi_fsub+0x46>
100081d8:	220f      	movs	r2, #15
100081da:	401a      	ands	r2, r3
100081dc:	2a04      	cmp	r2, #4
100081de:	d000      	beq.n	100081e2 <__aeabi_fsub+0x46>
100081e0:	3304      	adds	r3, #4
100081e2:	2280      	movs	r2, #128	; 0x80
100081e4:	2001      	movs	r0, #1
100081e6:	04d2      	lsls	r2, r2, #19
100081e8:	401a      	ands	r2, r3
100081ea:	4030      	ands	r0, r6
100081ec:	2a00      	cmp	r2, #0
100081ee:	d032      	beq.n	10008256 <__aeabi_fsub+0xba>
100081f0:	3401      	adds	r4, #1
100081f2:	2cff      	cmp	r4, #255	; 0xff
100081f4:	d100      	bne.n	100081f8 <__aeabi_fsub+0x5c>
100081f6:	e084      	b.n	10008302 <__aeabi_fsub+0x166>
100081f8:	019b      	lsls	r3, r3, #6
100081fa:	0a5b      	lsrs	r3, r3, #9
100081fc:	b2e4      	uxtb	r4, r4
100081fe:	025b      	lsls	r3, r3, #9
10008200:	05e4      	lsls	r4, r4, #23
10008202:	0a5b      	lsrs	r3, r3, #9
10008204:	4323      	orrs	r3, r4
10008206:	07c0      	lsls	r0, r0, #31
10008208:	4318      	orrs	r0, r3
1000820a:	bdf8      	pop	{r3, r4, r5, r6, r7, pc}
1000820c:	2cff      	cmp	r4, #255	; 0xff
1000820e:	d0e1      	beq.n	100081d4 <__aeabi_fsub+0x38>
10008210:	2280      	movs	r2, #128	; 0x80
10008212:	04d2      	lsls	r2, r2, #19
10008214:	4315      	orrs	r5, r2
10008216:	281b      	cmp	r0, #27
10008218:	dd7a      	ble.n	10008310 <__aeabi_fsub+0x174>
1000821a:	2501      	movs	r5, #1
1000821c:	1b5b      	subs	r3, r3, r5
1000821e:	015a      	lsls	r2, r3, #5
10008220:	d55d      	bpl.n	100082de <__aeabi_fsub+0x142>
10008222:	019b      	lsls	r3, r3, #6
10008224:	099f      	lsrs	r7, r3, #6
10008226:	1c38      	adds	r0, r7, #0
10008228:	f7ff fa62 	bl	100076f0 <__clzsi2>
1000822c:	3805      	subs	r0, #5
1000822e:	4087      	lsls	r7, r0
10008230:	4284      	cmp	r4, r0
10008232:	dc69      	bgt.n	10008308 <__aeabi_fsub+0x16c>
10008234:	1b00      	subs	r0, r0, r4
10008236:	241f      	movs	r4, #31
10008238:	1c3a      	adds	r2, r7, #0
1000823a:	1c43      	adds	r3, r0, #1
1000823c:	1a20      	subs	r0, r4, r0
1000823e:	40da      	lsrs	r2, r3
10008240:	4087      	lsls	r7, r0
10008242:	1c13      	adds	r3, r2, #0
10008244:	1e7c      	subs	r4, r7, #1
10008246:	41a7      	sbcs	r7, r4
10008248:	2400      	movs	r4, #0
1000824a:	433b      	orrs	r3, r7
1000824c:	e7c2      	b.n	100081d4 <__aeabi_fsub+0x38>
1000824e:	1e13      	subs	r3, r2, #0
10008250:	d145      	bne.n	100082de <__aeabi_fsub+0x142>
10008252:	2300      	movs	r3, #0
10008254:	2000      	movs	r0, #0
10008256:	08db      	lsrs	r3, r3, #3
10008258:	2cff      	cmp	r4, #255	; 0xff
1000825a:	d028      	beq.n	100082ae <__aeabi_fsub+0x112>
1000825c:	025b      	lsls	r3, r3, #9
1000825e:	0a5b      	lsrs	r3, r3, #9
10008260:	b2e4      	uxtb	r4, r4
10008262:	e7cc      	b.n	100081fe <__aeabi_fsub+0x62>
10008264:	1aa1      	subs	r1, r4, r2
10008266:	2900      	cmp	r1, #0
10008268:	dd5b      	ble.n	10008322 <__aeabi_fsub+0x186>
1000826a:	2a00      	cmp	r2, #0
1000826c:	d02e      	beq.n	100082cc <__aeabi_fsub+0x130>
1000826e:	2cff      	cmp	r4, #255	; 0xff
10008270:	d0b0      	beq.n	100081d4 <__aeabi_fsub+0x38>
10008272:	2280      	movs	r2, #128	; 0x80
10008274:	04d2      	lsls	r2, r2, #19
10008276:	4315      	orrs	r5, r2
10008278:	291b      	cmp	r1, #27
1000827a:	dc74      	bgt.n	10008366 <__aeabi_fsub+0x1ca>
1000827c:	1c2f      	adds	r7, r5, #0
1000827e:	2220      	movs	r2, #32
10008280:	40cf      	lsrs	r7, r1
10008282:	1a51      	subs	r1, r2, r1
10008284:	408d      	lsls	r5, r1
10008286:	1e69      	subs	r1, r5, #1
10008288:	418d      	sbcs	r5, r1
1000828a:	433d      	orrs	r5, r7
1000828c:	195b      	adds	r3, r3, r5
1000828e:	015a      	lsls	r2, r3, #5
10008290:	d525      	bpl.n	100082de <__aeabi_fsub+0x142>
10008292:	3401      	adds	r4, #1
10008294:	2cff      	cmp	r4, #255	; 0xff
10008296:	d074      	beq.n	10008382 <__aeabi_fsub+0x1e6>
10008298:	2101      	movs	r1, #1
1000829a:	4a7e      	ldr	r2, [pc, #504]	; (10008494 <__aeabi_fsub+0x2f8>)
1000829c:	4019      	ands	r1, r3
1000829e:	4013      	ands	r3, r2
100082a0:	085b      	lsrs	r3, r3, #1
100082a2:	430b      	orrs	r3, r1
100082a4:	e796      	b.n	100081d4 <__aeabi_fsub+0x38>
100082a6:	2d00      	cmp	r5, #0
100082a8:	d000      	beq.n	100082ac <__aeabi_fsub+0x110>
100082aa:	e788      	b.n	100081be <__aeabi_fsub+0x22>
100082ac:	e785      	b.n	100081ba <__aeabi_fsub+0x1e>
100082ae:	2b00      	cmp	r3, #0
100082b0:	d027      	beq.n	10008302 <__aeabi_fsub+0x166>
100082b2:	2280      	movs	r2, #128	; 0x80
100082b4:	03d2      	lsls	r2, r2, #15
100082b6:	4313      	orrs	r3, r2
100082b8:	025b      	lsls	r3, r3, #9
100082ba:	0a5b      	lsrs	r3, r3, #9
100082bc:	24ff      	movs	r4, #255	; 0xff
100082be:	e79e      	b.n	100081fe <__aeabi_fsub+0x62>
100082c0:	3801      	subs	r0, #1
100082c2:	2800      	cmp	r0, #0
100082c4:	d0aa      	beq.n	1000821c <__aeabi_fsub+0x80>
100082c6:	2cff      	cmp	r4, #255	; 0xff
100082c8:	d1a5      	bne.n	10008216 <__aeabi_fsub+0x7a>
100082ca:	e783      	b.n	100081d4 <__aeabi_fsub+0x38>
100082cc:	2d00      	cmp	r5, #0
100082ce:	d100      	bne.n	100082d2 <__aeabi_fsub+0x136>
100082d0:	e780      	b.n	100081d4 <__aeabi_fsub+0x38>
100082d2:	3901      	subs	r1, #1
100082d4:	2900      	cmp	r1, #0
100082d6:	d0d9      	beq.n	1000828c <__aeabi_fsub+0xf0>
100082d8:	2cff      	cmp	r4, #255	; 0xff
100082da:	d1cd      	bne.n	10008278 <__aeabi_fsub+0xdc>
100082dc:	e77a      	b.n	100081d4 <__aeabi_fsub+0x38>
100082de:	075a      	lsls	r2, r3, #29
100082e0:	d000      	beq.n	100082e4 <__aeabi_fsub+0x148>
100082e2:	e779      	b.n	100081d8 <__aeabi_fsub+0x3c>
100082e4:	2001      	movs	r0, #1
100082e6:	4030      	ands	r0, r6
100082e8:	e7b5      	b.n	10008256 <__aeabi_fsub+0xba>
100082ea:	2800      	cmp	r0, #0
100082ec:	d125      	bne.n	1000833a <__aeabi_fsub+0x19e>
100082ee:	1c62      	adds	r2, r4, #1
100082f0:	b2d2      	uxtb	r2, r2
100082f2:	2a01      	cmp	r2, #1
100082f4:	dd55      	ble.n	100083a2 <__aeabi_fsub+0x206>
100082f6:	1b5f      	subs	r7, r3, r5
100082f8:	017a      	lsls	r2, r7, #5
100082fa:	d52d      	bpl.n	10008358 <__aeabi_fsub+0x1bc>
100082fc:	1aef      	subs	r7, r5, r3
100082fe:	1c0e      	adds	r6, r1, #0
10008300:	e791      	b.n	10008226 <__aeabi_fsub+0x8a>
10008302:	24ff      	movs	r4, #255	; 0xff
10008304:	2300      	movs	r3, #0
10008306:	e77a      	b.n	100081fe <__aeabi_fsub+0x62>
10008308:	4b62      	ldr	r3, [pc, #392]	; (10008494 <__aeabi_fsub+0x2f8>)
1000830a:	1a24      	subs	r4, r4, r0
1000830c:	403b      	ands	r3, r7
1000830e:	e761      	b.n	100081d4 <__aeabi_fsub+0x38>
10008310:	1c29      	adds	r1, r5, #0
10008312:	2220      	movs	r2, #32
10008314:	40c1      	lsrs	r1, r0
10008316:	1a10      	subs	r0, r2, r0
10008318:	4085      	lsls	r5, r0
1000831a:	1e68      	subs	r0, r5, #1
1000831c:	4185      	sbcs	r5, r0
1000831e:	430d      	orrs	r5, r1
10008320:	e77c      	b.n	1000821c <__aeabi_fsub+0x80>
10008322:	2900      	cmp	r1, #0
10008324:	d146      	bne.n	100083b4 <__aeabi_fsub+0x218>
10008326:	1c62      	adds	r2, r4, #1
10008328:	b2d1      	uxtb	r1, r2
1000832a:	2901      	cmp	r1, #1
1000832c:	dd2b      	ble.n	10008386 <__aeabi_fsub+0x1ea>
1000832e:	2aff      	cmp	r2, #255	; 0xff
10008330:	d026      	beq.n	10008380 <__aeabi_fsub+0x1e4>
10008332:	18eb      	adds	r3, r5, r3
10008334:	085b      	lsrs	r3, r3, #1
10008336:	1c14      	adds	r4, r2, #0
10008338:	e74c      	b.n	100081d4 <__aeabi_fsub+0x38>
1000833a:	2c00      	cmp	r4, #0
1000833c:	d015      	beq.n	1000836a <__aeabi_fsub+0x1ce>
1000833e:	2aff      	cmp	r2, #255	; 0xff
10008340:	d01a      	beq.n	10008378 <__aeabi_fsub+0x1dc>
10008342:	2480      	movs	r4, #128	; 0x80
10008344:	04e4      	lsls	r4, r4, #19
10008346:	4240      	negs	r0, r0
10008348:	4323      	orrs	r3, r4
1000834a:	281b      	cmp	r0, #27
1000834c:	dd4d      	ble.n	100083ea <__aeabi_fsub+0x24e>
1000834e:	2301      	movs	r3, #1
10008350:	1aeb      	subs	r3, r5, r3
10008352:	1c14      	adds	r4, r2, #0
10008354:	1c0e      	adds	r6, r1, #0
10008356:	e762      	b.n	1000821e <__aeabi_fsub+0x82>
10008358:	2f00      	cmp	r7, #0
1000835a:	d000      	beq.n	1000835e <__aeabi_fsub+0x1c2>
1000835c:	e763      	b.n	10008226 <__aeabi_fsub+0x8a>
1000835e:	2300      	movs	r3, #0
10008360:	2000      	movs	r0, #0
10008362:	2400      	movs	r4, #0
10008364:	e777      	b.n	10008256 <__aeabi_fsub+0xba>
10008366:	2501      	movs	r5, #1
10008368:	e790      	b.n	1000828c <__aeabi_fsub+0xf0>
1000836a:	2b00      	cmp	r3, #0
1000836c:	d039      	beq.n	100083e2 <__aeabi_fsub+0x246>
1000836e:	43c0      	mvns	r0, r0
10008370:	2800      	cmp	r0, #0
10008372:	d0ed      	beq.n	10008350 <__aeabi_fsub+0x1b4>
10008374:	2aff      	cmp	r2, #255	; 0xff
10008376:	d1e8      	bne.n	1000834a <__aeabi_fsub+0x1ae>
10008378:	1c2b      	adds	r3, r5, #0
1000837a:	24ff      	movs	r4, #255	; 0xff
1000837c:	1c0e      	adds	r6, r1, #0
1000837e:	e729      	b.n	100081d4 <__aeabi_fsub+0x38>
10008380:	24ff      	movs	r4, #255	; 0xff
10008382:	2300      	movs	r3, #0
10008384:	e767      	b.n	10008256 <__aeabi_fsub+0xba>
10008386:	2c00      	cmp	r4, #0
10008388:	d15a      	bne.n	10008440 <__aeabi_fsub+0x2a4>
1000838a:	2b00      	cmp	r3, #0
1000838c:	d07f      	beq.n	1000848e <__aeabi_fsub+0x2f2>
1000838e:	2d00      	cmp	r5, #0
10008390:	d100      	bne.n	10008394 <__aeabi_fsub+0x1f8>
10008392:	e71f      	b.n	100081d4 <__aeabi_fsub+0x38>
10008394:	195b      	adds	r3, r3, r5
10008396:	015a      	lsls	r2, r3, #5
10008398:	d5a1      	bpl.n	100082de <__aeabi_fsub+0x142>
1000839a:	4a3e      	ldr	r2, [pc, #248]	; (10008494 <__aeabi_fsub+0x2f8>)
1000839c:	3401      	adds	r4, #1
1000839e:	4013      	ands	r3, r2
100083a0:	e718      	b.n	100081d4 <__aeabi_fsub+0x38>
100083a2:	2c00      	cmp	r4, #0
100083a4:	d115      	bne.n	100083d2 <__aeabi_fsub+0x236>
100083a6:	2b00      	cmp	r3, #0
100083a8:	d12f      	bne.n	1000840a <__aeabi_fsub+0x26e>
100083aa:	2d00      	cmp	r5, #0
100083ac:	d05e      	beq.n	1000846c <__aeabi_fsub+0x2d0>
100083ae:	1c2b      	adds	r3, r5, #0
100083b0:	1c0e      	adds	r6, r1, #0
100083b2:	e70f      	b.n	100081d4 <__aeabi_fsub+0x38>
100083b4:	2c00      	cmp	r4, #0
100083b6:	d121      	bne.n	100083fc <__aeabi_fsub+0x260>
100083b8:	2b00      	cmp	r3, #0
100083ba:	d054      	beq.n	10008466 <__aeabi_fsub+0x2ca>
100083bc:	43c9      	mvns	r1, r1
100083be:	2900      	cmp	r1, #0
100083c0:	d004      	beq.n	100083cc <__aeabi_fsub+0x230>
100083c2:	2aff      	cmp	r2, #255	; 0xff
100083c4:	d04c      	beq.n	10008460 <__aeabi_fsub+0x2c4>
100083c6:	291b      	cmp	r1, #27
100083c8:	dd58      	ble.n	1000847c <__aeabi_fsub+0x2e0>
100083ca:	2301      	movs	r3, #1
100083cc:	195b      	adds	r3, r3, r5
100083ce:	1c14      	adds	r4, r2, #0
100083d0:	e75d      	b.n	1000828e <__aeabi_fsub+0xf2>
100083d2:	2b00      	cmp	r3, #0
100083d4:	d123      	bne.n	1000841e <__aeabi_fsub+0x282>
100083d6:	2d00      	cmp	r5, #0
100083d8:	d04b      	beq.n	10008472 <__aeabi_fsub+0x2d6>
100083da:	1c2b      	adds	r3, r5, #0
100083dc:	1c0e      	adds	r6, r1, #0
100083de:	24ff      	movs	r4, #255	; 0xff
100083e0:	e6f8      	b.n	100081d4 <__aeabi_fsub+0x38>
100083e2:	1c2b      	adds	r3, r5, #0
100083e4:	1c14      	adds	r4, r2, #0
100083e6:	1c0e      	adds	r6, r1, #0
100083e8:	e6f4      	b.n	100081d4 <__aeabi_fsub+0x38>
100083ea:	1c1e      	adds	r6, r3, #0
100083ec:	2420      	movs	r4, #32
100083ee:	40c6      	lsrs	r6, r0
100083f0:	1a20      	subs	r0, r4, r0
100083f2:	4083      	lsls	r3, r0
100083f4:	1e58      	subs	r0, r3, #1
100083f6:	4183      	sbcs	r3, r0
100083f8:	4333      	orrs	r3, r6
100083fa:	e7a9      	b.n	10008350 <__aeabi_fsub+0x1b4>
100083fc:	2aff      	cmp	r2, #255	; 0xff
100083fe:	d02f      	beq.n	10008460 <__aeabi_fsub+0x2c4>
10008400:	2480      	movs	r4, #128	; 0x80
10008402:	04e4      	lsls	r4, r4, #19
10008404:	4249      	negs	r1, r1
10008406:	4323      	orrs	r3, r4
10008408:	e7dd      	b.n	100083c6 <__aeabi_fsub+0x22a>
1000840a:	2d00      	cmp	r5, #0
1000840c:	d100      	bne.n	10008410 <__aeabi_fsub+0x274>
1000840e:	e6e1      	b.n	100081d4 <__aeabi_fsub+0x38>
10008410:	1b5a      	subs	r2, r3, r5
10008412:	0150      	lsls	r0, r2, #5
10008414:	d400      	bmi.n	10008418 <__aeabi_fsub+0x27c>
10008416:	e71a      	b.n	1000824e <__aeabi_fsub+0xb2>
10008418:	1aeb      	subs	r3, r5, r3
1000841a:	1c0e      	adds	r6, r1, #0
1000841c:	e6da      	b.n	100081d4 <__aeabi_fsub+0x38>
1000841e:	24ff      	movs	r4, #255	; 0xff
10008420:	2d00      	cmp	r5, #0
10008422:	d100      	bne.n	10008426 <__aeabi_fsub+0x28a>
10008424:	e6d6      	b.n	100081d4 <__aeabi_fsub+0x38>
10008426:	2280      	movs	r2, #128	; 0x80
10008428:	08db      	lsrs	r3, r3, #3
1000842a:	03d2      	lsls	r2, r2, #15
1000842c:	4213      	tst	r3, r2
1000842e:	d004      	beq.n	1000843a <__aeabi_fsub+0x29e>
10008430:	08ed      	lsrs	r5, r5, #3
10008432:	4215      	tst	r5, r2
10008434:	d101      	bne.n	1000843a <__aeabi_fsub+0x29e>
10008436:	1c2b      	adds	r3, r5, #0
10008438:	1c0e      	adds	r6, r1, #0
1000843a:	00db      	lsls	r3, r3, #3
1000843c:	24ff      	movs	r4, #255	; 0xff
1000843e:	e6c9      	b.n	100081d4 <__aeabi_fsub+0x38>
10008440:	2b00      	cmp	r3, #0
10008442:	d00d      	beq.n	10008460 <__aeabi_fsub+0x2c4>
10008444:	24ff      	movs	r4, #255	; 0xff
10008446:	2d00      	cmp	r5, #0
10008448:	d100      	bne.n	1000844c <__aeabi_fsub+0x2b0>
1000844a:	e6c3      	b.n	100081d4 <__aeabi_fsub+0x38>
1000844c:	2280      	movs	r2, #128	; 0x80
1000844e:	08db      	lsrs	r3, r3, #3
10008450:	03d2      	lsls	r2, r2, #15
10008452:	4213      	tst	r3, r2
10008454:	d0f1      	beq.n	1000843a <__aeabi_fsub+0x29e>
10008456:	08ed      	lsrs	r5, r5, #3
10008458:	4215      	tst	r5, r2
1000845a:	d1ee      	bne.n	1000843a <__aeabi_fsub+0x29e>
1000845c:	1c2b      	adds	r3, r5, #0
1000845e:	e7ec      	b.n	1000843a <__aeabi_fsub+0x29e>
10008460:	1c2b      	adds	r3, r5, #0
10008462:	24ff      	movs	r4, #255	; 0xff
10008464:	e6b6      	b.n	100081d4 <__aeabi_fsub+0x38>
10008466:	1c2b      	adds	r3, r5, #0
10008468:	1c14      	adds	r4, r2, #0
1000846a:	e6b3      	b.n	100081d4 <__aeabi_fsub+0x38>
1000846c:	1c23      	adds	r3, r4, #0
1000846e:	2000      	movs	r0, #0
10008470:	e6f1      	b.n	10008256 <__aeabi_fsub+0xba>
10008472:	2380      	movs	r3, #128	; 0x80
10008474:	2000      	movs	r0, #0
10008476:	049b      	lsls	r3, r3, #18
10008478:	24ff      	movs	r4, #255	; 0xff
1000847a:	e6ec      	b.n	10008256 <__aeabi_fsub+0xba>
1000847c:	1c1f      	adds	r7, r3, #0
1000847e:	2420      	movs	r4, #32
10008480:	40cf      	lsrs	r7, r1
10008482:	1a61      	subs	r1, r4, r1
10008484:	408b      	lsls	r3, r1
10008486:	1e59      	subs	r1, r3, #1
10008488:	418b      	sbcs	r3, r1
1000848a:	433b      	orrs	r3, r7
1000848c:	e79e      	b.n	100083cc <__aeabi_fsub+0x230>
1000848e:	1c2b      	adds	r3, r5, #0
10008490:	e6a0      	b.n	100081d4 <__aeabi_fsub+0x38>
10008492:	46c0      	nop			; (mov r8, r8)
10008494:	fbffffff 	.word	0xfbffffff

10008498 <__aeabi_f2iz>:
10008498:	0242      	lsls	r2, r0, #9
1000849a:	0a51      	lsrs	r1, r2, #9
1000849c:	0042      	lsls	r2, r0, #1
1000849e:	0fc3      	lsrs	r3, r0, #31
100084a0:	0e12      	lsrs	r2, r2, #24
100084a2:	2000      	movs	r0, #0
100084a4:	2a7e      	cmp	r2, #126	; 0x7e
100084a6:	dd0d      	ble.n	100084c4 <__aeabi_f2iz+0x2c>
100084a8:	2a9d      	cmp	r2, #157	; 0x9d
100084aa:	dc0c      	bgt.n	100084c6 <__aeabi_f2iz+0x2e>
100084ac:	2080      	movs	r0, #128	; 0x80
100084ae:	0400      	lsls	r0, r0, #16
100084b0:	4301      	orrs	r1, r0
100084b2:	2a95      	cmp	r2, #149	; 0x95
100084b4:	dc0a      	bgt.n	100084cc <__aeabi_f2iz+0x34>
100084b6:	2096      	movs	r0, #150	; 0x96
100084b8:	1a82      	subs	r2, r0, r2
100084ba:	40d1      	lsrs	r1, r2
100084bc:	1c0a      	adds	r2, r1, #0
100084be:	4258      	negs	r0, r3
100084c0:	4042      	eors	r2, r0
100084c2:	18d0      	adds	r0, r2, r3
100084c4:	4770      	bx	lr
100084c6:	4a03      	ldr	r2, [pc, #12]	; (100084d4 <__aeabi_f2iz+0x3c>)
100084c8:	1898      	adds	r0, r3, r2
100084ca:	e7fb      	b.n	100084c4 <__aeabi_f2iz+0x2c>
100084cc:	3a96      	subs	r2, #150	; 0x96
100084ce:	4091      	lsls	r1, r2
100084d0:	1c0a      	adds	r2, r1, #0
100084d2:	e7f4      	b.n	100084be <__aeabi_f2iz+0x26>
100084d4:	7fffffff 	.word	0x7fffffff

100084d8 <__aeabi_i2f>:
100084d8:	b570      	push	{r4, r5, r6, lr}
100084da:	1e04      	subs	r4, r0, #0
100084dc:	d039      	beq.n	10008552 <__aeabi_i2f+0x7a>
100084de:	0fc5      	lsrs	r5, r0, #31
100084e0:	d000      	beq.n	100084e4 <__aeabi_i2f+0xc>
100084e2:	4244      	negs	r4, r0
100084e4:	1c20      	adds	r0, r4, #0
100084e6:	f7ff f903 	bl	100076f0 <__clzsi2>
100084ea:	239e      	movs	r3, #158	; 0x9e
100084ec:	1c26      	adds	r6, r4, #0
100084ee:	1a1b      	subs	r3, r3, r0
100084f0:	2b96      	cmp	r3, #150	; 0x96
100084f2:	dc07      	bgt.n	10008504 <__aeabi_i2f+0x2c>
100084f4:	2808      	cmp	r0, #8
100084f6:	dd01      	ble.n	100084fc <__aeabi_i2f+0x24>
100084f8:	3808      	subs	r0, #8
100084fa:	4084      	lsls	r4, r0
100084fc:	0264      	lsls	r4, r4, #9
100084fe:	0a64      	lsrs	r4, r4, #9
10008500:	b2d8      	uxtb	r0, r3
10008502:	e01e      	b.n	10008542 <__aeabi_i2f+0x6a>
10008504:	2b99      	cmp	r3, #153	; 0x99
10008506:	dd0a      	ble.n	1000851e <__aeabi_i2f+0x46>
10008508:	2205      	movs	r2, #5
1000850a:	1c21      	adds	r1, r4, #0
1000850c:	1a12      	subs	r2, r2, r0
1000850e:	40d1      	lsrs	r1, r2
10008510:	1c0a      	adds	r2, r1, #0
10008512:	1c01      	adds	r1, r0, #0
10008514:	311b      	adds	r1, #27
10008516:	408e      	lsls	r6, r1
10008518:	1e71      	subs	r1, r6, #1
1000851a:	418e      	sbcs	r6, r1
1000851c:	4316      	orrs	r6, r2
1000851e:	2805      	cmp	r0, #5
10008520:	dd01      	ble.n	10008526 <__aeabi_i2f+0x4e>
10008522:	1f42      	subs	r2, r0, #5
10008524:	4096      	lsls	r6, r2
10008526:	4c0f      	ldr	r4, [pc, #60]	; (10008564 <__aeabi_i2f+0x8c>)
10008528:	4034      	ands	r4, r6
1000852a:	0772      	lsls	r2, r6, #29
1000852c:	d004      	beq.n	10008538 <__aeabi_i2f+0x60>
1000852e:	220f      	movs	r2, #15
10008530:	4016      	ands	r6, r2
10008532:	2e04      	cmp	r6, #4
10008534:	d000      	beq.n	10008538 <__aeabi_i2f+0x60>
10008536:	3404      	adds	r4, #4
10008538:	0162      	lsls	r2, r4, #5
1000853a:	d40e      	bmi.n	1000855a <__aeabi_i2f+0x82>
1000853c:	01a4      	lsls	r4, r4, #6
1000853e:	0a64      	lsrs	r4, r4, #9
10008540:	b2d8      	uxtb	r0, r3
10008542:	0264      	lsls	r4, r4, #9
10008544:	05c0      	lsls	r0, r0, #23
10008546:	0a64      	lsrs	r4, r4, #9
10008548:	07ed      	lsls	r5, r5, #31
1000854a:	4304      	orrs	r4, r0
1000854c:	432c      	orrs	r4, r5
1000854e:	1c20      	adds	r0, r4, #0
10008550:	bd70      	pop	{r4, r5, r6, pc}
10008552:	2500      	movs	r5, #0
10008554:	2000      	movs	r0, #0
10008556:	2400      	movs	r4, #0
10008558:	e7f3      	b.n	10008542 <__aeabi_i2f+0x6a>
1000855a:	4b02      	ldr	r3, [pc, #8]	; (10008564 <__aeabi_i2f+0x8c>)
1000855c:	401c      	ands	r4, r3
1000855e:	239f      	movs	r3, #159	; 0x9f
10008560:	1a1b      	subs	r3, r3, r0
10008562:	e7eb      	b.n	1000853c <__aeabi_i2f+0x64>
10008564:	fbffffff 	.word	0xfbffffff

10008568 <__aeabi_dadd>:
10008568:	b5f0      	push	{r4, r5, r6, r7, lr}
1000856a:	4645      	mov	r5, r8
1000856c:	4657      	mov	r7, sl
1000856e:	464e      	mov	r6, r9
10008570:	4694      	mov	ip, r2
10008572:	004c      	lsls	r4, r1, #1
10008574:	030a      	lsls	r2, r1, #12
10008576:	0fc9      	lsrs	r1, r1, #31
10008578:	b4e0      	push	{r5, r6, r7}
1000857a:	4688      	mov	r8, r1
1000857c:	1c0e      	adds	r6, r1, #0
1000857e:	0319      	lsls	r1, r3, #12
10008580:	0f47      	lsrs	r7, r0, #29
10008582:	00c5      	lsls	r5, r0, #3
10008584:	0a48      	lsrs	r0, r1, #9
10008586:	4661      	mov	r1, ip
10008588:	0f49      	lsrs	r1, r1, #29
1000858a:	4301      	orrs	r1, r0
1000858c:	4660      	mov	r0, ip
1000858e:	0a52      	lsrs	r2, r2, #9
10008590:	4317      	orrs	r7, r2
10008592:	00c0      	lsls	r0, r0, #3
10008594:	005a      	lsls	r2, r3, #1
10008596:	0d64      	lsrs	r4, r4, #21
10008598:	0d52      	lsrs	r2, r2, #21
1000859a:	0fdb      	lsrs	r3, r3, #31
1000859c:	4684      	mov	ip, r0
1000859e:	4598      	cmp	r8, r3
100085a0:	d100      	bne.n	100085a4 <__aeabi_dadd+0x3c>
100085a2:	e0a7      	b.n	100086f4 <__aeabi_dadd+0x18c>
100085a4:	1aa0      	subs	r0, r4, r2
100085a6:	2800      	cmp	r0, #0
100085a8:	dc00      	bgt.n	100085ac <__aeabi_dadd+0x44>
100085aa:	e101      	b.n	100087b0 <__aeabi_dadd+0x248>
100085ac:	2a00      	cmp	r2, #0
100085ae:	d13d      	bne.n	1000862c <__aeabi_dadd+0xc4>
100085b0:	4663      	mov	r3, ip
100085b2:	430b      	orrs	r3, r1
100085b4:	d000      	beq.n	100085b8 <__aeabi_dadd+0x50>
100085b6:	e0d4      	b.n	10008762 <__aeabi_dadd+0x1fa>
100085b8:	076b      	lsls	r3, r5, #29
100085ba:	d100      	bne.n	100085be <__aeabi_dadd+0x56>
100085bc:	e088      	b.n	100086d0 <__aeabi_dadd+0x168>
100085be:	230f      	movs	r3, #15
100085c0:	402b      	ands	r3, r5
100085c2:	2b04      	cmp	r3, #4
100085c4:	d100      	bne.n	100085c8 <__aeabi_dadd+0x60>
100085c6:	e083      	b.n	100086d0 <__aeabi_dadd+0x168>
100085c8:	1d2a      	adds	r2, r5, #4
100085ca:	42aa      	cmp	r2, r5
100085cc:	41ad      	sbcs	r5, r5
100085ce:	2380      	movs	r3, #128	; 0x80
100085d0:	426d      	negs	r5, r5
100085d2:	197f      	adds	r7, r7, r5
100085d4:	041b      	lsls	r3, r3, #16
100085d6:	403b      	ands	r3, r7
100085d8:	4646      	mov	r6, r8
100085da:	1c15      	adds	r5, r2, #0
100085dc:	2b00      	cmp	r3, #0
100085de:	d100      	bne.n	100085e2 <__aeabi_dadd+0x7a>
100085e0:	e07c      	b.n	100086dc <__aeabi_dadd+0x174>
100085e2:	4bcc      	ldr	r3, [pc, #816]	; (10008914 <__aeabi_dadd+0x3ac>)
100085e4:	3401      	adds	r4, #1
100085e6:	429c      	cmp	r4, r3
100085e8:	d100      	bne.n	100085ec <__aeabi_dadd+0x84>
100085ea:	e0fd      	b.n	100087e8 <__aeabi_dadd+0x280>
100085ec:	1c3a      	adds	r2, r7, #0
100085ee:	4bca      	ldr	r3, [pc, #808]	; (10008918 <__aeabi_dadd+0x3b0>)
100085f0:	08ed      	lsrs	r5, r5, #3
100085f2:	401a      	ands	r2, r3
100085f4:	0750      	lsls	r0, r2, #29
100085f6:	0564      	lsls	r4, r4, #21
100085f8:	0252      	lsls	r2, r2, #9
100085fa:	4305      	orrs	r5, r0
100085fc:	0b12      	lsrs	r2, r2, #12
100085fe:	0d64      	lsrs	r4, r4, #21
10008600:	2100      	movs	r1, #0
10008602:	0312      	lsls	r2, r2, #12
10008604:	0d0b      	lsrs	r3, r1, #20
10008606:	051b      	lsls	r3, r3, #20
10008608:	0564      	lsls	r4, r4, #21
1000860a:	0b12      	lsrs	r2, r2, #12
1000860c:	431a      	orrs	r2, r3
1000860e:	0863      	lsrs	r3, r4, #1
10008610:	4cc2      	ldr	r4, [pc, #776]	; (1000891c <__aeabi_dadd+0x3b4>)
10008612:	07f6      	lsls	r6, r6, #31
10008614:	4014      	ands	r4, r2
10008616:	431c      	orrs	r4, r3
10008618:	0064      	lsls	r4, r4, #1
1000861a:	0864      	lsrs	r4, r4, #1
1000861c:	4334      	orrs	r4, r6
1000861e:	1c28      	adds	r0, r5, #0
10008620:	1c21      	adds	r1, r4, #0
10008622:	bc1c      	pop	{r2, r3, r4}
10008624:	4690      	mov	r8, r2
10008626:	4699      	mov	r9, r3
10008628:	46a2      	mov	sl, r4
1000862a:	bdf0      	pop	{r4, r5, r6, r7, pc}
1000862c:	4bb9      	ldr	r3, [pc, #740]	; (10008914 <__aeabi_dadd+0x3ac>)
1000862e:	429c      	cmp	r4, r3
10008630:	d0c2      	beq.n	100085b8 <__aeabi_dadd+0x50>
10008632:	2380      	movs	r3, #128	; 0x80
10008634:	041b      	lsls	r3, r3, #16
10008636:	4319      	orrs	r1, r3
10008638:	2838      	cmp	r0, #56	; 0x38
1000863a:	dd00      	ble.n	1000863e <__aeabi_dadd+0xd6>
1000863c:	e0ec      	b.n	10008818 <__aeabi_dadd+0x2b0>
1000863e:	281f      	cmp	r0, #31
10008640:	dd00      	ble.n	10008644 <__aeabi_dadd+0xdc>
10008642:	e121      	b.n	10008888 <__aeabi_dadd+0x320>
10008644:	2220      	movs	r2, #32
10008646:	1c0e      	adds	r6, r1, #0
10008648:	4663      	mov	r3, ip
1000864a:	1a12      	subs	r2, r2, r0
1000864c:	4096      	lsls	r6, r2
1000864e:	40c3      	lsrs	r3, r0
10008650:	4333      	orrs	r3, r6
10008652:	4666      	mov	r6, ip
10008654:	4096      	lsls	r6, r2
10008656:	1c32      	adds	r2, r6, #0
10008658:	1e56      	subs	r6, r2, #1
1000865a:	41b2      	sbcs	r2, r6
1000865c:	4313      	orrs	r3, r2
1000865e:	1c0a      	adds	r2, r1, #0
10008660:	40c2      	lsrs	r2, r0
10008662:	1aeb      	subs	r3, r5, r3
10008664:	429d      	cmp	r5, r3
10008666:	41b6      	sbcs	r6, r6
10008668:	1c1d      	adds	r5, r3, #0
1000866a:	1aba      	subs	r2, r7, r2
1000866c:	4276      	negs	r6, r6
1000866e:	1b97      	subs	r7, r2, r6
10008670:	023b      	lsls	r3, r7, #8
10008672:	d400      	bmi.n	10008676 <__aeabi_dadd+0x10e>
10008674:	e097      	b.n	100087a6 <__aeabi_dadd+0x23e>
10008676:	027a      	lsls	r2, r7, #9
10008678:	0a56      	lsrs	r6, r2, #9
1000867a:	2e00      	cmp	r6, #0
1000867c:	d100      	bne.n	10008680 <__aeabi_dadd+0x118>
1000867e:	e0b6      	b.n	100087ee <__aeabi_dadd+0x286>
10008680:	1c30      	adds	r0, r6, #0
10008682:	f7ff f835 	bl	100076f0 <__clzsi2>
10008686:	1c03      	adds	r3, r0, #0
10008688:	3b08      	subs	r3, #8
1000868a:	2b1f      	cmp	r3, #31
1000868c:	dd00      	ble.n	10008690 <__aeabi_dadd+0x128>
1000868e:	e0b7      	b.n	10008800 <__aeabi_dadd+0x298>
10008690:	409e      	lsls	r6, r3
10008692:	1c37      	adds	r7, r6, #0
10008694:	2628      	movs	r6, #40	; 0x28
10008696:	1c2a      	adds	r2, r5, #0
10008698:	1a36      	subs	r6, r6, r0
1000869a:	40f2      	lsrs	r2, r6
1000869c:	1c16      	adds	r6, r2, #0
1000869e:	409d      	lsls	r5, r3
100086a0:	433e      	orrs	r6, r7
100086a2:	429c      	cmp	r4, r3
100086a4:	dd00      	ble.n	100086a8 <__aeabi_dadd+0x140>
100086a6:	e0b2      	b.n	1000880e <__aeabi_dadd+0x2a6>
100086a8:	1b1c      	subs	r4, r3, r4
100086aa:	1c62      	adds	r2, r4, #1
100086ac:	2a1f      	cmp	r2, #31
100086ae:	dd00      	ble.n	100086b2 <__aeabi_dadd+0x14a>
100086b0:	e0d8      	b.n	10008864 <__aeabi_dadd+0x2fc>
100086b2:	231f      	movs	r3, #31
100086b4:	1c29      	adds	r1, r5, #0
100086b6:	1b1c      	subs	r4, r3, r4
100086b8:	1c33      	adds	r3, r6, #0
100086ba:	40a5      	lsls	r5, r4
100086bc:	40a3      	lsls	r3, r4
100086be:	40d1      	lsrs	r1, r2
100086c0:	1e6c      	subs	r4, r5, #1
100086c2:	41a5      	sbcs	r5, r4
100086c4:	40d6      	lsrs	r6, r2
100086c6:	4319      	orrs	r1, r3
100086c8:	430d      	orrs	r5, r1
100086ca:	1c37      	adds	r7, r6, #0
100086cc:	2400      	movs	r4, #0
100086ce:	e773      	b.n	100085b8 <__aeabi_dadd+0x50>
100086d0:	2380      	movs	r3, #128	; 0x80
100086d2:	041b      	lsls	r3, r3, #16
100086d4:	403b      	ands	r3, r7
100086d6:	4646      	mov	r6, r8
100086d8:	d000      	beq.n	100086dc <__aeabi_dadd+0x174>
100086da:	e782      	b.n	100085e2 <__aeabi_dadd+0x7a>
100086dc:	4b8d      	ldr	r3, [pc, #564]	; (10008914 <__aeabi_dadd+0x3ac>)
100086de:	08ed      	lsrs	r5, r5, #3
100086e0:	0778      	lsls	r0, r7, #29
100086e2:	4305      	orrs	r5, r0
100086e4:	08fa      	lsrs	r2, r7, #3
100086e6:	429c      	cmp	r4, r3
100086e8:	d032      	beq.n	10008750 <__aeabi_dadd+0x1e8>
100086ea:	0312      	lsls	r2, r2, #12
100086ec:	0564      	lsls	r4, r4, #21
100086ee:	0b12      	lsrs	r2, r2, #12
100086f0:	0d64      	lsrs	r4, r4, #21
100086f2:	e785      	b.n	10008600 <__aeabi_dadd+0x98>
100086f4:	1aa3      	subs	r3, r4, r2
100086f6:	2b00      	cmp	r3, #0
100086f8:	dc00      	bgt.n	100086fc <__aeabi_dadd+0x194>
100086fa:	e094      	b.n	10008826 <__aeabi_dadd+0x2be>
100086fc:	2a00      	cmp	r2, #0
100086fe:	d03c      	beq.n	1000877a <__aeabi_dadd+0x212>
10008700:	4a84      	ldr	r2, [pc, #528]	; (10008914 <__aeabi_dadd+0x3ac>)
10008702:	4294      	cmp	r4, r2
10008704:	d100      	bne.n	10008708 <__aeabi_dadd+0x1a0>
10008706:	e757      	b.n	100085b8 <__aeabi_dadd+0x50>
10008708:	2280      	movs	r2, #128	; 0x80
1000870a:	0412      	lsls	r2, r2, #16
1000870c:	4311      	orrs	r1, r2
1000870e:	2b38      	cmp	r3, #56	; 0x38
10008710:	dc00      	bgt.n	10008714 <__aeabi_dadd+0x1ac>
10008712:	e105      	b.n	10008920 <__aeabi_dadd+0x3b8>
10008714:	4663      	mov	r3, ip
10008716:	4319      	orrs	r1, r3
10008718:	1e48      	subs	r0, r1, #1
1000871a:	4181      	sbcs	r1, r0
1000871c:	2200      	movs	r2, #0
1000871e:	b2c8      	uxtb	r0, r1
10008720:	1940      	adds	r0, r0, r5
10008722:	42a8      	cmp	r0, r5
10008724:	419b      	sbcs	r3, r3
10008726:	1c05      	adds	r5, r0, #0
10008728:	19d2      	adds	r2, r2, r7
1000872a:	425b      	negs	r3, r3
1000872c:	18d7      	adds	r7, r2, r3
1000872e:	023b      	lsls	r3, r7, #8
10008730:	d539      	bpl.n	100087a6 <__aeabi_dadd+0x23e>
10008732:	4b78      	ldr	r3, [pc, #480]	; (10008914 <__aeabi_dadd+0x3ac>)
10008734:	3401      	adds	r4, #1
10008736:	429c      	cmp	r4, r3
10008738:	d100      	bne.n	1000873c <__aeabi_dadd+0x1d4>
1000873a:	e14c      	b.n	100089d6 <__aeabi_dadd+0x46e>
1000873c:	2001      	movs	r0, #1
1000873e:	4a76      	ldr	r2, [pc, #472]	; (10008918 <__aeabi_dadd+0x3b0>)
10008740:	086b      	lsrs	r3, r5, #1
10008742:	403a      	ands	r2, r7
10008744:	4028      	ands	r0, r5
10008746:	4318      	orrs	r0, r3
10008748:	07d5      	lsls	r5, r2, #31
1000874a:	4305      	orrs	r5, r0
1000874c:	0857      	lsrs	r7, r2, #1
1000874e:	e733      	b.n	100085b8 <__aeabi_dadd+0x50>
10008750:	1c2b      	adds	r3, r5, #0
10008752:	4313      	orrs	r3, r2
10008754:	d048      	beq.n	100087e8 <__aeabi_dadd+0x280>
10008756:	2380      	movs	r3, #128	; 0x80
10008758:	031b      	lsls	r3, r3, #12
1000875a:	431a      	orrs	r2, r3
1000875c:	0312      	lsls	r2, r2, #12
1000875e:	0b12      	lsrs	r2, r2, #12
10008760:	e74e      	b.n	10008600 <__aeabi_dadd+0x98>
10008762:	3801      	subs	r0, #1
10008764:	2800      	cmp	r0, #0
10008766:	d178      	bne.n	1000885a <__aeabi_dadd+0x2f2>
10008768:	4663      	mov	r3, ip
1000876a:	1aee      	subs	r6, r5, r3
1000876c:	42b5      	cmp	r5, r6
1000876e:	419b      	sbcs	r3, r3
10008770:	1a7a      	subs	r2, r7, r1
10008772:	425b      	negs	r3, r3
10008774:	1ad7      	subs	r7, r2, r3
10008776:	1c35      	adds	r5, r6, #0
10008778:	e77a      	b.n	10008670 <__aeabi_dadd+0x108>
1000877a:	1c02      	adds	r2, r0, #0
1000877c:	430a      	orrs	r2, r1
1000877e:	d100      	bne.n	10008782 <__aeabi_dadd+0x21a>
10008780:	e71a      	b.n	100085b8 <__aeabi_dadd+0x50>
10008782:	3b01      	subs	r3, #1
10008784:	2b00      	cmp	r3, #0
10008786:	d000      	beq.n	1000878a <__aeabi_dadd+0x222>
10008788:	e0f2      	b.n	10008970 <__aeabi_dadd+0x408>
1000878a:	1940      	adds	r0, r0, r5
1000878c:	42a8      	cmp	r0, r5
1000878e:	419b      	sbcs	r3, r3
10008790:	19ca      	adds	r2, r1, r7
10008792:	425b      	negs	r3, r3
10008794:	18d7      	adds	r7, r2, r3
10008796:	1c05      	adds	r5, r0, #0
10008798:	e7c9      	b.n	1000872e <__aeabi_dadd+0x1c6>
1000879a:	1c13      	adds	r3, r2, #0
1000879c:	4333      	orrs	r3, r6
1000879e:	d100      	bne.n	100087a2 <__aeabi_dadd+0x23a>
100087a0:	e118      	b.n	100089d4 <__aeabi_dadd+0x46c>
100087a2:	1c17      	adds	r7, r2, #0
100087a4:	1c35      	adds	r5, r6, #0
100087a6:	4646      	mov	r6, r8
100087a8:	076b      	lsls	r3, r5, #29
100087aa:	d000      	beq.n	100087ae <__aeabi_dadd+0x246>
100087ac:	e707      	b.n	100085be <__aeabi_dadd+0x56>
100087ae:	e795      	b.n	100086dc <__aeabi_dadd+0x174>
100087b0:	2800      	cmp	r0, #0
100087b2:	d17a      	bne.n	100088aa <__aeabi_dadd+0x342>
100087b4:	1c62      	adds	r2, r4, #1
100087b6:	0552      	lsls	r2, r2, #21
100087b8:	0d52      	lsrs	r2, r2, #21
100087ba:	2a01      	cmp	r2, #1
100087bc:	dc00      	bgt.n	100087c0 <__aeabi_dadd+0x258>
100087be:	e0fb      	b.n	100089b8 <__aeabi_dadd+0x450>
100087c0:	4662      	mov	r2, ip
100087c2:	1aaa      	subs	r2, r5, r2
100087c4:	4295      	cmp	r5, r2
100087c6:	41b6      	sbcs	r6, r6
100087c8:	4691      	mov	r9, r2
100087ca:	1a78      	subs	r0, r7, r1
100087cc:	4272      	negs	r2, r6
100087ce:	1a86      	subs	r6, r0, r2
100087d0:	0232      	lsls	r2, r6, #8
100087d2:	d400      	bmi.n	100087d6 <__aeabi_dadd+0x26e>
100087d4:	e093      	b.n	100088fe <__aeabi_dadd+0x396>
100087d6:	4662      	mov	r2, ip
100087d8:	1b55      	subs	r5, r2, r5
100087da:	45ac      	cmp	ip, r5
100087dc:	4180      	sbcs	r0, r0
100087de:	1bcf      	subs	r7, r1, r7
100087e0:	4240      	negs	r0, r0
100087e2:	1a3e      	subs	r6, r7, r0
100087e4:	4698      	mov	r8, r3
100087e6:	e748      	b.n	1000867a <__aeabi_dadd+0x112>
100087e8:	2200      	movs	r2, #0
100087ea:	2500      	movs	r5, #0
100087ec:	e708      	b.n	10008600 <__aeabi_dadd+0x98>
100087ee:	1c28      	adds	r0, r5, #0
100087f0:	f7fe ff7e 	bl	100076f0 <__clzsi2>
100087f4:	3020      	adds	r0, #32
100087f6:	1c03      	adds	r3, r0, #0
100087f8:	3b08      	subs	r3, #8
100087fa:	2b1f      	cmp	r3, #31
100087fc:	dc00      	bgt.n	10008800 <__aeabi_dadd+0x298>
100087fe:	e747      	b.n	10008690 <__aeabi_dadd+0x128>
10008800:	3828      	subs	r0, #40	; 0x28
10008802:	4085      	lsls	r5, r0
10008804:	1c2e      	adds	r6, r5, #0
10008806:	2500      	movs	r5, #0
10008808:	429c      	cmp	r4, r3
1000880a:	dc00      	bgt.n	1000880e <__aeabi_dadd+0x2a6>
1000880c:	e74c      	b.n	100086a8 <__aeabi_dadd+0x140>
1000880e:	4a42      	ldr	r2, [pc, #264]	; (10008918 <__aeabi_dadd+0x3b0>)
10008810:	1ae4      	subs	r4, r4, r3
10008812:	4016      	ands	r6, r2
10008814:	1c37      	adds	r7, r6, #0
10008816:	e6cf      	b.n	100085b8 <__aeabi_dadd+0x50>
10008818:	4663      	mov	r3, ip
1000881a:	4319      	orrs	r1, r3
1000881c:	1e4b      	subs	r3, r1, #1
1000881e:	4199      	sbcs	r1, r3
10008820:	2200      	movs	r2, #0
10008822:	b2cb      	uxtb	r3, r1
10008824:	e71d      	b.n	10008662 <__aeabi_dadd+0xfa>
10008826:	2b00      	cmp	r3, #0
10008828:	d000      	beq.n	1000882c <__aeabi_dadd+0x2c4>
1000882a:	e0f2      	b.n	10008a12 <__aeabi_dadd+0x4aa>
1000882c:	1c60      	adds	r0, r4, #1
1000882e:	0543      	lsls	r3, r0, #21
10008830:	0d5b      	lsrs	r3, r3, #21
10008832:	2b01      	cmp	r3, #1
10008834:	dc00      	bgt.n	10008838 <__aeabi_dadd+0x2d0>
10008836:	e0a4      	b.n	10008982 <__aeabi_dadd+0x41a>
10008838:	4b36      	ldr	r3, [pc, #216]	; (10008914 <__aeabi_dadd+0x3ac>)
1000883a:	4298      	cmp	r0, r3
1000883c:	d100      	bne.n	10008840 <__aeabi_dadd+0x2d8>
1000883e:	e121      	b.n	10008a84 <__aeabi_dadd+0x51c>
10008840:	4663      	mov	r3, ip
10008842:	195c      	adds	r4, r3, r5
10008844:	42ac      	cmp	r4, r5
10008846:	419b      	sbcs	r3, r3
10008848:	19cf      	adds	r7, r1, r7
1000884a:	425b      	negs	r3, r3
1000884c:	18fa      	adds	r2, r7, r3
1000884e:	0864      	lsrs	r4, r4, #1
10008850:	07d5      	lsls	r5, r2, #31
10008852:	4325      	orrs	r5, r4
10008854:	0857      	lsrs	r7, r2, #1
10008856:	1c04      	adds	r4, r0, #0
10008858:	e6ae      	b.n	100085b8 <__aeabi_dadd+0x50>
1000885a:	4b2e      	ldr	r3, [pc, #184]	; (10008914 <__aeabi_dadd+0x3ac>)
1000885c:	429c      	cmp	r4, r3
1000885e:	d000      	beq.n	10008862 <__aeabi_dadd+0x2fa>
10008860:	e6ea      	b.n	10008638 <__aeabi_dadd+0xd0>
10008862:	e6a9      	b.n	100085b8 <__aeabi_dadd+0x50>
10008864:	1c21      	adds	r1, r4, #0
10008866:	1c33      	adds	r3, r6, #0
10008868:	391f      	subs	r1, #31
1000886a:	40cb      	lsrs	r3, r1
1000886c:	1c19      	adds	r1, r3, #0
1000886e:	2a20      	cmp	r2, #32
10008870:	d100      	bne.n	10008874 <__aeabi_dadd+0x30c>
10008872:	e082      	b.n	1000897a <__aeabi_dadd+0x412>
10008874:	233f      	movs	r3, #63	; 0x3f
10008876:	1b1c      	subs	r4, r3, r4
10008878:	40a6      	lsls	r6, r4
1000887a:	4335      	orrs	r5, r6
1000887c:	1e6e      	subs	r6, r5, #1
1000887e:	41b5      	sbcs	r5, r6
10008880:	2700      	movs	r7, #0
10008882:	430d      	orrs	r5, r1
10008884:	2400      	movs	r4, #0
10008886:	e78e      	b.n	100087a6 <__aeabi_dadd+0x23e>
10008888:	1c03      	adds	r3, r0, #0
1000888a:	1c0e      	adds	r6, r1, #0
1000888c:	3b20      	subs	r3, #32
1000888e:	40de      	lsrs	r6, r3
10008890:	2820      	cmp	r0, #32
10008892:	d074      	beq.n	1000897e <__aeabi_dadd+0x416>
10008894:	2340      	movs	r3, #64	; 0x40
10008896:	1a1b      	subs	r3, r3, r0
10008898:	4099      	lsls	r1, r3
1000889a:	1c0b      	adds	r3, r1, #0
1000889c:	4662      	mov	r2, ip
1000889e:	4313      	orrs	r3, r2
100088a0:	1e59      	subs	r1, r3, #1
100088a2:	418b      	sbcs	r3, r1
100088a4:	2200      	movs	r2, #0
100088a6:	4333      	orrs	r3, r6
100088a8:	e6db      	b.n	10008662 <__aeabi_dadd+0xfa>
100088aa:	2c00      	cmp	r4, #0
100088ac:	d050      	beq.n	10008950 <__aeabi_dadd+0x3e8>
100088ae:	4c19      	ldr	r4, [pc, #100]	; (10008914 <__aeabi_dadd+0x3ac>)
100088b0:	42a2      	cmp	r2, r4
100088b2:	d100      	bne.n	100088b6 <__aeabi_dadd+0x34e>
100088b4:	e0a8      	b.n	10008a08 <__aeabi_dadd+0x4a0>
100088b6:	2480      	movs	r4, #128	; 0x80
100088b8:	0424      	lsls	r4, r4, #16
100088ba:	4240      	negs	r0, r0
100088bc:	4327      	orrs	r7, r4
100088be:	2838      	cmp	r0, #56	; 0x38
100088c0:	dd00      	ble.n	100088c4 <__aeabi_dadd+0x35c>
100088c2:	e0d9      	b.n	10008a78 <__aeabi_dadd+0x510>
100088c4:	281f      	cmp	r0, #31
100088c6:	dd00      	ble.n	100088ca <__aeabi_dadd+0x362>
100088c8:	e139      	b.n	10008b3e <__aeabi_dadd+0x5d6>
100088ca:	2420      	movs	r4, #32
100088cc:	1c3e      	adds	r6, r7, #0
100088ce:	1a24      	subs	r4, r4, r0
100088d0:	40a6      	lsls	r6, r4
100088d2:	46b0      	mov	r8, r6
100088d4:	1c2e      	adds	r6, r5, #0
100088d6:	46a1      	mov	r9, r4
100088d8:	40c6      	lsrs	r6, r0
100088da:	4644      	mov	r4, r8
100088dc:	4326      	orrs	r6, r4
100088de:	464c      	mov	r4, r9
100088e0:	40a5      	lsls	r5, r4
100088e2:	1e6c      	subs	r4, r5, #1
100088e4:	41a5      	sbcs	r5, r4
100088e6:	40c7      	lsrs	r7, r0
100088e8:	4335      	orrs	r5, r6
100088ea:	4660      	mov	r0, ip
100088ec:	1b45      	subs	r5, r0, r5
100088ee:	1bcf      	subs	r7, r1, r7
100088f0:	45ac      	cmp	ip, r5
100088f2:	4189      	sbcs	r1, r1
100088f4:	4249      	negs	r1, r1
100088f6:	1a7f      	subs	r7, r7, r1
100088f8:	1c14      	adds	r4, r2, #0
100088fa:	4698      	mov	r8, r3
100088fc:	e6b8      	b.n	10008670 <__aeabi_dadd+0x108>
100088fe:	464b      	mov	r3, r9
10008900:	464d      	mov	r5, r9
10008902:	4333      	orrs	r3, r6
10008904:	d000      	beq.n	10008908 <__aeabi_dadd+0x3a0>
10008906:	e6b8      	b.n	1000867a <__aeabi_dadd+0x112>
10008908:	2600      	movs	r6, #0
1000890a:	2700      	movs	r7, #0
1000890c:	2400      	movs	r4, #0
1000890e:	2500      	movs	r5, #0
10008910:	e6e4      	b.n	100086dc <__aeabi_dadd+0x174>
10008912:	46c0      	nop			; (mov r8, r8)
10008914:	000007ff 	.word	0x000007ff
10008918:	ff7fffff 	.word	0xff7fffff
1000891c:	800fffff 	.word	0x800fffff
10008920:	2b1f      	cmp	r3, #31
10008922:	dc5b      	bgt.n	100089dc <__aeabi_dadd+0x474>
10008924:	2220      	movs	r2, #32
10008926:	1c08      	adds	r0, r1, #0
10008928:	1ad2      	subs	r2, r2, r3
1000892a:	4090      	lsls	r0, r2
1000892c:	4681      	mov	r9, r0
1000892e:	4660      	mov	r0, ip
10008930:	4692      	mov	sl, r2
10008932:	40d8      	lsrs	r0, r3
10008934:	464a      	mov	r2, r9
10008936:	4310      	orrs	r0, r2
10008938:	4681      	mov	r9, r0
1000893a:	4652      	mov	r2, sl
1000893c:	4660      	mov	r0, ip
1000893e:	4090      	lsls	r0, r2
10008940:	1c02      	adds	r2, r0, #0
10008942:	1e50      	subs	r0, r2, #1
10008944:	4182      	sbcs	r2, r0
10008946:	4648      	mov	r0, r9
10008948:	4310      	orrs	r0, r2
1000894a:	1c0a      	adds	r2, r1, #0
1000894c:	40da      	lsrs	r2, r3
1000894e:	e6e7      	b.n	10008720 <__aeabi_dadd+0x1b8>
10008950:	1c3c      	adds	r4, r7, #0
10008952:	432c      	orrs	r4, r5
10008954:	d058      	beq.n	10008a08 <__aeabi_dadd+0x4a0>
10008956:	43c0      	mvns	r0, r0
10008958:	2800      	cmp	r0, #0
1000895a:	d151      	bne.n	10008a00 <__aeabi_dadd+0x498>
1000895c:	4660      	mov	r0, ip
1000895e:	1b45      	subs	r5, r0, r5
10008960:	45ac      	cmp	ip, r5
10008962:	4180      	sbcs	r0, r0
10008964:	1bcf      	subs	r7, r1, r7
10008966:	4240      	negs	r0, r0
10008968:	1a3f      	subs	r7, r7, r0
1000896a:	1c14      	adds	r4, r2, #0
1000896c:	4698      	mov	r8, r3
1000896e:	e67f      	b.n	10008670 <__aeabi_dadd+0x108>
10008970:	4a8f      	ldr	r2, [pc, #572]	; (10008bb0 <__aeabi_dadd+0x648>)
10008972:	4294      	cmp	r4, r2
10008974:	d000      	beq.n	10008978 <__aeabi_dadd+0x410>
10008976:	e6ca      	b.n	1000870e <__aeabi_dadd+0x1a6>
10008978:	e61e      	b.n	100085b8 <__aeabi_dadd+0x50>
1000897a:	2600      	movs	r6, #0
1000897c:	e77d      	b.n	1000887a <__aeabi_dadd+0x312>
1000897e:	2300      	movs	r3, #0
10008980:	e78c      	b.n	1000889c <__aeabi_dadd+0x334>
10008982:	1c3b      	adds	r3, r7, #0
10008984:	432b      	orrs	r3, r5
10008986:	2c00      	cmp	r4, #0
10008988:	d000      	beq.n	1000898c <__aeabi_dadd+0x424>
1000898a:	e0bd      	b.n	10008b08 <__aeabi_dadd+0x5a0>
1000898c:	2b00      	cmp	r3, #0
1000898e:	d100      	bne.n	10008992 <__aeabi_dadd+0x42a>
10008990:	e0f5      	b.n	10008b7e <__aeabi_dadd+0x616>
10008992:	4663      	mov	r3, ip
10008994:	430b      	orrs	r3, r1
10008996:	d100      	bne.n	1000899a <__aeabi_dadd+0x432>
10008998:	e60e      	b.n	100085b8 <__aeabi_dadd+0x50>
1000899a:	4663      	mov	r3, ip
1000899c:	195b      	adds	r3, r3, r5
1000899e:	42ab      	cmp	r3, r5
100089a0:	4180      	sbcs	r0, r0
100089a2:	19ca      	adds	r2, r1, r7
100089a4:	4240      	negs	r0, r0
100089a6:	1817      	adds	r7, r2, r0
100089a8:	023a      	lsls	r2, r7, #8
100089aa:	d400      	bmi.n	100089ae <__aeabi_dadd+0x446>
100089ac:	e0fc      	b.n	10008ba8 <__aeabi_dadd+0x640>
100089ae:	4a81      	ldr	r2, [pc, #516]	; (10008bb4 <__aeabi_dadd+0x64c>)
100089b0:	1c1d      	adds	r5, r3, #0
100089b2:	4017      	ands	r7, r2
100089b4:	3401      	adds	r4, #1
100089b6:	e5ff      	b.n	100085b8 <__aeabi_dadd+0x50>
100089b8:	1c3a      	adds	r2, r7, #0
100089ba:	432a      	orrs	r2, r5
100089bc:	2c00      	cmp	r4, #0
100089be:	d151      	bne.n	10008a64 <__aeabi_dadd+0x4fc>
100089c0:	2a00      	cmp	r2, #0
100089c2:	d000      	beq.n	100089c6 <__aeabi_dadd+0x45e>
100089c4:	e085      	b.n	10008ad2 <__aeabi_dadd+0x56a>
100089c6:	4662      	mov	r2, ip
100089c8:	430a      	orrs	r2, r1
100089ca:	d003      	beq.n	100089d4 <__aeabi_dadd+0x46c>
100089cc:	1c0f      	adds	r7, r1, #0
100089ce:	4665      	mov	r5, ip
100089d0:	4698      	mov	r8, r3
100089d2:	e5f1      	b.n	100085b8 <__aeabi_dadd+0x50>
100089d4:	2600      	movs	r6, #0
100089d6:	2700      	movs	r7, #0
100089d8:	2500      	movs	r5, #0
100089da:	e67f      	b.n	100086dc <__aeabi_dadd+0x174>
100089dc:	1c18      	adds	r0, r3, #0
100089de:	1c0a      	adds	r2, r1, #0
100089e0:	3820      	subs	r0, #32
100089e2:	40c2      	lsrs	r2, r0
100089e4:	2b20      	cmp	r3, #32
100089e6:	d100      	bne.n	100089ea <__aeabi_dadd+0x482>
100089e8:	e0a7      	b.n	10008b3a <__aeabi_dadd+0x5d2>
100089ea:	2040      	movs	r0, #64	; 0x40
100089ec:	1ac0      	subs	r0, r0, r3
100089ee:	4081      	lsls	r1, r0
100089f0:	1c08      	adds	r0, r1, #0
100089f2:	4663      	mov	r3, ip
100089f4:	4318      	orrs	r0, r3
100089f6:	1e41      	subs	r1, r0, #1
100089f8:	4188      	sbcs	r0, r1
100089fa:	4310      	orrs	r0, r2
100089fc:	2200      	movs	r2, #0
100089fe:	e68f      	b.n	10008720 <__aeabi_dadd+0x1b8>
10008a00:	4c6b      	ldr	r4, [pc, #428]	; (10008bb0 <__aeabi_dadd+0x648>)
10008a02:	42a2      	cmp	r2, r4
10008a04:	d000      	beq.n	10008a08 <__aeabi_dadd+0x4a0>
10008a06:	e75a      	b.n	100088be <__aeabi_dadd+0x356>
10008a08:	1c0f      	adds	r7, r1, #0
10008a0a:	4665      	mov	r5, ip
10008a0c:	1c14      	adds	r4, r2, #0
10008a0e:	4698      	mov	r8, r3
10008a10:	e5d2      	b.n	100085b8 <__aeabi_dadd+0x50>
10008a12:	2c00      	cmp	r4, #0
10008a14:	d13a      	bne.n	10008a8c <__aeabi_dadd+0x524>
10008a16:	1c38      	adds	r0, r7, #0
10008a18:	4328      	orrs	r0, r5
10008a1a:	d071      	beq.n	10008b00 <__aeabi_dadd+0x598>
10008a1c:	43db      	mvns	r3, r3
10008a1e:	2b00      	cmp	r3, #0
10008a20:	d018      	beq.n	10008a54 <__aeabi_dadd+0x4ec>
10008a22:	4863      	ldr	r0, [pc, #396]	; (10008bb0 <__aeabi_dadd+0x648>)
10008a24:	4282      	cmp	r2, r0
10008a26:	d06b      	beq.n	10008b00 <__aeabi_dadd+0x598>
10008a28:	2b38      	cmp	r3, #56	; 0x38
10008a2a:	dd00      	ble.n	10008a2e <__aeabi_dadd+0x4c6>
10008a2c:	e09d      	b.n	10008b6a <__aeabi_dadd+0x602>
10008a2e:	2b1f      	cmp	r3, #31
10008a30:	dd00      	ble.n	10008a34 <__aeabi_dadd+0x4cc>
10008a32:	e0a7      	b.n	10008b84 <__aeabi_dadd+0x61c>
10008a34:	2020      	movs	r0, #32
10008a36:	1c3c      	adds	r4, r7, #0
10008a38:	1ac0      	subs	r0, r0, r3
10008a3a:	4084      	lsls	r4, r0
10008a3c:	46a1      	mov	r9, r4
10008a3e:	1c2c      	adds	r4, r5, #0
10008a40:	4682      	mov	sl, r0
10008a42:	40dc      	lsrs	r4, r3
10008a44:	4648      	mov	r0, r9
10008a46:	4304      	orrs	r4, r0
10008a48:	4650      	mov	r0, sl
10008a4a:	4085      	lsls	r5, r0
10008a4c:	1e68      	subs	r0, r5, #1
10008a4e:	4185      	sbcs	r5, r0
10008a50:	40df      	lsrs	r7, r3
10008a52:	4325      	orrs	r5, r4
10008a54:	4465      	add	r5, ip
10008a56:	4565      	cmp	r5, ip
10008a58:	419b      	sbcs	r3, r3
10008a5a:	187f      	adds	r7, r7, r1
10008a5c:	425b      	negs	r3, r3
10008a5e:	18ff      	adds	r7, r7, r3
10008a60:	1c14      	adds	r4, r2, #0
10008a62:	e664      	b.n	1000872e <__aeabi_dadd+0x1c6>
10008a64:	2a00      	cmp	r2, #0
10008a66:	d119      	bne.n	10008a9c <__aeabi_dadd+0x534>
10008a68:	4662      	mov	r2, ip
10008a6a:	430a      	orrs	r2, r1
10008a6c:	d077      	beq.n	10008b5e <__aeabi_dadd+0x5f6>
10008a6e:	1c0f      	adds	r7, r1, #0
10008a70:	4665      	mov	r5, ip
10008a72:	4698      	mov	r8, r3
10008a74:	4c4e      	ldr	r4, [pc, #312]	; (10008bb0 <__aeabi_dadd+0x648>)
10008a76:	e59f      	b.n	100085b8 <__aeabi_dadd+0x50>
10008a78:	433d      	orrs	r5, r7
10008a7a:	1e6f      	subs	r7, r5, #1
10008a7c:	41bd      	sbcs	r5, r7
10008a7e:	2700      	movs	r7, #0
10008a80:	b2ed      	uxtb	r5, r5
10008a82:	e732      	b.n	100088ea <__aeabi_dadd+0x382>
10008a84:	1c04      	adds	r4, r0, #0
10008a86:	2700      	movs	r7, #0
10008a88:	2500      	movs	r5, #0
10008a8a:	e627      	b.n	100086dc <__aeabi_dadd+0x174>
10008a8c:	4848      	ldr	r0, [pc, #288]	; (10008bb0 <__aeabi_dadd+0x648>)
10008a8e:	4282      	cmp	r2, r0
10008a90:	d036      	beq.n	10008b00 <__aeabi_dadd+0x598>
10008a92:	2080      	movs	r0, #128	; 0x80
10008a94:	0400      	lsls	r0, r0, #16
10008a96:	425b      	negs	r3, r3
10008a98:	4307      	orrs	r7, r0
10008a9a:	e7c5      	b.n	10008a28 <__aeabi_dadd+0x4c0>
10008a9c:	4662      	mov	r2, ip
10008a9e:	430a      	orrs	r2, r1
10008aa0:	d049      	beq.n	10008b36 <__aeabi_dadd+0x5ce>
10008aa2:	2480      	movs	r4, #128	; 0x80
10008aa4:	08ed      	lsrs	r5, r5, #3
10008aa6:	0778      	lsls	r0, r7, #29
10008aa8:	08fa      	lsrs	r2, r7, #3
10008aaa:	0324      	lsls	r4, r4, #12
10008aac:	4328      	orrs	r0, r5
10008aae:	4222      	tst	r2, r4
10008ab0:	d009      	beq.n	10008ac6 <__aeabi_dadd+0x55e>
10008ab2:	08ce      	lsrs	r6, r1, #3
10008ab4:	4226      	tst	r6, r4
10008ab6:	d106      	bne.n	10008ac6 <__aeabi_dadd+0x55e>
10008ab8:	4662      	mov	r2, ip
10008aba:	074f      	lsls	r7, r1, #29
10008abc:	1c38      	adds	r0, r7, #0
10008abe:	08d2      	lsrs	r2, r2, #3
10008ac0:	4310      	orrs	r0, r2
10008ac2:	4698      	mov	r8, r3
10008ac4:	1c32      	adds	r2, r6, #0
10008ac6:	00d2      	lsls	r2, r2, #3
10008ac8:	0f47      	lsrs	r7, r0, #29
10008aca:	4317      	orrs	r7, r2
10008acc:	00c5      	lsls	r5, r0, #3
10008ace:	4c38      	ldr	r4, [pc, #224]	; (10008bb0 <__aeabi_dadd+0x648>)
10008ad0:	e572      	b.n	100085b8 <__aeabi_dadd+0x50>
10008ad2:	4662      	mov	r2, ip
10008ad4:	430a      	orrs	r2, r1
10008ad6:	d100      	bne.n	10008ada <__aeabi_dadd+0x572>
10008ad8:	e56e      	b.n	100085b8 <__aeabi_dadd+0x50>
10008ada:	4662      	mov	r2, ip
10008adc:	1aae      	subs	r6, r5, r2
10008ade:	42b5      	cmp	r5, r6
10008ae0:	4192      	sbcs	r2, r2
10008ae2:	1a78      	subs	r0, r7, r1
10008ae4:	4252      	negs	r2, r2
10008ae6:	1a82      	subs	r2, r0, r2
10008ae8:	0210      	lsls	r0, r2, #8
10008aea:	d400      	bmi.n	10008aee <__aeabi_dadd+0x586>
10008aec:	e655      	b.n	1000879a <__aeabi_dadd+0x232>
10008aee:	4662      	mov	r2, ip
10008af0:	1b55      	subs	r5, r2, r5
10008af2:	45ac      	cmp	ip, r5
10008af4:	4180      	sbcs	r0, r0
10008af6:	1bca      	subs	r2, r1, r7
10008af8:	4240      	negs	r0, r0
10008afa:	1a17      	subs	r7, r2, r0
10008afc:	4698      	mov	r8, r3
10008afe:	e55b      	b.n	100085b8 <__aeabi_dadd+0x50>
10008b00:	1c0f      	adds	r7, r1, #0
10008b02:	4665      	mov	r5, ip
10008b04:	1c14      	adds	r4, r2, #0
10008b06:	e557      	b.n	100085b8 <__aeabi_dadd+0x50>
10008b08:	2b00      	cmp	r3, #0
10008b0a:	d034      	beq.n	10008b76 <__aeabi_dadd+0x60e>
10008b0c:	4663      	mov	r3, ip
10008b0e:	430b      	orrs	r3, r1
10008b10:	d011      	beq.n	10008b36 <__aeabi_dadd+0x5ce>
10008b12:	2480      	movs	r4, #128	; 0x80
10008b14:	08ed      	lsrs	r5, r5, #3
10008b16:	0778      	lsls	r0, r7, #29
10008b18:	08fa      	lsrs	r2, r7, #3
10008b1a:	0324      	lsls	r4, r4, #12
10008b1c:	4328      	orrs	r0, r5
10008b1e:	4222      	tst	r2, r4
10008b20:	d0d1      	beq.n	10008ac6 <__aeabi_dadd+0x55e>
10008b22:	08cb      	lsrs	r3, r1, #3
10008b24:	4223      	tst	r3, r4
10008b26:	d1ce      	bne.n	10008ac6 <__aeabi_dadd+0x55e>
10008b28:	4662      	mov	r2, ip
10008b2a:	074f      	lsls	r7, r1, #29
10008b2c:	1c38      	adds	r0, r7, #0
10008b2e:	08d2      	lsrs	r2, r2, #3
10008b30:	4310      	orrs	r0, r2
10008b32:	1c1a      	adds	r2, r3, #0
10008b34:	e7c7      	b.n	10008ac6 <__aeabi_dadd+0x55e>
10008b36:	4c1e      	ldr	r4, [pc, #120]	; (10008bb0 <__aeabi_dadd+0x648>)
10008b38:	e53e      	b.n	100085b8 <__aeabi_dadd+0x50>
10008b3a:	2000      	movs	r0, #0
10008b3c:	e759      	b.n	100089f2 <__aeabi_dadd+0x48a>
10008b3e:	1c04      	adds	r4, r0, #0
10008b40:	1c3e      	adds	r6, r7, #0
10008b42:	3c20      	subs	r4, #32
10008b44:	40e6      	lsrs	r6, r4
10008b46:	1c34      	adds	r4, r6, #0
10008b48:	2820      	cmp	r0, #32
10008b4a:	d02b      	beq.n	10008ba4 <__aeabi_dadd+0x63c>
10008b4c:	2640      	movs	r6, #64	; 0x40
10008b4e:	1a30      	subs	r0, r6, r0
10008b50:	4087      	lsls	r7, r0
10008b52:	433d      	orrs	r5, r7
10008b54:	1e6f      	subs	r7, r5, #1
10008b56:	41bd      	sbcs	r5, r7
10008b58:	2700      	movs	r7, #0
10008b5a:	4325      	orrs	r5, r4
10008b5c:	e6c5      	b.n	100088ea <__aeabi_dadd+0x382>
10008b5e:	2780      	movs	r7, #128	; 0x80
10008b60:	2600      	movs	r6, #0
10008b62:	03ff      	lsls	r7, r7, #15
10008b64:	4c12      	ldr	r4, [pc, #72]	; (10008bb0 <__aeabi_dadd+0x648>)
10008b66:	2500      	movs	r5, #0
10008b68:	e5b8      	b.n	100086dc <__aeabi_dadd+0x174>
10008b6a:	433d      	orrs	r5, r7
10008b6c:	1e6f      	subs	r7, r5, #1
10008b6e:	41bd      	sbcs	r5, r7
10008b70:	2700      	movs	r7, #0
10008b72:	b2ed      	uxtb	r5, r5
10008b74:	e76e      	b.n	10008a54 <__aeabi_dadd+0x4ec>
10008b76:	1c0f      	adds	r7, r1, #0
10008b78:	4665      	mov	r5, ip
10008b7a:	4c0d      	ldr	r4, [pc, #52]	; (10008bb0 <__aeabi_dadd+0x648>)
10008b7c:	e51c      	b.n	100085b8 <__aeabi_dadd+0x50>
10008b7e:	1c0f      	adds	r7, r1, #0
10008b80:	4665      	mov	r5, ip
10008b82:	e519      	b.n	100085b8 <__aeabi_dadd+0x50>
10008b84:	1c1c      	adds	r4, r3, #0
10008b86:	1c38      	adds	r0, r7, #0
10008b88:	3c20      	subs	r4, #32
10008b8a:	40e0      	lsrs	r0, r4
10008b8c:	1c04      	adds	r4, r0, #0
10008b8e:	2b20      	cmp	r3, #32
10008b90:	d00c      	beq.n	10008bac <__aeabi_dadd+0x644>
10008b92:	2040      	movs	r0, #64	; 0x40
10008b94:	1ac3      	subs	r3, r0, r3
10008b96:	409f      	lsls	r7, r3
10008b98:	433d      	orrs	r5, r7
10008b9a:	1e6f      	subs	r7, r5, #1
10008b9c:	41bd      	sbcs	r5, r7
10008b9e:	2700      	movs	r7, #0
10008ba0:	4325      	orrs	r5, r4
10008ba2:	e757      	b.n	10008a54 <__aeabi_dadd+0x4ec>
10008ba4:	2700      	movs	r7, #0
10008ba6:	e7d4      	b.n	10008b52 <__aeabi_dadd+0x5ea>
10008ba8:	1c1d      	adds	r5, r3, #0
10008baa:	e5fc      	b.n	100087a6 <__aeabi_dadd+0x23e>
10008bac:	2700      	movs	r7, #0
10008bae:	e7f3      	b.n	10008b98 <__aeabi_dadd+0x630>
10008bb0:	000007ff 	.word	0x000007ff
10008bb4:	ff7fffff 	.word	0xff7fffff

10008bb8 <__aeabi_ddiv>:
10008bb8:	b5f0      	push	{r4, r5, r6, r7, lr}
10008bba:	465f      	mov	r7, fp
10008bbc:	4656      	mov	r6, sl
10008bbe:	464d      	mov	r5, r9
10008bc0:	4644      	mov	r4, r8
10008bc2:	b4f0      	push	{r4, r5, r6, r7}
10008bc4:	030f      	lsls	r7, r1, #12
10008bc6:	b087      	sub	sp, #28
10008bc8:	4698      	mov	r8, r3
10008bca:	004d      	lsls	r5, r1, #1
10008bcc:	0b3b      	lsrs	r3, r7, #12
10008bce:	0fcc      	lsrs	r4, r1, #31
10008bd0:	1c06      	adds	r6, r0, #0
10008bd2:	4692      	mov	sl, r2
10008bd4:	4681      	mov	r9, r0
10008bd6:	469b      	mov	fp, r3
10008bd8:	0d6d      	lsrs	r5, r5, #21
10008bda:	9401      	str	r4, [sp, #4]
10008bdc:	d06b      	beq.n	10008cb6 <__aeabi_ddiv+0xfe>
10008bde:	4b66      	ldr	r3, [pc, #408]	; (10008d78 <__aeabi_ddiv+0x1c0>)
10008be0:	429d      	cmp	r5, r3
10008be2:	d035      	beq.n	10008c50 <__aeabi_ddiv+0x98>
10008be4:	2780      	movs	r7, #128	; 0x80
10008be6:	465b      	mov	r3, fp
10008be8:	037f      	lsls	r7, r7, #13
10008bea:	431f      	orrs	r7, r3
10008bec:	00f3      	lsls	r3, r6, #3
10008bee:	4699      	mov	r9, r3
10008bf0:	4b62      	ldr	r3, [pc, #392]	; (10008d7c <__aeabi_ddiv+0x1c4>)
10008bf2:	00ff      	lsls	r7, r7, #3
10008bf4:	0f40      	lsrs	r0, r0, #29
10008bf6:	469c      	mov	ip, r3
10008bf8:	4307      	orrs	r7, r0
10008bfa:	2300      	movs	r3, #0
10008bfc:	46bb      	mov	fp, r7
10008bfe:	2600      	movs	r6, #0
10008c00:	4465      	add	r5, ip
10008c02:	9300      	str	r3, [sp, #0]
10008c04:	4642      	mov	r2, r8
10008c06:	0317      	lsls	r7, r2, #12
10008c08:	0050      	lsls	r0, r2, #1
10008c0a:	0fd2      	lsrs	r2, r2, #31
10008c0c:	4653      	mov	r3, sl
10008c0e:	0b3f      	lsrs	r7, r7, #12
10008c10:	0d40      	lsrs	r0, r0, #21
10008c12:	4690      	mov	r8, r2
10008c14:	d100      	bne.n	10008c18 <__aeabi_ddiv+0x60>
10008c16:	e072      	b.n	10008cfe <__aeabi_ddiv+0x146>
10008c18:	4a57      	ldr	r2, [pc, #348]	; (10008d78 <__aeabi_ddiv+0x1c0>)
10008c1a:	4290      	cmp	r0, r2
10008c1c:	d067      	beq.n	10008cee <__aeabi_ddiv+0x136>
10008c1e:	2380      	movs	r3, #128	; 0x80
10008c20:	035b      	lsls	r3, r3, #13
10008c22:	431f      	orrs	r7, r3
10008c24:	4653      	mov	r3, sl
10008c26:	4a55      	ldr	r2, [pc, #340]	; (10008d7c <__aeabi_ddiv+0x1c4>)
10008c28:	0f5b      	lsrs	r3, r3, #29
10008c2a:	00ff      	lsls	r7, r7, #3
10008c2c:	431f      	orrs	r7, r3
10008c2e:	4694      	mov	ip, r2
10008c30:	4653      	mov	r3, sl
10008c32:	2100      	movs	r1, #0
10008c34:	00db      	lsls	r3, r3, #3
10008c36:	4460      	add	r0, ip
10008c38:	4642      	mov	r2, r8
10008c3a:	4062      	eors	r2, r4
10008c3c:	4692      	mov	sl, r2
10008c3e:	1a2d      	subs	r5, r5, r0
10008c40:	430e      	orrs	r6, r1
10008c42:	2e0f      	cmp	r6, #15
10008c44:	d900      	bls.n	10008c48 <__aeabi_ddiv+0x90>
10008c46:	e0a1      	b.n	10008d8c <__aeabi_ddiv+0x1d4>
10008c48:	484d      	ldr	r0, [pc, #308]	; (10008d80 <__aeabi_ddiv+0x1c8>)
10008c4a:	00b6      	lsls	r6, r6, #2
10008c4c:	5980      	ldr	r0, [r0, r6]
10008c4e:	4687      	mov	pc, r0
10008c50:	465b      	mov	r3, fp
10008c52:	431e      	orrs	r6, r3
10008c54:	d000      	beq.n	10008c58 <__aeabi_ddiv+0xa0>
10008c56:	e076      	b.n	10008d46 <__aeabi_ddiv+0x18e>
10008c58:	2300      	movs	r3, #0
10008c5a:	469b      	mov	fp, r3
10008c5c:	4699      	mov	r9, r3
10008c5e:	3302      	adds	r3, #2
10008c60:	2608      	movs	r6, #8
10008c62:	9300      	str	r3, [sp, #0]
10008c64:	e7ce      	b.n	10008c04 <__aeabi_ddiv+0x4c>
10008c66:	4699      	mov	r9, r3
10008c68:	4643      	mov	r3, r8
10008c6a:	46bb      	mov	fp, r7
10008c6c:	9301      	str	r3, [sp, #4]
10008c6e:	9100      	str	r1, [sp, #0]
10008c70:	9b00      	ldr	r3, [sp, #0]
10008c72:	2b02      	cmp	r3, #2
10008c74:	d16b      	bne.n	10008d4e <__aeabi_ddiv+0x196>
10008c76:	9b01      	ldr	r3, [sp, #4]
10008c78:	469a      	mov	sl, r3
10008c7a:	2100      	movs	r1, #0
10008c7c:	4653      	mov	r3, sl
10008c7e:	2201      	movs	r2, #1
10008c80:	2700      	movs	r7, #0
10008c82:	4689      	mov	r9, r1
10008c84:	401a      	ands	r2, r3
10008c86:	4b3c      	ldr	r3, [pc, #240]	; (10008d78 <__aeabi_ddiv+0x1c0>)
10008c88:	2100      	movs	r1, #0
10008c8a:	033f      	lsls	r7, r7, #12
10008c8c:	0d0c      	lsrs	r4, r1, #20
10008c8e:	0524      	lsls	r4, r4, #20
10008c90:	0b3f      	lsrs	r7, r7, #12
10008c92:	4327      	orrs	r7, r4
10008c94:	4c3b      	ldr	r4, [pc, #236]	; (10008d84 <__aeabi_ddiv+0x1cc>)
10008c96:	051b      	lsls	r3, r3, #20
10008c98:	4027      	ands	r7, r4
10008c9a:	431f      	orrs	r7, r3
10008c9c:	007f      	lsls	r7, r7, #1
10008c9e:	07d2      	lsls	r2, r2, #31
10008ca0:	087f      	lsrs	r7, r7, #1
10008ca2:	4317      	orrs	r7, r2
10008ca4:	4648      	mov	r0, r9
10008ca6:	1c39      	adds	r1, r7, #0
10008ca8:	b007      	add	sp, #28
10008caa:	bc3c      	pop	{r2, r3, r4, r5}
10008cac:	4690      	mov	r8, r2
10008cae:	4699      	mov	r9, r3
10008cb0:	46a2      	mov	sl, r4
10008cb2:	46ab      	mov	fp, r5
10008cb4:	bdf0      	pop	{r4, r5, r6, r7, pc}
10008cb6:	4303      	orrs	r3, r0
10008cb8:	d03e      	beq.n	10008d38 <__aeabi_ddiv+0x180>
10008cba:	465b      	mov	r3, fp
10008cbc:	2b00      	cmp	r3, #0
10008cbe:	d100      	bne.n	10008cc2 <__aeabi_ddiv+0x10a>
10008cc0:	e19c      	b.n	10008ffc <__aeabi_ddiv+0x444>
10008cc2:	4658      	mov	r0, fp
10008cc4:	f7fe fd14 	bl	100076f0 <__clzsi2>
10008cc8:	2328      	movs	r3, #40	; 0x28
10008cca:	1c31      	adds	r1, r6, #0
10008ccc:	1a1b      	subs	r3, r3, r0
10008cce:	1c02      	adds	r2, r0, #0
10008cd0:	465f      	mov	r7, fp
10008cd2:	40d9      	lsrs	r1, r3
10008cd4:	3a08      	subs	r2, #8
10008cd6:	4097      	lsls	r7, r2
10008cd8:	1c0b      	adds	r3, r1, #0
10008cda:	4096      	lsls	r6, r2
10008cdc:	433b      	orrs	r3, r7
10008cde:	469b      	mov	fp, r3
10008ce0:	46b1      	mov	r9, r6
10008ce2:	2300      	movs	r3, #0
10008ce4:	4d28      	ldr	r5, [pc, #160]	; (10008d88 <__aeabi_ddiv+0x1d0>)
10008ce6:	2600      	movs	r6, #0
10008ce8:	1a2d      	subs	r5, r5, r0
10008cea:	9300      	str	r3, [sp, #0]
10008cec:	e78a      	b.n	10008c04 <__aeabi_ddiv+0x4c>
10008cee:	4652      	mov	r2, sl
10008cf0:	2103      	movs	r1, #3
10008cf2:	433a      	orrs	r2, r7
10008cf4:	d1a0      	bne.n	10008c38 <__aeabi_ddiv+0x80>
10008cf6:	2700      	movs	r7, #0
10008cf8:	2300      	movs	r3, #0
10008cfa:	2102      	movs	r1, #2
10008cfc:	e79c      	b.n	10008c38 <__aeabi_ddiv+0x80>
10008cfe:	4652      	mov	r2, sl
10008d00:	433a      	orrs	r2, r7
10008d02:	d015      	beq.n	10008d30 <__aeabi_ddiv+0x178>
10008d04:	2f00      	cmp	r7, #0
10008d06:	d100      	bne.n	10008d0a <__aeabi_ddiv+0x152>
10008d08:	e185      	b.n	10009016 <__aeabi_ddiv+0x45e>
10008d0a:	1c38      	adds	r0, r7, #0
10008d0c:	f7fe fcf0 	bl	100076f0 <__clzsi2>
10008d10:	1c02      	adds	r2, r0, #0
10008d12:	2128      	movs	r1, #40	; 0x28
10008d14:	4650      	mov	r0, sl
10008d16:	1a89      	subs	r1, r1, r2
10008d18:	1c13      	adds	r3, r2, #0
10008d1a:	40c8      	lsrs	r0, r1
10008d1c:	4651      	mov	r1, sl
10008d1e:	3b08      	subs	r3, #8
10008d20:	4099      	lsls	r1, r3
10008d22:	409f      	lsls	r7, r3
10008d24:	1c0b      	adds	r3, r1, #0
10008d26:	4307      	orrs	r7, r0
10008d28:	4817      	ldr	r0, [pc, #92]	; (10008d88 <__aeabi_ddiv+0x1d0>)
10008d2a:	2100      	movs	r1, #0
10008d2c:	1a80      	subs	r0, r0, r2
10008d2e:	e783      	b.n	10008c38 <__aeabi_ddiv+0x80>
10008d30:	2700      	movs	r7, #0
10008d32:	2300      	movs	r3, #0
10008d34:	2101      	movs	r1, #1
10008d36:	e77f      	b.n	10008c38 <__aeabi_ddiv+0x80>
10008d38:	2300      	movs	r3, #0
10008d3a:	469b      	mov	fp, r3
10008d3c:	4699      	mov	r9, r3
10008d3e:	3301      	adds	r3, #1
10008d40:	2604      	movs	r6, #4
10008d42:	9300      	str	r3, [sp, #0]
10008d44:	e75e      	b.n	10008c04 <__aeabi_ddiv+0x4c>
10008d46:	2303      	movs	r3, #3
10008d48:	260c      	movs	r6, #12
10008d4a:	9300      	str	r3, [sp, #0]
10008d4c:	e75a      	b.n	10008c04 <__aeabi_ddiv+0x4c>
10008d4e:	2b03      	cmp	r3, #3
10008d50:	d100      	bne.n	10008d54 <__aeabi_ddiv+0x19c>
10008d52:	e23c      	b.n	100091ce <__aeabi_ddiv+0x616>
10008d54:	2b01      	cmp	r3, #1
10008d56:	d000      	beq.n	10008d5a <__aeabi_ddiv+0x1a2>
10008d58:	e1bf      	b.n	100090da <__aeabi_ddiv+0x522>
10008d5a:	1c1a      	adds	r2, r3, #0
10008d5c:	9b01      	ldr	r3, [sp, #4]
10008d5e:	401a      	ands	r2, r3
10008d60:	2100      	movs	r1, #0
10008d62:	2300      	movs	r3, #0
10008d64:	2700      	movs	r7, #0
10008d66:	4689      	mov	r9, r1
10008d68:	e78e      	b.n	10008c88 <__aeabi_ddiv+0xd0>
10008d6a:	2300      	movs	r3, #0
10008d6c:	2780      	movs	r7, #128	; 0x80
10008d6e:	4699      	mov	r9, r3
10008d70:	2200      	movs	r2, #0
10008d72:	033f      	lsls	r7, r7, #12
10008d74:	4b00      	ldr	r3, [pc, #0]	; (10008d78 <__aeabi_ddiv+0x1c0>)
10008d76:	e787      	b.n	10008c88 <__aeabi_ddiv+0xd0>
10008d78:	000007ff 	.word	0x000007ff
10008d7c:	fffffc01 	.word	0xfffffc01
10008d80:	1000ace8 	.word	0x1000ace8
10008d84:	800fffff 	.word	0x800fffff
10008d88:	fffffc0d 	.word	0xfffffc0d
10008d8c:	45bb      	cmp	fp, r7
10008d8e:	d900      	bls.n	10008d92 <__aeabi_ddiv+0x1da>
10008d90:	e151      	b.n	10009036 <__aeabi_ddiv+0x47e>
10008d92:	d100      	bne.n	10008d96 <__aeabi_ddiv+0x1de>
10008d94:	e14c      	b.n	10009030 <__aeabi_ddiv+0x478>
10008d96:	464a      	mov	r2, r9
10008d98:	9203      	str	r2, [sp, #12]
10008d9a:	2200      	movs	r2, #0
10008d9c:	465c      	mov	r4, fp
10008d9e:	4690      	mov	r8, r2
10008da0:	3d01      	subs	r5, #1
10008da2:	0e18      	lsrs	r0, r3, #24
10008da4:	023f      	lsls	r7, r7, #8
10008da6:	4338      	orrs	r0, r7
10008da8:	021b      	lsls	r3, r3, #8
10008daa:	9301      	str	r3, [sp, #4]
10008dac:	0c03      	lsrs	r3, r0, #16
10008dae:	4699      	mov	r9, r3
10008db0:	0403      	lsls	r3, r0, #16
10008db2:	0c1b      	lsrs	r3, r3, #16
10008db4:	4649      	mov	r1, r9
10008db6:	1c06      	adds	r6, r0, #0
10008db8:	1c20      	adds	r0, r4, #0
10008dba:	1c1f      	adds	r7, r3, #0
10008dbc:	9300      	str	r3, [sp, #0]
10008dbe:	f7f9 fc2b 	bl	10002618 <__aeabi_uidiv>
10008dc2:	1c02      	adds	r2, r0, #0
10008dc4:	437a      	muls	r2, r7
10008dc6:	9002      	str	r0, [sp, #8]
10008dc8:	4649      	mov	r1, r9
10008dca:	1c20      	adds	r0, r4, #0
10008dcc:	1c17      	adds	r7, r2, #0
10008dce:	f7f9 fc73 	bl	100026b8 <__aeabi_uidivmod>
10008dd2:	9b03      	ldr	r3, [sp, #12]
10008dd4:	0409      	lsls	r1, r1, #16
10008dd6:	0c1b      	lsrs	r3, r3, #16
10008dd8:	4319      	orrs	r1, r3
10008dda:	428f      	cmp	r7, r1
10008ddc:	d90c      	bls.n	10008df8 <__aeabi_ddiv+0x240>
10008dde:	9b02      	ldr	r3, [sp, #8]
10008de0:	1989      	adds	r1, r1, r6
10008de2:	3b01      	subs	r3, #1
10008de4:	428e      	cmp	r6, r1
10008de6:	d900      	bls.n	10008dea <__aeabi_ddiv+0x232>
10008de8:	e152      	b.n	10009090 <__aeabi_ddiv+0x4d8>
10008dea:	428f      	cmp	r7, r1
10008dec:	d800      	bhi.n	10008df0 <__aeabi_ddiv+0x238>
10008dee:	e14f      	b.n	10009090 <__aeabi_ddiv+0x4d8>
10008df0:	9b02      	ldr	r3, [sp, #8]
10008df2:	1989      	adds	r1, r1, r6
10008df4:	3b02      	subs	r3, #2
10008df6:	9302      	str	r3, [sp, #8]
10008df8:	1bcc      	subs	r4, r1, r7
10008dfa:	1c20      	adds	r0, r4, #0
10008dfc:	4649      	mov	r1, r9
10008dfe:	f7f9 fc0b 	bl	10002618 <__aeabi_uidiv>
10008e02:	9f00      	ldr	r7, [sp, #0]
10008e04:	4683      	mov	fp, r0
10008e06:	4347      	muls	r7, r0
10008e08:	4649      	mov	r1, r9
10008e0a:	1c20      	adds	r0, r4, #0
10008e0c:	f7f9 fc54 	bl	100026b8 <__aeabi_uidivmod>
10008e10:	9a03      	ldr	r2, [sp, #12]
10008e12:	040b      	lsls	r3, r1, #16
10008e14:	0414      	lsls	r4, r2, #16
10008e16:	0c24      	lsrs	r4, r4, #16
10008e18:	4323      	orrs	r3, r4
10008e1a:	429f      	cmp	r7, r3
10008e1c:	d90d      	bls.n	10008e3a <__aeabi_ddiv+0x282>
10008e1e:	465a      	mov	r2, fp
10008e20:	199b      	adds	r3, r3, r6
10008e22:	3a01      	subs	r2, #1
10008e24:	429e      	cmp	r6, r3
10008e26:	d900      	bls.n	10008e2a <__aeabi_ddiv+0x272>
10008e28:	e130      	b.n	1000908c <__aeabi_ddiv+0x4d4>
10008e2a:	429f      	cmp	r7, r3
10008e2c:	d800      	bhi.n	10008e30 <__aeabi_ddiv+0x278>
10008e2e:	e12d      	b.n	1000908c <__aeabi_ddiv+0x4d4>
10008e30:	2202      	movs	r2, #2
10008e32:	4252      	negs	r2, r2
10008e34:	4694      	mov	ip, r2
10008e36:	199b      	adds	r3, r3, r6
10008e38:	44e3      	add	fp, ip
10008e3a:	9a02      	ldr	r2, [sp, #8]
10008e3c:	1bdb      	subs	r3, r3, r7
10008e3e:	0417      	lsls	r7, r2, #16
10008e40:	465a      	mov	r2, fp
10008e42:	433a      	orrs	r2, r7
10008e44:	4693      	mov	fp, r2
10008e46:	9c01      	ldr	r4, [sp, #4]
10008e48:	0c17      	lsrs	r7, r2, #16
10008e4a:	0c22      	lsrs	r2, r4, #16
10008e4c:	1c10      	adds	r0, r2, #0
10008e4e:	9204      	str	r2, [sp, #16]
10008e50:	465a      	mov	r2, fp
10008e52:	0411      	lsls	r1, r2, #16
10008e54:	0422      	lsls	r2, r4, #16
10008e56:	0c12      	lsrs	r2, r2, #16
10008e58:	1c14      	adds	r4, r2, #0
10008e5a:	0c09      	lsrs	r1, r1, #16
10008e5c:	437c      	muls	r4, r7
10008e5e:	9205      	str	r2, [sp, #20]
10008e60:	434a      	muls	r2, r1
10008e62:	4341      	muls	r1, r0
10008e64:	4347      	muls	r7, r0
10008e66:	1861      	adds	r1, r4, r1
10008e68:	0c10      	lsrs	r0, r2, #16
10008e6a:	1809      	adds	r1, r1, r0
10008e6c:	428c      	cmp	r4, r1
10008e6e:	d903      	bls.n	10008e78 <__aeabi_ddiv+0x2c0>
10008e70:	2080      	movs	r0, #128	; 0x80
10008e72:	0240      	lsls	r0, r0, #9
10008e74:	4684      	mov	ip, r0
10008e76:	4467      	add	r7, ip
10008e78:	0c0c      	lsrs	r4, r1, #16
10008e7a:	0412      	lsls	r2, r2, #16
10008e7c:	0408      	lsls	r0, r1, #16
10008e7e:	0c12      	lsrs	r2, r2, #16
10008e80:	193c      	adds	r4, r7, r4
10008e82:	1881      	adds	r1, r0, r2
10008e84:	42a3      	cmp	r3, r4
10008e86:	d200      	bcs.n	10008e8a <__aeabi_ddiv+0x2d2>
10008e88:	e0e5      	b.n	10009056 <__aeabi_ddiv+0x49e>
10008e8a:	d100      	bne.n	10008e8e <__aeabi_ddiv+0x2d6>
10008e8c:	e0df      	b.n	1000904e <__aeabi_ddiv+0x496>
10008e8e:	1b1f      	subs	r7, r3, r4
10008e90:	4643      	mov	r3, r8
10008e92:	1a5c      	subs	r4, r3, r1
10008e94:	45a0      	cmp	r8, r4
10008e96:	4192      	sbcs	r2, r2
10008e98:	4252      	negs	r2, r2
10008e9a:	1abf      	subs	r7, r7, r2
10008e9c:	42b7      	cmp	r7, r6
10008e9e:	d100      	bne.n	10008ea2 <__aeabi_ddiv+0x2ea>
10008ea0:	e10e      	b.n	100090c0 <__aeabi_ddiv+0x508>
10008ea2:	1c38      	adds	r0, r7, #0
10008ea4:	4649      	mov	r1, r9
10008ea6:	f7f9 fbb7 	bl	10002618 <__aeabi_uidiv>
10008eaa:	9b00      	ldr	r3, [sp, #0]
10008eac:	9002      	str	r0, [sp, #8]
10008eae:	4343      	muls	r3, r0
10008eb0:	4649      	mov	r1, r9
10008eb2:	1c38      	adds	r0, r7, #0
10008eb4:	4698      	mov	r8, r3
10008eb6:	f7f9 fbff 	bl	100026b8 <__aeabi_uidivmod>
10008eba:	0c23      	lsrs	r3, r4, #16
10008ebc:	040f      	lsls	r7, r1, #16
10008ebe:	431f      	orrs	r7, r3
10008ec0:	45b8      	cmp	r8, r7
10008ec2:	d90c      	bls.n	10008ede <__aeabi_ddiv+0x326>
10008ec4:	9b02      	ldr	r3, [sp, #8]
10008ec6:	19bf      	adds	r7, r7, r6
10008ec8:	3b01      	subs	r3, #1
10008eca:	42be      	cmp	r6, r7
10008ecc:	d900      	bls.n	10008ed0 <__aeabi_ddiv+0x318>
10008ece:	e0fb      	b.n	100090c8 <__aeabi_ddiv+0x510>
10008ed0:	45b8      	cmp	r8, r7
10008ed2:	d800      	bhi.n	10008ed6 <__aeabi_ddiv+0x31e>
10008ed4:	e0f8      	b.n	100090c8 <__aeabi_ddiv+0x510>
10008ed6:	9b02      	ldr	r3, [sp, #8]
10008ed8:	19bf      	adds	r7, r7, r6
10008eda:	3b02      	subs	r3, #2
10008edc:	9302      	str	r3, [sp, #8]
10008ede:	4643      	mov	r3, r8
10008ee0:	1aff      	subs	r7, r7, r3
10008ee2:	4649      	mov	r1, r9
10008ee4:	1c38      	adds	r0, r7, #0
10008ee6:	f7f9 fb97 	bl	10002618 <__aeabi_uidiv>
10008eea:	9b00      	ldr	r3, [sp, #0]
10008eec:	9003      	str	r0, [sp, #12]
10008eee:	4343      	muls	r3, r0
10008ef0:	4649      	mov	r1, r9
10008ef2:	1c38      	adds	r0, r7, #0
10008ef4:	4698      	mov	r8, r3
10008ef6:	f7f9 fbdf 	bl	100026b8 <__aeabi_uidivmod>
10008efa:	0424      	lsls	r4, r4, #16
10008efc:	0409      	lsls	r1, r1, #16
10008efe:	0c24      	lsrs	r4, r4, #16
10008f00:	4321      	orrs	r1, r4
10008f02:	4588      	cmp	r8, r1
10008f04:	d90c      	bls.n	10008f20 <__aeabi_ddiv+0x368>
10008f06:	9b03      	ldr	r3, [sp, #12]
10008f08:	1989      	adds	r1, r1, r6
10008f0a:	3b01      	subs	r3, #1
10008f0c:	428e      	cmp	r6, r1
10008f0e:	d900      	bls.n	10008f12 <__aeabi_ddiv+0x35a>
10008f10:	e0dc      	b.n	100090cc <__aeabi_ddiv+0x514>
10008f12:	4588      	cmp	r8, r1
10008f14:	d800      	bhi.n	10008f18 <__aeabi_ddiv+0x360>
10008f16:	e0d9      	b.n	100090cc <__aeabi_ddiv+0x514>
10008f18:	9b03      	ldr	r3, [sp, #12]
10008f1a:	1989      	adds	r1, r1, r6
10008f1c:	3b02      	subs	r3, #2
10008f1e:	9303      	str	r3, [sp, #12]
10008f20:	4643      	mov	r3, r8
10008f22:	1ac9      	subs	r1, r1, r3
10008f24:	9b02      	ldr	r3, [sp, #8]
10008f26:	9a03      	ldr	r2, [sp, #12]
10008f28:	041b      	lsls	r3, r3, #16
10008f2a:	9c05      	ldr	r4, [sp, #20]
10008f2c:	431a      	orrs	r2, r3
10008f2e:	0c10      	lsrs	r0, r2, #16
10008f30:	0413      	lsls	r3, r2, #16
10008f32:	4691      	mov	r9, r2
10008f34:	1c22      	adds	r2, r4, #0
10008f36:	9f04      	ldr	r7, [sp, #16]
10008f38:	0c1b      	lsrs	r3, r3, #16
10008f3a:	435a      	muls	r2, r3
10008f3c:	4344      	muls	r4, r0
10008f3e:	437b      	muls	r3, r7
10008f40:	4378      	muls	r0, r7
10008f42:	18e3      	adds	r3, r4, r3
10008f44:	0c17      	lsrs	r7, r2, #16
10008f46:	19db      	adds	r3, r3, r7
10008f48:	429c      	cmp	r4, r3
10008f4a:	d903      	bls.n	10008f54 <__aeabi_ddiv+0x39c>
10008f4c:	2480      	movs	r4, #128	; 0x80
10008f4e:	0264      	lsls	r4, r4, #9
10008f50:	46a4      	mov	ip, r4
10008f52:	4460      	add	r0, ip
10008f54:	0c1c      	lsrs	r4, r3, #16
10008f56:	0412      	lsls	r2, r2, #16
10008f58:	041b      	lsls	r3, r3, #16
10008f5a:	0c12      	lsrs	r2, r2, #16
10008f5c:	1900      	adds	r0, r0, r4
10008f5e:	189b      	adds	r3, r3, r2
10008f60:	4281      	cmp	r1, r0
10008f62:	d200      	bcs.n	10008f66 <__aeabi_ddiv+0x3ae>
10008f64:	e096      	b.n	10009094 <__aeabi_ddiv+0x4dc>
10008f66:	d100      	bne.n	10008f6a <__aeabi_ddiv+0x3b2>
10008f68:	e0fc      	b.n	10009164 <__aeabi_ddiv+0x5ac>
10008f6a:	464a      	mov	r2, r9
10008f6c:	2301      	movs	r3, #1
10008f6e:	431a      	orrs	r2, r3
10008f70:	4691      	mov	r9, r2
10008f72:	4b9b      	ldr	r3, [pc, #620]	; (100091e0 <__aeabi_ddiv+0x628>)
10008f74:	18eb      	adds	r3, r5, r3
10008f76:	2b00      	cmp	r3, #0
10008f78:	dc00      	bgt.n	10008f7c <__aeabi_ddiv+0x3c4>
10008f7a:	e099      	b.n	100090b0 <__aeabi_ddiv+0x4f8>
10008f7c:	464a      	mov	r2, r9
10008f7e:	0752      	lsls	r2, r2, #29
10008f80:	d00a      	beq.n	10008f98 <__aeabi_ddiv+0x3e0>
10008f82:	220f      	movs	r2, #15
10008f84:	4649      	mov	r1, r9
10008f86:	400a      	ands	r2, r1
10008f88:	2a04      	cmp	r2, #4
10008f8a:	d005      	beq.n	10008f98 <__aeabi_ddiv+0x3e0>
10008f8c:	3104      	adds	r1, #4
10008f8e:	4549      	cmp	r1, r9
10008f90:	4192      	sbcs	r2, r2
10008f92:	4689      	mov	r9, r1
10008f94:	4252      	negs	r2, r2
10008f96:	4493      	add	fp, r2
10008f98:	465a      	mov	r2, fp
10008f9a:	01d2      	lsls	r2, r2, #7
10008f9c:	d506      	bpl.n	10008fac <__aeabi_ddiv+0x3f4>
10008f9e:	465a      	mov	r2, fp
10008fa0:	4b90      	ldr	r3, [pc, #576]	; (100091e4 <__aeabi_ddiv+0x62c>)
10008fa2:	401a      	ands	r2, r3
10008fa4:	2380      	movs	r3, #128	; 0x80
10008fa6:	4693      	mov	fp, r2
10008fa8:	00db      	lsls	r3, r3, #3
10008faa:	18eb      	adds	r3, r5, r3
10008fac:	4a8e      	ldr	r2, [pc, #568]	; (100091e8 <__aeabi_ddiv+0x630>)
10008fae:	4293      	cmp	r3, r2
10008fb0:	dd00      	ble.n	10008fb4 <__aeabi_ddiv+0x3fc>
10008fb2:	e662      	b.n	10008c7a <__aeabi_ddiv+0xc2>
10008fb4:	464a      	mov	r2, r9
10008fb6:	4659      	mov	r1, fp
10008fb8:	08d2      	lsrs	r2, r2, #3
10008fba:	0749      	lsls	r1, r1, #29
10008fbc:	4311      	orrs	r1, r2
10008fbe:	465a      	mov	r2, fp
10008fc0:	4689      	mov	r9, r1
10008fc2:	0257      	lsls	r7, r2, #9
10008fc4:	4651      	mov	r1, sl
10008fc6:	2201      	movs	r2, #1
10008fc8:	055b      	lsls	r3, r3, #21
10008fca:	0b3f      	lsrs	r7, r7, #12
10008fcc:	0d5b      	lsrs	r3, r3, #21
10008fce:	400a      	ands	r2, r1
10008fd0:	e65a      	b.n	10008c88 <__aeabi_ddiv+0xd0>
10008fd2:	2080      	movs	r0, #128	; 0x80
10008fd4:	465a      	mov	r2, fp
10008fd6:	0300      	lsls	r0, r0, #12
10008fd8:	4202      	tst	r2, r0
10008fda:	d008      	beq.n	10008fee <__aeabi_ddiv+0x436>
10008fdc:	4207      	tst	r7, r0
10008fde:	d106      	bne.n	10008fee <__aeabi_ddiv+0x436>
10008fe0:	4307      	orrs	r7, r0
10008fe2:	033f      	lsls	r7, r7, #12
10008fe4:	4699      	mov	r9, r3
10008fe6:	0b3f      	lsrs	r7, r7, #12
10008fe8:	4642      	mov	r2, r8
10008fea:	4b80      	ldr	r3, [pc, #512]	; (100091ec <__aeabi_ddiv+0x634>)
10008fec:	e64c      	b.n	10008c88 <__aeabi_ddiv+0xd0>
10008fee:	465f      	mov	r7, fp
10008ff0:	4307      	orrs	r7, r0
10008ff2:	033f      	lsls	r7, r7, #12
10008ff4:	0b3f      	lsrs	r7, r7, #12
10008ff6:	1c22      	adds	r2, r4, #0
10008ff8:	4b7c      	ldr	r3, [pc, #496]	; (100091ec <__aeabi_ddiv+0x634>)
10008ffa:	e645      	b.n	10008c88 <__aeabi_ddiv+0xd0>
10008ffc:	f7fe fb78 	bl	100076f0 <__clzsi2>
10009000:	1c03      	adds	r3, r0, #0
10009002:	3020      	adds	r0, #32
10009004:	2827      	cmp	r0, #39	; 0x27
10009006:	dc00      	bgt.n	1000900a <__aeabi_ddiv+0x452>
10009008:	e65e      	b.n	10008cc8 <__aeabi_ddiv+0x110>
1000900a:	3b08      	subs	r3, #8
1000900c:	409e      	lsls	r6, r3
1000900e:	2300      	movs	r3, #0
10009010:	46b3      	mov	fp, r6
10009012:	4699      	mov	r9, r3
10009014:	e665      	b.n	10008ce2 <__aeabi_ddiv+0x12a>
10009016:	4650      	mov	r0, sl
10009018:	f7fe fb6a 	bl	100076f0 <__clzsi2>
1000901c:	1c02      	adds	r2, r0, #0
1000901e:	3220      	adds	r2, #32
10009020:	2a27      	cmp	r2, #39	; 0x27
10009022:	dc00      	bgt.n	10009026 <__aeabi_ddiv+0x46e>
10009024:	e675      	b.n	10008d12 <__aeabi_ddiv+0x15a>
10009026:	4657      	mov	r7, sl
10009028:	3808      	subs	r0, #8
1000902a:	4087      	lsls	r7, r0
1000902c:	2300      	movs	r3, #0
1000902e:	e67b      	b.n	10008d28 <__aeabi_ddiv+0x170>
10009030:	4599      	cmp	r9, r3
10009032:	d200      	bcs.n	10009036 <__aeabi_ddiv+0x47e>
10009034:	e6af      	b.n	10008d96 <__aeabi_ddiv+0x1de>
10009036:	465a      	mov	r2, fp
10009038:	4659      	mov	r1, fp
1000903a:	0854      	lsrs	r4, r2, #1
1000903c:	464a      	mov	r2, r9
1000903e:	07c8      	lsls	r0, r1, #31
10009040:	0852      	lsrs	r2, r2, #1
10009042:	4302      	orrs	r2, r0
10009044:	9203      	str	r2, [sp, #12]
10009046:	464a      	mov	r2, r9
10009048:	07d2      	lsls	r2, r2, #31
1000904a:	4690      	mov	r8, r2
1000904c:	e6a9      	b.n	10008da2 <__aeabi_ddiv+0x1ea>
1000904e:	2700      	movs	r7, #0
10009050:	4588      	cmp	r8, r1
10009052:	d300      	bcc.n	10009056 <__aeabi_ddiv+0x49e>
10009054:	e71c      	b.n	10008e90 <__aeabi_ddiv+0x2d8>
10009056:	9f01      	ldr	r7, [sp, #4]
10009058:	465a      	mov	r2, fp
1000905a:	46bc      	mov	ip, r7
1000905c:	44e0      	add	r8, ip
1000905e:	45b8      	cmp	r8, r7
10009060:	41bf      	sbcs	r7, r7
10009062:	427f      	negs	r7, r7
10009064:	19bf      	adds	r7, r7, r6
10009066:	18ff      	adds	r7, r7, r3
10009068:	3a01      	subs	r2, #1
1000906a:	42be      	cmp	r6, r7
1000906c:	d206      	bcs.n	1000907c <__aeabi_ddiv+0x4c4>
1000906e:	42bc      	cmp	r4, r7
10009070:	d85f      	bhi.n	10009132 <__aeabi_ddiv+0x57a>
10009072:	d100      	bne.n	10009076 <__aeabi_ddiv+0x4be>
10009074:	e09f      	b.n	100091b6 <__aeabi_ddiv+0x5fe>
10009076:	1b3f      	subs	r7, r7, r4
10009078:	4693      	mov	fp, r2
1000907a:	e709      	b.n	10008e90 <__aeabi_ddiv+0x2d8>
1000907c:	42b7      	cmp	r7, r6
1000907e:	d1fa      	bne.n	10009076 <__aeabi_ddiv+0x4be>
10009080:	9b01      	ldr	r3, [sp, #4]
10009082:	4543      	cmp	r3, r8
10009084:	d9f3      	bls.n	1000906e <__aeabi_ddiv+0x4b6>
10009086:	1b37      	subs	r7, r6, r4
10009088:	4693      	mov	fp, r2
1000908a:	e701      	b.n	10008e90 <__aeabi_ddiv+0x2d8>
1000908c:	4693      	mov	fp, r2
1000908e:	e6d4      	b.n	10008e3a <__aeabi_ddiv+0x282>
10009090:	9302      	str	r3, [sp, #8]
10009092:	e6b1      	b.n	10008df8 <__aeabi_ddiv+0x240>
10009094:	464a      	mov	r2, r9
10009096:	1989      	adds	r1, r1, r6
10009098:	3a01      	subs	r2, #1
1000909a:	428e      	cmp	r6, r1
1000909c:	d918      	bls.n	100090d0 <__aeabi_ddiv+0x518>
1000909e:	4691      	mov	r9, r2
100090a0:	4281      	cmp	r1, r0
100090a2:	d000      	beq.n	100090a6 <__aeabi_ddiv+0x4ee>
100090a4:	e761      	b.n	10008f6a <__aeabi_ddiv+0x3b2>
100090a6:	9a01      	ldr	r2, [sp, #4]
100090a8:	429a      	cmp	r2, r3
100090aa:	d000      	beq.n	100090ae <__aeabi_ddiv+0x4f6>
100090ac:	e75d      	b.n	10008f6a <__aeabi_ddiv+0x3b2>
100090ae:	e760      	b.n	10008f72 <__aeabi_ddiv+0x3ba>
100090b0:	4f4f      	ldr	r7, [pc, #316]	; (100091f0 <__aeabi_ddiv+0x638>)
100090b2:	1b7f      	subs	r7, r7, r5
100090b4:	2f38      	cmp	r7, #56	; 0x38
100090b6:	dd13      	ble.n	100090e0 <__aeabi_ddiv+0x528>
100090b8:	2201      	movs	r2, #1
100090ba:	4653      	mov	r3, sl
100090bc:	401a      	ands	r2, r3
100090be:	e64f      	b.n	10008d60 <__aeabi_ddiv+0x1a8>
100090c0:	2301      	movs	r3, #1
100090c2:	425b      	negs	r3, r3
100090c4:	4699      	mov	r9, r3
100090c6:	e754      	b.n	10008f72 <__aeabi_ddiv+0x3ba>
100090c8:	9302      	str	r3, [sp, #8]
100090ca:	e708      	b.n	10008ede <__aeabi_ddiv+0x326>
100090cc:	9303      	str	r3, [sp, #12]
100090ce:	e727      	b.n	10008f20 <__aeabi_ddiv+0x368>
100090d0:	4288      	cmp	r0, r1
100090d2:	d83c      	bhi.n	1000914e <__aeabi_ddiv+0x596>
100090d4:	d074      	beq.n	100091c0 <__aeabi_ddiv+0x608>
100090d6:	4691      	mov	r9, r2
100090d8:	e747      	b.n	10008f6a <__aeabi_ddiv+0x3b2>
100090da:	9b01      	ldr	r3, [sp, #4]
100090dc:	469a      	mov	sl, r3
100090de:	e748      	b.n	10008f72 <__aeabi_ddiv+0x3ba>
100090e0:	2f1f      	cmp	r7, #31
100090e2:	dc44      	bgt.n	1000916e <__aeabi_ddiv+0x5b6>
100090e4:	4b43      	ldr	r3, [pc, #268]	; (100091f4 <__aeabi_ddiv+0x63c>)
100090e6:	464a      	mov	r2, r9
100090e8:	469c      	mov	ip, r3
100090ea:	465b      	mov	r3, fp
100090ec:	4465      	add	r5, ip
100090ee:	40fa      	lsrs	r2, r7
100090f0:	40ab      	lsls	r3, r5
100090f2:	4313      	orrs	r3, r2
100090f4:	464a      	mov	r2, r9
100090f6:	40aa      	lsls	r2, r5
100090f8:	1c15      	adds	r5, r2, #0
100090fa:	1e6a      	subs	r2, r5, #1
100090fc:	4195      	sbcs	r5, r2
100090fe:	465a      	mov	r2, fp
10009100:	40fa      	lsrs	r2, r7
10009102:	432b      	orrs	r3, r5
10009104:	1c17      	adds	r7, r2, #0
10009106:	075a      	lsls	r2, r3, #29
10009108:	d009      	beq.n	1000911e <__aeabi_ddiv+0x566>
1000910a:	220f      	movs	r2, #15
1000910c:	401a      	ands	r2, r3
1000910e:	2a04      	cmp	r2, #4
10009110:	d005      	beq.n	1000911e <__aeabi_ddiv+0x566>
10009112:	1d1a      	adds	r2, r3, #4
10009114:	429a      	cmp	r2, r3
10009116:	419b      	sbcs	r3, r3
10009118:	425b      	negs	r3, r3
1000911a:	18ff      	adds	r7, r7, r3
1000911c:	1c13      	adds	r3, r2, #0
1000911e:	023a      	lsls	r2, r7, #8
10009120:	d53e      	bpl.n	100091a0 <__aeabi_ddiv+0x5e8>
10009122:	4653      	mov	r3, sl
10009124:	2201      	movs	r2, #1
10009126:	2100      	movs	r1, #0
10009128:	401a      	ands	r2, r3
1000912a:	2700      	movs	r7, #0
1000912c:	2301      	movs	r3, #1
1000912e:	4689      	mov	r9, r1
10009130:	e5aa      	b.n	10008c88 <__aeabi_ddiv+0xd0>
10009132:	2302      	movs	r3, #2
10009134:	425b      	negs	r3, r3
10009136:	469c      	mov	ip, r3
10009138:	9a01      	ldr	r2, [sp, #4]
1000913a:	44e3      	add	fp, ip
1000913c:	4694      	mov	ip, r2
1000913e:	44e0      	add	r8, ip
10009140:	4590      	cmp	r8, r2
10009142:	419b      	sbcs	r3, r3
10009144:	425b      	negs	r3, r3
10009146:	199b      	adds	r3, r3, r6
10009148:	19df      	adds	r7, r3, r7
1000914a:	1b3f      	subs	r7, r7, r4
1000914c:	e6a0      	b.n	10008e90 <__aeabi_ddiv+0x2d8>
1000914e:	9f01      	ldr	r7, [sp, #4]
10009150:	464a      	mov	r2, r9
10009152:	007c      	lsls	r4, r7, #1
10009154:	42bc      	cmp	r4, r7
10009156:	41bf      	sbcs	r7, r7
10009158:	427f      	negs	r7, r7
1000915a:	19bf      	adds	r7, r7, r6
1000915c:	3a02      	subs	r2, #2
1000915e:	19c9      	adds	r1, r1, r7
10009160:	9401      	str	r4, [sp, #4]
10009162:	e79c      	b.n	1000909e <__aeabi_ddiv+0x4e6>
10009164:	2b00      	cmp	r3, #0
10009166:	d195      	bne.n	10009094 <__aeabi_ddiv+0x4dc>
10009168:	2200      	movs	r2, #0
1000916a:	9201      	str	r2, [sp, #4]
1000916c:	e79b      	b.n	100090a6 <__aeabi_ddiv+0x4ee>
1000916e:	465a      	mov	r2, fp
10009170:	4b21      	ldr	r3, [pc, #132]	; (100091f8 <__aeabi_ddiv+0x640>)
10009172:	1b5b      	subs	r3, r3, r5
10009174:	40da      	lsrs	r2, r3
10009176:	2f20      	cmp	r7, #32
10009178:	d027      	beq.n	100091ca <__aeabi_ddiv+0x612>
1000917a:	4b20      	ldr	r3, [pc, #128]	; (100091fc <__aeabi_ddiv+0x644>)
1000917c:	469c      	mov	ip, r3
1000917e:	465b      	mov	r3, fp
10009180:	4465      	add	r5, ip
10009182:	40ab      	lsls	r3, r5
10009184:	4649      	mov	r1, r9
10009186:	430b      	orrs	r3, r1
10009188:	1e59      	subs	r1, r3, #1
1000918a:	418b      	sbcs	r3, r1
1000918c:	4313      	orrs	r3, r2
1000918e:	2207      	movs	r2, #7
10009190:	2700      	movs	r7, #0
10009192:	401a      	ands	r2, r3
10009194:	d007      	beq.n	100091a6 <__aeabi_ddiv+0x5ee>
10009196:	220f      	movs	r2, #15
10009198:	2700      	movs	r7, #0
1000919a:	401a      	ands	r2, r3
1000919c:	2a04      	cmp	r2, #4
1000919e:	d1b8      	bne.n	10009112 <__aeabi_ddiv+0x55a>
100091a0:	077a      	lsls	r2, r7, #29
100091a2:	027f      	lsls	r7, r7, #9
100091a4:	0b3f      	lsrs	r7, r7, #12
100091a6:	08db      	lsrs	r3, r3, #3
100091a8:	4313      	orrs	r3, r2
100091aa:	4699      	mov	r9, r3
100091ac:	2201      	movs	r2, #1
100091ae:	4653      	mov	r3, sl
100091b0:	401a      	ands	r2, r3
100091b2:	2300      	movs	r3, #0
100091b4:	e568      	b.n	10008c88 <__aeabi_ddiv+0xd0>
100091b6:	4541      	cmp	r1, r8
100091b8:	d8bb      	bhi.n	10009132 <__aeabi_ddiv+0x57a>
100091ba:	4693      	mov	fp, r2
100091bc:	2700      	movs	r7, #0
100091be:	e667      	b.n	10008e90 <__aeabi_ddiv+0x2d8>
100091c0:	9c01      	ldr	r4, [sp, #4]
100091c2:	429c      	cmp	r4, r3
100091c4:	d3c3      	bcc.n	1000914e <__aeabi_ddiv+0x596>
100091c6:	4691      	mov	r9, r2
100091c8:	e76d      	b.n	100090a6 <__aeabi_ddiv+0x4ee>
100091ca:	2300      	movs	r3, #0
100091cc:	e7da      	b.n	10009184 <__aeabi_ddiv+0x5cc>
100091ce:	2780      	movs	r7, #128	; 0x80
100091d0:	465b      	mov	r3, fp
100091d2:	033f      	lsls	r7, r7, #12
100091d4:	431f      	orrs	r7, r3
100091d6:	033f      	lsls	r7, r7, #12
100091d8:	0b3f      	lsrs	r7, r7, #12
100091da:	9a01      	ldr	r2, [sp, #4]
100091dc:	4b03      	ldr	r3, [pc, #12]	; (100091ec <__aeabi_ddiv+0x634>)
100091de:	e553      	b.n	10008c88 <__aeabi_ddiv+0xd0>
100091e0:	000003ff 	.word	0x000003ff
100091e4:	feffffff 	.word	0xfeffffff
100091e8:	000007fe 	.word	0x000007fe
100091ec:	000007ff 	.word	0x000007ff
100091f0:	fffffc02 	.word	0xfffffc02
100091f4:	0000041e 	.word	0x0000041e
100091f8:	fffffbe2 	.word	0xfffffbe2
100091fc:	0000043e 	.word	0x0000043e

10009200 <__eqdf2>:
10009200:	b5f0      	push	{r4, r5, r6, r7, lr}
10009202:	465f      	mov	r7, fp
10009204:	464d      	mov	r5, r9
10009206:	4644      	mov	r4, r8
10009208:	4656      	mov	r6, sl
1000920a:	b4f0      	push	{r4, r5, r6, r7}
1000920c:	031f      	lsls	r7, r3, #12
1000920e:	005c      	lsls	r4, r3, #1
10009210:	0fdb      	lsrs	r3, r3, #31
10009212:	4699      	mov	r9, r3
10009214:	4b1b      	ldr	r3, [pc, #108]	; (10009284 <__eqdf2+0x84>)
10009216:	030e      	lsls	r6, r1, #12
10009218:	004d      	lsls	r5, r1, #1
1000921a:	0fc9      	lsrs	r1, r1, #31
1000921c:	4684      	mov	ip, r0
1000921e:	0b36      	lsrs	r6, r6, #12
10009220:	0d6d      	lsrs	r5, r5, #21
10009222:	468b      	mov	fp, r1
10009224:	4690      	mov	r8, r2
10009226:	0b3f      	lsrs	r7, r7, #12
10009228:	0d64      	lsrs	r4, r4, #21
1000922a:	429d      	cmp	r5, r3
1000922c:	d00c      	beq.n	10009248 <__eqdf2+0x48>
1000922e:	4b15      	ldr	r3, [pc, #84]	; (10009284 <__eqdf2+0x84>)
10009230:	429c      	cmp	r4, r3
10009232:	d010      	beq.n	10009256 <__eqdf2+0x56>
10009234:	2301      	movs	r3, #1
10009236:	42a5      	cmp	r5, r4
10009238:	d014      	beq.n	10009264 <__eqdf2+0x64>
1000923a:	1c18      	adds	r0, r3, #0
1000923c:	bc3c      	pop	{r2, r3, r4, r5}
1000923e:	4690      	mov	r8, r2
10009240:	4699      	mov	r9, r3
10009242:	46a2      	mov	sl, r4
10009244:	46ab      	mov	fp, r5
10009246:	bdf0      	pop	{r4, r5, r6, r7, pc}
10009248:	1c31      	adds	r1, r6, #0
1000924a:	2301      	movs	r3, #1
1000924c:	4301      	orrs	r1, r0
1000924e:	d1f4      	bne.n	1000923a <__eqdf2+0x3a>
10009250:	4b0c      	ldr	r3, [pc, #48]	; (10009284 <__eqdf2+0x84>)
10009252:	429c      	cmp	r4, r3
10009254:	d1ee      	bne.n	10009234 <__eqdf2+0x34>
10009256:	433a      	orrs	r2, r7
10009258:	2301      	movs	r3, #1
1000925a:	2a00      	cmp	r2, #0
1000925c:	d1ed      	bne.n	1000923a <__eqdf2+0x3a>
1000925e:	2301      	movs	r3, #1
10009260:	42a5      	cmp	r5, r4
10009262:	d1ea      	bne.n	1000923a <__eqdf2+0x3a>
10009264:	42be      	cmp	r6, r7
10009266:	d1e8      	bne.n	1000923a <__eqdf2+0x3a>
10009268:	45c4      	cmp	ip, r8
1000926a:	d1e6      	bne.n	1000923a <__eqdf2+0x3a>
1000926c:	45cb      	cmp	fp, r9
1000926e:	d006      	beq.n	1000927e <__eqdf2+0x7e>
10009270:	2d00      	cmp	r5, #0
10009272:	d1e2      	bne.n	1000923a <__eqdf2+0x3a>
10009274:	4330      	orrs	r0, r6
10009276:	1c03      	adds	r3, r0, #0
10009278:	1e58      	subs	r0, r3, #1
1000927a:	4183      	sbcs	r3, r0
1000927c:	e7dd      	b.n	1000923a <__eqdf2+0x3a>
1000927e:	2300      	movs	r3, #0
10009280:	e7db      	b.n	1000923a <__eqdf2+0x3a>
10009282:	46c0      	nop			; (mov r8, r8)
10009284:	000007ff 	.word	0x000007ff

10009288 <__gedf2>:
10009288:	b5f0      	push	{r4, r5, r6, r7, lr}
1000928a:	4657      	mov	r7, sl
1000928c:	4645      	mov	r5, r8
1000928e:	464e      	mov	r6, r9
10009290:	b4e0      	push	{r5, r6, r7}
10009292:	030f      	lsls	r7, r1, #12
10009294:	004e      	lsls	r6, r1, #1
10009296:	0fc9      	lsrs	r1, r1, #31
10009298:	468a      	mov	sl, r1
1000929a:	4932      	ldr	r1, [pc, #200]	; (10009364 <__gedf2+0xdc>)
1000929c:	031d      	lsls	r5, r3, #12
1000929e:	005c      	lsls	r4, r3, #1
100092a0:	4684      	mov	ip, r0
100092a2:	0b3f      	lsrs	r7, r7, #12
100092a4:	0d76      	lsrs	r6, r6, #21
100092a6:	4690      	mov	r8, r2
100092a8:	0b2d      	lsrs	r5, r5, #12
100092aa:	0d64      	lsrs	r4, r4, #21
100092ac:	0fdb      	lsrs	r3, r3, #31
100092ae:	428e      	cmp	r6, r1
100092b0:	d00f      	beq.n	100092d2 <__gedf2+0x4a>
100092b2:	428c      	cmp	r4, r1
100092b4:	d039      	beq.n	1000932a <__gedf2+0xa2>
100092b6:	2e00      	cmp	r6, #0
100092b8:	d110      	bne.n	100092dc <__gedf2+0x54>
100092ba:	4338      	orrs	r0, r7
100092bc:	4241      	negs	r1, r0
100092be:	4141      	adcs	r1, r0
100092c0:	4689      	mov	r9, r1
100092c2:	2c00      	cmp	r4, #0
100092c4:	d127      	bne.n	10009316 <__gedf2+0x8e>
100092c6:	432a      	orrs	r2, r5
100092c8:	d125      	bne.n	10009316 <__gedf2+0x8e>
100092ca:	2000      	movs	r0, #0
100092cc:	2900      	cmp	r1, #0
100092ce:	d10e      	bne.n	100092ee <__gedf2+0x66>
100092d0:	e008      	b.n	100092e4 <__gedf2+0x5c>
100092d2:	1c39      	adds	r1, r7, #0
100092d4:	4301      	orrs	r1, r0
100092d6:	d12e      	bne.n	10009336 <__gedf2+0xae>
100092d8:	42b4      	cmp	r4, r6
100092da:	d026      	beq.n	1000932a <__gedf2+0xa2>
100092dc:	2c00      	cmp	r4, #0
100092de:	d00b      	beq.n	100092f8 <__gedf2+0x70>
100092e0:	459a      	cmp	sl, r3
100092e2:	d00d      	beq.n	10009300 <__gedf2+0x78>
100092e4:	4653      	mov	r3, sl
100092e6:	4259      	negs	r1, r3
100092e8:	2301      	movs	r3, #1
100092ea:	4319      	orrs	r1, r3
100092ec:	1c08      	adds	r0, r1, #0
100092ee:	bc1c      	pop	{r2, r3, r4}
100092f0:	4690      	mov	r8, r2
100092f2:	4699      	mov	r9, r3
100092f4:	46a2      	mov	sl, r4
100092f6:	bdf0      	pop	{r4, r5, r6, r7, pc}
100092f8:	432a      	orrs	r2, r5
100092fa:	d0f3      	beq.n	100092e4 <__gedf2+0x5c>
100092fc:	459a      	cmp	sl, r3
100092fe:	d1f1      	bne.n	100092e4 <__gedf2+0x5c>
10009300:	42a6      	cmp	r6, r4
10009302:	dcef      	bgt.n	100092e4 <__gedf2+0x5c>
10009304:	da1a      	bge.n	1000933c <__gedf2+0xb4>
10009306:	4650      	mov	r0, sl
10009308:	4241      	negs	r1, r0
1000930a:	4148      	adcs	r0, r1
1000930c:	2301      	movs	r3, #1
1000930e:	4241      	negs	r1, r0
10009310:	4319      	orrs	r1, r3
10009312:	1c08      	adds	r0, r1, #0
10009314:	e7eb      	b.n	100092ee <__gedf2+0x66>
10009316:	464a      	mov	r2, r9
10009318:	2a00      	cmp	r2, #0
1000931a:	d0e1      	beq.n	100092e0 <__gedf2+0x58>
1000931c:	4258      	negs	r0, r3
1000931e:	4158      	adcs	r0, r3
10009320:	2201      	movs	r2, #1
10009322:	4241      	negs	r1, r0
10009324:	4311      	orrs	r1, r2
10009326:	1c08      	adds	r0, r1, #0
10009328:	e7e1      	b.n	100092ee <__gedf2+0x66>
1000932a:	1c29      	adds	r1, r5, #0
1000932c:	4311      	orrs	r1, r2
1000932e:	d102      	bne.n	10009336 <__gedf2+0xae>
10009330:	2e00      	cmp	r6, #0
10009332:	d0c2      	beq.n	100092ba <__gedf2+0x32>
10009334:	e7d4      	b.n	100092e0 <__gedf2+0x58>
10009336:	2002      	movs	r0, #2
10009338:	4240      	negs	r0, r0
1000933a:	e7d8      	b.n	100092ee <__gedf2+0x66>
1000933c:	42af      	cmp	r7, r5
1000933e:	d8d1      	bhi.n	100092e4 <__gedf2+0x5c>
10009340:	d009      	beq.n	10009356 <__gedf2+0xce>
10009342:	2000      	movs	r0, #0
10009344:	42af      	cmp	r7, r5
10009346:	d2d2      	bcs.n	100092ee <__gedf2+0x66>
10009348:	4650      	mov	r0, sl
1000934a:	4241      	negs	r1, r0
1000934c:	4148      	adcs	r0, r1
1000934e:	2301      	movs	r3, #1
10009350:	4240      	negs	r0, r0
10009352:	4318      	orrs	r0, r3
10009354:	e7cb      	b.n	100092ee <__gedf2+0x66>
10009356:	45c4      	cmp	ip, r8
10009358:	d8c4      	bhi.n	100092e4 <__gedf2+0x5c>
1000935a:	2000      	movs	r0, #0
1000935c:	45c4      	cmp	ip, r8
1000935e:	d3f3      	bcc.n	10009348 <__gedf2+0xc0>
10009360:	e7c5      	b.n	100092ee <__gedf2+0x66>
10009362:	46c0      	nop			; (mov r8, r8)
10009364:	000007ff 	.word	0x000007ff

10009368 <__ledf2>:
10009368:	b5f0      	push	{r4, r5, r6, r7, lr}
1000936a:	465f      	mov	r7, fp
1000936c:	464d      	mov	r5, r9
1000936e:	4644      	mov	r4, r8
10009370:	4656      	mov	r6, sl
10009372:	4680      	mov	r8, r0
10009374:	b4f0      	push	{r4, r5, r6, r7}
10009376:	1c06      	adds	r6, r0, #0
10009378:	0308      	lsls	r0, r1, #12
1000937a:	0b00      	lsrs	r0, r0, #12
1000937c:	4684      	mov	ip, r0
1000937e:	482c      	ldr	r0, [pc, #176]	; (10009430 <__ledf2+0xc8>)
10009380:	004c      	lsls	r4, r1, #1
10009382:	031f      	lsls	r7, r3, #12
10009384:	005d      	lsls	r5, r3, #1
10009386:	0fc9      	lsrs	r1, r1, #31
10009388:	0d64      	lsrs	r4, r4, #21
1000938a:	468b      	mov	fp, r1
1000938c:	4691      	mov	r9, r2
1000938e:	0b3f      	lsrs	r7, r7, #12
10009390:	0d6d      	lsrs	r5, r5, #21
10009392:	0fdb      	lsrs	r3, r3, #31
10009394:	4284      	cmp	r4, r0
10009396:	d012      	beq.n	100093be <__ledf2+0x56>
10009398:	4285      	cmp	r5, r0
1000939a:	d025      	beq.n	100093e8 <__ledf2+0x80>
1000939c:	2c00      	cmp	r4, #0
1000939e:	d114      	bne.n	100093ca <__ledf2+0x62>
100093a0:	4661      	mov	r1, ip
100093a2:	430e      	orrs	r6, r1
100093a4:	4270      	negs	r0, r6
100093a6:	4146      	adcs	r6, r0
100093a8:	2d00      	cmp	r5, #0
100093aa:	d035      	beq.n	10009418 <__ledf2+0xb0>
100093ac:	2e00      	cmp	r6, #0
100093ae:	d021      	beq.n	100093f4 <__ledf2+0x8c>
100093b0:	4258      	negs	r0, r3
100093b2:	4158      	adcs	r0, r3
100093b4:	2101      	movs	r1, #1
100093b6:	4243      	negs	r3, r0
100093b8:	430b      	orrs	r3, r1
100093ba:	1c18      	adds	r0, r3, #0
100093bc:	e00e      	b.n	100093dc <__ledf2+0x74>
100093be:	4661      	mov	r1, ip
100093c0:	2002      	movs	r0, #2
100093c2:	4331      	orrs	r1, r6
100093c4:	d10a      	bne.n	100093dc <__ledf2+0x74>
100093c6:	42a5      	cmp	r5, r4
100093c8:	d00e      	beq.n	100093e8 <__ledf2+0x80>
100093ca:	2d00      	cmp	r5, #0
100093cc:	d112      	bne.n	100093f4 <__ledf2+0x8c>
100093ce:	433a      	orrs	r2, r7
100093d0:	d110      	bne.n	100093f4 <__ledf2+0x8c>
100093d2:	465b      	mov	r3, fp
100093d4:	4259      	negs	r1, r3
100093d6:	2301      	movs	r3, #1
100093d8:	4319      	orrs	r1, r3
100093da:	1c08      	adds	r0, r1, #0
100093dc:	bc3c      	pop	{r2, r3, r4, r5}
100093de:	4690      	mov	r8, r2
100093e0:	4699      	mov	r9, r3
100093e2:	46a2      	mov	sl, r4
100093e4:	46ab      	mov	fp, r5
100093e6:	bdf0      	pop	{r4, r5, r6, r7, pc}
100093e8:	1c39      	adds	r1, r7, #0
100093ea:	2002      	movs	r0, #2
100093ec:	4311      	orrs	r1, r2
100093ee:	d1f5      	bne.n	100093dc <__ledf2+0x74>
100093f0:	2c00      	cmp	r4, #0
100093f2:	d0d5      	beq.n	100093a0 <__ledf2+0x38>
100093f4:	459b      	cmp	fp, r3
100093f6:	d1ec      	bne.n	100093d2 <__ledf2+0x6a>
100093f8:	42ac      	cmp	r4, r5
100093fa:	dcea      	bgt.n	100093d2 <__ledf2+0x6a>
100093fc:	db05      	blt.n	1000940a <__ledf2+0xa2>
100093fe:	45bc      	cmp	ip, r7
10009400:	d8e7      	bhi.n	100093d2 <__ledf2+0x6a>
10009402:	d00f      	beq.n	10009424 <__ledf2+0xbc>
10009404:	2000      	movs	r0, #0
10009406:	45bc      	cmp	ip, r7
10009408:	d2e8      	bcs.n	100093dc <__ledf2+0x74>
1000940a:	4658      	mov	r0, fp
1000940c:	4241      	negs	r1, r0
1000940e:	4148      	adcs	r0, r1
10009410:	4241      	negs	r1, r0
10009412:	2001      	movs	r0, #1
10009414:	4308      	orrs	r0, r1
10009416:	e7e1      	b.n	100093dc <__ledf2+0x74>
10009418:	433a      	orrs	r2, r7
1000941a:	d1c7      	bne.n	100093ac <__ledf2+0x44>
1000941c:	2000      	movs	r0, #0
1000941e:	2e00      	cmp	r6, #0
10009420:	d1dc      	bne.n	100093dc <__ledf2+0x74>
10009422:	e7d6      	b.n	100093d2 <__ledf2+0x6a>
10009424:	45c8      	cmp	r8, r9
10009426:	d8d4      	bhi.n	100093d2 <__ledf2+0x6a>
10009428:	2000      	movs	r0, #0
1000942a:	45c8      	cmp	r8, r9
1000942c:	d3ed      	bcc.n	1000940a <__ledf2+0xa2>
1000942e:	e7d5      	b.n	100093dc <__ledf2+0x74>
10009430:	000007ff 	.word	0x000007ff

10009434 <__aeabi_dmul>:
10009434:	b5f0      	push	{r4, r5, r6, r7, lr}
10009436:	465f      	mov	r7, fp
10009438:	4656      	mov	r6, sl
1000943a:	464d      	mov	r5, r9
1000943c:	4644      	mov	r4, r8
1000943e:	b4f0      	push	{r4, r5, r6, r7}
10009440:	1c05      	adds	r5, r0, #0
10009442:	1c06      	adds	r6, r0, #0
10009444:	0308      	lsls	r0, r1, #12
10009446:	b087      	sub	sp, #28
10009448:	4699      	mov	r9, r3
1000944a:	004f      	lsls	r7, r1, #1
1000944c:	0b03      	lsrs	r3, r0, #12
1000944e:	0fcc      	lsrs	r4, r1, #31
10009450:	4692      	mov	sl, r2
10009452:	469b      	mov	fp, r3
10009454:	0d7f      	lsrs	r7, r7, #21
10009456:	9401      	str	r4, [sp, #4]
10009458:	d067      	beq.n	1000952a <__aeabi_dmul+0xf6>
1000945a:	4b6c      	ldr	r3, [pc, #432]	; (1000960c <__aeabi_dmul+0x1d8>)
1000945c:	429f      	cmp	r7, r3
1000945e:	d036      	beq.n	100094ce <__aeabi_dmul+0x9a>
10009460:	2080      	movs	r0, #128	; 0x80
10009462:	465b      	mov	r3, fp
10009464:	0340      	lsls	r0, r0, #13
10009466:	4318      	orrs	r0, r3
10009468:	00c0      	lsls	r0, r0, #3
1000946a:	0f6b      	lsrs	r3, r5, #29
1000946c:	4318      	orrs	r0, r3
1000946e:	4b68      	ldr	r3, [pc, #416]	; (10009610 <__aeabi_dmul+0x1dc>)
10009470:	4683      	mov	fp, r0
10009472:	469c      	mov	ip, r3
10009474:	2300      	movs	r3, #0
10009476:	4698      	mov	r8, r3
10009478:	00ee      	lsls	r6, r5, #3
1000947a:	4467      	add	r7, ip
1000947c:	9300      	str	r3, [sp, #0]
1000947e:	464b      	mov	r3, r9
10009480:	4649      	mov	r1, r9
10009482:	031d      	lsls	r5, r3, #12
10009484:	0fc9      	lsrs	r1, r1, #31
10009486:	005b      	lsls	r3, r3, #1
10009488:	4652      	mov	r2, sl
1000948a:	0b2d      	lsrs	r5, r5, #12
1000948c:	0d5b      	lsrs	r3, r3, #21
1000948e:	4689      	mov	r9, r1
10009490:	d100      	bne.n	10009494 <__aeabi_dmul+0x60>
10009492:	e06e      	b.n	10009572 <__aeabi_dmul+0x13e>
10009494:	495d      	ldr	r1, [pc, #372]	; (1000960c <__aeabi_dmul+0x1d8>)
10009496:	428b      	cmp	r3, r1
10009498:	d064      	beq.n	10009564 <__aeabi_dmul+0x130>
1000949a:	2080      	movs	r0, #128	; 0x80
1000949c:	495c      	ldr	r1, [pc, #368]	; (10009610 <__aeabi_dmul+0x1dc>)
1000949e:	0340      	lsls	r0, r0, #13
100094a0:	468c      	mov	ip, r1
100094a2:	2100      	movs	r1, #0
100094a4:	4305      	orrs	r5, r0
100094a6:	00ed      	lsls	r5, r5, #3
100094a8:	0f50      	lsrs	r0, r2, #29
100094aa:	4305      	orrs	r5, r0
100094ac:	00d2      	lsls	r2, r2, #3
100094ae:	4463      	add	r3, ip
100094b0:	4648      	mov	r0, r9
100094b2:	18ff      	adds	r7, r7, r3
100094b4:	1c7b      	adds	r3, r7, #1
100094b6:	469a      	mov	sl, r3
100094b8:	9b00      	ldr	r3, [sp, #0]
100094ba:	4060      	eors	r0, r4
100094bc:	9002      	str	r0, [sp, #8]
100094be:	430b      	orrs	r3, r1
100094c0:	2b0f      	cmp	r3, #15
100094c2:	d900      	bls.n	100094c6 <__aeabi_dmul+0x92>
100094c4:	e0ac      	b.n	10009620 <__aeabi_dmul+0x1ec>
100094c6:	4853      	ldr	r0, [pc, #332]	; (10009614 <__aeabi_dmul+0x1e0>)
100094c8:	009b      	lsls	r3, r3, #2
100094ca:	58c3      	ldr	r3, [r0, r3]
100094cc:	469f      	mov	pc, r3
100094ce:	465b      	mov	r3, fp
100094d0:	431d      	orrs	r5, r3
100094d2:	d000      	beq.n	100094d6 <__aeabi_dmul+0xa2>
100094d4:	e082      	b.n	100095dc <__aeabi_dmul+0x1a8>
100094d6:	2308      	movs	r3, #8
100094d8:	9300      	str	r3, [sp, #0]
100094da:	2300      	movs	r3, #0
100094dc:	469b      	mov	fp, r3
100094de:	3302      	adds	r3, #2
100094e0:	2600      	movs	r6, #0
100094e2:	4698      	mov	r8, r3
100094e4:	e7cb      	b.n	1000947e <__aeabi_dmul+0x4a>
100094e6:	9b02      	ldr	r3, [sp, #8]
100094e8:	9301      	str	r3, [sp, #4]
100094ea:	4643      	mov	r3, r8
100094ec:	2b02      	cmp	r3, #2
100094ee:	d159      	bne.n	100095a4 <__aeabi_dmul+0x170>
100094f0:	2401      	movs	r4, #1
100094f2:	2500      	movs	r5, #0
100094f4:	2600      	movs	r6, #0
100094f6:	9b01      	ldr	r3, [sp, #4]
100094f8:	401c      	ands	r4, r3
100094fa:	4b44      	ldr	r3, [pc, #272]	; (1000960c <__aeabi_dmul+0x1d8>)
100094fc:	2100      	movs	r1, #0
100094fe:	032d      	lsls	r5, r5, #12
10009500:	0d0a      	lsrs	r2, r1, #20
10009502:	0512      	lsls	r2, r2, #20
10009504:	0b2d      	lsrs	r5, r5, #12
10009506:	4315      	orrs	r5, r2
10009508:	4a43      	ldr	r2, [pc, #268]	; (10009618 <__aeabi_dmul+0x1e4>)
1000950a:	051b      	lsls	r3, r3, #20
1000950c:	4015      	ands	r5, r2
1000950e:	431d      	orrs	r5, r3
10009510:	006d      	lsls	r5, r5, #1
10009512:	07e4      	lsls	r4, r4, #31
10009514:	086d      	lsrs	r5, r5, #1
10009516:	4325      	orrs	r5, r4
10009518:	1c30      	adds	r0, r6, #0
1000951a:	1c29      	adds	r1, r5, #0
1000951c:	b007      	add	sp, #28
1000951e:	bc3c      	pop	{r2, r3, r4, r5}
10009520:	4690      	mov	r8, r2
10009522:	4699      	mov	r9, r3
10009524:	46a2      	mov	sl, r4
10009526:	46ab      	mov	fp, r5
10009528:	bdf0      	pop	{r4, r5, r6, r7, pc}
1000952a:	432b      	orrs	r3, r5
1000952c:	d04e      	beq.n	100095cc <__aeabi_dmul+0x198>
1000952e:	465b      	mov	r3, fp
10009530:	2b00      	cmp	r3, #0
10009532:	d100      	bne.n	10009536 <__aeabi_dmul+0x102>
10009534:	e185      	b.n	10009842 <__aeabi_dmul+0x40e>
10009536:	4658      	mov	r0, fp
10009538:	f7fe f8da 	bl	100076f0 <__clzsi2>
1000953c:	1c02      	adds	r2, r0, #0
1000953e:	2328      	movs	r3, #40	; 0x28
10009540:	1c29      	adds	r1, r5, #0
10009542:	1a9b      	subs	r3, r3, r2
10009544:	1c16      	adds	r6, r2, #0
10009546:	4658      	mov	r0, fp
10009548:	40d9      	lsrs	r1, r3
1000954a:	3e08      	subs	r6, #8
1000954c:	40b0      	lsls	r0, r6
1000954e:	1c0b      	adds	r3, r1, #0
10009550:	40b5      	lsls	r5, r6
10009552:	4303      	orrs	r3, r0
10009554:	469b      	mov	fp, r3
10009556:	1c2e      	adds	r6, r5, #0
10009558:	2300      	movs	r3, #0
1000955a:	4f30      	ldr	r7, [pc, #192]	; (1000961c <__aeabi_dmul+0x1e8>)
1000955c:	9300      	str	r3, [sp, #0]
1000955e:	1abf      	subs	r7, r7, r2
10009560:	4698      	mov	r8, r3
10009562:	e78c      	b.n	1000947e <__aeabi_dmul+0x4a>
10009564:	4651      	mov	r1, sl
10009566:	4329      	orrs	r1, r5
10009568:	d12e      	bne.n	100095c8 <__aeabi_dmul+0x194>
1000956a:	2500      	movs	r5, #0
1000956c:	2200      	movs	r2, #0
1000956e:	2102      	movs	r1, #2
10009570:	e79e      	b.n	100094b0 <__aeabi_dmul+0x7c>
10009572:	4651      	mov	r1, sl
10009574:	4329      	orrs	r1, r5
10009576:	d023      	beq.n	100095c0 <__aeabi_dmul+0x18c>
10009578:	2d00      	cmp	r5, #0
1000957a:	d100      	bne.n	1000957e <__aeabi_dmul+0x14a>
1000957c:	e154      	b.n	10009828 <__aeabi_dmul+0x3f4>
1000957e:	1c28      	adds	r0, r5, #0
10009580:	f7fe f8b6 	bl	100076f0 <__clzsi2>
10009584:	1c03      	adds	r3, r0, #0
10009586:	2128      	movs	r1, #40	; 0x28
10009588:	4650      	mov	r0, sl
1000958a:	1ac9      	subs	r1, r1, r3
1000958c:	1c1a      	adds	r2, r3, #0
1000958e:	40c8      	lsrs	r0, r1
10009590:	4651      	mov	r1, sl
10009592:	3a08      	subs	r2, #8
10009594:	4091      	lsls	r1, r2
10009596:	4095      	lsls	r5, r2
10009598:	1c0a      	adds	r2, r1, #0
1000959a:	4305      	orrs	r5, r0
1000959c:	481f      	ldr	r0, [pc, #124]	; (1000961c <__aeabi_dmul+0x1e8>)
1000959e:	2100      	movs	r1, #0
100095a0:	1ac3      	subs	r3, r0, r3
100095a2:	e785      	b.n	100094b0 <__aeabi_dmul+0x7c>
100095a4:	2b03      	cmp	r3, #3
100095a6:	d100      	bne.n	100095aa <__aeabi_dmul+0x176>
100095a8:	e1c2      	b.n	10009930 <__aeabi_dmul+0x4fc>
100095aa:	2b01      	cmp	r3, #1
100095ac:	d000      	beq.n	100095b0 <__aeabi_dmul+0x17c>
100095ae:	e16d      	b.n	1000988c <__aeabi_dmul+0x458>
100095b0:	4644      	mov	r4, r8
100095b2:	9b01      	ldr	r3, [sp, #4]
100095b4:	2500      	movs	r5, #0
100095b6:	401c      	ands	r4, r3
100095b8:	b2e4      	uxtb	r4, r4
100095ba:	2300      	movs	r3, #0
100095bc:	2600      	movs	r6, #0
100095be:	e79d      	b.n	100094fc <__aeabi_dmul+0xc8>
100095c0:	2500      	movs	r5, #0
100095c2:	2200      	movs	r2, #0
100095c4:	2101      	movs	r1, #1
100095c6:	e773      	b.n	100094b0 <__aeabi_dmul+0x7c>
100095c8:	2103      	movs	r1, #3
100095ca:	e771      	b.n	100094b0 <__aeabi_dmul+0x7c>
100095cc:	2304      	movs	r3, #4
100095ce:	9300      	str	r3, [sp, #0]
100095d0:	2300      	movs	r3, #0
100095d2:	469b      	mov	fp, r3
100095d4:	3301      	adds	r3, #1
100095d6:	2600      	movs	r6, #0
100095d8:	4698      	mov	r8, r3
100095da:	e750      	b.n	1000947e <__aeabi_dmul+0x4a>
100095dc:	230c      	movs	r3, #12
100095de:	9300      	str	r3, [sp, #0]
100095e0:	3b09      	subs	r3, #9
100095e2:	4698      	mov	r8, r3
100095e4:	e74b      	b.n	1000947e <__aeabi_dmul+0x4a>
100095e6:	2580      	movs	r5, #128	; 0x80
100095e8:	2400      	movs	r4, #0
100095ea:	032d      	lsls	r5, r5, #12
100095ec:	2600      	movs	r6, #0
100095ee:	4b07      	ldr	r3, [pc, #28]	; (1000960c <__aeabi_dmul+0x1d8>)
100095f0:	e784      	b.n	100094fc <__aeabi_dmul+0xc8>
100095f2:	464b      	mov	r3, r9
100095f4:	46ab      	mov	fp, r5
100095f6:	1c16      	adds	r6, r2, #0
100095f8:	9301      	str	r3, [sp, #4]
100095fa:	4688      	mov	r8, r1
100095fc:	e775      	b.n	100094ea <__aeabi_dmul+0xb6>
100095fe:	9b02      	ldr	r3, [sp, #8]
10009600:	46ab      	mov	fp, r5
10009602:	1c16      	adds	r6, r2, #0
10009604:	9301      	str	r3, [sp, #4]
10009606:	4688      	mov	r8, r1
10009608:	e76f      	b.n	100094ea <__aeabi_dmul+0xb6>
1000960a:	46c0      	nop			; (mov r8, r8)
1000960c:	000007ff 	.word	0x000007ff
10009610:	fffffc01 	.word	0xfffffc01
10009614:	1000ad28 	.word	0x1000ad28
10009618:	800fffff 	.word	0x800fffff
1000961c:	fffffc0d 	.word	0xfffffc0d
10009620:	0c33      	lsrs	r3, r6, #16
10009622:	0436      	lsls	r6, r6, #16
10009624:	0c36      	lsrs	r6, r6, #16
10009626:	469c      	mov	ip, r3
10009628:	1c33      	adds	r3, r6, #0
1000962a:	0c14      	lsrs	r4, r2, #16
1000962c:	0412      	lsls	r2, r2, #16
1000962e:	0c12      	lsrs	r2, r2, #16
10009630:	4353      	muls	r3, r2
10009632:	4698      	mov	r8, r3
10009634:	4663      	mov	r3, ip
10009636:	4353      	muls	r3, r2
10009638:	4699      	mov	r9, r3
1000963a:	4663      	mov	r3, ip
1000963c:	4363      	muls	r3, r4
1000963e:	9301      	str	r3, [sp, #4]
10009640:	1c33      	adds	r3, r6, #0
10009642:	4641      	mov	r1, r8
10009644:	4363      	muls	r3, r4
10009646:	0c09      	lsrs	r1, r1, #16
10009648:	444b      	add	r3, r9
1000964a:	185b      	adds	r3, r3, r1
1000964c:	4599      	cmp	r9, r3
1000964e:	d905      	bls.n	1000965c <__aeabi_dmul+0x228>
10009650:	2080      	movs	r0, #128	; 0x80
10009652:	0240      	lsls	r0, r0, #9
10009654:	4681      	mov	r9, r0
10009656:	9901      	ldr	r1, [sp, #4]
10009658:	4449      	add	r1, r9
1000965a:	9101      	str	r1, [sp, #4]
1000965c:	0c19      	lsrs	r1, r3, #16
1000965e:	9103      	str	r1, [sp, #12]
10009660:	4641      	mov	r1, r8
10009662:	0409      	lsls	r1, r1, #16
10009664:	0c09      	lsrs	r1, r1, #16
10009666:	041b      	lsls	r3, r3, #16
10009668:	185b      	adds	r3, r3, r1
1000966a:	9304      	str	r3, [sp, #16]
1000966c:	0c2b      	lsrs	r3, r5, #16
1000966e:	4698      	mov	r8, r3
10009670:	1c33      	adds	r3, r6, #0
10009672:	042d      	lsls	r5, r5, #16
10009674:	0c29      	lsrs	r1, r5, #16
10009676:	434b      	muls	r3, r1
10009678:	4660      	mov	r0, ip
1000967a:	9300      	str	r3, [sp, #0]
1000967c:	4643      	mov	r3, r8
1000967e:	4665      	mov	r5, ip
10009680:	4358      	muls	r0, r3
10009682:	435e      	muls	r6, r3
10009684:	9b00      	ldr	r3, [sp, #0]
10009686:	434d      	muls	r5, r1
10009688:	0c1b      	lsrs	r3, r3, #16
1000968a:	4699      	mov	r9, r3
1000968c:	19ae      	adds	r6, r5, r6
1000968e:	444e      	add	r6, r9
10009690:	4684      	mov	ip, r0
10009692:	42b5      	cmp	r5, r6
10009694:	d903      	bls.n	1000969e <__aeabi_dmul+0x26a>
10009696:	2380      	movs	r3, #128	; 0x80
10009698:	025b      	lsls	r3, r3, #9
1000969a:	4699      	mov	r9, r3
1000969c:	44cc      	add	ip, r9
1000969e:	0c35      	lsrs	r5, r6, #16
100096a0:	1c2b      	adds	r3, r5, #0
100096a2:	9803      	ldr	r0, [sp, #12]
100096a4:	4463      	add	r3, ip
100096a6:	4684      	mov	ip, r0
100096a8:	9305      	str	r3, [sp, #20]
100096aa:	9b00      	ldr	r3, [sp, #0]
100096ac:	0436      	lsls	r6, r6, #16
100096ae:	041b      	lsls	r3, r3, #16
100096b0:	0c1b      	lsrs	r3, r3, #16
100096b2:	18f3      	adds	r3, r6, r3
100096b4:	449c      	add	ip, r3
100096b6:	4660      	mov	r0, ip
100096b8:	9003      	str	r0, [sp, #12]
100096ba:	4658      	mov	r0, fp
100096bc:	0405      	lsls	r5, r0, #16
100096be:	0c06      	lsrs	r6, r0, #16
100096c0:	0c28      	lsrs	r0, r5, #16
100096c2:	4684      	mov	ip, r0
100096c4:	4350      	muls	r0, r2
100096c6:	1c35      	adds	r5, r6, #0
100096c8:	4681      	mov	r9, r0
100096ca:	4660      	mov	r0, ip
100096cc:	4365      	muls	r5, r4
100096ce:	4344      	muls	r4, r0
100096d0:	4648      	mov	r0, r9
100096d2:	0c00      	lsrs	r0, r0, #16
100096d4:	4683      	mov	fp, r0
100096d6:	4372      	muls	r2, r6
100096d8:	1914      	adds	r4, r2, r4
100096da:	445c      	add	r4, fp
100096dc:	42a2      	cmp	r2, r4
100096de:	d903      	bls.n	100096e8 <__aeabi_dmul+0x2b4>
100096e0:	2280      	movs	r2, #128	; 0x80
100096e2:	0252      	lsls	r2, r2, #9
100096e4:	4693      	mov	fp, r2
100096e6:	445d      	add	r5, fp
100096e8:	0c22      	lsrs	r2, r4, #16
100096ea:	18ad      	adds	r5, r5, r2
100096ec:	464a      	mov	r2, r9
100096ee:	0412      	lsls	r2, r2, #16
100096f0:	0c12      	lsrs	r2, r2, #16
100096f2:	0424      	lsls	r4, r4, #16
100096f4:	4640      	mov	r0, r8
100096f6:	18a4      	adds	r4, r4, r2
100096f8:	4662      	mov	r2, ip
100096fa:	434a      	muls	r2, r1
100096fc:	4371      	muls	r1, r6
100096fe:	4346      	muls	r6, r0
10009700:	4660      	mov	r0, ip
10009702:	9600      	str	r6, [sp, #0]
10009704:	4646      	mov	r6, r8
10009706:	4370      	muls	r0, r6
10009708:	4680      	mov	r8, r0
1000970a:	0c10      	lsrs	r0, r2, #16
1000970c:	4684      	mov	ip, r0
1000970e:	4488      	add	r8, r1
10009710:	44e0      	add	r8, ip
10009712:	4541      	cmp	r1, r8
10009714:	d905      	bls.n	10009722 <__aeabi_dmul+0x2ee>
10009716:	2180      	movs	r1, #128	; 0x80
10009718:	0249      	lsls	r1, r1, #9
1000971a:	468c      	mov	ip, r1
1000971c:	9900      	ldr	r1, [sp, #0]
1000971e:	4461      	add	r1, ip
10009720:	9100      	str	r1, [sp, #0]
10009722:	9801      	ldr	r0, [sp, #4]
10009724:	9903      	ldr	r1, [sp, #12]
10009726:	4684      	mov	ip, r0
10009728:	4461      	add	r1, ip
1000972a:	4299      	cmp	r1, r3
1000972c:	419b      	sbcs	r3, r3
1000972e:	425b      	negs	r3, r3
10009730:	4699      	mov	r9, r3
10009732:	9805      	ldr	r0, [sp, #20]
10009734:	4643      	mov	r3, r8
10009736:	4684      	mov	ip, r0
10009738:	0412      	lsls	r2, r2, #16
1000973a:	0c12      	lsrs	r2, r2, #16
1000973c:	041b      	lsls	r3, r3, #16
1000973e:	189b      	adds	r3, r3, r2
10009740:	4463      	add	r3, ip
10009742:	469c      	mov	ip, r3
10009744:	46ab      	mov	fp, r5
10009746:	4283      	cmp	r3, r0
10009748:	419b      	sbcs	r3, r3
1000974a:	4640      	mov	r0, r8
1000974c:	190a      	adds	r2, r1, r4
1000974e:	44cc      	add	ip, r9
10009750:	42a2      	cmp	r2, r4
10009752:	4189      	sbcs	r1, r1
10009754:	44e3      	add	fp, ip
10009756:	45cc      	cmp	ip, r9
10009758:	41b6      	sbcs	r6, r6
1000975a:	465c      	mov	r4, fp
1000975c:	0c00      	lsrs	r0, r0, #16
1000975e:	4680      	mov	r8, r0
10009760:	4249      	negs	r1, r1
10009762:	4276      	negs	r6, r6
10009764:	425b      	negs	r3, r3
10009766:	1864      	adds	r4, r4, r1
10009768:	4333      	orrs	r3, r6
1000976a:	4498      	add	r8, r3
1000976c:	428c      	cmp	r4, r1
1000976e:	4189      	sbcs	r1, r1
10009770:	45ab      	cmp	fp, r5
10009772:	419b      	sbcs	r3, r3
10009774:	4249      	negs	r1, r1
10009776:	425b      	negs	r3, r3
10009778:	4319      	orrs	r1, r3
1000977a:	1c0d      	adds	r5, r1, #0
1000977c:	9b00      	ldr	r3, [sp, #0]
1000977e:	4445      	add	r5, r8
10009780:	18ee      	adds	r6, r5, r3
10009782:	0276      	lsls	r6, r6, #9
10009784:	0de5      	lsrs	r5, r4, #23
10009786:	432e      	orrs	r6, r5
10009788:	46b3      	mov	fp, r6
1000978a:	9b04      	ldr	r3, [sp, #16]
1000978c:	0256      	lsls	r6, r2, #9
1000978e:	431e      	orrs	r6, r3
10009790:	1e73      	subs	r3, r6, #1
10009792:	419e      	sbcs	r6, r3
10009794:	465b      	mov	r3, fp
10009796:	0dd2      	lsrs	r2, r2, #23
10009798:	4332      	orrs	r2, r6
1000979a:	0266      	lsls	r6, r4, #9
1000979c:	4316      	orrs	r6, r2
1000979e:	01db      	lsls	r3, r3, #7
100097a0:	d50a      	bpl.n	100097b8 <__aeabi_dmul+0x384>
100097a2:	2301      	movs	r3, #1
100097a4:	4033      	ands	r3, r6
100097a6:	0876      	lsrs	r6, r6, #1
100097a8:	431e      	orrs	r6, r3
100097aa:	465b      	mov	r3, fp
100097ac:	07db      	lsls	r3, r3, #31
100097ae:	431e      	orrs	r6, r3
100097b0:	465b      	mov	r3, fp
100097b2:	085b      	lsrs	r3, r3, #1
100097b4:	469b      	mov	fp, r3
100097b6:	4657      	mov	r7, sl
100097b8:	4b63      	ldr	r3, [pc, #396]	; (10009948 <__aeabi_dmul+0x514>)
100097ba:	18fb      	adds	r3, r7, r3
100097bc:	2b00      	cmp	r3, #0
100097be:	dd5a      	ble.n	10009876 <__aeabi_dmul+0x442>
100097c0:	0772      	lsls	r2, r6, #29
100097c2:	d009      	beq.n	100097d8 <__aeabi_dmul+0x3a4>
100097c4:	220f      	movs	r2, #15
100097c6:	4032      	ands	r2, r6
100097c8:	2a04      	cmp	r2, #4
100097ca:	d005      	beq.n	100097d8 <__aeabi_dmul+0x3a4>
100097cc:	1d32      	adds	r2, r6, #4
100097ce:	42b2      	cmp	r2, r6
100097d0:	41b6      	sbcs	r6, r6
100097d2:	4276      	negs	r6, r6
100097d4:	44b3      	add	fp, r6
100097d6:	1c16      	adds	r6, r2, #0
100097d8:	465a      	mov	r2, fp
100097da:	01d2      	lsls	r2, r2, #7
100097dc:	d506      	bpl.n	100097ec <__aeabi_dmul+0x3b8>
100097de:	465a      	mov	r2, fp
100097e0:	4b5a      	ldr	r3, [pc, #360]	; (1000994c <__aeabi_dmul+0x518>)
100097e2:	401a      	ands	r2, r3
100097e4:	2380      	movs	r3, #128	; 0x80
100097e6:	4693      	mov	fp, r2
100097e8:	00db      	lsls	r3, r3, #3
100097ea:	18fb      	adds	r3, r7, r3
100097ec:	4a58      	ldr	r2, [pc, #352]	; (10009950 <__aeabi_dmul+0x51c>)
100097ee:	4293      	cmp	r3, r2
100097f0:	dd34      	ble.n	1000985c <__aeabi_dmul+0x428>
100097f2:	2401      	movs	r4, #1
100097f4:	9b02      	ldr	r3, [sp, #8]
100097f6:	2500      	movs	r5, #0
100097f8:	401c      	ands	r4, r3
100097fa:	2600      	movs	r6, #0
100097fc:	4b55      	ldr	r3, [pc, #340]	; (10009954 <__aeabi_dmul+0x520>)
100097fe:	e67d      	b.n	100094fc <__aeabi_dmul+0xc8>
10009800:	2080      	movs	r0, #128	; 0x80
10009802:	465b      	mov	r3, fp
10009804:	0300      	lsls	r0, r0, #12
10009806:	4203      	tst	r3, r0
10009808:	d008      	beq.n	1000981c <__aeabi_dmul+0x3e8>
1000980a:	4205      	tst	r5, r0
1000980c:	d106      	bne.n	1000981c <__aeabi_dmul+0x3e8>
1000980e:	4305      	orrs	r5, r0
10009810:	032d      	lsls	r5, r5, #12
10009812:	0b2d      	lsrs	r5, r5, #12
10009814:	464c      	mov	r4, r9
10009816:	1c16      	adds	r6, r2, #0
10009818:	4b4e      	ldr	r3, [pc, #312]	; (10009954 <__aeabi_dmul+0x520>)
1000981a:	e66f      	b.n	100094fc <__aeabi_dmul+0xc8>
1000981c:	465d      	mov	r5, fp
1000981e:	4305      	orrs	r5, r0
10009820:	032d      	lsls	r5, r5, #12
10009822:	0b2d      	lsrs	r5, r5, #12
10009824:	4b4b      	ldr	r3, [pc, #300]	; (10009954 <__aeabi_dmul+0x520>)
10009826:	e669      	b.n	100094fc <__aeabi_dmul+0xc8>
10009828:	4650      	mov	r0, sl
1000982a:	f7fd ff61 	bl	100076f0 <__clzsi2>
1000982e:	1c03      	adds	r3, r0, #0
10009830:	3320      	adds	r3, #32
10009832:	2b27      	cmp	r3, #39	; 0x27
10009834:	dc00      	bgt.n	10009838 <__aeabi_dmul+0x404>
10009836:	e6a6      	b.n	10009586 <__aeabi_dmul+0x152>
10009838:	4655      	mov	r5, sl
1000983a:	3808      	subs	r0, #8
1000983c:	4085      	lsls	r5, r0
1000983e:	2200      	movs	r2, #0
10009840:	e6ac      	b.n	1000959c <__aeabi_dmul+0x168>
10009842:	1c28      	adds	r0, r5, #0
10009844:	f7fd ff54 	bl	100076f0 <__clzsi2>
10009848:	1c02      	adds	r2, r0, #0
1000984a:	3220      	adds	r2, #32
1000984c:	2a27      	cmp	r2, #39	; 0x27
1000984e:	dc00      	bgt.n	10009852 <__aeabi_dmul+0x41e>
10009850:	e675      	b.n	1000953e <__aeabi_dmul+0x10a>
10009852:	3808      	subs	r0, #8
10009854:	4085      	lsls	r5, r0
10009856:	2600      	movs	r6, #0
10009858:	46ab      	mov	fp, r5
1000985a:	e67d      	b.n	10009558 <__aeabi_dmul+0x124>
1000985c:	465a      	mov	r2, fp
1000985e:	08f6      	lsrs	r6, r6, #3
10009860:	0752      	lsls	r2, r2, #29
10009862:	4316      	orrs	r6, r2
10009864:	465a      	mov	r2, fp
10009866:	2401      	movs	r4, #1
10009868:	0255      	lsls	r5, r2, #9
1000986a:	9a02      	ldr	r2, [sp, #8]
1000986c:	055b      	lsls	r3, r3, #21
1000986e:	0b2d      	lsrs	r5, r5, #12
10009870:	0d5b      	lsrs	r3, r3, #21
10009872:	4014      	ands	r4, r2
10009874:	e642      	b.n	100094fc <__aeabi_dmul+0xc8>
10009876:	4d38      	ldr	r5, [pc, #224]	; (10009958 <__aeabi_dmul+0x524>)
10009878:	1bed      	subs	r5, r5, r7
1000987a:	2d38      	cmp	r5, #56	; 0x38
1000987c:	dd0a      	ble.n	10009894 <__aeabi_dmul+0x460>
1000987e:	2401      	movs	r4, #1
10009880:	9b02      	ldr	r3, [sp, #8]
10009882:	2500      	movs	r5, #0
10009884:	401c      	ands	r4, r3
10009886:	2600      	movs	r6, #0
10009888:	2300      	movs	r3, #0
1000988a:	e637      	b.n	100094fc <__aeabi_dmul+0xc8>
1000988c:	9b01      	ldr	r3, [sp, #4]
1000988e:	4657      	mov	r7, sl
10009890:	9302      	str	r3, [sp, #8]
10009892:	e791      	b.n	100097b8 <__aeabi_dmul+0x384>
10009894:	2d1f      	cmp	r5, #31
10009896:	dc25      	bgt.n	100098e4 <__aeabi_dmul+0x4b0>
10009898:	4b30      	ldr	r3, [pc, #192]	; (1000995c <__aeabi_dmul+0x528>)
1000989a:	1c32      	adds	r2, r6, #0
1000989c:	469c      	mov	ip, r3
1000989e:	4467      	add	r7, ip
100098a0:	40be      	lsls	r6, r7
100098a2:	465b      	mov	r3, fp
100098a4:	40bb      	lsls	r3, r7
100098a6:	1c37      	adds	r7, r6, #0
100098a8:	40ea      	lsrs	r2, r5
100098aa:	1e7e      	subs	r6, r7, #1
100098ac:	41b7      	sbcs	r7, r6
100098ae:	4313      	orrs	r3, r2
100098b0:	433b      	orrs	r3, r7
100098b2:	1c1e      	adds	r6, r3, #0
100098b4:	465b      	mov	r3, fp
100098b6:	40eb      	lsrs	r3, r5
100098b8:	1c1d      	adds	r5, r3, #0
100098ba:	0773      	lsls	r3, r6, #29
100098bc:	d009      	beq.n	100098d2 <__aeabi_dmul+0x49e>
100098be:	230f      	movs	r3, #15
100098c0:	4033      	ands	r3, r6
100098c2:	2b04      	cmp	r3, #4
100098c4:	d005      	beq.n	100098d2 <__aeabi_dmul+0x49e>
100098c6:	1d33      	adds	r3, r6, #4
100098c8:	42b3      	cmp	r3, r6
100098ca:	41b6      	sbcs	r6, r6
100098cc:	4276      	negs	r6, r6
100098ce:	19ad      	adds	r5, r5, r6
100098d0:	1c1e      	adds	r6, r3, #0
100098d2:	022b      	lsls	r3, r5, #8
100098d4:	d520      	bpl.n	10009918 <__aeabi_dmul+0x4e4>
100098d6:	2401      	movs	r4, #1
100098d8:	9b02      	ldr	r3, [sp, #8]
100098da:	2500      	movs	r5, #0
100098dc:	401c      	ands	r4, r3
100098de:	2600      	movs	r6, #0
100098e0:	2301      	movs	r3, #1
100098e2:	e60b      	b.n	100094fc <__aeabi_dmul+0xc8>
100098e4:	465a      	mov	r2, fp
100098e6:	4b1e      	ldr	r3, [pc, #120]	; (10009960 <__aeabi_dmul+0x52c>)
100098e8:	1bdb      	subs	r3, r3, r7
100098ea:	40da      	lsrs	r2, r3
100098ec:	1c13      	adds	r3, r2, #0
100098ee:	2d20      	cmp	r5, #32
100098f0:	d01c      	beq.n	1000992c <__aeabi_dmul+0x4f8>
100098f2:	4a1c      	ldr	r2, [pc, #112]	; (10009964 <__aeabi_dmul+0x530>)
100098f4:	4694      	mov	ip, r2
100098f6:	465a      	mov	r2, fp
100098f8:	4467      	add	r7, ip
100098fa:	40ba      	lsls	r2, r7
100098fc:	1c17      	adds	r7, r2, #0
100098fe:	433e      	orrs	r6, r7
10009900:	1e72      	subs	r2, r6, #1
10009902:	4196      	sbcs	r6, r2
10009904:	431e      	orrs	r6, r3
10009906:	2307      	movs	r3, #7
10009908:	2500      	movs	r5, #0
1000990a:	4033      	ands	r3, r6
1000990c:	d007      	beq.n	1000991e <__aeabi_dmul+0x4ea>
1000990e:	230f      	movs	r3, #15
10009910:	2500      	movs	r5, #0
10009912:	4033      	ands	r3, r6
10009914:	2b04      	cmp	r3, #4
10009916:	d1d6      	bne.n	100098c6 <__aeabi_dmul+0x492>
10009918:	076b      	lsls	r3, r5, #29
1000991a:	026d      	lsls	r5, r5, #9
1000991c:	0b2d      	lsrs	r5, r5, #12
1000991e:	2401      	movs	r4, #1
10009920:	08f6      	lsrs	r6, r6, #3
10009922:	431e      	orrs	r6, r3
10009924:	9b02      	ldr	r3, [sp, #8]
10009926:	401c      	ands	r4, r3
10009928:	2300      	movs	r3, #0
1000992a:	e5e7      	b.n	100094fc <__aeabi_dmul+0xc8>
1000992c:	2700      	movs	r7, #0
1000992e:	e7e6      	b.n	100098fe <__aeabi_dmul+0x4ca>
10009930:	2580      	movs	r5, #128	; 0x80
10009932:	465b      	mov	r3, fp
10009934:	2401      	movs	r4, #1
10009936:	032d      	lsls	r5, r5, #12
10009938:	431d      	orrs	r5, r3
1000993a:	9b01      	ldr	r3, [sp, #4]
1000993c:	032d      	lsls	r5, r5, #12
1000993e:	4023      	ands	r3, r4
10009940:	1c1c      	adds	r4, r3, #0
10009942:	0b2d      	lsrs	r5, r5, #12
10009944:	4b03      	ldr	r3, [pc, #12]	; (10009954 <__aeabi_dmul+0x520>)
10009946:	e5d9      	b.n	100094fc <__aeabi_dmul+0xc8>
10009948:	000003ff 	.word	0x000003ff
1000994c:	feffffff 	.word	0xfeffffff
10009950:	000007fe 	.word	0x000007fe
10009954:	000007ff 	.word	0x000007ff
10009958:	fffffc02 	.word	0xfffffc02
1000995c:	0000041e 	.word	0x0000041e
10009960:	fffffbe2 	.word	0xfffffbe2
10009964:	0000043e 	.word	0x0000043e

10009968 <__aeabi_dsub>:
10009968:	b5f0      	push	{r4, r5, r6, r7, lr}
1000996a:	464d      	mov	r5, r9
1000996c:	4644      	mov	r4, r8
1000996e:	465f      	mov	r7, fp
10009970:	4656      	mov	r6, sl
10009972:	b4f0      	push	{r4, r5, r6, r7}
10009974:	1c0e      	adds	r6, r1, #0
10009976:	1c11      	adds	r1, r2, #0
10009978:	0332      	lsls	r2, r6, #12
1000997a:	0a52      	lsrs	r2, r2, #9
1000997c:	0f47      	lsrs	r7, r0, #29
1000997e:	4317      	orrs	r7, r2
10009980:	00c5      	lsls	r5, r0, #3
10009982:	031a      	lsls	r2, r3, #12
10009984:	0058      	lsls	r0, r3, #1
10009986:	0fdb      	lsrs	r3, r3, #31
10009988:	4699      	mov	r9, r3
1000998a:	0a52      	lsrs	r2, r2, #9
1000998c:	0f4b      	lsrs	r3, r1, #29
1000998e:	b083      	sub	sp, #12
10009990:	431a      	orrs	r2, r3
10009992:	00cb      	lsls	r3, r1, #3
10009994:	9301      	str	r3, [sp, #4]
10009996:	4bcf      	ldr	r3, [pc, #828]	; (10009cd4 <__aeabi_dsub+0x36c>)
10009998:	0074      	lsls	r4, r6, #1
1000999a:	0ff6      	lsrs	r6, r6, #31
1000999c:	0d64      	lsrs	r4, r4, #21
1000999e:	46b0      	mov	r8, r6
100099a0:	0d40      	lsrs	r0, r0, #21
100099a2:	4298      	cmp	r0, r3
100099a4:	d100      	bne.n	100099a8 <__aeabi_dsub+0x40>
100099a6:	e0e8      	b.n	10009b7a <__aeabi_dsub+0x212>
100099a8:	2301      	movs	r3, #1
100099aa:	4649      	mov	r1, r9
100099ac:	4059      	eors	r1, r3
100099ae:	1c0b      	adds	r3, r1, #0
100099b0:	429e      	cmp	r6, r3
100099b2:	d100      	bne.n	100099b6 <__aeabi_dsub+0x4e>
100099b4:	e0b1      	b.n	10009b1a <__aeabi_dsub+0x1b2>
100099b6:	1a26      	subs	r6, r4, r0
100099b8:	2e00      	cmp	r6, #0
100099ba:	dc00      	bgt.n	100099be <__aeabi_dsub+0x56>
100099bc:	e11c      	b.n	10009bf8 <__aeabi_dsub+0x290>
100099be:	2800      	cmp	r0, #0
100099c0:	d142      	bne.n	10009a48 <__aeabi_dsub+0xe0>
100099c2:	1c13      	adds	r3, r2, #0
100099c4:	9901      	ldr	r1, [sp, #4]
100099c6:	430b      	orrs	r3, r1
100099c8:	d000      	beq.n	100099cc <__aeabi_dsub+0x64>
100099ca:	e0e6      	b.n	10009b9a <__aeabi_dsub+0x232>
100099cc:	076b      	lsls	r3, r5, #29
100099ce:	d100      	bne.n	100099d2 <__aeabi_dsub+0x6a>
100099d0:	e08e      	b.n	10009af0 <__aeabi_dsub+0x188>
100099d2:	230f      	movs	r3, #15
100099d4:	402b      	ands	r3, r5
100099d6:	2b04      	cmp	r3, #4
100099d8:	d100      	bne.n	100099dc <__aeabi_dsub+0x74>
100099da:	e089      	b.n	10009af0 <__aeabi_dsub+0x188>
100099dc:	1d2a      	adds	r2, r5, #4
100099de:	42aa      	cmp	r2, r5
100099e0:	41ad      	sbcs	r5, r5
100099e2:	2380      	movs	r3, #128	; 0x80
100099e4:	2601      	movs	r6, #1
100099e6:	4641      	mov	r1, r8
100099e8:	426d      	negs	r5, r5
100099ea:	197f      	adds	r7, r7, r5
100099ec:	041b      	lsls	r3, r3, #16
100099ee:	403b      	ands	r3, r7
100099f0:	400e      	ands	r6, r1
100099f2:	1c15      	adds	r5, r2, #0
100099f4:	2b00      	cmp	r3, #0
100099f6:	d100      	bne.n	100099fa <__aeabi_dsub+0x92>
100099f8:	e083      	b.n	10009b02 <__aeabi_dsub+0x19a>
100099fa:	4bb6      	ldr	r3, [pc, #728]	; (10009cd4 <__aeabi_dsub+0x36c>)
100099fc:	3401      	adds	r4, #1
100099fe:	429c      	cmp	r4, r3
10009a00:	d100      	bne.n	10009a04 <__aeabi_dsub+0x9c>
10009a02:	e116      	b.n	10009c32 <__aeabi_dsub+0x2ca>
10009a04:	1c3a      	adds	r2, r7, #0
10009a06:	4bb4      	ldr	r3, [pc, #720]	; (10009cd8 <__aeabi_dsub+0x370>)
10009a08:	08ed      	lsrs	r5, r5, #3
10009a0a:	401a      	ands	r2, r3
10009a0c:	0750      	lsls	r0, r2, #29
10009a0e:	0564      	lsls	r4, r4, #21
10009a10:	0252      	lsls	r2, r2, #9
10009a12:	4305      	orrs	r5, r0
10009a14:	0b12      	lsrs	r2, r2, #12
10009a16:	0d64      	lsrs	r4, r4, #21
10009a18:	2100      	movs	r1, #0
10009a1a:	0312      	lsls	r2, r2, #12
10009a1c:	0d0b      	lsrs	r3, r1, #20
10009a1e:	051b      	lsls	r3, r3, #20
10009a20:	0564      	lsls	r4, r4, #21
10009a22:	0b12      	lsrs	r2, r2, #12
10009a24:	431a      	orrs	r2, r3
10009a26:	0863      	lsrs	r3, r4, #1
10009a28:	4cac      	ldr	r4, [pc, #688]	; (10009cdc <__aeabi_dsub+0x374>)
10009a2a:	07f6      	lsls	r6, r6, #31
10009a2c:	4014      	ands	r4, r2
10009a2e:	431c      	orrs	r4, r3
10009a30:	0064      	lsls	r4, r4, #1
10009a32:	0864      	lsrs	r4, r4, #1
10009a34:	4334      	orrs	r4, r6
10009a36:	1c28      	adds	r0, r5, #0
10009a38:	1c21      	adds	r1, r4, #0
10009a3a:	b003      	add	sp, #12
10009a3c:	bc3c      	pop	{r2, r3, r4, r5}
10009a3e:	4690      	mov	r8, r2
10009a40:	4699      	mov	r9, r3
10009a42:	46a2      	mov	sl, r4
10009a44:	46ab      	mov	fp, r5
10009a46:	bdf0      	pop	{r4, r5, r6, r7, pc}
10009a48:	4ba2      	ldr	r3, [pc, #648]	; (10009cd4 <__aeabi_dsub+0x36c>)
10009a4a:	429c      	cmp	r4, r3
10009a4c:	d0be      	beq.n	100099cc <__aeabi_dsub+0x64>
10009a4e:	2380      	movs	r3, #128	; 0x80
10009a50:	041b      	lsls	r3, r3, #16
10009a52:	431a      	orrs	r2, r3
10009a54:	2e38      	cmp	r6, #56	; 0x38
10009a56:	dd00      	ble.n	10009a5a <__aeabi_dsub+0xf2>
10009a58:	e103      	b.n	10009c62 <__aeabi_dsub+0x2fa>
10009a5a:	2e1f      	cmp	r6, #31
10009a5c:	dd00      	ble.n	10009a60 <__aeabi_dsub+0xf8>
10009a5e:	e13f      	b.n	10009ce0 <__aeabi_dsub+0x378>
10009a60:	2020      	movs	r0, #32
10009a62:	1b83      	subs	r3, r0, r6
10009a64:	4699      	mov	r9, r3
10009a66:	1c13      	adds	r3, r2, #0
10009a68:	4649      	mov	r1, r9
10009a6a:	408b      	lsls	r3, r1
10009a6c:	469c      	mov	ip, r3
10009a6e:	9b01      	ldr	r3, [sp, #4]
10009a70:	4660      	mov	r0, ip
10009a72:	40f3      	lsrs	r3, r6
10009a74:	4303      	orrs	r3, r0
10009a76:	9801      	ldr	r0, [sp, #4]
10009a78:	40f2      	lsrs	r2, r6
10009a7a:	4088      	lsls	r0, r1
10009a7c:	1c01      	adds	r1, r0, #0
10009a7e:	1e48      	subs	r0, r1, #1
10009a80:	4181      	sbcs	r1, r0
10009a82:	430b      	orrs	r3, r1
10009a84:	1aeb      	subs	r3, r5, r3
10009a86:	429d      	cmp	r5, r3
10009a88:	4180      	sbcs	r0, r0
10009a8a:	1c1d      	adds	r5, r3, #0
10009a8c:	1aba      	subs	r2, r7, r2
10009a8e:	4240      	negs	r0, r0
10009a90:	1a17      	subs	r7, r2, r0
10009a92:	023b      	lsls	r3, r7, #8
10009a94:	d400      	bmi.n	10009a98 <__aeabi_dsub+0x130>
10009a96:	e0a8      	b.n	10009bea <__aeabi_dsub+0x282>
10009a98:	027a      	lsls	r2, r7, #9
10009a9a:	0a56      	lsrs	r6, r2, #9
10009a9c:	2e00      	cmp	r6, #0
10009a9e:	d100      	bne.n	10009aa2 <__aeabi_dsub+0x13a>
10009aa0:	e0ca      	b.n	10009c38 <__aeabi_dsub+0x2d0>
10009aa2:	1c30      	adds	r0, r6, #0
10009aa4:	f7fd fe24 	bl	100076f0 <__clzsi2>
10009aa8:	1c03      	adds	r3, r0, #0
10009aaa:	3b08      	subs	r3, #8
10009aac:	2b1f      	cmp	r3, #31
10009aae:	dd00      	ble.n	10009ab2 <__aeabi_dsub+0x14a>
10009ab0:	e0cb      	b.n	10009c4a <__aeabi_dsub+0x2e2>
10009ab2:	2228      	movs	r2, #40	; 0x28
10009ab4:	1c29      	adds	r1, r5, #0
10009ab6:	1a12      	subs	r2, r2, r0
10009ab8:	40d1      	lsrs	r1, r2
10009aba:	409e      	lsls	r6, r3
10009abc:	1c0a      	adds	r2, r1, #0
10009abe:	409d      	lsls	r5, r3
10009ac0:	4332      	orrs	r2, r6
10009ac2:	429c      	cmp	r4, r3
10009ac4:	dd00      	ble.n	10009ac8 <__aeabi_dsub+0x160>
10009ac6:	e0c8      	b.n	10009c5a <__aeabi_dsub+0x2f2>
10009ac8:	1b1c      	subs	r4, r3, r4
10009aca:	1c67      	adds	r7, r4, #1
10009acc:	2f1f      	cmp	r7, #31
10009ace:	dd00      	ble.n	10009ad2 <__aeabi_dsub+0x16a>
10009ad0:	e0ed      	b.n	10009cae <__aeabi_dsub+0x346>
10009ad2:	231f      	movs	r3, #31
10009ad4:	1c29      	adds	r1, r5, #0
10009ad6:	1b1c      	subs	r4, r3, r4
10009ad8:	1c13      	adds	r3, r2, #0
10009ada:	40a5      	lsls	r5, r4
10009adc:	40a3      	lsls	r3, r4
10009ade:	40f9      	lsrs	r1, r7
10009ae0:	1e6c      	subs	r4, r5, #1
10009ae2:	41a5      	sbcs	r5, r4
10009ae4:	40fa      	lsrs	r2, r7
10009ae6:	4319      	orrs	r1, r3
10009ae8:	430d      	orrs	r5, r1
10009aea:	1c17      	adds	r7, r2, #0
10009aec:	2400      	movs	r4, #0
10009aee:	e76d      	b.n	100099cc <__aeabi_dsub+0x64>
10009af0:	2380      	movs	r3, #128	; 0x80
10009af2:	2601      	movs	r6, #1
10009af4:	4642      	mov	r2, r8
10009af6:	041b      	lsls	r3, r3, #16
10009af8:	403b      	ands	r3, r7
10009afa:	4016      	ands	r6, r2
10009afc:	2b00      	cmp	r3, #0
10009afe:	d000      	beq.n	10009b02 <__aeabi_dsub+0x19a>
10009b00:	e77b      	b.n	100099fa <__aeabi_dsub+0x92>
10009b02:	4b74      	ldr	r3, [pc, #464]	; (10009cd4 <__aeabi_dsub+0x36c>)
10009b04:	08ed      	lsrs	r5, r5, #3
10009b06:	0778      	lsls	r0, r7, #29
10009b08:	4305      	orrs	r5, r0
10009b0a:	08fa      	lsrs	r2, r7, #3
10009b0c:	429c      	cmp	r4, r3
10009b0e:	d03b      	beq.n	10009b88 <__aeabi_dsub+0x220>
10009b10:	0312      	lsls	r2, r2, #12
10009b12:	0564      	lsls	r4, r4, #21
10009b14:	0b12      	lsrs	r2, r2, #12
10009b16:	0d64      	lsrs	r4, r4, #21
10009b18:	e77e      	b.n	10009a18 <__aeabi_dsub+0xb0>
10009b1a:	1a23      	subs	r3, r4, r0
10009b1c:	469a      	mov	sl, r3
10009b1e:	2b00      	cmp	r3, #0
10009b20:	dc00      	bgt.n	10009b24 <__aeabi_dsub+0x1bc>
10009b22:	e0a5      	b.n	10009c70 <__aeabi_dsub+0x308>
10009b24:	2800      	cmp	r0, #0
10009b26:	d044      	beq.n	10009bb2 <__aeabi_dsub+0x24a>
10009b28:	486a      	ldr	r0, [pc, #424]	; (10009cd4 <__aeabi_dsub+0x36c>)
10009b2a:	4284      	cmp	r4, r0
10009b2c:	d100      	bne.n	10009b30 <__aeabi_dsub+0x1c8>
10009b2e:	e74d      	b.n	100099cc <__aeabi_dsub+0x64>
10009b30:	2080      	movs	r0, #128	; 0x80
10009b32:	0400      	lsls	r0, r0, #16
10009b34:	4302      	orrs	r2, r0
10009b36:	4653      	mov	r3, sl
10009b38:	2b38      	cmp	r3, #56	; 0x38
10009b3a:	dc00      	bgt.n	10009b3e <__aeabi_dsub+0x1d6>
10009b3c:	e11c      	b.n	10009d78 <__aeabi_dsub+0x410>
10009b3e:	9b01      	ldr	r3, [sp, #4]
10009b40:	431a      	orrs	r2, r3
10009b42:	1e51      	subs	r1, r2, #1
10009b44:	418a      	sbcs	r2, r1
10009b46:	b2d1      	uxtb	r1, r2
10009b48:	2200      	movs	r2, #0
10009b4a:	1949      	adds	r1, r1, r5
10009b4c:	42a9      	cmp	r1, r5
10009b4e:	4180      	sbcs	r0, r0
10009b50:	1c0d      	adds	r5, r1, #0
10009b52:	19d2      	adds	r2, r2, r7
10009b54:	4240      	negs	r0, r0
10009b56:	1817      	adds	r7, r2, r0
10009b58:	023b      	lsls	r3, r7, #8
10009b5a:	d546      	bpl.n	10009bea <__aeabi_dsub+0x282>
10009b5c:	4b5d      	ldr	r3, [pc, #372]	; (10009cd4 <__aeabi_dsub+0x36c>)
10009b5e:	3401      	adds	r4, #1
10009b60:	429c      	cmp	r4, r3
10009b62:	d100      	bne.n	10009b66 <__aeabi_dsub+0x1fe>
10009b64:	e169      	b.n	10009e3a <__aeabi_dsub+0x4d2>
10009b66:	2001      	movs	r0, #1
10009b68:	4a5b      	ldr	r2, [pc, #364]	; (10009cd8 <__aeabi_dsub+0x370>)
10009b6a:	086b      	lsrs	r3, r5, #1
10009b6c:	403a      	ands	r2, r7
10009b6e:	4028      	ands	r0, r5
10009b70:	4318      	orrs	r0, r3
10009b72:	07d5      	lsls	r5, r2, #31
10009b74:	4305      	orrs	r5, r0
10009b76:	0857      	lsrs	r7, r2, #1
10009b78:	e728      	b.n	100099cc <__aeabi_dsub+0x64>
10009b7a:	1c13      	adds	r3, r2, #0
10009b7c:	9901      	ldr	r1, [sp, #4]
10009b7e:	430b      	orrs	r3, r1
10009b80:	d100      	bne.n	10009b84 <__aeabi_dsub+0x21c>
10009b82:	e711      	b.n	100099a8 <__aeabi_dsub+0x40>
10009b84:	464b      	mov	r3, r9
10009b86:	e713      	b.n	100099b0 <__aeabi_dsub+0x48>
10009b88:	1c2b      	adds	r3, r5, #0
10009b8a:	4313      	orrs	r3, r2
10009b8c:	d051      	beq.n	10009c32 <__aeabi_dsub+0x2ca>
10009b8e:	2380      	movs	r3, #128	; 0x80
10009b90:	031b      	lsls	r3, r3, #12
10009b92:	431a      	orrs	r2, r3
10009b94:	0312      	lsls	r2, r2, #12
10009b96:	0b12      	lsrs	r2, r2, #12
10009b98:	e73e      	b.n	10009a18 <__aeabi_dsub+0xb0>
10009b9a:	3e01      	subs	r6, #1
10009b9c:	2e00      	cmp	r6, #0
10009b9e:	d000      	beq.n	10009ba2 <__aeabi_dsub+0x23a>
10009ba0:	e080      	b.n	10009ca4 <__aeabi_dsub+0x33c>
10009ba2:	1a69      	subs	r1, r5, r1
10009ba4:	428d      	cmp	r5, r1
10009ba6:	419b      	sbcs	r3, r3
10009ba8:	1aba      	subs	r2, r7, r2
10009baa:	425b      	negs	r3, r3
10009bac:	1ad7      	subs	r7, r2, r3
10009bae:	1c0d      	adds	r5, r1, #0
10009bb0:	e76f      	b.n	10009a92 <__aeabi_dsub+0x12a>
10009bb2:	1c10      	adds	r0, r2, #0
10009bb4:	9b01      	ldr	r3, [sp, #4]
10009bb6:	4318      	orrs	r0, r3
10009bb8:	d100      	bne.n	10009bbc <__aeabi_dsub+0x254>
10009bba:	e707      	b.n	100099cc <__aeabi_dsub+0x64>
10009bbc:	2301      	movs	r3, #1
10009bbe:	425b      	negs	r3, r3
10009bc0:	469c      	mov	ip, r3
10009bc2:	44e2      	add	sl, ip
10009bc4:	4653      	mov	r3, sl
10009bc6:	2b00      	cmp	r3, #0
10009bc8:	d000      	beq.n	10009bcc <__aeabi_dsub+0x264>
10009bca:	e102      	b.n	10009dd2 <__aeabi_dsub+0x46a>
10009bcc:	9b01      	ldr	r3, [sp, #4]
10009bce:	19d2      	adds	r2, r2, r7
10009bd0:	1959      	adds	r1, r3, r5
10009bd2:	42a9      	cmp	r1, r5
10009bd4:	419b      	sbcs	r3, r3
10009bd6:	425b      	negs	r3, r3
10009bd8:	18d7      	adds	r7, r2, r3
10009bda:	1c0d      	adds	r5, r1, #0
10009bdc:	e7bc      	b.n	10009b58 <__aeabi_dsub+0x1f0>
10009bde:	4663      	mov	r3, ip
10009be0:	4303      	orrs	r3, r0
10009be2:	d100      	bne.n	10009be6 <__aeabi_dsub+0x27e>
10009be4:	e128      	b.n	10009e38 <__aeabi_dsub+0x4d0>
10009be6:	1c07      	adds	r7, r0, #0
10009be8:	4665      	mov	r5, ip
10009bea:	076b      	lsls	r3, r5, #29
10009bec:	d000      	beq.n	10009bf0 <__aeabi_dsub+0x288>
10009bee:	e6f0      	b.n	100099d2 <__aeabi_dsub+0x6a>
10009bf0:	2601      	movs	r6, #1
10009bf2:	4643      	mov	r3, r8
10009bf4:	401e      	ands	r6, r3
10009bf6:	e784      	b.n	10009b02 <__aeabi_dsub+0x19a>
10009bf8:	2e00      	cmp	r6, #0
10009bfa:	d000      	beq.n	10009bfe <__aeabi_dsub+0x296>
10009bfc:	e081      	b.n	10009d02 <__aeabi_dsub+0x39a>
10009bfe:	1c60      	adds	r0, r4, #1
10009c00:	0540      	lsls	r0, r0, #21
10009c02:	0d40      	lsrs	r0, r0, #21
10009c04:	2801      	cmp	r0, #1
10009c06:	dc00      	bgt.n	10009c0a <__aeabi_dsub+0x2a2>
10009c08:	e107      	b.n	10009e1a <__aeabi_dsub+0x4b2>
10009c0a:	9901      	ldr	r1, [sp, #4]
10009c0c:	1a68      	subs	r0, r5, r1
10009c0e:	4684      	mov	ip, r0
10009c10:	4565      	cmp	r5, ip
10009c12:	41b6      	sbcs	r6, r6
10009c14:	1ab8      	subs	r0, r7, r2
10009c16:	4276      	negs	r6, r6
10009c18:	1b86      	subs	r6, r0, r6
10009c1a:	0230      	lsls	r0, r6, #8
10009c1c:	d400      	bmi.n	10009c20 <__aeabi_dsub+0x2b8>
10009c1e:	e0a1      	b.n	10009d64 <__aeabi_dsub+0x3fc>
10009c20:	468c      	mov	ip, r1
10009c22:	1b4d      	subs	r5, r1, r5
10009c24:	45ac      	cmp	ip, r5
10009c26:	4189      	sbcs	r1, r1
10009c28:	1bd2      	subs	r2, r2, r7
10009c2a:	4249      	negs	r1, r1
10009c2c:	1a56      	subs	r6, r2, r1
10009c2e:	4698      	mov	r8, r3
10009c30:	e734      	b.n	10009a9c <__aeabi_dsub+0x134>
10009c32:	2200      	movs	r2, #0
10009c34:	2500      	movs	r5, #0
10009c36:	e6ef      	b.n	10009a18 <__aeabi_dsub+0xb0>
10009c38:	1c28      	adds	r0, r5, #0
10009c3a:	f7fd fd59 	bl	100076f0 <__clzsi2>
10009c3e:	3020      	adds	r0, #32
10009c40:	1c03      	adds	r3, r0, #0
10009c42:	3b08      	subs	r3, #8
10009c44:	2b1f      	cmp	r3, #31
10009c46:	dc00      	bgt.n	10009c4a <__aeabi_dsub+0x2e2>
10009c48:	e733      	b.n	10009ab2 <__aeabi_dsub+0x14a>
10009c4a:	1c02      	adds	r2, r0, #0
10009c4c:	3a28      	subs	r2, #40	; 0x28
10009c4e:	4095      	lsls	r5, r2
10009c50:	1c2a      	adds	r2, r5, #0
10009c52:	2500      	movs	r5, #0
10009c54:	429c      	cmp	r4, r3
10009c56:	dc00      	bgt.n	10009c5a <__aeabi_dsub+0x2f2>
10009c58:	e736      	b.n	10009ac8 <__aeabi_dsub+0x160>
10009c5a:	4f1f      	ldr	r7, [pc, #124]	; (10009cd8 <__aeabi_dsub+0x370>)
10009c5c:	1ae4      	subs	r4, r4, r3
10009c5e:	4017      	ands	r7, r2
10009c60:	e6b4      	b.n	100099cc <__aeabi_dsub+0x64>
10009c62:	9b01      	ldr	r3, [sp, #4]
10009c64:	431a      	orrs	r2, r3
10009c66:	1e51      	subs	r1, r2, #1
10009c68:	418a      	sbcs	r2, r1
10009c6a:	b2d3      	uxtb	r3, r2
10009c6c:	2200      	movs	r2, #0
10009c6e:	e709      	b.n	10009a84 <__aeabi_dsub+0x11c>
10009c70:	2b00      	cmp	r3, #0
10009c72:	d000      	beq.n	10009c76 <__aeabi_dsub+0x30e>
10009c74:	e101      	b.n	10009e7a <__aeabi_dsub+0x512>
10009c76:	1c60      	adds	r0, r4, #1
10009c78:	0543      	lsls	r3, r0, #21
10009c7a:	0d5b      	lsrs	r3, r3, #21
10009c7c:	2b01      	cmp	r3, #1
10009c7e:	dc00      	bgt.n	10009c82 <__aeabi_dsub+0x31a>
10009c80:	e0b0      	b.n	10009de4 <__aeabi_dsub+0x47c>
10009c82:	4b14      	ldr	r3, [pc, #80]	; (10009cd4 <__aeabi_dsub+0x36c>)
10009c84:	4298      	cmp	r0, r3
10009c86:	d100      	bne.n	10009c8a <__aeabi_dsub+0x322>
10009c88:	e11e      	b.n	10009ec8 <__aeabi_dsub+0x560>
10009c8a:	9b01      	ldr	r3, [sp, #4]
10009c8c:	19d2      	adds	r2, r2, r7
10009c8e:	1959      	adds	r1, r3, r5
10009c90:	42a9      	cmp	r1, r5
10009c92:	419b      	sbcs	r3, r3
10009c94:	425b      	negs	r3, r3
10009c96:	18d2      	adds	r2, r2, r3
10009c98:	0849      	lsrs	r1, r1, #1
10009c9a:	07d5      	lsls	r5, r2, #31
10009c9c:	430d      	orrs	r5, r1
10009c9e:	0857      	lsrs	r7, r2, #1
10009ca0:	1c04      	adds	r4, r0, #0
10009ca2:	e693      	b.n	100099cc <__aeabi_dsub+0x64>
10009ca4:	4b0b      	ldr	r3, [pc, #44]	; (10009cd4 <__aeabi_dsub+0x36c>)
10009ca6:	429c      	cmp	r4, r3
10009ca8:	d000      	beq.n	10009cac <__aeabi_dsub+0x344>
10009caa:	e6d3      	b.n	10009a54 <__aeabi_dsub+0xec>
10009cac:	e68e      	b.n	100099cc <__aeabi_dsub+0x64>
10009cae:	1c21      	adds	r1, r4, #0
10009cb0:	1c13      	adds	r3, r2, #0
10009cb2:	391f      	subs	r1, #31
10009cb4:	40cb      	lsrs	r3, r1
10009cb6:	1c19      	adds	r1, r3, #0
10009cb8:	2f20      	cmp	r7, #32
10009cba:	d100      	bne.n	10009cbe <__aeabi_dsub+0x356>
10009cbc:	e08e      	b.n	10009ddc <__aeabi_dsub+0x474>
10009cbe:	233f      	movs	r3, #63	; 0x3f
10009cc0:	1b1c      	subs	r4, r3, r4
10009cc2:	40a2      	lsls	r2, r4
10009cc4:	4315      	orrs	r5, r2
10009cc6:	1e6a      	subs	r2, r5, #1
10009cc8:	4195      	sbcs	r5, r2
10009cca:	2700      	movs	r7, #0
10009ccc:	430d      	orrs	r5, r1
10009cce:	2400      	movs	r4, #0
10009cd0:	e78b      	b.n	10009bea <__aeabi_dsub+0x282>
10009cd2:	46c0      	nop			; (mov r8, r8)
10009cd4:	000007ff 	.word	0x000007ff
10009cd8:	ff7fffff 	.word	0xff7fffff
10009cdc:	800fffff 	.word	0x800fffff
10009ce0:	1c33      	adds	r3, r6, #0
10009ce2:	1c10      	adds	r0, r2, #0
10009ce4:	3b20      	subs	r3, #32
10009ce6:	40d8      	lsrs	r0, r3
10009ce8:	2e20      	cmp	r6, #32
10009cea:	d079      	beq.n	10009de0 <__aeabi_dsub+0x478>
10009cec:	2340      	movs	r3, #64	; 0x40
10009cee:	1b9b      	subs	r3, r3, r6
10009cf0:	409a      	lsls	r2, r3
10009cf2:	1c13      	adds	r3, r2, #0
10009cf4:	9a01      	ldr	r2, [sp, #4]
10009cf6:	4313      	orrs	r3, r2
10009cf8:	1e59      	subs	r1, r3, #1
10009cfa:	418b      	sbcs	r3, r1
10009cfc:	2200      	movs	r2, #0
10009cfe:	4303      	orrs	r3, r0
10009d00:	e6c0      	b.n	10009a84 <__aeabi_dsub+0x11c>
10009d02:	2c00      	cmp	r4, #0
10009d04:	d053      	beq.n	10009dae <__aeabi_dsub+0x446>
10009d06:	4cc7      	ldr	r4, [pc, #796]	; (1000a024 <__aeabi_dsub+0x6bc>)
10009d08:	42a0      	cmp	r0, r4
10009d0a:	d100      	bne.n	10009d0e <__aeabi_dsub+0x3a6>
10009d0c:	e0b0      	b.n	10009e70 <__aeabi_dsub+0x508>
10009d0e:	2480      	movs	r4, #128	; 0x80
10009d10:	4271      	negs	r1, r6
10009d12:	4689      	mov	r9, r1
10009d14:	0424      	lsls	r4, r4, #16
10009d16:	4327      	orrs	r7, r4
10009d18:	4649      	mov	r1, r9
10009d1a:	2938      	cmp	r1, #56	; 0x38
10009d1c:	dd00      	ble.n	10009d20 <__aeabi_dsub+0x3b8>
10009d1e:	e0cd      	b.n	10009ebc <__aeabi_dsub+0x554>
10009d20:	291f      	cmp	r1, #31
10009d22:	dd00      	ble.n	10009d26 <__aeabi_dsub+0x3be>
10009d24:	e159      	b.n	10009fda <__aeabi_dsub+0x672>
10009d26:	2420      	movs	r4, #32
10009d28:	1c3e      	adds	r6, r7, #0
10009d2a:	1a61      	subs	r1, r4, r1
10009d2c:	408e      	lsls	r6, r1
10009d2e:	468a      	mov	sl, r1
10009d30:	46b0      	mov	r8, r6
10009d32:	4649      	mov	r1, r9
10009d34:	1c2e      	adds	r6, r5, #0
10009d36:	40ce      	lsrs	r6, r1
10009d38:	4651      	mov	r1, sl
10009d3a:	46b4      	mov	ip, r6
10009d3c:	408d      	lsls	r5, r1
10009d3e:	4664      	mov	r4, ip
10009d40:	4646      	mov	r6, r8
10009d42:	4649      	mov	r1, r9
10009d44:	4326      	orrs	r6, r4
10009d46:	1e6c      	subs	r4, r5, #1
10009d48:	41a5      	sbcs	r5, r4
10009d4a:	40cf      	lsrs	r7, r1
10009d4c:	4335      	orrs	r5, r6
10009d4e:	9901      	ldr	r1, [sp, #4]
10009d50:	1bd7      	subs	r7, r2, r7
10009d52:	468c      	mov	ip, r1
10009d54:	1b4d      	subs	r5, r1, r5
10009d56:	45ac      	cmp	ip, r5
10009d58:	4192      	sbcs	r2, r2
10009d5a:	4252      	negs	r2, r2
10009d5c:	1abf      	subs	r7, r7, r2
10009d5e:	1c04      	adds	r4, r0, #0
10009d60:	4698      	mov	r8, r3
10009d62:	e696      	b.n	10009a92 <__aeabi_dsub+0x12a>
10009d64:	4663      	mov	r3, ip
10009d66:	4665      	mov	r5, ip
10009d68:	4333      	orrs	r3, r6
10009d6a:	d000      	beq.n	10009d6e <__aeabi_dsub+0x406>
10009d6c:	e696      	b.n	10009a9c <__aeabi_dsub+0x134>
10009d6e:	2600      	movs	r6, #0
10009d70:	2700      	movs	r7, #0
10009d72:	2400      	movs	r4, #0
10009d74:	2500      	movs	r5, #0
10009d76:	e6c4      	b.n	10009b02 <__aeabi_dsub+0x19a>
10009d78:	2b1f      	cmp	r3, #31
10009d7a:	dc61      	bgt.n	10009e40 <__aeabi_dsub+0x4d8>
10009d7c:	2020      	movs	r0, #32
10009d7e:	1ac3      	subs	r3, r0, r3
10009d80:	469b      	mov	fp, r3
10009d82:	1c13      	adds	r3, r2, #0
10009d84:	4659      	mov	r1, fp
10009d86:	408b      	lsls	r3, r1
10009d88:	4651      	mov	r1, sl
10009d8a:	4699      	mov	r9, r3
10009d8c:	9b01      	ldr	r3, [sp, #4]
10009d8e:	40cb      	lsrs	r3, r1
10009d90:	469c      	mov	ip, r3
10009d92:	464b      	mov	r3, r9
10009d94:	4660      	mov	r0, ip
10009d96:	4303      	orrs	r3, r0
10009d98:	469c      	mov	ip, r3
10009d9a:	465b      	mov	r3, fp
10009d9c:	9901      	ldr	r1, [sp, #4]
10009d9e:	4099      	lsls	r1, r3
10009da0:	4663      	mov	r3, ip
10009da2:	1e48      	subs	r0, r1, #1
10009da4:	4181      	sbcs	r1, r0
10009da6:	4319      	orrs	r1, r3
10009da8:	4653      	mov	r3, sl
10009daa:	40da      	lsrs	r2, r3
10009dac:	e6cd      	b.n	10009b4a <__aeabi_dsub+0x1e2>
10009dae:	1c3c      	adds	r4, r7, #0
10009db0:	432c      	orrs	r4, r5
10009db2:	d05d      	beq.n	10009e70 <__aeabi_dsub+0x508>
10009db4:	43f1      	mvns	r1, r6
10009db6:	4689      	mov	r9, r1
10009db8:	2900      	cmp	r1, #0
10009dba:	d155      	bne.n	10009e68 <__aeabi_dsub+0x500>
10009dbc:	9901      	ldr	r1, [sp, #4]
10009dbe:	1bd2      	subs	r2, r2, r7
10009dc0:	468c      	mov	ip, r1
10009dc2:	1b4d      	subs	r5, r1, r5
10009dc4:	45ac      	cmp	ip, r5
10009dc6:	4189      	sbcs	r1, r1
10009dc8:	4249      	negs	r1, r1
10009dca:	1a57      	subs	r7, r2, r1
10009dcc:	1c04      	adds	r4, r0, #0
10009dce:	4698      	mov	r8, r3
10009dd0:	e65f      	b.n	10009a92 <__aeabi_dsub+0x12a>
10009dd2:	4894      	ldr	r0, [pc, #592]	; (1000a024 <__aeabi_dsub+0x6bc>)
10009dd4:	4284      	cmp	r4, r0
10009dd6:	d000      	beq.n	10009dda <__aeabi_dsub+0x472>
10009dd8:	e6ad      	b.n	10009b36 <__aeabi_dsub+0x1ce>
10009dda:	e5f7      	b.n	100099cc <__aeabi_dsub+0x64>
10009ddc:	2200      	movs	r2, #0
10009dde:	e771      	b.n	10009cc4 <__aeabi_dsub+0x35c>
10009de0:	2300      	movs	r3, #0
10009de2:	e787      	b.n	10009cf4 <__aeabi_dsub+0x38c>
10009de4:	1c3b      	adds	r3, r7, #0
10009de6:	432b      	orrs	r3, r5
10009de8:	2c00      	cmp	r4, #0
10009dea:	d000      	beq.n	10009dee <__aeabi_dsub+0x486>
10009dec:	e0da      	b.n	10009fa4 <__aeabi_dsub+0x63c>
10009dee:	2b00      	cmp	r3, #0
10009df0:	d100      	bne.n	10009df4 <__aeabi_dsub+0x48c>
10009df2:	e113      	b.n	1000a01c <__aeabi_dsub+0x6b4>
10009df4:	1c13      	adds	r3, r2, #0
10009df6:	9901      	ldr	r1, [sp, #4]
10009df8:	430b      	orrs	r3, r1
10009dfa:	d100      	bne.n	10009dfe <__aeabi_dsub+0x496>
10009dfc:	e5e6      	b.n	100099cc <__aeabi_dsub+0x64>
10009dfe:	1949      	adds	r1, r1, r5
10009e00:	42a9      	cmp	r1, r5
10009e02:	419b      	sbcs	r3, r3
10009e04:	19d2      	adds	r2, r2, r7
10009e06:	425b      	negs	r3, r3
10009e08:	18d7      	adds	r7, r2, r3
10009e0a:	023b      	lsls	r3, r7, #8
10009e0c:	d400      	bmi.n	10009e10 <__aeabi_dsub+0x4a8>
10009e0e:	e121      	b.n	1000a054 <__aeabi_dsub+0x6ec>
10009e10:	4b85      	ldr	r3, [pc, #532]	; (1000a028 <__aeabi_dsub+0x6c0>)
10009e12:	1c0d      	adds	r5, r1, #0
10009e14:	401f      	ands	r7, r3
10009e16:	1c04      	adds	r4, r0, #0
10009e18:	e5d8      	b.n	100099cc <__aeabi_dsub+0x64>
10009e1a:	1c38      	adds	r0, r7, #0
10009e1c:	4328      	orrs	r0, r5
10009e1e:	2c00      	cmp	r4, #0
10009e20:	d140      	bne.n	10009ea4 <__aeabi_dsub+0x53c>
10009e22:	2800      	cmp	r0, #0
10009e24:	d000      	beq.n	10009e28 <__aeabi_dsub+0x4c0>
10009e26:	e083      	b.n	10009f30 <__aeabi_dsub+0x5c8>
10009e28:	1c10      	adds	r0, r2, #0
10009e2a:	9901      	ldr	r1, [sp, #4]
10009e2c:	4308      	orrs	r0, r1
10009e2e:	d003      	beq.n	10009e38 <__aeabi_dsub+0x4d0>
10009e30:	1c17      	adds	r7, r2, #0
10009e32:	1c0d      	adds	r5, r1, #0
10009e34:	4698      	mov	r8, r3
10009e36:	e5c9      	b.n	100099cc <__aeabi_dsub+0x64>
10009e38:	2600      	movs	r6, #0
10009e3a:	2700      	movs	r7, #0
10009e3c:	2500      	movs	r5, #0
10009e3e:	e660      	b.n	10009b02 <__aeabi_dsub+0x19a>
10009e40:	4650      	mov	r0, sl
10009e42:	1c13      	adds	r3, r2, #0
10009e44:	3820      	subs	r0, #32
10009e46:	40c3      	lsrs	r3, r0
10009e48:	1c18      	adds	r0, r3, #0
10009e4a:	4653      	mov	r3, sl
10009e4c:	2b20      	cmp	r3, #32
10009e4e:	d100      	bne.n	10009e52 <__aeabi_dsub+0x4ea>
10009e50:	e0c1      	b.n	10009fd6 <__aeabi_dsub+0x66e>
10009e52:	2340      	movs	r3, #64	; 0x40
10009e54:	4651      	mov	r1, sl
10009e56:	1a5b      	subs	r3, r3, r1
10009e58:	409a      	lsls	r2, r3
10009e5a:	9901      	ldr	r1, [sp, #4]
10009e5c:	4311      	orrs	r1, r2
10009e5e:	1e4a      	subs	r2, r1, #1
10009e60:	4191      	sbcs	r1, r2
10009e62:	2200      	movs	r2, #0
10009e64:	4301      	orrs	r1, r0
10009e66:	e670      	b.n	10009b4a <__aeabi_dsub+0x1e2>
10009e68:	4c6e      	ldr	r4, [pc, #440]	; (1000a024 <__aeabi_dsub+0x6bc>)
10009e6a:	42a0      	cmp	r0, r4
10009e6c:	d000      	beq.n	10009e70 <__aeabi_dsub+0x508>
10009e6e:	e753      	b.n	10009d18 <__aeabi_dsub+0x3b0>
10009e70:	1c17      	adds	r7, r2, #0
10009e72:	9d01      	ldr	r5, [sp, #4]
10009e74:	1c04      	adds	r4, r0, #0
10009e76:	4698      	mov	r8, r3
10009e78:	e5a8      	b.n	100099cc <__aeabi_dsub+0x64>
10009e7a:	2c00      	cmp	r4, #0
10009e7c:	d128      	bne.n	10009ed0 <__aeabi_dsub+0x568>
10009e7e:	1c3c      	adds	r4, r7, #0
10009e80:	432c      	orrs	r4, r5
10009e82:	d100      	bne.n	10009e86 <__aeabi_dsub+0x51e>
10009e84:	e08a      	b.n	10009f9c <__aeabi_dsub+0x634>
10009e86:	43db      	mvns	r3, r3
10009e88:	469a      	mov	sl, r3
10009e8a:	2b00      	cmp	r3, #0
10009e8c:	d000      	beq.n	10009e90 <__aeabi_dsub+0x528>
10009e8e:	e082      	b.n	10009f96 <__aeabi_dsub+0x62e>
10009e90:	9b01      	ldr	r3, [sp, #4]
10009e92:	19d2      	adds	r2, r2, r7
10009e94:	469c      	mov	ip, r3
10009e96:	4465      	add	r5, ip
10009e98:	429d      	cmp	r5, r3
10009e9a:	4189      	sbcs	r1, r1
10009e9c:	4249      	negs	r1, r1
10009e9e:	1857      	adds	r7, r2, r1
10009ea0:	1c04      	adds	r4, r0, #0
10009ea2:	e659      	b.n	10009b58 <__aeabi_dsub+0x1f0>
10009ea4:	2800      	cmp	r0, #0
10009ea6:	d15b      	bne.n	10009f60 <__aeabi_dsub+0x5f8>
10009ea8:	1c10      	adds	r0, r2, #0
10009eaa:	9901      	ldr	r1, [sp, #4]
10009eac:	4308      	orrs	r0, r1
10009eae:	d100      	bne.n	10009eb2 <__aeabi_dsub+0x54a>
10009eb0:	e0a4      	b.n	10009ffc <__aeabi_dsub+0x694>
10009eb2:	1c17      	adds	r7, r2, #0
10009eb4:	1c0d      	adds	r5, r1, #0
10009eb6:	4698      	mov	r8, r3
10009eb8:	4c5a      	ldr	r4, [pc, #360]	; (1000a024 <__aeabi_dsub+0x6bc>)
10009eba:	e587      	b.n	100099cc <__aeabi_dsub+0x64>
10009ebc:	433d      	orrs	r5, r7
10009ebe:	1e6f      	subs	r7, r5, #1
10009ec0:	41bd      	sbcs	r5, r7
10009ec2:	2700      	movs	r7, #0
10009ec4:	b2ed      	uxtb	r5, r5
10009ec6:	e742      	b.n	10009d4e <__aeabi_dsub+0x3e6>
10009ec8:	1c04      	adds	r4, r0, #0
10009eca:	2700      	movs	r7, #0
10009ecc:	2500      	movs	r5, #0
10009ece:	e618      	b.n	10009b02 <__aeabi_dsub+0x19a>
10009ed0:	4c54      	ldr	r4, [pc, #336]	; (1000a024 <__aeabi_dsub+0x6bc>)
10009ed2:	42a0      	cmp	r0, r4
10009ed4:	d062      	beq.n	10009f9c <__aeabi_dsub+0x634>
10009ed6:	4653      	mov	r3, sl
10009ed8:	2480      	movs	r4, #128	; 0x80
10009eda:	425b      	negs	r3, r3
10009edc:	469a      	mov	sl, r3
10009ede:	0424      	lsls	r4, r4, #16
10009ee0:	4327      	orrs	r7, r4
10009ee2:	4653      	mov	r3, sl
10009ee4:	2b38      	cmp	r3, #56	; 0x38
10009ee6:	dd00      	ble.n	10009eea <__aeabi_dsub+0x582>
10009ee8:	e08e      	b.n	1000a008 <__aeabi_dsub+0x6a0>
10009eea:	2b1f      	cmp	r3, #31
10009eec:	dd00      	ble.n	10009ef0 <__aeabi_dsub+0x588>
10009eee:	e09d      	b.n	1000a02c <__aeabi_dsub+0x6c4>
10009ef0:	2420      	movs	r4, #32
10009ef2:	1ae3      	subs	r3, r4, r3
10009ef4:	469b      	mov	fp, r3
10009ef6:	1c3b      	adds	r3, r7, #0
10009ef8:	4659      	mov	r1, fp
10009efa:	408b      	lsls	r3, r1
10009efc:	4651      	mov	r1, sl
10009efe:	4699      	mov	r9, r3
10009f00:	1c2b      	adds	r3, r5, #0
10009f02:	40cb      	lsrs	r3, r1
10009f04:	469c      	mov	ip, r3
10009f06:	464b      	mov	r3, r9
10009f08:	4664      	mov	r4, ip
10009f0a:	4323      	orrs	r3, r4
10009f0c:	469c      	mov	ip, r3
10009f0e:	465b      	mov	r3, fp
10009f10:	409d      	lsls	r5, r3
10009f12:	4663      	mov	r3, ip
10009f14:	1e6c      	subs	r4, r5, #1
10009f16:	41a5      	sbcs	r5, r4
10009f18:	40cf      	lsrs	r7, r1
10009f1a:	431d      	orrs	r5, r3
10009f1c:	9b01      	ldr	r3, [sp, #4]
10009f1e:	18bf      	adds	r7, r7, r2
10009f20:	469c      	mov	ip, r3
10009f22:	4465      	add	r5, ip
10009f24:	429d      	cmp	r5, r3
10009f26:	4192      	sbcs	r2, r2
10009f28:	4252      	negs	r2, r2
10009f2a:	18bf      	adds	r7, r7, r2
10009f2c:	1c04      	adds	r4, r0, #0
10009f2e:	e613      	b.n	10009b58 <__aeabi_dsub+0x1f0>
10009f30:	1c10      	adds	r0, r2, #0
10009f32:	9901      	ldr	r1, [sp, #4]
10009f34:	4308      	orrs	r0, r1
10009f36:	d100      	bne.n	10009f3a <__aeabi_dsub+0x5d2>
10009f38:	e548      	b.n	100099cc <__aeabi_dsub+0x64>
10009f3a:	1a68      	subs	r0, r5, r1
10009f3c:	4684      	mov	ip, r0
10009f3e:	4285      	cmp	r5, r0
10009f40:	4180      	sbcs	r0, r0
10009f42:	1abe      	subs	r6, r7, r2
10009f44:	4240      	negs	r0, r0
10009f46:	1a30      	subs	r0, r6, r0
10009f48:	0206      	lsls	r6, r0, #8
10009f4a:	d400      	bmi.n	10009f4e <__aeabi_dsub+0x5e6>
10009f4c:	e647      	b.n	10009bde <__aeabi_dsub+0x276>
10009f4e:	468c      	mov	ip, r1
10009f50:	1b4d      	subs	r5, r1, r5
10009f52:	45ac      	cmp	ip, r5
10009f54:	4189      	sbcs	r1, r1
10009f56:	1bd2      	subs	r2, r2, r7
10009f58:	4249      	negs	r1, r1
10009f5a:	1a57      	subs	r7, r2, r1
10009f5c:	4698      	mov	r8, r3
10009f5e:	e535      	b.n	100099cc <__aeabi_dsub+0x64>
10009f60:	1c10      	adds	r0, r2, #0
10009f62:	9901      	ldr	r1, [sp, #4]
10009f64:	4308      	orrs	r0, r1
10009f66:	d034      	beq.n	10009fd2 <__aeabi_dsub+0x66a>
10009f68:	2480      	movs	r4, #128	; 0x80
10009f6a:	0778      	lsls	r0, r7, #29
10009f6c:	08ed      	lsrs	r5, r5, #3
10009f6e:	08ff      	lsrs	r7, r7, #3
10009f70:	0324      	lsls	r4, r4, #12
10009f72:	4328      	orrs	r0, r5
10009f74:	4227      	tst	r7, r4
10009f76:	d008      	beq.n	10009f8a <__aeabi_dsub+0x622>
10009f78:	08d6      	lsrs	r6, r2, #3
10009f7a:	4226      	tst	r6, r4
10009f7c:	d105      	bne.n	10009f8a <__aeabi_dsub+0x622>
10009f7e:	08c9      	lsrs	r1, r1, #3
10009f80:	0752      	lsls	r2, r2, #29
10009f82:	430a      	orrs	r2, r1
10009f84:	1c10      	adds	r0, r2, #0
10009f86:	1c37      	adds	r7, r6, #0
10009f88:	4698      	mov	r8, r3
10009f8a:	00ff      	lsls	r7, r7, #3
10009f8c:	0f42      	lsrs	r2, r0, #29
10009f8e:	4317      	orrs	r7, r2
10009f90:	00c5      	lsls	r5, r0, #3
10009f92:	4c24      	ldr	r4, [pc, #144]	; (1000a024 <__aeabi_dsub+0x6bc>)
10009f94:	e51a      	b.n	100099cc <__aeabi_dsub+0x64>
10009f96:	4c23      	ldr	r4, [pc, #140]	; (1000a024 <__aeabi_dsub+0x6bc>)
10009f98:	42a0      	cmp	r0, r4
10009f9a:	d1a2      	bne.n	10009ee2 <__aeabi_dsub+0x57a>
10009f9c:	1c17      	adds	r7, r2, #0
10009f9e:	9d01      	ldr	r5, [sp, #4]
10009fa0:	1c04      	adds	r4, r0, #0
10009fa2:	e513      	b.n	100099cc <__aeabi_dsub+0x64>
10009fa4:	2b00      	cmp	r3, #0
10009fa6:	d035      	beq.n	1000a014 <__aeabi_dsub+0x6ac>
10009fa8:	1c13      	adds	r3, r2, #0
10009faa:	9901      	ldr	r1, [sp, #4]
10009fac:	430b      	orrs	r3, r1
10009fae:	d010      	beq.n	10009fd2 <__aeabi_dsub+0x66a>
10009fb0:	2480      	movs	r4, #128	; 0x80
10009fb2:	0778      	lsls	r0, r7, #29
10009fb4:	08ed      	lsrs	r5, r5, #3
10009fb6:	08ff      	lsrs	r7, r7, #3
10009fb8:	0324      	lsls	r4, r4, #12
10009fba:	4328      	orrs	r0, r5
10009fbc:	4227      	tst	r7, r4
10009fbe:	d0e4      	beq.n	10009f8a <__aeabi_dsub+0x622>
10009fc0:	08d3      	lsrs	r3, r2, #3
10009fc2:	4223      	tst	r3, r4
10009fc4:	d1e1      	bne.n	10009f8a <__aeabi_dsub+0x622>
10009fc6:	08c9      	lsrs	r1, r1, #3
10009fc8:	0752      	lsls	r2, r2, #29
10009fca:	430a      	orrs	r2, r1
10009fcc:	1c10      	adds	r0, r2, #0
10009fce:	1c1f      	adds	r7, r3, #0
10009fd0:	e7db      	b.n	10009f8a <__aeabi_dsub+0x622>
10009fd2:	4c14      	ldr	r4, [pc, #80]	; (1000a024 <__aeabi_dsub+0x6bc>)
10009fd4:	e4fa      	b.n	100099cc <__aeabi_dsub+0x64>
10009fd6:	2200      	movs	r2, #0
10009fd8:	e73f      	b.n	10009e5a <__aeabi_dsub+0x4f2>
10009fda:	464c      	mov	r4, r9
10009fdc:	1c3e      	adds	r6, r7, #0
10009fde:	3c20      	subs	r4, #32
10009fe0:	40e6      	lsrs	r6, r4
10009fe2:	4649      	mov	r1, r9
10009fe4:	1c34      	adds	r4, r6, #0
10009fe6:	2920      	cmp	r1, #32
10009fe8:	d032      	beq.n	1000a050 <__aeabi_dsub+0x6e8>
10009fea:	2640      	movs	r6, #64	; 0x40
10009fec:	1a76      	subs	r6, r6, r1
10009fee:	40b7      	lsls	r7, r6
10009ff0:	433d      	orrs	r5, r7
10009ff2:	1e6f      	subs	r7, r5, #1
10009ff4:	41bd      	sbcs	r5, r7
10009ff6:	2700      	movs	r7, #0
10009ff8:	4325      	orrs	r5, r4
10009ffa:	e6a8      	b.n	10009d4e <__aeabi_dsub+0x3e6>
10009ffc:	2780      	movs	r7, #128	; 0x80
10009ffe:	2600      	movs	r6, #0
1000a000:	03ff      	lsls	r7, r7, #15
1000a002:	4c08      	ldr	r4, [pc, #32]	; (1000a024 <__aeabi_dsub+0x6bc>)
1000a004:	2500      	movs	r5, #0
1000a006:	e57c      	b.n	10009b02 <__aeabi_dsub+0x19a>
1000a008:	433d      	orrs	r5, r7
1000a00a:	1e6f      	subs	r7, r5, #1
1000a00c:	41bd      	sbcs	r5, r7
1000a00e:	2700      	movs	r7, #0
1000a010:	b2ed      	uxtb	r5, r5
1000a012:	e783      	b.n	10009f1c <__aeabi_dsub+0x5b4>
1000a014:	1c17      	adds	r7, r2, #0
1000a016:	9d01      	ldr	r5, [sp, #4]
1000a018:	4c02      	ldr	r4, [pc, #8]	; (1000a024 <__aeabi_dsub+0x6bc>)
1000a01a:	e4d7      	b.n	100099cc <__aeabi_dsub+0x64>
1000a01c:	1c17      	adds	r7, r2, #0
1000a01e:	9d01      	ldr	r5, [sp, #4]
1000a020:	e4d4      	b.n	100099cc <__aeabi_dsub+0x64>
1000a022:	46c0      	nop			; (mov r8, r8)
1000a024:	000007ff 	.word	0x000007ff
1000a028:	ff7fffff 	.word	0xff7fffff
1000a02c:	4654      	mov	r4, sl
1000a02e:	1c3b      	adds	r3, r7, #0
1000a030:	3c20      	subs	r4, #32
1000a032:	40e3      	lsrs	r3, r4
1000a034:	1c1c      	adds	r4, r3, #0
1000a036:	4653      	mov	r3, sl
1000a038:	2b20      	cmp	r3, #32
1000a03a:	d00d      	beq.n	1000a058 <__aeabi_dsub+0x6f0>
1000a03c:	2340      	movs	r3, #64	; 0x40
1000a03e:	4651      	mov	r1, sl
1000a040:	1a5b      	subs	r3, r3, r1
1000a042:	409f      	lsls	r7, r3
1000a044:	433d      	orrs	r5, r7
1000a046:	1e6f      	subs	r7, r5, #1
1000a048:	41bd      	sbcs	r5, r7
1000a04a:	2700      	movs	r7, #0
1000a04c:	4325      	orrs	r5, r4
1000a04e:	e765      	b.n	10009f1c <__aeabi_dsub+0x5b4>
1000a050:	2700      	movs	r7, #0
1000a052:	e7cd      	b.n	10009ff0 <__aeabi_dsub+0x688>
1000a054:	1c0d      	adds	r5, r1, #0
1000a056:	e5c8      	b.n	10009bea <__aeabi_dsub+0x282>
1000a058:	2700      	movs	r7, #0
1000a05a:	e7f3      	b.n	1000a044 <__aeabi_dsub+0x6dc>

1000a05c <__aeabi_d2iz>:
1000a05c:	030b      	lsls	r3, r1, #12
1000a05e:	b530      	push	{r4, r5, lr}
1000a060:	4c13      	ldr	r4, [pc, #76]	; (1000a0b0 <__aeabi_d2iz+0x54>)
1000a062:	0b1a      	lsrs	r2, r3, #12
1000a064:	004b      	lsls	r3, r1, #1
1000a066:	1c05      	adds	r5, r0, #0
1000a068:	0d5b      	lsrs	r3, r3, #21
1000a06a:	0fc9      	lsrs	r1, r1, #31
1000a06c:	2000      	movs	r0, #0
1000a06e:	42a3      	cmp	r3, r4
1000a070:	dd10      	ble.n	1000a094 <__aeabi_d2iz+0x38>
1000a072:	4810      	ldr	r0, [pc, #64]	; (1000a0b4 <__aeabi_d2iz+0x58>)
1000a074:	4283      	cmp	r3, r0
1000a076:	dc0e      	bgt.n	1000a096 <__aeabi_d2iz+0x3a>
1000a078:	2080      	movs	r0, #128	; 0x80
1000a07a:	4c0f      	ldr	r4, [pc, #60]	; (1000a0b8 <__aeabi_d2iz+0x5c>)
1000a07c:	0340      	lsls	r0, r0, #13
1000a07e:	4302      	orrs	r2, r0
1000a080:	1ae4      	subs	r4, r4, r3
1000a082:	2c1f      	cmp	r4, #31
1000a084:	dd0a      	ble.n	1000a09c <__aeabi_d2iz+0x40>
1000a086:	480d      	ldr	r0, [pc, #52]	; (1000a0bc <__aeabi_d2iz+0x60>)
1000a088:	1ac3      	subs	r3, r0, r3
1000a08a:	40da      	lsrs	r2, r3
1000a08c:	1c13      	adds	r3, r2, #0
1000a08e:	4248      	negs	r0, r1
1000a090:	4043      	eors	r3, r0
1000a092:	1858      	adds	r0, r3, r1
1000a094:	bd30      	pop	{r4, r5, pc}
1000a096:	4b0a      	ldr	r3, [pc, #40]	; (1000a0c0 <__aeabi_d2iz+0x64>)
1000a098:	18c8      	adds	r0, r1, r3
1000a09a:	e7fb      	b.n	1000a094 <__aeabi_d2iz+0x38>
1000a09c:	1c28      	adds	r0, r5, #0
1000a09e:	40e0      	lsrs	r0, r4
1000a0a0:	4c08      	ldr	r4, [pc, #32]	; (1000a0c4 <__aeabi_d2iz+0x68>)
1000a0a2:	46a4      	mov	ip, r4
1000a0a4:	4463      	add	r3, ip
1000a0a6:	409a      	lsls	r2, r3
1000a0a8:	1c13      	adds	r3, r2, #0
1000a0aa:	4303      	orrs	r3, r0
1000a0ac:	e7ef      	b.n	1000a08e <__aeabi_d2iz+0x32>
1000a0ae:	46c0      	nop			; (mov r8, r8)
1000a0b0:	000003fe 	.word	0x000003fe
1000a0b4:	0000041d 	.word	0x0000041d
1000a0b8:	00000433 	.word	0x00000433
1000a0bc:	00000413 	.word	0x00000413
1000a0c0:	7fffffff 	.word	0x7fffffff
1000a0c4:	fffffbed 	.word	0xfffffbed

1000a0c8 <__aeabi_i2d>:
1000a0c8:	b538      	push	{r3, r4, r5, lr}
1000a0ca:	1e04      	subs	r4, r0, #0
1000a0cc:	d016      	beq.n	1000a0fc <__aeabi_i2d+0x34>
1000a0ce:	0fc5      	lsrs	r5, r0, #31
1000a0d0:	d000      	beq.n	1000a0d4 <__aeabi_i2d+0xc>
1000a0d2:	4244      	negs	r4, r0
1000a0d4:	1c20      	adds	r0, r4, #0
1000a0d6:	f7fd fb0b 	bl	100076f0 <__clzsi2>
1000a0da:	4b17      	ldr	r3, [pc, #92]	; (1000a138 <__aeabi_i2d+0x70>)
1000a0dc:	1a1b      	subs	r3, r3, r0
1000a0de:	280a      	cmp	r0, #10
1000a0e0:	dc21      	bgt.n	1000a126 <__aeabi_i2d+0x5e>
1000a0e2:	1c02      	adds	r2, r0, #0
1000a0e4:	1c21      	adds	r1, r4, #0
1000a0e6:	3215      	adds	r2, #21
1000a0e8:	4091      	lsls	r1, r2
1000a0ea:	1c0a      	adds	r2, r1, #0
1000a0ec:	210b      	movs	r1, #11
1000a0ee:	1a08      	subs	r0, r1, r0
1000a0f0:	40c4      	lsrs	r4, r0
1000a0f2:	055b      	lsls	r3, r3, #21
1000a0f4:	0324      	lsls	r4, r4, #12
1000a0f6:	0b24      	lsrs	r4, r4, #12
1000a0f8:	0d5b      	lsrs	r3, r3, #21
1000a0fa:	e003      	b.n	1000a104 <__aeabi_i2d+0x3c>
1000a0fc:	2500      	movs	r5, #0
1000a0fe:	2300      	movs	r3, #0
1000a100:	2400      	movs	r4, #0
1000a102:	2200      	movs	r2, #0
1000a104:	2100      	movs	r1, #0
1000a106:	1c10      	adds	r0, r2, #0
1000a108:	0324      	lsls	r4, r4, #12
1000a10a:	0d0a      	lsrs	r2, r1, #20
1000a10c:	0512      	lsls	r2, r2, #20
1000a10e:	0b24      	lsrs	r4, r4, #12
1000a110:	4314      	orrs	r4, r2
1000a112:	4a0a      	ldr	r2, [pc, #40]	; (1000a13c <__aeabi_i2d+0x74>)
1000a114:	051b      	lsls	r3, r3, #20
1000a116:	4014      	ands	r4, r2
1000a118:	431c      	orrs	r4, r3
1000a11a:	0064      	lsls	r4, r4, #1
1000a11c:	07ed      	lsls	r5, r5, #31
1000a11e:	0864      	lsrs	r4, r4, #1
1000a120:	432c      	orrs	r4, r5
1000a122:	1c21      	adds	r1, r4, #0
1000a124:	bd38      	pop	{r3, r4, r5, pc}
1000a126:	380b      	subs	r0, #11
1000a128:	4084      	lsls	r4, r0
1000a12a:	055b      	lsls	r3, r3, #21
1000a12c:	0324      	lsls	r4, r4, #12
1000a12e:	0b24      	lsrs	r4, r4, #12
1000a130:	0d5b      	lsrs	r3, r3, #21
1000a132:	2200      	movs	r2, #0
1000a134:	e7e6      	b.n	1000a104 <__aeabi_i2d+0x3c>
1000a136:	46c0      	nop			; (mov r8, r8)
1000a138:	0000041e 	.word	0x0000041e
1000a13c:	800fffff 	.word	0x800fffff

1000a140 <__aeabi_ui2d>:
1000a140:	b510      	push	{r4, lr}
1000a142:	1e04      	subs	r4, r0, #0
1000a144:	d010      	beq.n	1000a168 <__aeabi_ui2d+0x28>
1000a146:	f7fd fad3 	bl	100076f0 <__clzsi2>
1000a14a:	4a14      	ldr	r2, [pc, #80]	; (1000a19c <__aeabi_ui2d+0x5c>)
1000a14c:	1a12      	subs	r2, r2, r0
1000a14e:	280a      	cmp	r0, #10
1000a150:	dc1a      	bgt.n	1000a188 <__aeabi_ui2d+0x48>
1000a152:	230b      	movs	r3, #11
1000a154:	1c21      	adds	r1, r4, #0
1000a156:	1a1b      	subs	r3, r3, r0
1000a158:	40d9      	lsrs	r1, r3
1000a15a:	3015      	adds	r0, #21
1000a15c:	030b      	lsls	r3, r1, #12
1000a15e:	0552      	lsls	r2, r2, #21
1000a160:	4084      	lsls	r4, r0
1000a162:	0b1b      	lsrs	r3, r3, #12
1000a164:	0d52      	lsrs	r2, r2, #21
1000a166:	e001      	b.n	1000a16c <__aeabi_ui2d+0x2c>
1000a168:	2200      	movs	r2, #0
1000a16a:	2300      	movs	r3, #0
1000a16c:	2100      	movs	r1, #0
1000a16e:	031b      	lsls	r3, r3, #12
1000a170:	1c20      	adds	r0, r4, #0
1000a172:	0b1c      	lsrs	r4, r3, #12
1000a174:	0d0b      	lsrs	r3, r1, #20
1000a176:	051b      	lsls	r3, r3, #20
1000a178:	4323      	orrs	r3, r4
1000a17a:	4c09      	ldr	r4, [pc, #36]	; (1000a1a0 <__aeabi_ui2d+0x60>)
1000a17c:	0512      	lsls	r2, r2, #20
1000a17e:	4023      	ands	r3, r4
1000a180:	4313      	orrs	r3, r2
1000a182:	005b      	lsls	r3, r3, #1
1000a184:	0859      	lsrs	r1, r3, #1
1000a186:	bd10      	pop	{r4, pc}
1000a188:	1c03      	adds	r3, r0, #0
1000a18a:	3b0b      	subs	r3, #11
1000a18c:	409c      	lsls	r4, r3
1000a18e:	0552      	lsls	r2, r2, #21
1000a190:	0323      	lsls	r3, r4, #12
1000a192:	0b1b      	lsrs	r3, r3, #12
1000a194:	0d52      	lsrs	r2, r2, #21
1000a196:	2400      	movs	r4, #0
1000a198:	e7e8      	b.n	1000a16c <__aeabi_ui2d+0x2c>
1000a19a:	46c0      	nop			; (mov r8, r8)
1000a19c:	0000041e 	.word	0x0000041e
1000a1a0:	800fffff 	.word	0x800fffff

1000a1a4 <__aeabi_f2d>:
1000a1a4:	0042      	lsls	r2, r0, #1
1000a1a6:	0e12      	lsrs	r2, r2, #24
1000a1a8:	1c51      	adds	r1, r2, #1
1000a1aa:	b538      	push	{r3, r4, r5, lr}
1000a1ac:	b2c9      	uxtb	r1, r1
1000a1ae:	0243      	lsls	r3, r0, #9
1000a1b0:	0a5d      	lsrs	r5, r3, #9
1000a1b2:	0fc4      	lsrs	r4, r0, #31
1000a1b4:	2901      	cmp	r1, #1
1000a1b6:	dd15      	ble.n	1000a1e4 <__aeabi_f2d+0x40>
1000a1b8:	21e0      	movs	r1, #224	; 0xe0
1000a1ba:	0089      	lsls	r1, r1, #2
1000a1bc:	468c      	mov	ip, r1
1000a1be:	076d      	lsls	r5, r5, #29
1000a1c0:	0b1b      	lsrs	r3, r3, #12
1000a1c2:	4462      	add	r2, ip
1000a1c4:	2100      	movs	r1, #0
1000a1c6:	1c28      	adds	r0, r5, #0
1000a1c8:	0d0d      	lsrs	r5, r1, #20
1000a1ca:	052d      	lsls	r5, r5, #20
1000a1cc:	432b      	orrs	r3, r5
1000a1ce:	4d1c      	ldr	r5, [pc, #112]	; (1000a240 <__aeabi_f2d+0x9c>)
1000a1d0:	0552      	lsls	r2, r2, #21
1000a1d2:	402b      	ands	r3, r5
1000a1d4:	0852      	lsrs	r2, r2, #1
1000a1d6:	4313      	orrs	r3, r2
1000a1d8:	005b      	lsls	r3, r3, #1
1000a1da:	07e4      	lsls	r4, r4, #31
1000a1dc:	085b      	lsrs	r3, r3, #1
1000a1de:	4323      	orrs	r3, r4
1000a1e0:	1c19      	adds	r1, r3, #0
1000a1e2:	bd38      	pop	{r3, r4, r5, pc}
1000a1e4:	2a00      	cmp	r2, #0
1000a1e6:	d115      	bne.n	1000a214 <__aeabi_f2d+0x70>
1000a1e8:	2d00      	cmp	r5, #0
1000a1ea:	d01f      	beq.n	1000a22c <__aeabi_f2d+0x88>
1000a1ec:	1c28      	adds	r0, r5, #0
1000a1ee:	f7fd fa7f 	bl	100076f0 <__clzsi2>
1000a1f2:	280a      	cmp	r0, #10
1000a1f4:	dc1d      	bgt.n	1000a232 <__aeabi_f2d+0x8e>
1000a1f6:	230b      	movs	r3, #11
1000a1f8:	1c2a      	adds	r2, r5, #0
1000a1fa:	1a1b      	subs	r3, r3, r0
1000a1fc:	40da      	lsrs	r2, r3
1000a1fe:	1c13      	adds	r3, r2, #0
1000a200:	1c02      	adds	r2, r0, #0
1000a202:	3215      	adds	r2, #21
1000a204:	4095      	lsls	r5, r2
1000a206:	4a0f      	ldr	r2, [pc, #60]	; (1000a244 <__aeabi_f2d+0xa0>)
1000a208:	031b      	lsls	r3, r3, #12
1000a20a:	1a12      	subs	r2, r2, r0
1000a20c:	0552      	lsls	r2, r2, #21
1000a20e:	0b1b      	lsrs	r3, r3, #12
1000a210:	0d52      	lsrs	r2, r2, #21
1000a212:	e7d7      	b.n	1000a1c4 <__aeabi_f2d+0x20>
1000a214:	2d00      	cmp	r5, #0
1000a216:	d006      	beq.n	1000a226 <__aeabi_f2d+0x82>
1000a218:	2280      	movs	r2, #128	; 0x80
1000a21a:	0b1b      	lsrs	r3, r3, #12
1000a21c:	0312      	lsls	r2, r2, #12
1000a21e:	4313      	orrs	r3, r2
1000a220:	076d      	lsls	r5, r5, #29
1000a222:	4a09      	ldr	r2, [pc, #36]	; (1000a248 <__aeabi_f2d+0xa4>)
1000a224:	e7ce      	b.n	1000a1c4 <__aeabi_f2d+0x20>
1000a226:	4a08      	ldr	r2, [pc, #32]	; (1000a248 <__aeabi_f2d+0xa4>)
1000a228:	2300      	movs	r3, #0
1000a22a:	e7cb      	b.n	1000a1c4 <__aeabi_f2d+0x20>
1000a22c:	2200      	movs	r2, #0
1000a22e:	2300      	movs	r3, #0
1000a230:	e7c8      	b.n	1000a1c4 <__aeabi_f2d+0x20>
1000a232:	1c03      	adds	r3, r0, #0
1000a234:	3b0b      	subs	r3, #11
1000a236:	409d      	lsls	r5, r3
1000a238:	1c2b      	adds	r3, r5, #0
1000a23a:	2500      	movs	r5, #0
1000a23c:	e7e3      	b.n	1000a206 <__aeabi_f2d+0x62>
1000a23e:	46c0      	nop			; (mov r8, r8)
1000a240:	800fffff 	.word	0x800fffff
1000a244:	00000389 	.word	0x00000389
1000a248:	000007ff 	.word	0x000007ff

1000a24c <__aeabi_d2f>:
1000a24c:	b570      	push	{r4, r5, r6, lr}
1000a24e:	030b      	lsls	r3, r1, #12
1000a250:	004d      	lsls	r5, r1, #1
1000a252:	0f44      	lsrs	r4, r0, #29
1000a254:	0d6d      	lsrs	r5, r5, #21
1000a256:	0a5b      	lsrs	r3, r3, #9
1000a258:	4323      	orrs	r3, r4
1000a25a:	1c6c      	adds	r4, r5, #1
1000a25c:	0564      	lsls	r4, r4, #21
1000a25e:	0fc9      	lsrs	r1, r1, #31
1000a260:	00c2      	lsls	r2, r0, #3
1000a262:	0d64      	lsrs	r4, r4, #21
1000a264:	2c01      	cmp	r4, #1
1000a266:	dd2a      	ble.n	1000a2be <__aeabi_d2f+0x72>
1000a268:	4c3b      	ldr	r4, [pc, #236]	; (1000a358 <__aeabi_d2f+0x10c>)
1000a26a:	192c      	adds	r4, r5, r4
1000a26c:	2cfe      	cmp	r4, #254	; 0xfe
1000a26e:	dc1a      	bgt.n	1000a2a6 <__aeabi_d2f+0x5a>
1000a270:	2c00      	cmp	r4, #0
1000a272:	dd35      	ble.n	1000a2e0 <__aeabi_d2f+0x94>
1000a274:	0180      	lsls	r0, r0, #6
1000a276:	1e45      	subs	r5, r0, #1
1000a278:	41a8      	sbcs	r0, r5
1000a27a:	00db      	lsls	r3, r3, #3
1000a27c:	4303      	orrs	r3, r0
1000a27e:	0f52      	lsrs	r2, r2, #29
1000a280:	4313      	orrs	r3, r2
1000a282:	075a      	lsls	r2, r3, #29
1000a284:	d004      	beq.n	1000a290 <__aeabi_d2f+0x44>
1000a286:	220f      	movs	r2, #15
1000a288:	401a      	ands	r2, r3
1000a28a:	2a04      	cmp	r2, #4
1000a28c:	d000      	beq.n	1000a290 <__aeabi_d2f+0x44>
1000a28e:	3304      	adds	r3, #4
1000a290:	2280      	movs	r2, #128	; 0x80
1000a292:	04d2      	lsls	r2, r2, #19
1000a294:	401a      	ands	r2, r3
1000a296:	d027      	beq.n	1000a2e8 <__aeabi_d2f+0x9c>
1000a298:	3401      	adds	r4, #1
1000a29a:	2cff      	cmp	r4, #255	; 0xff
1000a29c:	d003      	beq.n	1000a2a6 <__aeabi_d2f+0x5a>
1000a29e:	019b      	lsls	r3, r3, #6
1000a2a0:	0a5b      	lsrs	r3, r3, #9
1000a2a2:	b2e4      	uxtb	r4, r4
1000a2a4:	e001      	b.n	1000a2aa <__aeabi_d2f+0x5e>
1000a2a6:	24ff      	movs	r4, #255	; 0xff
1000a2a8:	2300      	movs	r3, #0
1000a2aa:	025b      	lsls	r3, r3, #9
1000a2ac:	05e4      	lsls	r4, r4, #23
1000a2ae:	0a5b      	lsrs	r3, r3, #9
1000a2b0:	4323      	orrs	r3, r4
1000a2b2:	005b      	lsls	r3, r3, #1
1000a2b4:	07c9      	lsls	r1, r1, #31
1000a2b6:	085b      	lsrs	r3, r3, #1
1000a2b8:	430b      	orrs	r3, r1
1000a2ba:	1c18      	adds	r0, r3, #0
1000a2bc:	bd70      	pop	{r4, r5, r6, pc}
1000a2be:	2d00      	cmp	r5, #0
1000a2c0:	d106      	bne.n	1000a2d0 <__aeabi_d2f+0x84>
1000a2c2:	4313      	orrs	r3, r2
1000a2c4:	d10e      	bne.n	1000a2e4 <__aeabi_d2f+0x98>
1000a2c6:	2400      	movs	r4, #0
1000a2c8:	025b      	lsls	r3, r3, #9
1000a2ca:	0a5b      	lsrs	r3, r3, #9
1000a2cc:	b2e4      	uxtb	r4, r4
1000a2ce:	e7ec      	b.n	1000a2aa <__aeabi_d2f+0x5e>
1000a2d0:	431a      	orrs	r2, r3
1000a2d2:	d0e8      	beq.n	1000a2a6 <__aeabi_d2f+0x5a>
1000a2d4:	2080      	movs	r0, #128	; 0x80
1000a2d6:	00db      	lsls	r3, r3, #3
1000a2d8:	0480      	lsls	r0, r0, #18
1000a2da:	4303      	orrs	r3, r0
1000a2dc:	24ff      	movs	r4, #255	; 0xff
1000a2de:	e7d0      	b.n	1000a282 <__aeabi_d2f+0x36>
1000a2e0:	3417      	adds	r4, #23
1000a2e2:	da0c      	bge.n	1000a2fe <__aeabi_d2f+0xb2>
1000a2e4:	2305      	movs	r3, #5
1000a2e6:	2400      	movs	r4, #0
1000a2e8:	08db      	lsrs	r3, r3, #3
1000a2ea:	2cff      	cmp	r4, #255	; 0xff
1000a2ec:	d1ec      	bne.n	1000a2c8 <__aeabi_d2f+0x7c>
1000a2ee:	2b00      	cmp	r3, #0
1000a2f0:	d02d      	beq.n	1000a34e <__aeabi_d2f+0x102>
1000a2f2:	2280      	movs	r2, #128	; 0x80
1000a2f4:	03d2      	lsls	r2, r2, #15
1000a2f6:	4313      	orrs	r3, r2
1000a2f8:	025b      	lsls	r3, r3, #9
1000a2fa:	0a5b      	lsrs	r3, r3, #9
1000a2fc:	e7d5      	b.n	1000a2aa <__aeabi_d2f+0x5e>
1000a2fe:	2480      	movs	r4, #128	; 0x80
1000a300:	4816      	ldr	r0, [pc, #88]	; (1000a35c <__aeabi_d2f+0x110>)
1000a302:	0424      	lsls	r4, r4, #16
1000a304:	4323      	orrs	r3, r4
1000a306:	1b40      	subs	r0, r0, r5
1000a308:	281f      	cmp	r0, #31
1000a30a:	dc0d      	bgt.n	1000a328 <__aeabi_d2f+0xdc>
1000a30c:	4c14      	ldr	r4, [pc, #80]	; (1000a360 <__aeabi_d2f+0x114>)
1000a30e:	46a4      	mov	ip, r4
1000a310:	4465      	add	r5, ip
1000a312:	40ab      	lsls	r3, r5
1000a314:	1c1c      	adds	r4, r3, #0
1000a316:	1c13      	adds	r3, r2, #0
1000a318:	40ab      	lsls	r3, r5
1000a31a:	1e5d      	subs	r5, r3, #1
1000a31c:	41ab      	sbcs	r3, r5
1000a31e:	40c2      	lsrs	r2, r0
1000a320:	4323      	orrs	r3, r4
1000a322:	4313      	orrs	r3, r2
1000a324:	2400      	movs	r4, #0
1000a326:	e7ac      	b.n	1000a282 <__aeabi_d2f+0x36>
1000a328:	1c1e      	adds	r6, r3, #0
1000a32a:	4c0e      	ldr	r4, [pc, #56]	; (1000a364 <__aeabi_d2f+0x118>)
1000a32c:	1b64      	subs	r4, r4, r5
1000a32e:	40e6      	lsrs	r6, r4
1000a330:	1c34      	adds	r4, r6, #0
1000a332:	2820      	cmp	r0, #32
1000a334:	d00d      	beq.n	1000a352 <__aeabi_d2f+0x106>
1000a336:	480c      	ldr	r0, [pc, #48]	; (1000a368 <__aeabi_d2f+0x11c>)
1000a338:	4684      	mov	ip, r0
1000a33a:	4465      	add	r5, ip
1000a33c:	40ab      	lsls	r3, r5
1000a33e:	1c1d      	adds	r5, r3, #0
1000a340:	432a      	orrs	r2, r5
1000a342:	1e53      	subs	r3, r2, #1
1000a344:	419a      	sbcs	r2, r3
1000a346:	1c13      	adds	r3, r2, #0
1000a348:	4323      	orrs	r3, r4
1000a34a:	2400      	movs	r4, #0
1000a34c:	e799      	b.n	1000a282 <__aeabi_d2f+0x36>
1000a34e:	2300      	movs	r3, #0
1000a350:	e7ab      	b.n	1000a2aa <__aeabi_d2f+0x5e>
1000a352:	2500      	movs	r5, #0
1000a354:	e7f4      	b.n	1000a340 <__aeabi_d2f+0xf4>
1000a356:	46c0      	nop			; (mov r8, r8)
1000a358:	fffffc80 	.word	0xfffffc80
1000a35c:	0000039e 	.word	0x0000039e
1000a360:	fffffc82 	.word	0xfffffc82
1000a364:	0000037e 	.word	0x0000037e
1000a368:	fffffca2 	.word	0xfffffca2

1000a36c <__aeabi_idiv0>:
1000a36c:	4770      	bx	lr
1000a36e:	46c0      	nop			; (mov r8, r8)

1000a370 <__divdi3>:
1000a370:	b5f0      	push	{r4, r5, r6, r7, lr}
1000a372:	4644      	mov	r4, r8
1000a374:	465f      	mov	r7, fp
1000a376:	4656      	mov	r6, sl
1000a378:	464d      	mov	r5, r9
1000a37a:	b4f0      	push	{r4, r5, r6, r7}
1000a37c:	1c1c      	adds	r4, r3, #0
1000a37e:	b085      	sub	sp, #20
1000a380:	2900      	cmp	r1, #0
1000a382:	da00      	bge.n	1000a386 <__divdi3+0x16>
1000a384:	e0a9      	b.n	1000a4da <__divdi3+0x16a>
1000a386:	1c0f      	adds	r7, r1, #0
1000a388:	2100      	movs	r1, #0
1000a38a:	1c06      	adds	r6, r0, #0
1000a38c:	4688      	mov	r8, r1
1000a38e:	1c10      	adds	r0, r2, #0
1000a390:	1c19      	adds	r1, r3, #0
1000a392:	2c00      	cmp	r4, #0
1000a394:	da00      	bge.n	1000a398 <__divdi3+0x28>
1000a396:	e097      	b.n	1000a4c8 <__divdi3+0x158>
1000a398:	1c34      	adds	r4, r6, #0
1000a39a:	1c3d      	adds	r5, r7, #0
1000a39c:	4682      	mov	sl, r0
1000a39e:	4689      	mov	r9, r1
1000a3a0:	42b9      	cmp	r1, r7
1000a3a2:	d873      	bhi.n	1000a48c <__divdi3+0x11c>
1000a3a4:	d070      	beq.n	1000a488 <__divdi3+0x118>
1000a3a6:	4649      	mov	r1, r9
1000a3a8:	4650      	mov	r0, sl
1000a3aa:	f000 f985 	bl	1000a6b8 <__clzdi2>
1000a3ae:	4683      	mov	fp, r0
1000a3b0:	1c39      	adds	r1, r7, #0
1000a3b2:	1c30      	adds	r0, r6, #0
1000a3b4:	f000 f980 	bl	1000a6b8 <__clzdi2>
1000a3b8:	465b      	mov	r3, fp
1000a3ba:	1a18      	subs	r0, r3, r0
1000a3bc:	1c03      	adds	r3, r0, #0
1000a3be:	4683      	mov	fp, r0
1000a3c0:	3b20      	subs	r3, #32
1000a3c2:	469c      	mov	ip, r3
1000a3c4:	d500      	bpl.n	1000a3c8 <__divdi3+0x58>
1000a3c6:	e09c      	b.n	1000a502 <__divdi3+0x192>
1000a3c8:	2300      	movs	r3, #0
1000a3ca:	2200      	movs	r2, #0
1000a3cc:	4651      	mov	r1, sl
1000a3ce:	9200      	str	r2, [sp, #0]
1000a3d0:	9301      	str	r3, [sp, #4]
1000a3d2:	4663      	mov	r3, ip
1000a3d4:	4099      	lsls	r1, r3
1000a3d6:	9101      	str	r1, [sp, #4]
1000a3d8:	4651      	mov	r1, sl
1000a3da:	4081      	lsls	r1, r0
1000a3dc:	9b01      	ldr	r3, [sp, #4]
1000a3de:	9100      	str	r1, [sp, #0]
1000a3e0:	42bb      	cmp	r3, r7
1000a3e2:	d900      	bls.n	1000a3e6 <__divdi3+0x76>
1000a3e4:	e083      	b.n	1000a4ee <__divdi3+0x17e>
1000a3e6:	d100      	bne.n	1000a3ea <__divdi3+0x7a>
1000a3e8:	e07e      	b.n	1000a4e8 <__divdi3+0x178>
1000a3ea:	9a00      	ldr	r2, [sp, #0]
1000a3ec:	9b01      	ldr	r3, [sp, #4]
1000a3ee:	1c34      	adds	r4, r6, #0
1000a3f0:	1c3d      	adds	r5, r7, #0
1000a3f2:	1aa4      	subs	r4, r4, r2
1000a3f4:	419d      	sbcs	r5, r3
1000a3f6:	4663      	mov	r3, ip
1000a3f8:	2b00      	cmp	r3, #0
1000a3fa:	da00      	bge.n	1000a3fe <__divdi3+0x8e>
1000a3fc:	e09a      	b.n	1000a534 <__divdi3+0x1c4>
1000a3fe:	2600      	movs	r6, #0
1000a400:	2700      	movs	r7, #0
1000a402:	9602      	str	r6, [sp, #8]
1000a404:	9703      	str	r7, [sp, #12]
1000a406:	3601      	adds	r6, #1
1000a408:	409e      	lsls	r6, r3
1000a40a:	9603      	str	r6, [sp, #12]
1000a40c:	2601      	movs	r6, #1
1000a40e:	4086      	lsls	r6, r0
1000a410:	9602      	str	r6, [sp, #8]
1000a412:	2800      	cmp	r0, #0
1000a414:	d100      	bne.n	1000a418 <__divdi3+0xa8>
1000a416:	e071      	b.n	1000a4fc <__divdi3+0x18c>
1000a418:	9900      	ldr	r1, [sp, #0]
1000a41a:	9a01      	ldr	r2, [sp, #4]
1000a41c:	07d3      	lsls	r3, r2, #31
1000a41e:	4699      	mov	r9, r3
1000a420:	464b      	mov	r3, r9
1000a422:	084e      	lsrs	r6, r1, #1
1000a424:	431e      	orrs	r6, r3
1000a426:	0857      	lsrs	r7, r2, #1
1000a428:	2300      	movs	r3, #0
1000a42a:	2201      	movs	r2, #1
1000a42c:	e00c      	b.n	1000a448 <__divdi3+0xd8>
1000a42e:	42af      	cmp	r7, r5
1000a430:	d101      	bne.n	1000a436 <__divdi3+0xc6>
1000a432:	42a6      	cmp	r6, r4
1000a434:	d80a      	bhi.n	1000a44c <__divdi3+0xdc>
1000a436:	1ba4      	subs	r4, r4, r6
1000a438:	41bd      	sbcs	r5, r7
1000a43a:	1924      	adds	r4, r4, r4
1000a43c:	416d      	adcs	r5, r5
1000a43e:	3801      	subs	r0, #1
1000a440:	18a4      	adds	r4, r4, r2
1000a442:	415d      	adcs	r5, r3
1000a444:	2800      	cmp	r0, #0
1000a446:	d006      	beq.n	1000a456 <__divdi3+0xe6>
1000a448:	42af      	cmp	r7, r5
1000a44a:	d9f0      	bls.n	1000a42e <__divdi3+0xbe>
1000a44c:	3801      	subs	r0, #1
1000a44e:	1924      	adds	r4, r4, r4
1000a450:	416d      	adcs	r5, r5
1000a452:	2800      	cmp	r0, #0
1000a454:	d1f8      	bne.n	1000a448 <__divdi3+0xd8>
1000a456:	2220      	movs	r2, #32
1000a458:	9e02      	ldr	r6, [sp, #8]
1000a45a:	9f03      	ldr	r7, [sp, #12]
1000a45c:	465b      	mov	r3, fp
1000a45e:	4252      	negs	r2, r2
1000a460:	1936      	adds	r6, r6, r4
1000a462:	416f      	adcs	r7, r5
1000a464:	1899      	adds	r1, r3, r2
1000a466:	d45a      	bmi.n	1000a51e <__divdi3+0x1ae>
1000a468:	1c28      	adds	r0, r5, #0
1000a46a:	40c8      	lsrs	r0, r1
1000a46c:	1c2c      	adds	r4, r5, #0
1000a46e:	465b      	mov	r3, fp
1000a470:	40dc      	lsrs	r4, r3
1000a472:	2900      	cmp	r1, #0
1000a474:	db68      	blt.n	1000a548 <__divdi3+0x1d8>
1000a476:	1c04      	adds	r4, r0, #0
1000a478:	408c      	lsls	r4, r1
1000a47a:	1c23      	adds	r3, r4, #0
1000a47c:	4659      	mov	r1, fp
1000a47e:	4088      	lsls	r0, r1
1000a480:	1c02      	adds	r2, r0, #0
1000a482:	1ab6      	subs	r6, r6, r2
1000a484:	419f      	sbcs	r7, r3
1000a486:	e003      	b.n	1000a490 <__divdi3+0x120>
1000a488:	42b0      	cmp	r0, r6
1000a48a:	d98c      	bls.n	1000a3a6 <__divdi3+0x36>
1000a48c:	2600      	movs	r6, #0
1000a48e:	2700      	movs	r7, #0
1000a490:	4641      	mov	r1, r8
1000a492:	1e4b      	subs	r3, r1, #1
1000a494:	4199      	sbcs	r1, r3
1000a496:	2300      	movs	r3, #0
1000a498:	9100      	str	r1, [sp, #0]
1000a49a:	9301      	str	r3, [sp, #4]
1000a49c:	9a00      	ldr	r2, [sp, #0]
1000a49e:	9b01      	ldr	r3, [sp, #4]
1000a4a0:	2500      	movs	r5, #0
1000a4a2:	4254      	negs	r4, r2
1000a4a4:	419d      	sbcs	r5, r3
1000a4a6:	1c33      	adds	r3, r6, #0
1000a4a8:	4063      	eors	r3, r4
1000a4aa:	1c18      	adds	r0, r3, #0
1000a4ac:	1c3b      	adds	r3, r7, #0
1000a4ae:	406b      	eors	r3, r5
1000a4b0:	1c19      	adds	r1, r3, #0
1000a4b2:	9b00      	ldr	r3, [sp, #0]
1000a4b4:	9c01      	ldr	r4, [sp, #4]
1000a4b6:	18c0      	adds	r0, r0, r3
1000a4b8:	4161      	adcs	r1, r4
1000a4ba:	b005      	add	sp, #20
1000a4bc:	bc3c      	pop	{r2, r3, r4, r5}
1000a4be:	4690      	mov	r8, r2
1000a4c0:	4699      	mov	r9, r3
1000a4c2:	46a2      	mov	sl, r4
1000a4c4:	46ab      	mov	fp, r5
1000a4c6:	bdf0      	pop	{r4, r5, r6, r7, pc}
1000a4c8:	4643      	mov	r3, r8
1000a4ca:	43db      	mvns	r3, r3
1000a4cc:	1c0c      	adds	r4, r1, #0
1000a4ce:	4698      	mov	r8, r3
1000a4d0:	1c13      	adds	r3, r2, #0
1000a4d2:	2100      	movs	r1, #0
1000a4d4:	4258      	negs	r0, r3
1000a4d6:	41a1      	sbcs	r1, r4
1000a4d8:	e75e      	b.n	1000a398 <__divdi3+0x28>
1000a4da:	2700      	movs	r7, #0
1000a4dc:	4246      	negs	r6, r0
1000a4de:	418f      	sbcs	r7, r1
1000a4e0:	2101      	movs	r1, #1
1000a4e2:	4249      	negs	r1, r1
1000a4e4:	4688      	mov	r8, r1
1000a4e6:	e752      	b.n	1000a38e <__divdi3+0x1e>
1000a4e8:	42b1      	cmp	r1, r6
1000a4ea:	d800      	bhi.n	1000a4ee <__divdi3+0x17e>
1000a4ec:	e77d      	b.n	1000a3ea <__divdi3+0x7a>
1000a4ee:	2600      	movs	r6, #0
1000a4f0:	2700      	movs	r7, #0
1000a4f2:	9602      	str	r6, [sp, #8]
1000a4f4:	9703      	str	r7, [sp, #12]
1000a4f6:	2800      	cmp	r0, #0
1000a4f8:	d000      	beq.n	1000a4fc <__divdi3+0x18c>
1000a4fa:	e78d      	b.n	1000a418 <__divdi3+0xa8>
1000a4fc:	9e02      	ldr	r6, [sp, #8]
1000a4fe:	9f03      	ldr	r7, [sp, #12]
1000a500:	e7c6      	b.n	1000a490 <__divdi3+0x120>
1000a502:	2120      	movs	r1, #32
1000a504:	4653      	mov	r3, sl
1000a506:	1a09      	subs	r1, r1, r0
1000a508:	40cb      	lsrs	r3, r1
1000a50a:	2200      	movs	r2, #0
1000a50c:	1c19      	adds	r1, r3, #0
1000a50e:	2300      	movs	r3, #0
1000a510:	9200      	str	r2, [sp, #0]
1000a512:	9301      	str	r3, [sp, #4]
1000a514:	464b      	mov	r3, r9
1000a516:	4083      	lsls	r3, r0
1000a518:	430b      	orrs	r3, r1
1000a51a:	9301      	str	r3, [sp, #4]
1000a51c:	e75c      	b.n	1000a3d8 <__divdi3+0x68>
1000a51e:	465a      	mov	r2, fp
1000a520:	2320      	movs	r3, #32
1000a522:	1a9b      	subs	r3, r3, r2
1000a524:	1c2a      	adds	r2, r5, #0
1000a526:	409a      	lsls	r2, r3
1000a528:	1c20      	adds	r0, r4, #0
1000a52a:	1c13      	adds	r3, r2, #0
1000a52c:	465a      	mov	r2, fp
1000a52e:	40d0      	lsrs	r0, r2
1000a530:	4318      	orrs	r0, r3
1000a532:	e79b      	b.n	1000a46c <__divdi3+0xfc>
1000a534:	2620      	movs	r6, #32
1000a536:	2700      	movs	r7, #0
1000a538:	1a33      	subs	r3, r6, r0
1000a53a:	2600      	movs	r6, #0
1000a53c:	9602      	str	r6, [sp, #8]
1000a53e:	9703      	str	r7, [sp, #12]
1000a540:	2701      	movs	r7, #1
1000a542:	40df      	lsrs	r7, r3
1000a544:	9703      	str	r7, [sp, #12]
1000a546:	e761      	b.n	1000a40c <__divdi3+0x9c>
1000a548:	465b      	mov	r3, fp
1000a54a:	2120      	movs	r1, #32
1000a54c:	465d      	mov	r5, fp
1000a54e:	1ac9      	subs	r1, r1, r3
1000a550:	1c03      	adds	r3, r0, #0
1000a552:	40ac      	lsls	r4, r5
1000a554:	40cb      	lsrs	r3, r1
1000a556:	1c19      	adds	r1, r3, #0
1000a558:	1c23      	adds	r3, r4, #0
1000a55a:	430b      	orrs	r3, r1
1000a55c:	e78e      	b.n	1000a47c <__divdi3+0x10c>
1000a55e:	46c0      	nop			; (mov r8, r8)

1000a560 <__udivdi3>:
1000a560:	b5f0      	push	{r4, r5, r6, r7, lr}
1000a562:	4645      	mov	r5, r8
1000a564:	464e      	mov	r6, r9
1000a566:	4657      	mov	r7, sl
1000a568:	b4e0      	push	{r5, r6, r7}
1000a56a:	1c04      	adds	r4, r0, #0
1000a56c:	b082      	sub	sp, #8
1000a56e:	1c0d      	adds	r5, r1, #0
1000a570:	4691      	mov	r9, r2
1000a572:	4698      	mov	r8, r3
1000a574:	428b      	cmp	r3, r1
1000a576:	d862      	bhi.n	1000a63e <__udivdi3+0xde>
1000a578:	d05f      	beq.n	1000a63a <__udivdi3+0xda>
1000a57a:	4641      	mov	r1, r8
1000a57c:	4648      	mov	r0, r9
1000a57e:	f000 f89b 	bl	1000a6b8 <__clzdi2>
1000a582:	1c29      	adds	r1, r5, #0
1000a584:	1c06      	adds	r6, r0, #0
1000a586:	1c20      	adds	r0, r4, #0
1000a588:	f000 f896 	bl	1000a6b8 <__clzdi2>
1000a58c:	2320      	movs	r3, #32
1000a58e:	1a31      	subs	r1, r6, r0
1000a590:	425b      	negs	r3, r3
1000a592:	468a      	mov	sl, r1
1000a594:	18c8      	adds	r0, r1, r3
1000a596:	d465      	bmi.n	1000a664 <__udivdi3+0x104>
1000a598:	464b      	mov	r3, r9
1000a59a:	4083      	lsls	r3, r0
1000a59c:	1c1f      	adds	r7, r3, #0
1000a59e:	464b      	mov	r3, r9
1000a5a0:	408b      	lsls	r3, r1
1000a5a2:	1c1e      	adds	r6, r3, #0
1000a5a4:	42af      	cmp	r7, r5
1000a5a6:	d858      	bhi.n	1000a65a <__udivdi3+0xfa>
1000a5a8:	d055      	beq.n	1000a656 <__udivdi3+0xf6>
1000a5aa:	1ba4      	subs	r4, r4, r6
1000a5ac:	41bd      	sbcs	r5, r7
1000a5ae:	2800      	cmp	r0, #0
1000a5b0:	da00      	bge.n	1000a5b4 <__udivdi3+0x54>
1000a5b2:	e077      	b.n	1000a6a4 <__udivdi3+0x144>
1000a5b4:	2200      	movs	r2, #0
1000a5b6:	2300      	movs	r3, #0
1000a5b8:	9200      	str	r2, [sp, #0]
1000a5ba:	9301      	str	r3, [sp, #4]
1000a5bc:	3201      	adds	r2, #1
1000a5be:	4082      	lsls	r2, r0
1000a5c0:	9201      	str	r2, [sp, #4]
1000a5c2:	2301      	movs	r3, #1
1000a5c4:	408b      	lsls	r3, r1
1000a5c6:	9300      	str	r3, [sp, #0]
1000a5c8:	2900      	cmp	r1, #0
1000a5ca:	d03c      	beq.n	1000a646 <__udivdi3+0xe6>
1000a5cc:	07fb      	lsls	r3, r7, #31
1000a5ce:	4698      	mov	r8, r3
1000a5d0:	4640      	mov	r0, r8
1000a5d2:	0872      	lsrs	r2, r6, #1
1000a5d4:	087b      	lsrs	r3, r7, #1
1000a5d6:	4302      	orrs	r2, r0
1000a5d8:	2601      	movs	r6, #1
1000a5da:	2700      	movs	r7, #0
1000a5dc:	e00c      	b.n	1000a5f8 <__udivdi3+0x98>
1000a5de:	42ab      	cmp	r3, r5
1000a5e0:	d101      	bne.n	1000a5e6 <__udivdi3+0x86>
1000a5e2:	42a2      	cmp	r2, r4
1000a5e4:	d80a      	bhi.n	1000a5fc <__udivdi3+0x9c>
1000a5e6:	1aa4      	subs	r4, r4, r2
1000a5e8:	419d      	sbcs	r5, r3
1000a5ea:	1924      	adds	r4, r4, r4
1000a5ec:	416d      	adcs	r5, r5
1000a5ee:	3901      	subs	r1, #1
1000a5f0:	19a4      	adds	r4, r4, r6
1000a5f2:	417d      	adcs	r5, r7
1000a5f4:	2900      	cmp	r1, #0
1000a5f6:	d006      	beq.n	1000a606 <__udivdi3+0xa6>
1000a5f8:	42ab      	cmp	r3, r5
1000a5fa:	d9f0      	bls.n	1000a5de <__udivdi3+0x7e>
1000a5fc:	3901      	subs	r1, #1
1000a5fe:	1924      	adds	r4, r4, r4
1000a600:	416d      	adcs	r5, r5
1000a602:	2900      	cmp	r1, #0
1000a604:	d1f8      	bne.n	1000a5f8 <__udivdi3+0x98>
1000a606:	2220      	movs	r2, #32
1000a608:	9800      	ldr	r0, [sp, #0]
1000a60a:	9901      	ldr	r1, [sp, #4]
1000a60c:	4653      	mov	r3, sl
1000a60e:	4252      	negs	r2, r2
1000a610:	1900      	adds	r0, r0, r4
1000a612:	4169      	adcs	r1, r5
1000a614:	189e      	adds	r6, r3, r2
1000a616:	d43a      	bmi.n	1000a68e <__udivdi3+0x12e>
1000a618:	1c2f      	adds	r7, r5, #0
1000a61a:	40f7      	lsrs	r7, r6
1000a61c:	4653      	mov	r3, sl
1000a61e:	40dd      	lsrs	r5, r3
1000a620:	2e00      	cmp	r6, #0
1000a622:	db29      	blt.n	1000a678 <__udivdi3+0x118>
1000a624:	1c3c      	adds	r4, r7, #0
1000a626:	40b4      	lsls	r4, r6
1000a628:	1c23      	adds	r3, r4, #0
1000a62a:	4654      	mov	r4, sl
1000a62c:	40a7      	lsls	r7, r4
1000a62e:	1c3a      	adds	r2, r7, #0
1000a630:	1a80      	subs	r0, r0, r2
1000a632:	4199      	sbcs	r1, r3
1000a634:	9000      	str	r0, [sp, #0]
1000a636:	9101      	str	r1, [sp, #4]
1000a638:	e005      	b.n	1000a646 <__udivdi3+0xe6>
1000a63a:	4282      	cmp	r2, r0
1000a63c:	d99d      	bls.n	1000a57a <__udivdi3+0x1a>
1000a63e:	2300      	movs	r3, #0
1000a640:	2400      	movs	r4, #0
1000a642:	9300      	str	r3, [sp, #0]
1000a644:	9401      	str	r4, [sp, #4]
1000a646:	9800      	ldr	r0, [sp, #0]
1000a648:	9901      	ldr	r1, [sp, #4]
1000a64a:	b002      	add	sp, #8
1000a64c:	bc1c      	pop	{r2, r3, r4}
1000a64e:	4690      	mov	r8, r2
1000a650:	4699      	mov	r9, r3
1000a652:	46a2      	mov	sl, r4
1000a654:	bdf0      	pop	{r4, r5, r6, r7, pc}
1000a656:	42a3      	cmp	r3, r4
1000a658:	d9a7      	bls.n	1000a5aa <__udivdi3+0x4a>
1000a65a:	2200      	movs	r2, #0
1000a65c:	2300      	movs	r3, #0
1000a65e:	9200      	str	r2, [sp, #0]
1000a660:	9301      	str	r3, [sp, #4]
1000a662:	e7b1      	b.n	1000a5c8 <__udivdi3+0x68>
1000a664:	2220      	movs	r2, #32
1000a666:	464b      	mov	r3, r9
1000a668:	1a52      	subs	r2, r2, r1
1000a66a:	40d3      	lsrs	r3, r2
1000a66c:	1c1a      	adds	r2, r3, #0
1000a66e:	4643      	mov	r3, r8
1000a670:	408b      	lsls	r3, r1
1000a672:	1c1f      	adds	r7, r3, #0
1000a674:	4317      	orrs	r7, r2
1000a676:	e792      	b.n	1000a59e <__udivdi3+0x3e>
1000a678:	4653      	mov	r3, sl
1000a67a:	2420      	movs	r4, #32
1000a67c:	4656      	mov	r6, sl
1000a67e:	1ae4      	subs	r4, r4, r3
1000a680:	1c3b      	adds	r3, r7, #0
1000a682:	40b5      	lsls	r5, r6
1000a684:	40e3      	lsrs	r3, r4
1000a686:	1c1c      	adds	r4, r3, #0
1000a688:	1c2b      	adds	r3, r5, #0
1000a68a:	4323      	orrs	r3, r4
1000a68c:	e7cd      	b.n	1000a62a <__udivdi3+0xca>
1000a68e:	4652      	mov	r2, sl
1000a690:	2320      	movs	r3, #32
1000a692:	1a9b      	subs	r3, r3, r2
1000a694:	1c2a      	adds	r2, r5, #0
1000a696:	409a      	lsls	r2, r3
1000a698:	1c27      	adds	r7, r4, #0
1000a69a:	1c13      	adds	r3, r2, #0
1000a69c:	4652      	mov	r2, sl
1000a69e:	40d7      	lsrs	r7, r2
1000a6a0:	431f      	orrs	r7, r3
1000a6a2:	e7bb      	b.n	1000a61c <__udivdi3+0xbc>
1000a6a4:	2320      	movs	r3, #32
1000a6a6:	2200      	movs	r2, #0
1000a6a8:	1a58      	subs	r0, r3, r1
1000a6aa:	2300      	movs	r3, #0
1000a6ac:	9200      	str	r2, [sp, #0]
1000a6ae:	9301      	str	r3, [sp, #4]
1000a6b0:	3201      	adds	r2, #1
1000a6b2:	40c2      	lsrs	r2, r0
1000a6b4:	9201      	str	r2, [sp, #4]
1000a6b6:	e784      	b.n	1000a5c2 <__udivdi3+0x62>

1000a6b8 <__clzdi2>:
1000a6b8:	b510      	push	{r4, lr}
1000a6ba:	2900      	cmp	r1, #0
1000a6bc:	d103      	bne.n	1000a6c6 <__clzdi2+0xe>
1000a6be:	f7fd f817 	bl	100076f0 <__clzsi2>
1000a6c2:	3020      	adds	r0, #32
1000a6c4:	e002      	b.n	1000a6cc <__clzdi2+0x14>
1000a6c6:	1c08      	adds	r0, r1, #0
1000a6c8:	f7fd f812 	bl	100076f0 <__clzsi2>
1000a6cc:	bd10      	pop	{r4, pc}
1000a6ce:	46c0      	nop			; (mov r8, r8)

1000a6d0 <__libc_init_array>:
1000a6d0:	4b0e      	ldr	r3, [pc, #56]	; (1000a70c <__libc_init_array+0x3c>)
1000a6d2:	b570      	push	{r4, r5, r6, lr}
1000a6d4:	2500      	movs	r5, #0
1000a6d6:	1c1e      	adds	r6, r3, #0
1000a6d8:	4c0d      	ldr	r4, [pc, #52]	; (1000a710 <__libc_init_array+0x40>)
1000a6da:	1ae4      	subs	r4, r4, r3
1000a6dc:	10a4      	asrs	r4, r4, #2
1000a6de:	42a5      	cmp	r5, r4
1000a6e0:	d004      	beq.n	1000a6ec <__libc_init_array+0x1c>
1000a6e2:	00ab      	lsls	r3, r5, #2
1000a6e4:	58f3      	ldr	r3, [r6, r3]
1000a6e6:	4798      	blx	r3
1000a6e8:	3501      	adds	r5, #1
1000a6ea:	e7f8      	b.n	1000a6de <__libc_init_array+0xe>
1000a6ec:	f7f8 f840 	bl	10002770 <_init>
1000a6f0:	4b08      	ldr	r3, [pc, #32]	; (1000a714 <__libc_init_array+0x44>)
1000a6f2:	2500      	movs	r5, #0
1000a6f4:	1c1e      	adds	r6, r3, #0
1000a6f6:	4c08      	ldr	r4, [pc, #32]	; (1000a718 <__libc_init_array+0x48>)
1000a6f8:	1ae4      	subs	r4, r4, r3
1000a6fa:	10a4      	asrs	r4, r4, #2
1000a6fc:	42a5      	cmp	r5, r4
1000a6fe:	d004      	beq.n	1000a70a <__libc_init_array+0x3a>
1000a700:	00ab      	lsls	r3, r5, #2
1000a702:	58f3      	ldr	r3, [r6, r3]
1000a704:	4798      	blx	r3
1000a706:	3501      	adds	r5, #1
1000a708:	e7f8      	b.n	1000a6fc <__libc_init_array+0x2c>
1000a70a:	bd70      	pop	{r4, r5, r6, pc}
1000a70c:	20000850 	.word	0x20000850
1000a710:	20000850 	.word	0x20000850
1000a714:	20000850 	.word	0x20000850
1000a718:	20000850 	.word	0x20000850

1000a71c <memcpy>:
1000a71c:	2300      	movs	r3, #0
1000a71e:	b510      	push	{r4, lr}
1000a720:	4293      	cmp	r3, r2
1000a722:	d003      	beq.n	1000a72c <memcpy+0x10>
1000a724:	5ccc      	ldrb	r4, [r1, r3]
1000a726:	54c4      	strb	r4, [r0, r3]
1000a728:	3301      	adds	r3, #1
1000a72a:	e7f9      	b.n	1000a720 <memcpy+0x4>
1000a72c:	bd10      	pop	{r4, pc}
1000a72e:	0000      	movs	r0, r0
1000a730:	100024ae 	.word	0x100024ae
1000a734:	100024ae 	.word	0x100024ae
1000a738:	100024b8 	.word	0x100024b8
1000a73c:	100024b8 	.word	0x100024b8
1000a740:	100024e6 	.word	0x100024e6
1000a744:	100024e6 	.word	0x100024e6
1000a748:	100024e6 	.word	0x100024e6
1000a74c:	100024e6 	.word	0x100024e6
1000a750:	100024c2 	.word	0x100024c2
1000a754:	100024ce 	.word	0x100024ce
1000a758:	100024da 	.word	0x100024da
1000a75c:	100024da 	.word	0x100024da

1000a760 <PWM_servo_fl_compare_config>:
1000a760:	00000000 00000005                       ........

1000a768 <PWM_servo_fl_gpio_out_config>:
1000a768:	000000a4 00010000                       ........

1000a770 <PWM_servo_fr_compare_config>:
1000a770:	00000000 00000005                       ........

1000a778 <PWM_servo_fr_gpio_out_config>:
1000a778:	000000a4 00010000                       ........

1000a780 <PWM_servo_rl_compare_config>:
1000a780:	00000000 00000005                       ........

1000a788 <PWM_servo_rl_gpio_out_config>:
1000a788:	000000a4 00010000                       ........

1000a790 <PWM_servo_rr_compare_config>:
1000a790:	00000000 00000005                       ........

1000a798 <PWM_servo_rr_gpio_out_config>:
1000a798:	000000a4 00010000                       ........

1000a7a0 <RC_Connected>:
1000a7a0:	40010600 40040200 00000000 00000000     ...@...@........
1000a7b0:	00000004 0000013d 030c0002 01030301     ....=...........

1000a7c0 <RC_AUX1>:
1000a7c0:	40010630 40040400 00000000 00000000     0..@...@........
1000a7d0:	00000002 0000003d 03060001 01060302     ....=...........

1000a7e0 <CAN_RX_ULTRASONIC>:
1000a7e0:	03040002 00000001                       ........

1000a7e8 <INTERRUPT_TIMER_10us>:
1000a7e8:	03080001 00000001                       ........

1000a7f0 <INTERRUPT_TIMER_CONTROL>:
1000a7f0:	03070002 00000001                       ........

1000a7f8 <CAN_RX_INVERTER>:
1000a7f8:	03030002 00000001                       ........

1000a800 <GLOBAL_SCU_XMC1_0_config>:
1000a800:	01030303 00000101                       ........

1000a808 <RC_no_data_LED>:
1000a808:	40040400 00000080 00010000 00000000     ...@............

1000a818 <CALC_TIME_INDICATOR>:
1000a818:	40040300 00000080 00010000 00000001     ...@............

1000a828 <MODE_001>:
1000a828:	40040400 00000080 00010000 00000001     ...@............

1000a838 <MODE_010>:
1000a838:	40040400 00000080 00010000 00000002     ...@............

1000a848 <MODE_100>:
1000a848:	40040400 00000080 00010000 00000003     ...@............

1000a858 <WATCHDOG_LED_BLUE>:
1000a858:	40040400 00000080 00010000 00000004     ...@............

1000a868 <LED_CAN_ERROR>:
1000a868:	40040000 00000000 00000000 00000006     ...@............
1000a878:	00010000 03300000 00010000 00000000     ......0.........

1000a888 <CAPTURE_RC_Steering_input>:
1000a888:	40040400 0000000a                       ...@....

1000a890 <CAPTURE_RC_Steering_input_pin_config>:
	...

1000a898 <CAPTURE_RC_Steering_event0_config>:
1000a898:	00000115                                ....

1000a89c <CAPTURE_RC_Steering_event1_config>:
1000a89c:	00000215                                ....

1000a8a0 <CAPTURE_RC_Steering_config>:
1000a8a0:	00011060 000000f0                       `.......

1000a8a8 <CAPTURE_RC_Speed_input>:
1000a8a8:	40040400 0000000b                       ...@....

1000a8b0 <CAPTURE_RC_Speed_input_pin_config>:
	...

1000a8b8 <CAPTURE_RC_Speed_event0_config>:
1000a8b8:	00000115                                ....

1000a8bc <CAPTURE_RC_Speed_event1_config>:
1000a8bc:	00000215                                ....

1000a8c0 <CAPTURE_RC_Speed_config>:
1000a8c0:	00011060 000000f0                       `.......

1000a8c8 <CAN_NODE_0_gpio_out>:
1000a8c8:	40040400 00000009                       ...@....

1000a8d0 <CAN_NODE_0_gpio_out_config>:
1000a8d0:	000000a4 00000001                       ........

1000a8d8 <CAN_NODE_0_gpio_in>:
1000a8d8:	40040400 00000008                       ...@....

1000a8e0 <CAN_NODE_0_gpio_in_config>:
	...

1000a8e8 <CAN_NODE_0_BitTimeConfig>:
1000a8e8:	02dc6c00 0007a120 00011f40              .l.. ...@...

1000a8f4 <CAN_NODE_0_sr>:
1000a8f4:	00000000                                ....

1000a8f8 <CAN_NODE_0_LMO_01_Config>:
1000a8f8:	20000748 00000009 00000000              H.. ........

1000a904 <CAN_NODE_0_LMO_02_Config>:
1000a904:	20000768 0000000c 00000000              h.. ........

1000a910 <CAN_NODE_0_LMO_03_Config>:
1000a910:	20000788 00000013 00000001              ... ........

1000a91c <CAN_NODE_0_LMO_04_Config>:
1000a91c:	200007a8 00000011 00000001              ... ........

1000a928 <CAN_NODE_0_LMO_05_Config>:
1000a928:	200007c8 00000012 00000001              ... ........

1000a934 <CAN_NODE_0_LMO_06_Config>:
1000a934:	200007e8 00000008 00000001              ... ........

1000a940 <CAN_NODE_0_LMO_07_Config>:
1000a940:	20000808 0001000b 00000001              ... ........

1000a94c <CAN_NODE_0>:
1000a94c:	200006d4 50040300 1000a8e8 1000a8f8     ... ...P........
1000a95c:	1000a904 1000a910 1000a91c 1000a928     ............(...
1000a96c:	1000a934 1000a940 00000000 00000000     4...@...........
	...
1000a9d8:	1000a8f4 1000a8c8 1000a8d0 1000a8d8     ................
1000a9e8:	1000a8e0 00070102 00000000 100050d8     .............P..
1000a9f8:	1000444e 10004816 10004be0 10004ff0     ND...H...K...O..
1000aa08:	10005050 01010101                       PP......

1000aa10 <atanlo>:
1000aa10:	222f65e2 3c7a2b7f 33145c07 3c81a626     .e/".+z<.\.3&..<
1000aa20:	7af0cbbd 3c700788 33145c07 3c91a626     ...z..p<.\.3&..<

1000aa30 <atanhi>:
1000aa30:	0561bb4f 3fddac67 54442d18 3fe921fb     O.a.g..?.-DT.!.?
1000aa40:	d281f69b 3fef730b 54442d18 3ff921fb     .....s.?.-DT.!.?

1000aa50 <npio2_hw>:
1000aa50:	3ff921fb 400921fb 4012d97c 401921fb     .!.?.!.@|..@.!.@
1000aa60:	401f6a7a 4022d97c 4025fdbb 402921fb     zj.@|."@..%@.!)@
1000aa70:	402c463a 402f6a7a 4031475c 4032d97c     :F,@zj/@\G1@|.2@
1000aa80:	40346b9c 4035fdbb 40378fdb 403921fb     .k4@..5@..7@.!9@
1000aa90:	403ab41b 403c463a 403dd85a 403f6a7a     ..:@:F<@Z.=@zj?@
1000aaa0:	40407e4c 4041475c 4042106c 4042d97c     L~@@\GA@l.B@|.B@
1000aab0:	4043a28c 40446b9c 404534ac 4045fdbb     ..C@.kD@.4E@..E@
1000aac0:	4046c6cb 40478fdb 404858eb 404921fb     ..F@..G@.XH@.!I@

1000aad0 <two_over_pi>:
1000aad0:	00a2f983 006e4e44 001529fc 002757d1     ....DNn..)...W'.
1000aae0:	00f534dd 00c0db62 0095993c 00439041     .4..b...<...A.C.
1000aaf0:	00fe5163 00abdebb 00c561b7 00246e3a     cQ.......a..:n$.
1000ab00:	00424dd2 00e00649 002eea09 00d1921c     .MB.I...........
1000ab10:	00fe1deb 001cb129 00a73ee8 008235f5     ....)....>...5..
1000ab20:	002ebb44 0084e99c 007026b4 005f7e41     D........&p.A~_.
1000ab30:	003991d6 00398353 0039f49c 00845f8b     ..9.S.9...9.._..
1000ab40:	00bdf928 003b1ff8 0097ffde 0005980f     (.....;.........
1000ab50:	00ef2f11 008b5a0a 006d1f6d 00367ecf     ./...Z..m.m..~6.
1000ab60:	0027cb09 00b74f46 003f669e 005fea2d     ..'.FO...f?.-._.
1000ab70:	007527ba 00c7ebe5 00f17b3d 000739f7     .'u.....={...9..
1000ab80:	008a5292 00ea6bfb 005fb11f 008d5d08     .R...k...._..]..
1000ab90:	00560330 0046fc7b 006babf0 00cfbc20     0.V.{.F...k. ...
1000aba0:	009af436 001da9e3 0091615e 00e61b08     6.......^a......
1000abb0:	00659985 005f14a0 0068408d 00ffd880     ..e..._..@h.....
1000abc0:	004d7327 00310606 001556ca 0073a8c9     'sM...1..V....s.
1000abd0:	0060e27b 00c08c6b                       {.`.k...

1000abd8 <init_jk>:
1000abd8:	00000002 00000003 00000004 00000006     ................

1000abe8 <PIo2>:
1000abe8:	40000000 3ff921fb 00000000 3e74442d     ...@.!.?....-Dt>
1000abf8:	80000000 3cf84698 60000000 3b78cc51     .....F.<...`Q.x;
1000ac08:	80000000 39f01b83 40000000 387a2520     .......9...@ %z8
1000ac18:	80000000 36e38222 00000000 3569f31d     ...."..6......i5
1000ac28:	10007caa 10007c72 10007c8e 10007c66     .|..r|...|..f|..
1000ac38:	10007c8e 10007bd2 10007c8e 10007c66     .|...{...|..f|..
1000ac48:	10007c72 10007c72 10007bd2 10007c66     r|..r|...{..f|..
1000ac58:	10007d10 10007d10 10007d10 10007c94     .}...}...}...|..
1000ac68:	10007c72 10007c72 10007d5a 10007c64     r|..r|..Z}..d|..
1000ac78:	10007d5a 10007bd2 10007d5a 10007c64     Z}...{..Z}..d|..
1000ac88:	10007c72 10007c72 10007bd2 10007c64     r|..r|...{..d|..
1000ac98:	10007d10 10007d10 10007d10 10007d3e     .}...}...}..>}..
1000aca8:	10008072 1000806a 1000806a 10008062     r...j...j...b...
1000acb8:	10007fb4 10007fb4 10008058 10008062     ........X...b...
1000acc8:	10007fb4 10008058 10007fb4 10008062     ....X.......b...
1000acd8:	10007fb6 10007fb6 10007fb6 100080fc     ................
1000ace8:	10008d8c 10008c7a 10008d60 10008c66     ....z...`...f...
1000acf8:	10008d60 10008d6a 10008d60 10008c66     `...j...`...f...
1000ad08:	10008c7a 10008c7a 10008d6a 10008c66     z...z...j...f...
1000ad18:	10008c70 10008c70 10008c70 10008fd2     p...p...p.......
1000ad28:	10009620 100095fe 100095fe 100095f2      ...............
1000ad38:	100094e6 100094e6 100095e6 100095f2     ................
1000ad48:	100094e6 100095e6 100094e6 100095f2     ................
1000ad58:	100094ea 100094ea 100094ea 10009800     ................

Disassembly of section .VENEER_Code:

2000000c <HardFault_Veener>:
/* ==================VENEERS VENEERS VENEERS VENEERS VENEERS=============== */
    .section ".XmcVeneerCode","ax",%progbits
    
    .align 1
    
	Insert_InterruptVeener HardFault
2000000c:	482c      	ldr	r0, [pc, #176]	; (200000c0 <IRQ31_Veener+0x4>)
2000000e:	4700      	bx	r0
	...

2000002c <SVC_Veener>:
    .long 0
    .long 0
    .long 0
    .long 0
    .long 0
	Insert_InterruptVeener SVC
2000002c:	4825      	ldr	r0, [pc, #148]	; (200000c4 <IRQ31_Veener+0x8>)
2000002e:	4700      	bx	r0
	...

20000038 <PendSV_Veener>:
    .long 0
    .long 0
	Insert_InterruptVeener PendSV	
20000038:	4823      	ldr	r0, [pc, #140]	; (200000c8 <IRQ31_Veener+0xc>)
2000003a:	4700      	bx	r0

2000003c <SysTick_Veener>:
	Insert_InterruptVeener SysTick
2000003c:	4823      	ldr	r0, [pc, #140]	; (200000cc <IRQ31_Veener+0x10>)
2000003e:	4700      	bx	r0

20000040 <IRQ0_Veener>:
	
	Insert_InterruptVeener IRQ0	
20000040:	4823      	ldr	r0, [pc, #140]	; (200000d0 <IRQ31_Veener+0x14>)
20000042:	4700      	bx	r0

20000044 <IRQ1_Veener>:
	Insert_InterruptVeener IRQ1	
20000044:	4823      	ldr	r0, [pc, #140]	; (200000d4 <IRQ31_Veener+0x18>)
20000046:	4700      	bx	r0

20000048 <IRQ2_Veener>:
	Insert_InterruptVeener IRQ2	
20000048:	4823      	ldr	r0, [pc, #140]	; (200000d8 <IRQ31_Veener+0x1c>)
2000004a:	4700      	bx	r0

2000004c <IRQ3_Veener>:
	Insert_InterruptVeener IRQ3	
2000004c:	4823      	ldr	r0, [pc, #140]	; (200000dc <IRQ31_Veener+0x20>)
2000004e:	4700      	bx	r0

20000050 <IRQ4_Veener>:
	Insert_InterruptVeener IRQ4	
20000050:	4823      	ldr	r0, [pc, #140]	; (200000e0 <IRQ31_Veener+0x24>)
20000052:	4700      	bx	r0

20000054 <IRQ5_Veener>:
	Insert_InterruptVeener IRQ5	
20000054:	4823      	ldr	r0, [pc, #140]	; (200000e4 <IRQ31_Veener+0x28>)
20000056:	4700      	bx	r0

20000058 <IRQ6_Veener>:
	Insert_InterruptVeener IRQ6	
20000058:	4823      	ldr	r0, [pc, #140]	; (200000e8 <IRQ31_Veener+0x2c>)
2000005a:	4700      	bx	r0

2000005c <IRQ7_Veener>:
	Insert_InterruptVeener IRQ7	
2000005c:	4823      	ldr	r0, [pc, #140]	; (200000ec <IRQ31_Veener+0x30>)
2000005e:	4700      	bx	r0

20000060 <IRQ8_Veener>:
	Insert_InterruptVeener IRQ8	
20000060:	4823      	ldr	r0, [pc, #140]	; (200000f0 <IRQ31_Veener+0x34>)
20000062:	4700      	bx	r0

20000064 <IRQ9_Veener>:
	Insert_InterruptVeener IRQ9	
20000064:	4823      	ldr	r0, [pc, #140]	; (200000f4 <IRQ31_Veener+0x38>)
20000066:	4700      	bx	r0

20000068 <IRQ10_Veener>:
	Insert_InterruptVeener IRQ10	
20000068:	4823      	ldr	r0, [pc, #140]	; (200000f8 <IRQ31_Veener+0x3c>)
2000006a:	4700      	bx	r0

2000006c <IRQ11_Veener>:
	Insert_InterruptVeener IRQ11	
2000006c:	4823      	ldr	r0, [pc, #140]	; (200000fc <IRQ31_Veener+0x40>)
2000006e:	4700      	bx	r0

20000070 <IRQ12_Veener>:
	Insert_InterruptVeener IRQ12	
20000070:	4823      	ldr	r0, [pc, #140]	; (20000100 <IRQ31_Veener+0x44>)
20000072:	4700      	bx	r0

20000074 <IRQ13_Veener>:
	Insert_InterruptVeener IRQ13	
20000074:	4823      	ldr	r0, [pc, #140]	; (20000104 <IRQ31_Veener+0x48>)
20000076:	4700      	bx	r0

20000078 <IRQ14_Veener>:
	Insert_InterruptVeener IRQ14	
20000078:	4823      	ldr	r0, [pc, #140]	; (20000108 <IRQ31_Veener+0x4c>)
2000007a:	4700      	bx	r0

2000007c <IRQ15_Veener>:
	Insert_InterruptVeener IRQ15	
2000007c:	4823      	ldr	r0, [pc, #140]	; (2000010c <IRQ31_Veener+0x50>)
2000007e:	4700      	bx	r0

20000080 <IRQ16_Veener>:
	Insert_InterruptVeener IRQ16	
20000080:	4823      	ldr	r0, [pc, #140]	; (20000110 <IRQ31_Veener+0x54>)
20000082:	4700      	bx	r0

20000084 <IRQ17_Veener>:
	Insert_InterruptVeener IRQ17	
20000084:	4823      	ldr	r0, [pc, #140]	; (20000114 <IRQ31_Veener+0x58>)
20000086:	4700      	bx	r0

20000088 <IRQ18_Veener>:
	Insert_InterruptVeener IRQ18	
20000088:	4823      	ldr	r0, [pc, #140]	; (20000118 <IRQ31_Veener+0x5c>)
2000008a:	4700      	bx	r0

2000008c <IRQ19_Veener>:
	Insert_InterruptVeener IRQ19	
2000008c:	4823      	ldr	r0, [pc, #140]	; (2000011c <IRQ31_Veener+0x60>)
2000008e:	4700      	bx	r0

20000090 <IRQ20_Veener>:
	Insert_InterruptVeener IRQ20
20000090:	4823      	ldr	r0, [pc, #140]	; (20000120 <IRQ31_Veener+0x64>)
20000092:	4700      	bx	r0

20000094 <IRQ21_Veener>:
	Insert_InterruptVeener IRQ21
20000094:	4823      	ldr	r0, [pc, #140]	; (20000124 <IRQ31_Veener+0x68>)
20000096:	4700      	bx	r0

20000098 <IRQ22_Veener>:
	Insert_InterruptVeener IRQ22	
20000098:	4823      	ldr	r0, [pc, #140]	; (20000128 <IRQ31_Veener+0x6c>)
2000009a:	4700      	bx	r0

2000009c <IRQ23_Veener>:
	Insert_InterruptVeener IRQ23	
2000009c:	4823      	ldr	r0, [pc, #140]	; (2000012c <IRQ31_Veener+0x70>)
2000009e:	4700      	bx	r0

200000a0 <IRQ24_Veener>:
	Insert_InterruptVeener IRQ24	
200000a0:	4823      	ldr	r0, [pc, #140]	; (20000130 <IRQ31_Veener+0x74>)
200000a2:	4700      	bx	r0

200000a4 <IRQ25_Veener>:
	Insert_InterruptVeener IRQ25	
200000a4:	4823      	ldr	r0, [pc, #140]	; (20000134 <IRQ31_Veener+0x78>)
200000a6:	4700      	bx	r0

200000a8 <IRQ26_Veener>:
	Insert_InterruptVeener IRQ26	
200000a8:	4823      	ldr	r0, [pc, #140]	; (20000138 <IRQ31_Veener+0x7c>)
200000aa:	4700      	bx	r0

200000ac <IRQ27_Veener>:
	Insert_InterruptVeener IRQ27	
200000ac:	4823      	ldr	r0, [pc, #140]	; (2000013c <IRQ31_Veener+0x80>)
200000ae:	4700      	bx	r0

200000b0 <IRQ28_Veener>:
	Insert_InterruptVeener IRQ28	
200000b0:	4823      	ldr	r0, [pc, #140]	; (20000140 <IRQ31_Veener+0x84>)
200000b2:	4700      	bx	r0

200000b4 <IRQ29_Veener>:
	Insert_InterruptVeener IRQ29	
200000b4:	4823      	ldr	r0, [pc, #140]	; (20000144 <IRQ31_Veener+0x88>)
200000b6:	4700      	bx	r0

200000b8 <IRQ30_Veener>:
	Insert_InterruptVeener IRQ30	
200000b8:	4823      	ldr	r0, [pc, #140]	; (20000148 <IRQ31_Veener+0x8c>)
200000ba:	4700      	bx	r0

200000bc <IRQ31_Veener>:
	Insert_InterruptVeener IRQ31	
200000bc:	4823      	ldr	r0, [pc, #140]	; (2000014c <IRQ31_Veener+0x90>)
200000be:	4700      	bx	r0
/* ==================VENEERS VENEERS VENEERS VENEERS VENEERS=============== */
    .section ".XmcVeneerCode","ax",%progbits
    
    .align 1
    
	Insert_InterruptVeener HardFault
200000c0:	1000109d 	.word	0x1000109d
    .long 0
    .long 0
    .long 0
    .long 0
    .long 0
	Insert_InterruptVeener SVC
200000c4:	1000109d 	.word	0x1000109d
    .long 0
    .long 0
	Insert_InterruptVeener PendSV	
200000c8:	1000109d 	.word	0x1000109d
	Insert_InterruptVeener SysTick
200000cc:	1000109d 	.word	0x1000109d
	
	Insert_InterruptVeener IRQ0	
200000d0:	10003285 	.word	0x10003285
	Insert_InterruptVeener IRQ1	
200000d4:	10003295 	.word	0x10003295
	Insert_InterruptVeener IRQ2	
200000d8:	100032a5 	.word	0x100032a5
	Insert_InterruptVeener IRQ3	
200000dc:	100054f9 	.word	0x100054f9
	Insert_InterruptVeener IRQ4	
200000e0:	100051c1 	.word	0x100051c1
	Insert_InterruptVeener IRQ5	
200000e4:	1000109d 	.word	0x1000109d
	Insert_InterruptVeener IRQ6	
200000e8:	10005d81 	.word	0x10005d81
	Insert_InterruptVeener IRQ7	
200000ec:	10005e1d 	.word	0x10005e1d
	Insert_InterruptVeener IRQ8	
200000f0:	10005911 	.word	0x10005911
	Insert_InterruptVeener IRQ9	
200000f4:	1000109d 	.word	0x1000109d
	Insert_InterruptVeener IRQ10	
200000f8:	1000109d 	.word	0x1000109d
	Insert_InterruptVeener IRQ11	
200000fc:	1000109d 	.word	0x1000109d
	Insert_InterruptVeener IRQ12	
20000100:	10005cb9 	.word	0x10005cb9
	Insert_InterruptVeener IRQ13	
20000104:	1000109d 	.word	0x1000109d
	Insert_InterruptVeener IRQ14	
20000108:	1000109d 	.word	0x1000109d
	Insert_InterruptVeener IRQ15	
2000010c:	1000109d 	.word	0x1000109d
	Insert_InterruptVeener IRQ16	
20000110:	1000109d 	.word	0x1000109d
	Insert_InterruptVeener IRQ17	
20000114:	1000109d 	.word	0x1000109d
	Insert_InterruptVeener IRQ18	
20000118:	1000109d 	.word	0x1000109d
	Insert_InterruptVeener IRQ19	
2000011c:	1000109d 	.word	0x1000109d
	Insert_InterruptVeener IRQ20
20000120:	1000109d 	.word	0x1000109d
	Insert_InterruptVeener IRQ21
20000124:	1000109d 	.word	0x1000109d
	Insert_InterruptVeener IRQ22	
20000128:	1000109d 	.word	0x1000109d
	Insert_InterruptVeener IRQ23	
2000012c:	1000109d 	.word	0x1000109d
	Insert_InterruptVeener IRQ24	
20000130:	1000109d 	.word	0x1000109d
	Insert_InterruptVeener IRQ25	
20000134:	1000109d 	.word	0x1000109d
	Insert_InterruptVeener IRQ26	
20000138:	1000109d 	.word	0x1000109d
	Insert_InterruptVeener IRQ27	
2000013c:	1000109d 	.word	0x1000109d
	Insert_InterruptVeener IRQ28	
20000140:	1000109d 	.word	0x1000109d
	Insert_InterruptVeener IRQ29	
20000144:	1000109d 	.word	0x1000109d
	Insert_InterruptVeener IRQ30	
20000148:	1000109d 	.word	0x1000109d
	Insert_InterruptVeener IRQ31	
2000014c:	1000109d 	.word	0x1000109d
