   1              	 .cpu cortex-m0
   2              	 .fpu softvfp
   3              	 .eabi_attribute 20,1
   4              	 .eabi_attribute 21,1
   5              	 .eabi_attribute 23,3
   6              	 .eabi_attribute 24,1
   7              	 .eabi_attribute 25,1
   8              	 .eabi_attribute 26,1
   9              	 .eabi_attribute 30,6
  10              	 .eabi_attribute 34,0
  11              	 .eabi_attribute 18,4
  12              	 .code 16
  13              	 .file "RC_data_recive.c"
  14              	 .text
  15              	.Ltext0:
  16              	 .cfi_sections .debug_frame
  17              	 .comm RC_controll,1,1
  18              	 .section .text.XMC_GPIO_SetOutputHigh,"ax",%progbits
  19              	 .align 2
  20              	 .code 16
  21              	 .thumb_func
  23              	XMC_GPIO_SetOutputHigh:
  24              	.LFB122:
  25              	 .file 1 "C:/GitHub/MobRob_Rover_NEW/Steering_Controller/MobRob_Steering_Controller/Libraries/XMCLib/inc/xmc_gpio.h"
   1:C:/GitHub/MobRob_Rover_NEW/Steering_Controller/MobRob_Steering_Controller/Libraries/XMCLib/inc\xmc_gpio.h **** /**
   2:C:/GitHub/MobRob_Rover_NEW/Steering_Controller/MobRob_Steering_Controller/Libraries/XMCLib/inc\xmc_gpio.h ****  * @file xmc_gpio.h
   3:C:/GitHub/MobRob_Rover_NEW/Steering_Controller/MobRob_Steering_Controller/Libraries/XMCLib/inc\xmc_gpio.h ****  * @date 2015-06-20
   4:C:/GitHub/MobRob_Rover_NEW/Steering_Controller/MobRob_Steering_Controller/Libraries/XMCLib/inc\xmc_gpio.h ****  *
   5:C:/GitHub/MobRob_Rover_NEW/Steering_Controller/MobRob_Steering_Controller/Libraries/XMCLib/inc\xmc_gpio.h ****  * @cond
   6:C:/GitHub/MobRob_Rover_NEW/Steering_Controller/MobRob_Steering_Controller/Libraries/XMCLib/inc\xmc_gpio.h ****  *****************************************************************************
   7:C:/GitHub/MobRob_Rover_NEW/Steering_Controller/MobRob_Steering_Controller/Libraries/XMCLib/inc\xmc_gpio.h ****  * XMClib v2.2.0 - XMC Peripheral Driver Library
   8:C:/GitHub/MobRob_Rover_NEW/Steering_Controller/MobRob_Steering_Controller/Libraries/XMCLib/inc\xmc_gpio.h ****  *
   9:C:/GitHub/MobRob_Rover_NEW/Steering_Controller/MobRob_Steering_Controller/Libraries/XMCLib/inc\xmc_gpio.h ****  * Copyright (c) 2015-2020, Infineon Technologies AG
  10:C:/GitHub/MobRob_Rover_NEW/Steering_Controller/MobRob_Steering_Controller/Libraries/XMCLib/inc\xmc_gpio.h ****  * All rights reserved.
  11:C:/GitHub/MobRob_Rover_NEW/Steering_Controller/MobRob_Steering_Controller/Libraries/XMCLib/inc\xmc_gpio.h ****  *
  12:C:/GitHub/MobRob_Rover_NEW/Steering_Controller/MobRob_Steering_Controller/Libraries/XMCLib/inc\xmc_gpio.h ****  * Boost Software License - Version 1.0 - August 17th, 2003
  13:C:/GitHub/MobRob_Rover_NEW/Steering_Controller/MobRob_Steering_Controller/Libraries/XMCLib/inc\xmc_gpio.h ****  *
  14:C:/GitHub/MobRob_Rover_NEW/Steering_Controller/MobRob_Steering_Controller/Libraries/XMCLib/inc\xmc_gpio.h ****  * Permission is hereby granted, free of charge, to any person or organization
  15:C:/GitHub/MobRob_Rover_NEW/Steering_Controller/MobRob_Steering_Controller/Libraries/XMCLib/inc\xmc_gpio.h ****  * obtaining a copy of the software and accompanying documentation covered by
  16:C:/GitHub/MobRob_Rover_NEW/Steering_Controller/MobRob_Steering_Controller/Libraries/XMCLib/inc\xmc_gpio.h ****  * this license (the "Software") to use, reproduce, display, distribute,
  17:C:/GitHub/MobRob_Rover_NEW/Steering_Controller/MobRob_Steering_Controller/Libraries/XMCLib/inc\xmc_gpio.h ****  * execute, and transmit the Software, and to prepare derivative works of the
  18:C:/GitHub/MobRob_Rover_NEW/Steering_Controller/MobRob_Steering_Controller/Libraries/XMCLib/inc\xmc_gpio.h ****  * Software, and to permit third-parties to whom the Software is furnished to
  19:C:/GitHub/MobRob_Rover_NEW/Steering_Controller/MobRob_Steering_Controller/Libraries/XMCLib/inc\xmc_gpio.h ****  * do so, all subject to the following:
  20:C:/GitHub/MobRob_Rover_NEW/Steering_Controller/MobRob_Steering_Controller/Libraries/XMCLib/inc\xmc_gpio.h ****  *
  21:C:/GitHub/MobRob_Rover_NEW/Steering_Controller/MobRob_Steering_Controller/Libraries/XMCLib/inc\xmc_gpio.h ****  * The copyright notices in the Software and this entire statement, including
  22:C:/GitHub/MobRob_Rover_NEW/Steering_Controller/MobRob_Steering_Controller/Libraries/XMCLib/inc\xmc_gpio.h ****  * the above license grant, this restriction and the following disclaimer,
  23:C:/GitHub/MobRob_Rover_NEW/Steering_Controller/MobRob_Steering_Controller/Libraries/XMCLib/inc\xmc_gpio.h ****  * must be included in all copies of the Software, in whole or in part, and
  24:C:/GitHub/MobRob_Rover_NEW/Steering_Controller/MobRob_Steering_Controller/Libraries/XMCLib/inc\xmc_gpio.h ****  * all derivative works of the Software, unless such copies or derivative
  25:C:/GitHub/MobRob_Rover_NEW/Steering_Controller/MobRob_Steering_Controller/Libraries/XMCLib/inc\xmc_gpio.h ****  * works are solely in the form of machine-executable object code generated by
  26:C:/GitHub/MobRob_Rover_NEW/Steering_Controller/MobRob_Steering_Controller/Libraries/XMCLib/inc\xmc_gpio.h ****  * a source language processor.
  27:C:/GitHub/MobRob_Rover_NEW/Steering_Controller/MobRob_Steering_Controller/Libraries/XMCLib/inc\xmc_gpio.h ****  *
  28:C:/GitHub/MobRob_Rover_NEW/Steering_Controller/MobRob_Steering_Controller/Libraries/XMCLib/inc\xmc_gpio.h ****  * THE SOFTWARE IS PROVIDED "AS IS", WITHOUT WARRANTY OF ANY KIND, EXPRESS OR
  29:C:/GitHub/MobRob_Rover_NEW/Steering_Controller/MobRob_Steering_Controller/Libraries/XMCLib/inc\xmc_gpio.h ****  * IMPLIED, INCLUDING BUT NOT LIMITED TO THE WARRANTIES OF MERCHANTABILITY,
  30:C:/GitHub/MobRob_Rover_NEW/Steering_Controller/MobRob_Steering_Controller/Libraries/XMCLib/inc\xmc_gpio.h ****  * FITNESS FOR A PARTICULAR PURPOSE, TITLE AND NON-INFRINGEMENT. IN NO EVENT
  31:C:/GitHub/MobRob_Rover_NEW/Steering_Controller/MobRob_Steering_Controller/Libraries/XMCLib/inc\xmc_gpio.h ****  * SHALL THE COPYRIGHT HOLDERS OR ANYONE DISTRIBUTING THE SOFTWARE BE LIABLE
  32:C:/GitHub/MobRob_Rover_NEW/Steering_Controller/MobRob_Steering_Controller/Libraries/XMCLib/inc\xmc_gpio.h ****  * FOR ANY DAMAGES OR OTHER LIABILITY, WHETHER IN CONTRACT, TORT OR OTHERWISE,
  33:C:/GitHub/MobRob_Rover_NEW/Steering_Controller/MobRob_Steering_Controller/Libraries/XMCLib/inc\xmc_gpio.h ****  * ARISING FROM, OUT OF OR IN CONNECTION WITH THE SOFTWARE OR THE USE OR OTHER
  34:C:/GitHub/MobRob_Rover_NEW/Steering_Controller/MobRob_Steering_Controller/Libraries/XMCLib/inc\xmc_gpio.h ****  * DEALINGS IN THE SOFTWARE.
  35:C:/GitHub/MobRob_Rover_NEW/Steering_Controller/MobRob_Steering_Controller/Libraries/XMCLib/inc\xmc_gpio.h ****  *
  36:C:/GitHub/MobRob_Rover_NEW/Steering_Controller/MobRob_Steering_Controller/Libraries/XMCLib/inc\xmc_gpio.h ****  * To improve the quality of the software, users are encouraged to share
  37:C:/GitHub/MobRob_Rover_NEW/Steering_Controller/MobRob_Steering_Controller/Libraries/XMCLib/inc\xmc_gpio.h ****  * modifications, enhancements or bug fixes with Infineon Technologies AG
  38:C:/GitHub/MobRob_Rover_NEW/Steering_Controller/MobRob_Steering_Controller/Libraries/XMCLib/inc\xmc_gpio.h ****  * at XMCSupport@infineon.com.
  39:C:/GitHub/MobRob_Rover_NEW/Steering_Controller/MobRob_Steering_Controller/Libraries/XMCLib/inc\xmc_gpio.h ****  *****************************************************************************
  40:C:/GitHub/MobRob_Rover_NEW/Steering_Controller/MobRob_Steering_Controller/Libraries/XMCLib/inc\xmc_gpio.h ****  *
  41:C:/GitHub/MobRob_Rover_NEW/Steering_Controller/MobRob_Steering_Controller/Libraries/XMCLib/inc\xmc_gpio.h ****  * Change History
  42:C:/GitHub/MobRob_Rover_NEW/Steering_Controller/MobRob_Steering_Controller/Libraries/XMCLib/inc\xmc_gpio.h ****  * --------------
  43:C:/GitHub/MobRob_Rover_NEW/Steering_Controller/MobRob_Steering_Controller/Libraries/XMCLib/inc\xmc_gpio.h ****  *
  44:C:/GitHub/MobRob_Rover_NEW/Steering_Controller/MobRob_Steering_Controller/Libraries/XMCLib/inc\xmc_gpio.h ****  * 2015-02-20:
  45:C:/GitHub/MobRob_Rover_NEW/Steering_Controller/MobRob_Steering_Controller/Libraries/XMCLib/inc\xmc_gpio.h ****  *     - Initial draft<br>
  46:C:/GitHub/MobRob_Rover_NEW/Steering_Controller/MobRob_Steering_Controller/Libraries/XMCLib/inc\xmc_gpio.h ****  *     - Documentation improved <br>
  47:C:/GitHub/MobRob_Rover_NEW/Steering_Controller/MobRob_Steering_Controller/Libraries/XMCLib/inc\xmc_gpio.h ****  *
  48:C:/GitHub/MobRob_Rover_NEW/Steering_Controller/MobRob_Steering_Controller/Libraries/XMCLib/inc\xmc_gpio.h ****  * 2015-06-20:
  49:C:/GitHub/MobRob_Rover_NEW/Steering_Controller/MobRob_Steering_Controller/Libraries/XMCLib/inc\xmc_gpio.h ****  *     - Removed version macros and declaration of GetDriverVersion API
  50:C:/GitHub/MobRob_Rover_NEW/Steering_Controller/MobRob_Steering_Controller/Libraries/XMCLib/inc\xmc_gpio.h ****  *
  51:C:/GitHub/MobRob_Rover_NEW/Steering_Controller/MobRob_Steering_Controller/Libraries/XMCLib/inc\xmc_gpio.h ****  * @endcond
  52:C:/GitHub/MobRob_Rover_NEW/Steering_Controller/MobRob_Steering_Controller/Libraries/XMCLib/inc\xmc_gpio.h ****  *
  53:C:/GitHub/MobRob_Rover_NEW/Steering_Controller/MobRob_Steering_Controller/Libraries/XMCLib/inc\xmc_gpio.h ****  */
  54:C:/GitHub/MobRob_Rover_NEW/Steering_Controller/MobRob_Steering_Controller/Libraries/XMCLib/inc\xmc_gpio.h **** 
  55:C:/GitHub/MobRob_Rover_NEW/Steering_Controller/MobRob_Steering_Controller/Libraries/XMCLib/inc\xmc_gpio.h **** #ifndef XMC_GPIO_H
  56:C:/GitHub/MobRob_Rover_NEW/Steering_Controller/MobRob_Steering_Controller/Libraries/XMCLib/inc\xmc_gpio.h **** #define XMC_GPIO_H
  57:C:/GitHub/MobRob_Rover_NEW/Steering_Controller/MobRob_Steering_Controller/Libraries/XMCLib/inc\xmc_gpio.h **** 
  58:C:/GitHub/MobRob_Rover_NEW/Steering_Controller/MobRob_Steering_Controller/Libraries/XMCLib/inc\xmc_gpio.h **** /**************************************************************************************************
  59:C:/GitHub/MobRob_Rover_NEW/Steering_Controller/MobRob_Steering_Controller/Libraries/XMCLib/inc\xmc_gpio.h ****  * HEADER FILES
  60:C:/GitHub/MobRob_Rover_NEW/Steering_Controller/MobRob_Steering_Controller/Libraries/XMCLib/inc\xmc_gpio.h ****  **************************************************************************************************
  61:C:/GitHub/MobRob_Rover_NEW/Steering_Controller/MobRob_Steering_Controller/Libraries/XMCLib/inc\xmc_gpio.h **** 
  62:C:/GitHub/MobRob_Rover_NEW/Steering_Controller/MobRob_Steering_Controller/Libraries/XMCLib/inc\xmc_gpio.h **** #include "xmc_common.h"
  63:C:/GitHub/MobRob_Rover_NEW/Steering_Controller/MobRob_Steering_Controller/Libraries/XMCLib/inc\xmc_gpio.h **** 
  64:C:/GitHub/MobRob_Rover_NEW/Steering_Controller/MobRob_Steering_Controller/Libraries/XMCLib/inc\xmc_gpio.h **** /**
  65:C:/GitHub/MobRob_Rover_NEW/Steering_Controller/MobRob_Steering_Controller/Libraries/XMCLib/inc\xmc_gpio.h ****  * @addtogroup XMClib XMC Peripheral Library
  66:C:/GitHub/MobRob_Rover_NEW/Steering_Controller/MobRob_Steering_Controller/Libraries/XMCLib/inc\xmc_gpio.h ****  * @{
  67:C:/GitHub/MobRob_Rover_NEW/Steering_Controller/MobRob_Steering_Controller/Libraries/XMCLib/inc\xmc_gpio.h ****  */
  68:C:/GitHub/MobRob_Rover_NEW/Steering_Controller/MobRob_Steering_Controller/Libraries/XMCLib/inc\xmc_gpio.h **** 
  69:C:/GitHub/MobRob_Rover_NEW/Steering_Controller/MobRob_Steering_Controller/Libraries/XMCLib/inc\xmc_gpio.h **** /**
  70:C:/GitHub/MobRob_Rover_NEW/Steering_Controller/MobRob_Steering_Controller/Libraries/XMCLib/inc\xmc_gpio.h ****  * @addtogroup GPIO
  71:C:/GitHub/MobRob_Rover_NEW/Steering_Controller/MobRob_Steering_Controller/Libraries/XMCLib/inc\xmc_gpio.h ****  * @brief General Purpose Input Output (GPIO) driver for the XMC microcontroller family.
  72:C:/GitHub/MobRob_Rover_NEW/Steering_Controller/MobRob_Steering_Controller/Libraries/XMCLib/inc\xmc_gpio.h ****  *
  73:C:/GitHub/MobRob_Rover_NEW/Steering_Controller/MobRob_Steering_Controller/Libraries/XMCLib/inc\xmc_gpio.h ****  * GPIO driver provide a generic and very flexible software interface for all standard digital I/O 
  74:C:/GitHub/MobRob_Rover_NEW/Steering_Controller/MobRob_Steering_Controller/Libraries/XMCLib/inc\xmc_gpio.h ****  * Each port slice has individual interfaces for the operation as General Purpose I/O and it furthe
  75:C:/GitHub/MobRob_Rover_NEW/Steering_Controller/MobRob_Steering_Controller/Libraries/XMCLib/inc\xmc_gpio.h ****  * connectivity to the on-chip periphery and the control for the pad characteristics.
  76:C:/GitHub/MobRob_Rover_NEW/Steering_Controller/MobRob_Steering_Controller/Libraries/XMCLib/inc\xmc_gpio.h ****  *
  77:C:/GitHub/MobRob_Rover_NEW/Steering_Controller/MobRob_Steering_Controller/Libraries/XMCLib/inc\xmc_gpio.h ****  * The driver is divided into Input and Output mode.
  78:C:/GitHub/MobRob_Rover_NEW/Steering_Controller/MobRob_Steering_Controller/Libraries/XMCLib/inc\xmc_gpio.h ****  *
  79:C:/GitHub/MobRob_Rover_NEW/Steering_Controller/MobRob_Steering_Controller/Libraries/XMCLib/inc\xmc_gpio.h ****  * Input mode features:
  80:C:/GitHub/MobRob_Rover_NEW/Steering_Controller/MobRob_Steering_Controller/Libraries/XMCLib/inc\xmc_gpio.h ****  * -# Configuration structure XMC_GPIO_CONFIG_t and initialization function XMC_GPIO_Init()
  81:C:/GitHub/MobRob_Rover_NEW/Steering_Controller/MobRob_Steering_Controller/Libraries/XMCLib/inc\xmc_gpio.h ****  * -# Allows the selection of weak pull-up or pull-down device. Configuration structure XMC_GPIO_MO
  82:C:/GitHub/MobRob_Rover_NEW/Steering_Controller/MobRob_Steering_Controller/Libraries/XMCLib/inc\xmc_gpio.h ****  * \if XMC1
  83:C:/GitHub/MobRob_Rover_NEW/Steering_Controller/MobRob_Steering_Controller/Libraries/XMCLib/inc\xmc_gpio.h ****  * -# Allows the selection of input hysteresis. XMC_GPIO_SetInputHysteresis()
  84:C:/GitHub/MobRob_Rover_NEW/Steering_Controller/MobRob_Steering_Controller/Libraries/XMCLib/inc\xmc_gpio.h ****  * \endif
  85:C:/GitHub/MobRob_Rover_NEW/Steering_Controller/MobRob_Steering_Controller/Libraries/XMCLib/inc\xmc_gpio.h ****  *
  86:C:/GitHub/MobRob_Rover_NEW/Steering_Controller/MobRob_Steering_Controller/Libraries/XMCLib/inc\xmc_gpio.h ****  *
  87:C:/GitHub/MobRob_Rover_NEW/Steering_Controller/MobRob_Steering_Controller/Libraries/XMCLib/inc\xmc_gpio.h ****  * Output mode features:
  88:C:/GitHub/MobRob_Rover_NEW/Steering_Controller/MobRob_Steering_Controller/Libraries/XMCLib/inc\xmc_gpio.h ****  * -# Allows the selection of push pull/open drain and Alternate output. Configuration structure XM
  89:C:/GitHub/MobRob_Rover_NEW/Steering_Controller/MobRob_Steering_Controller/Libraries/XMCLib/inc\xmc_gpio.h ****  * \if XMC4
  90:C:/GitHub/MobRob_Rover_NEW/Steering_Controller/MobRob_Steering_Controller/Libraries/XMCLib/inc\xmc_gpio.h ****  * -# Allows the selection of pad driver strength. Configuration structure XMC_GPIO_OUTPUT_STRENGTH
  91:C:/GitHub/MobRob_Rover_NEW/Steering_Controller/MobRob_Steering_Controller/Libraries/XMCLib/inc\xmc_gpio.h ****  * \endif
  92:C:/GitHub/MobRob_Rover_NEW/Steering_Controller/MobRob_Steering_Controller/Libraries/XMCLib/inc\xmc_gpio.h ****  *
  93:C:/GitHub/MobRob_Rover_NEW/Steering_Controller/MobRob_Steering_Controller/Libraries/XMCLib/inc\xmc_gpio.h ****  * -# Allows the selection of initial output level. Configuration structure XMC_GPIO_OUTPUT_LEVEL_t
  94:C:/GitHub/MobRob_Rover_NEW/Steering_Controller/MobRob_Steering_Controller/Libraries/XMCLib/inc\xmc_gpio.h ****  *
  95:C:/GitHub/MobRob_Rover_NEW/Steering_Controller/MobRob_Steering_Controller/Libraries/XMCLib/inc\xmc_gpio.h ****  *@{
  96:C:/GitHub/MobRob_Rover_NEW/Steering_Controller/MobRob_Steering_Controller/Libraries/XMCLib/inc\xmc_gpio.h ****  */
  97:C:/GitHub/MobRob_Rover_NEW/Steering_Controller/MobRob_Steering_Controller/Libraries/XMCLib/inc\xmc_gpio.h **** 
  98:C:/GitHub/MobRob_Rover_NEW/Steering_Controller/MobRob_Steering_Controller/Libraries/XMCLib/inc\xmc_gpio.h **** /**************************************************************************************************
  99:C:/GitHub/MobRob_Rover_NEW/Steering_Controller/MobRob_Steering_Controller/Libraries/XMCLib/inc\xmc_gpio.h ****  * MACROS
 100:C:/GitHub/MobRob_Rover_NEW/Steering_Controller/MobRob_Steering_Controller/Libraries/XMCLib/inc\xmc_gpio.h ****  **************************************************************************************************
 101:C:/GitHub/MobRob_Rover_NEW/Steering_Controller/MobRob_Steering_Controller/Libraries/XMCLib/inc\xmc_gpio.h **** 
 102:C:/GitHub/MobRob_Rover_NEW/Steering_Controller/MobRob_Steering_Controller/Libraries/XMCLib/inc\xmc_gpio.h **** #define PORT_IOCR_PC_Pos PORT0_IOCR0_PC0_Pos
 103:C:/GitHub/MobRob_Rover_NEW/Steering_Controller/MobRob_Steering_Controller/Libraries/XMCLib/inc\xmc_gpio.h **** #define PORT_IOCR_PC_Msk PORT0_IOCR0_PC0_Msk
 104:C:/GitHub/MobRob_Rover_NEW/Steering_Controller/MobRob_Steering_Controller/Libraries/XMCLib/inc\xmc_gpio.h **** 
 105:C:/GitHub/MobRob_Rover_NEW/Steering_Controller/MobRob_Steering_Controller/Libraries/XMCLib/inc\xmc_gpio.h **** #define PORT_IOCR_PC_Size 				(8U)
 106:C:/GitHub/MobRob_Rover_NEW/Steering_Controller/MobRob_Steering_Controller/Libraries/XMCLib/inc\xmc_gpio.h **** 
 107:C:/GitHub/MobRob_Rover_NEW/Steering_Controller/MobRob_Steering_Controller/Libraries/XMCLib/inc\xmc_gpio.h **** 
 108:C:/GitHub/MobRob_Rover_NEW/Steering_Controller/MobRob_Steering_Controller/Libraries/XMCLib/inc\xmc_gpio.h **** #define XMC_GPIO_CHECK_OUTPUT_LEVEL(level) ((level == XMC_GPIO_OUTPUT_LEVEL_LOW) || \
 109:C:/GitHub/MobRob_Rover_NEW/Steering_Controller/MobRob_Steering_Controller/Libraries/XMCLib/inc\xmc_gpio.h ****                                             (level == XMC_GPIO_OUTPUT_LEVEL_HIGH))
 110:C:/GitHub/MobRob_Rover_NEW/Steering_Controller/MobRob_Steering_Controller/Libraries/XMCLib/inc\xmc_gpio.h **** 
 111:C:/GitHub/MobRob_Rover_NEW/Steering_Controller/MobRob_Steering_Controller/Libraries/XMCLib/inc\xmc_gpio.h **** #define XMC_GPIO_CHECK_HWCTRL(hwctrl) ((hwctrl == XMC_GPIO_HWCTRL_DISABLED) || \
 112:C:/GitHub/MobRob_Rover_NEW/Steering_Controller/MobRob_Steering_Controller/Libraries/XMCLib/inc\xmc_gpio.h ****                                        (hwctrl == XMC_GPIO_HWCTRL_PERIPHERAL1) || \
 113:C:/GitHub/MobRob_Rover_NEW/Steering_Controller/MobRob_Steering_Controller/Libraries/XMCLib/inc\xmc_gpio.h ****                                        (hwctrl == XMC_GPIO_HWCTRL_PERIPHERAL2))
 114:C:/GitHub/MobRob_Rover_NEW/Steering_Controller/MobRob_Steering_Controller/Libraries/XMCLib/inc\xmc_gpio.h **** 
 115:C:/GitHub/MobRob_Rover_NEW/Steering_Controller/MobRob_Steering_Controller/Libraries/XMCLib/inc\xmc_gpio.h **** /**************************************************************************************************
 116:C:/GitHub/MobRob_Rover_NEW/Steering_Controller/MobRob_Steering_Controller/Libraries/XMCLib/inc\xmc_gpio.h ****  * ENUMS
 117:C:/GitHub/MobRob_Rover_NEW/Steering_Controller/MobRob_Steering_Controller/Libraries/XMCLib/inc\xmc_gpio.h ****  **************************************************************************************************
 118:C:/GitHub/MobRob_Rover_NEW/Steering_Controller/MobRob_Steering_Controller/Libraries/XMCLib/inc\xmc_gpio.h **** 
 119:C:/GitHub/MobRob_Rover_NEW/Steering_Controller/MobRob_Steering_Controller/Libraries/XMCLib/inc\xmc_gpio.h **** 
 120:C:/GitHub/MobRob_Rover_NEW/Steering_Controller/MobRob_Steering_Controller/Libraries/XMCLib/inc\xmc_gpio.h **** /**
 121:C:/GitHub/MobRob_Rover_NEW/Steering_Controller/MobRob_Steering_Controller/Libraries/XMCLib/inc\xmc_gpio.h ****  * Defines output level of a pin. Use type \a XMC_GPIO_OUTPUT_LEVEL_t for this enum.
 122:C:/GitHub/MobRob_Rover_NEW/Steering_Controller/MobRob_Steering_Controller/Libraries/XMCLib/inc\xmc_gpio.h ****  */
 123:C:/GitHub/MobRob_Rover_NEW/Steering_Controller/MobRob_Steering_Controller/Libraries/XMCLib/inc\xmc_gpio.h **** typedef enum XMC_GPIO_OUTPUT_LEVEL
 124:C:/GitHub/MobRob_Rover_NEW/Steering_Controller/MobRob_Steering_Controller/Libraries/XMCLib/inc\xmc_gpio.h **** {
 125:C:/GitHub/MobRob_Rover_NEW/Steering_Controller/MobRob_Steering_Controller/Libraries/XMCLib/inc\xmc_gpio.h ****   XMC_GPIO_OUTPUT_LEVEL_LOW  = 0x10000U, /**<  Reset bit */
 126:C:/GitHub/MobRob_Rover_NEW/Steering_Controller/MobRob_Steering_Controller/Libraries/XMCLib/inc\xmc_gpio.h ****   XMC_GPIO_OUTPUT_LEVEL_HIGH = 0x1U, 	/**< Set bit  */
 127:C:/GitHub/MobRob_Rover_NEW/Steering_Controller/MobRob_Steering_Controller/Libraries/XMCLib/inc\xmc_gpio.h **** } XMC_GPIO_OUTPUT_LEVEL_t;
 128:C:/GitHub/MobRob_Rover_NEW/Steering_Controller/MobRob_Steering_Controller/Libraries/XMCLib/inc\xmc_gpio.h **** 
 129:C:/GitHub/MobRob_Rover_NEW/Steering_Controller/MobRob_Steering_Controller/Libraries/XMCLib/inc\xmc_gpio.h **** /**
 130:C:/GitHub/MobRob_Rover_NEW/Steering_Controller/MobRob_Steering_Controller/Libraries/XMCLib/inc\xmc_gpio.h ****  * Defines direct hardware control characteristics of the pin . Use type \a XMC_GPIO_HWCTRL_t for t
 131:C:/GitHub/MobRob_Rover_NEW/Steering_Controller/MobRob_Steering_Controller/Libraries/XMCLib/inc\xmc_gpio.h ****  */
 132:C:/GitHub/MobRob_Rover_NEW/Steering_Controller/MobRob_Steering_Controller/Libraries/XMCLib/inc\xmc_gpio.h **** typedef enum XMC_GPIO_HWCTRL
 133:C:/GitHub/MobRob_Rover_NEW/Steering_Controller/MobRob_Steering_Controller/Libraries/XMCLib/inc\xmc_gpio.h **** {
 134:C:/GitHub/MobRob_Rover_NEW/Steering_Controller/MobRob_Steering_Controller/Libraries/XMCLib/inc\xmc_gpio.h ****   XMC_GPIO_HWCTRL_DISABLED     = 0x0U, /**<  Software control only */
 135:C:/GitHub/MobRob_Rover_NEW/Steering_Controller/MobRob_Steering_Controller/Libraries/XMCLib/inc\xmc_gpio.h ****   XMC_GPIO_HWCTRL_PERIPHERAL1  = 0x1U, /**<  HWI0/HWO0 control path can override the software confi
 136:C:/GitHub/MobRob_Rover_NEW/Steering_Controller/MobRob_Steering_Controller/Libraries/XMCLib/inc\xmc_gpio.h ****   XMC_GPIO_HWCTRL_PERIPHERAL2  = 0x2U  /**<  HWI1/HWO1 control path can override the software confi
 137:C:/GitHub/MobRob_Rover_NEW/Steering_Controller/MobRob_Steering_Controller/Libraries/XMCLib/inc\xmc_gpio.h **** } XMC_GPIO_HWCTRL_t;
 138:C:/GitHub/MobRob_Rover_NEW/Steering_Controller/MobRob_Steering_Controller/Libraries/XMCLib/inc\xmc_gpio.h **** 
 139:C:/GitHub/MobRob_Rover_NEW/Steering_Controller/MobRob_Steering_Controller/Libraries/XMCLib/inc\xmc_gpio.h **** /**************************************************************************************************
 140:C:/GitHub/MobRob_Rover_NEW/Steering_Controller/MobRob_Steering_Controller/Libraries/XMCLib/inc\xmc_gpio.h ****  * DEVICE FAMILY EXTENSIONS
 141:C:/GitHub/MobRob_Rover_NEW/Steering_Controller/MobRob_Steering_Controller/Libraries/XMCLib/inc\xmc_gpio.h ****  **************************************************************************************************
 142:C:/GitHub/MobRob_Rover_NEW/Steering_Controller/MobRob_Steering_Controller/Libraries/XMCLib/inc\xmc_gpio.h **** 
 143:C:/GitHub/MobRob_Rover_NEW/Steering_Controller/MobRob_Steering_Controller/Libraries/XMCLib/inc\xmc_gpio.h **** #if UC_FAMILY == XMC1
 144:C:/GitHub/MobRob_Rover_NEW/Steering_Controller/MobRob_Steering_Controller/Libraries/XMCLib/inc\xmc_gpio.h **** #include "xmc1_gpio.h"
 145:C:/GitHub/MobRob_Rover_NEW/Steering_Controller/MobRob_Steering_Controller/Libraries/XMCLib/inc\xmc_gpio.h **** #elif UC_FAMILY == XMC4
 146:C:/GitHub/MobRob_Rover_NEW/Steering_Controller/MobRob_Steering_Controller/Libraries/XMCLib/inc\xmc_gpio.h **** #include "xmc4_gpio.h"
 147:C:/GitHub/MobRob_Rover_NEW/Steering_Controller/MobRob_Steering_Controller/Libraries/XMCLib/inc\xmc_gpio.h **** #else
 148:C:/GitHub/MobRob_Rover_NEW/Steering_Controller/MobRob_Steering_Controller/Libraries/XMCLib/inc\xmc_gpio.h **** #error "xmc_gpio.h: family device not supported"
 149:C:/GitHub/MobRob_Rover_NEW/Steering_Controller/MobRob_Steering_Controller/Libraries/XMCLib/inc\xmc_gpio.h **** #endif
 150:C:/GitHub/MobRob_Rover_NEW/Steering_Controller/MobRob_Steering_Controller/Libraries/XMCLib/inc\xmc_gpio.h **** 
 151:C:/GitHub/MobRob_Rover_NEW/Steering_Controller/MobRob_Steering_Controller/Libraries/XMCLib/inc\xmc_gpio.h **** /**************************************************************************************************
 152:C:/GitHub/MobRob_Rover_NEW/Steering_Controller/MobRob_Steering_Controller/Libraries/XMCLib/inc\xmc_gpio.h ****  * API PROTOTYPES
 153:C:/GitHub/MobRob_Rover_NEW/Steering_Controller/MobRob_Steering_Controller/Libraries/XMCLib/inc\xmc_gpio.h ****  **************************************************************************************************
 154:C:/GitHub/MobRob_Rover_NEW/Steering_Controller/MobRob_Steering_Controller/Libraries/XMCLib/inc\xmc_gpio.h **** 
 155:C:/GitHub/MobRob_Rover_NEW/Steering_Controller/MobRob_Steering_Controller/Libraries/XMCLib/inc\xmc_gpio.h **** #ifdef __cplusplus
 156:C:/GitHub/MobRob_Rover_NEW/Steering_Controller/MobRob_Steering_Controller/Libraries/XMCLib/inc\xmc_gpio.h **** extern "C" {
 157:C:/GitHub/MobRob_Rover_NEW/Steering_Controller/MobRob_Steering_Controller/Libraries/XMCLib/inc\xmc_gpio.h **** #endif
 158:C:/GitHub/MobRob_Rover_NEW/Steering_Controller/MobRob_Steering_Controller/Libraries/XMCLib/inc\xmc_gpio.h **** 
 159:C:/GitHub/MobRob_Rover_NEW/Steering_Controller/MobRob_Steering_Controller/Libraries/XMCLib/inc\xmc_gpio.h **** 
 160:C:/GitHub/MobRob_Rover_NEW/Steering_Controller/MobRob_Steering_Controller/Libraries/XMCLib/inc\xmc_gpio.h **** /**
 161:C:/GitHub/MobRob_Rover_NEW/Steering_Controller/MobRob_Steering_Controller/Libraries/XMCLib/inc\xmc_gpio.h ****  * @param  port	  Constant pointer pointing to GPIO port, to access port registers like Pn_OUT,Pn_O
 162:C:/GitHub/MobRob_Rover_NEW/Steering_Controller/MobRob_Steering_Controller/Libraries/XMCLib/inc\xmc_gpio.h ****  * @param  pin	  Port pin number.
 163:C:/GitHub/MobRob_Rover_NEW/Steering_Controller/MobRob_Steering_Controller/Libraries/XMCLib/inc\xmc_gpio.h ****  * @param  config GPIO configuration data structure. Refer data structure @ref XMC_GPIO_CONFIG_t fo
 164:C:/GitHub/MobRob_Rover_NEW/Steering_Controller/MobRob_Steering_Controller/Libraries/XMCLib/inc\xmc_gpio.h ****  *
 165:C:/GitHub/MobRob_Rover_NEW/Steering_Controller/MobRob_Steering_Controller/Libraries/XMCLib/inc\xmc_gpio.h ****  * @return None
 166:C:/GitHub/MobRob_Rover_NEW/Steering_Controller/MobRob_Steering_Controller/Libraries/XMCLib/inc\xmc_gpio.h ****  *
 167:C:/GitHub/MobRob_Rover_NEW/Steering_Controller/MobRob_Steering_Controller/Libraries/XMCLib/inc\xmc_gpio.h ****  * \par<b>Description:</b><br>
 168:C:/GitHub/MobRob_Rover_NEW/Steering_Controller/MobRob_Steering_Controller/Libraries/XMCLib/inc\xmc_gpio.h ****  * \if XMC1
 169:C:/GitHub/MobRob_Rover_NEW/Steering_Controller/MobRob_Steering_Controller/Libraries/XMCLib/inc\xmc_gpio.h ****  * Initializes input / output mode settings like, pull up / pull down devices,hysteresis, push pull
 170:C:/GitHub/MobRob_Rover_NEW/Steering_Controller/MobRob_Steering_Controller/Libraries/XMCLib/inc\xmc_gpio.h ****  * Also configures alternate function outputs and clears hardware port control for a selected \a po
 171:C:/GitHub/MobRob_Rover_NEW/Steering_Controller/MobRob_Steering_Controller/Libraries/XMCLib/inc\xmc_gpio.h ****  * \a config provides selected I/O settings. It configures hardware registers Pn_IOCR,Pn_OUT, Pn_OM
 172:C:/GitHub/MobRob_Rover_NEW/Steering_Controller/MobRob_Steering_Controller/Libraries/XMCLib/inc\xmc_gpio.h ****  * \endif
 173:C:/GitHub/MobRob_Rover_NEW/Steering_Controller/MobRob_Steering_Controller/Libraries/XMCLib/inc\xmc_gpio.h ****  * \if XMC4
 174:C:/GitHub/MobRob_Rover_NEW/Steering_Controller/MobRob_Steering_Controller/Libraries/XMCLib/inc\xmc_gpio.h ****  * Initializes input / output mode settings like, pull up / pull down devices,push pull /open drain
 175:C:/GitHub/MobRob_Rover_NEW/Steering_Controller/MobRob_Steering_Controller/Libraries/XMCLib/inc\xmc_gpio.h ****  * Also configures alternate function outputs and clears hardware port control for selected \a port
 176:C:/GitHub/MobRob_Rover_NEW/Steering_Controller/MobRob_Steering_Controller/Libraries/XMCLib/inc\xmc_gpio.h ****  * It configures hardware registers Pn_IOCR,Pn_OUT,Pn_OMR,Pn_PDISC and Pn_PDR.\n
 177:C:/GitHub/MobRob_Rover_NEW/Steering_Controller/MobRob_Steering_Controller/Libraries/XMCLib/inc\xmc_gpio.h ****  * \endif
 178:C:/GitHub/MobRob_Rover_NEW/Steering_Controller/MobRob_Steering_Controller/Libraries/XMCLib/inc\xmc_gpio.h ****  *
 179:C:/GitHub/MobRob_Rover_NEW/Steering_Controller/MobRob_Steering_Controller/Libraries/XMCLib/inc\xmc_gpio.h ****  * \par<b>Related APIs:</b><BR>
 180:C:/GitHub/MobRob_Rover_NEW/Steering_Controller/MobRob_Steering_Controller/Libraries/XMCLib/inc\xmc_gpio.h ****  *  None
 181:C:/GitHub/MobRob_Rover_NEW/Steering_Controller/MobRob_Steering_Controller/Libraries/XMCLib/inc\xmc_gpio.h ****  *
 182:C:/GitHub/MobRob_Rover_NEW/Steering_Controller/MobRob_Steering_Controller/Libraries/XMCLib/inc\xmc_gpio.h ****  * \par<b>Note:</b><br>
 183:C:/GitHub/MobRob_Rover_NEW/Steering_Controller/MobRob_Steering_Controller/Libraries/XMCLib/inc\xmc_gpio.h ****  * This API is called in definition of DAVE_init by code generation and therefore should not be exp
 184:C:/GitHub/MobRob_Rover_NEW/Steering_Controller/MobRob_Steering_Controller/Libraries/XMCLib/inc\xmc_gpio.h ****  * for the normal operation. Use other APIs only after DAVE_init is called successfully (returns DA
 185:C:/GitHub/MobRob_Rover_NEW/Steering_Controller/MobRob_Steering_Controller/Libraries/XMCLib/inc\xmc_gpio.h ****  *
 186:C:/GitHub/MobRob_Rover_NEW/Steering_Controller/MobRob_Steering_Controller/Libraries/XMCLib/inc\xmc_gpio.h ****  *
 187:C:/GitHub/MobRob_Rover_NEW/Steering_Controller/MobRob_Steering_Controller/Libraries/XMCLib/inc\xmc_gpio.h ****  */
 188:C:/GitHub/MobRob_Rover_NEW/Steering_Controller/MobRob_Steering_Controller/Libraries/XMCLib/inc\xmc_gpio.h **** 
 189:C:/GitHub/MobRob_Rover_NEW/Steering_Controller/MobRob_Steering_Controller/Libraries/XMCLib/inc\xmc_gpio.h **** 
 190:C:/GitHub/MobRob_Rover_NEW/Steering_Controller/MobRob_Steering_Controller/Libraries/XMCLib/inc\xmc_gpio.h **** void XMC_GPIO_Init(XMC_GPIO_PORT_t *const port, const uint8_t pin, const XMC_GPIO_CONFIG_t *const c
 191:C:/GitHub/MobRob_Rover_NEW/Steering_Controller/MobRob_Steering_Controller/Libraries/XMCLib/inc\xmc_gpio.h **** 
 192:C:/GitHub/MobRob_Rover_NEW/Steering_Controller/MobRob_Steering_Controller/Libraries/XMCLib/inc\xmc_gpio.h **** /**
 193:C:/GitHub/MobRob_Rover_NEW/Steering_Controller/MobRob_Steering_Controller/Libraries/XMCLib/inc\xmc_gpio.h ****  *
 194:C:/GitHub/MobRob_Rover_NEW/Steering_Controller/MobRob_Steering_Controller/Libraries/XMCLib/inc\xmc_gpio.h ****  * @param  port	Constant pointer pointing to GPIO port, to access hardware register Pn_IOCR.
 195:C:/GitHub/MobRob_Rover_NEW/Steering_Controller/MobRob_Steering_Controller/Libraries/XMCLib/inc\xmc_gpio.h ****  * @param  pin	Port pin number.
 196:C:/GitHub/MobRob_Rover_NEW/Steering_Controller/MobRob_Steering_Controller/Libraries/XMCLib/inc\xmc_gpio.h ****  * @param  mode input / output functionality selection. Refer @ref XMC_GPIO_MODE_t for valid values
 197:C:/GitHub/MobRob_Rover_NEW/Steering_Controller/MobRob_Steering_Controller/Libraries/XMCLib/inc\xmc_gpio.h ****  *
 198:C:/GitHub/MobRob_Rover_NEW/Steering_Controller/MobRob_Steering_Controller/Libraries/XMCLib/inc\xmc_gpio.h ****  * @return None
 199:C:/GitHub/MobRob_Rover_NEW/Steering_Controller/MobRob_Steering_Controller/Libraries/XMCLib/inc\xmc_gpio.h ****  *
 200:C:/GitHub/MobRob_Rover_NEW/Steering_Controller/MobRob_Steering_Controller/Libraries/XMCLib/inc\xmc_gpio.h ****  * \par<b>Description:</b><br>
 201:C:/GitHub/MobRob_Rover_NEW/Steering_Controller/MobRob_Steering_Controller/Libraries/XMCLib/inc\xmc_gpio.h ****  * Sets digital input and output driver functionality and characteristics of a GPIO port pin. It co
 202:C:/GitHub/MobRob_Rover_NEW/Steering_Controller/MobRob_Steering_Controller/Libraries/XMCLib/inc\xmc_gpio.h ****  * registers Pn_IOCR. \a mode is initially configured during initialization in XMC_GPIO_Init(). Cal
 203:C:/GitHub/MobRob_Rover_NEW/Steering_Controller/MobRob_Steering_Controller/Libraries/XMCLib/inc\xmc_gpio.h ****  * the port direction functionality as needed later in the program.
 204:C:/GitHub/MobRob_Rover_NEW/Steering_Controller/MobRob_Steering_Controller/Libraries/XMCLib/inc\xmc_gpio.h ****  *
 205:C:/GitHub/MobRob_Rover_NEW/Steering_Controller/MobRob_Steering_Controller/Libraries/XMCLib/inc\xmc_gpio.h ****  * \par<b>Related APIs:</b><BR>
 206:C:/GitHub/MobRob_Rover_NEW/Steering_Controller/MobRob_Steering_Controller/Libraries/XMCLib/inc\xmc_gpio.h ****  *  None
 207:C:/GitHub/MobRob_Rover_NEW/Steering_Controller/MobRob_Steering_Controller/Libraries/XMCLib/inc\xmc_gpio.h ****  *
 208:C:/GitHub/MobRob_Rover_NEW/Steering_Controller/MobRob_Steering_Controller/Libraries/XMCLib/inc\xmc_gpio.h ****  */
 209:C:/GitHub/MobRob_Rover_NEW/Steering_Controller/MobRob_Steering_Controller/Libraries/XMCLib/inc\xmc_gpio.h **** 
 210:C:/GitHub/MobRob_Rover_NEW/Steering_Controller/MobRob_Steering_Controller/Libraries/XMCLib/inc\xmc_gpio.h **** void XMC_GPIO_SetMode(XMC_GPIO_PORT_t *const port, const uint8_t pin, const XMC_GPIO_MODE_t mode);
 211:C:/GitHub/MobRob_Rover_NEW/Steering_Controller/MobRob_Steering_Controller/Libraries/XMCLib/inc\xmc_gpio.h **** 
 212:C:/GitHub/MobRob_Rover_NEW/Steering_Controller/MobRob_Steering_Controller/Libraries/XMCLib/inc\xmc_gpio.h **** 
 213:C:/GitHub/MobRob_Rover_NEW/Steering_Controller/MobRob_Steering_Controller/Libraries/XMCLib/inc\xmc_gpio.h **** /**
 214:C:/GitHub/MobRob_Rover_NEW/Steering_Controller/MobRob_Steering_Controller/Libraries/XMCLib/inc\xmc_gpio.h ****  *
 215:C:/GitHub/MobRob_Rover_NEW/Steering_Controller/MobRob_Steering_Controller/Libraries/XMCLib/inc\xmc_gpio.h ****  * @param  port	 Constant pointer pointing to GPIO port, to access hardware register Pn_OMR.
 216:C:/GitHub/MobRob_Rover_NEW/Steering_Controller/MobRob_Steering_Controller/Libraries/XMCLib/inc\xmc_gpio.h ****  * @param  pin	 Port pin number.
 217:C:/GitHub/MobRob_Rover_NEW/Steering_Controller/MobRob_Steering_Controller/Libraries/XMCLib/inc\xmc_gpio.h ****  * @param  level output level selection. Refer @ref XMC_GPIO_OUTPUT_LEVEL_t for valid values.
 218:C:/GitHub/MobRob_Rover_NEW/Steering_Controller/MobRob_Steering_Controller/Libraries/XMCLib/inc\xmc_gpio.h ****  *
 219:C:/GitHub/MobRob_Rover_NEW/Steering_Controller/MobRob_Steering_Controller/Libraries/XMCLib/inc\xmc_gpio.h ****  * @return None
 220:C:/GitHub/MobRob_Rover_NEW/Steering_Controller/MobRob_Steering_Controller/Libraries/XMCLib/inc\xmc_gpio.h ****  *
 221:C:/GitHub/MobRob_Rover_NEW/Steering_Controller/MobRob_Steering_Controller/Libraries/XMCLib/inc\xmc_gpio.h ****  * \par<b>Description:</b><br>
 222:C:/GitHub/MobRob_Rover_NEW/Steering_Controller/MobRob_Steering_Controller/Libraries/XMCLib/inc\xmc_gpio.h ****  * Set port pin output level to high or low.It configures hardware registers Pn_OMR.\a level is ini
 223:C:/GitHub/MobRob_Rover_NEW/Steering_Controller/MobRob_Steering_Controller/Libraries/XMCLib/inc\xmc_gpio.h ****  * configured during initialization in XMC_GPIO_Init(). Call this API to alter output level as need
 224:C:/GitHub/MobRob_Rover_NEW/Steering_Controller/MobRob_Steering_Controller/Libraries/XMCLib/inc\xmc_gpio.h ****  *
 225:C:/GitHub/MobRob_Rover_NEW/Steering_Controller/MobRob_Steering_Controller/Libraries/XMCLib/inc\xmc_gpio.h ****  * \par<b>Related APIs:</b><BR>
 226:C:/GitHub/MobRob_Rover_NEW/Steering_Controller/MobRob_Steering_Controller/Libraries/XMCLib/inc\xmc_gpio.h ****  *  XMC_GPIO_SetOutputHigh(), XMC_GPIO_SetOutputLow().
 227:C:/GitHub/MobRob_Rover_NEW/Steering_Controller/MobRob_Steering_Controller/Libraries/XMCLib/inc\xmc_gpio.h ****  *
 228:C:/GitHub/MobRob_Rover_NEW/Steering_Controller/MobRob_Steering_Controller/Libraries/XMCLib/inc\xmc_gpio.h ****  * \par<b>Note:</b><br>
 229:C:/GitHub/MobRob_Rover_NEW/Steering_Controller/MobRob_Steering_Controller/Libraries/XMCLib/inc\xmc_gpio.h ****  * Prior to this api, user has to configure port pin to output mode using XMC_GPIO_SetMode().
 230:C:/GitHub/MobRob_Rover_NEW/Steering_Controller/MobRob_Steering_Controller/Libraries/XMCLib/inc\xmc_gpio.h ****  *
 231:C:/GitHub/MobRob_Rover_NEW/Steering_Controller/MobRob_Steering_Controller/Libraries/XMCLib/inc\xmc_gpio.h ****  */
 232:C:/GitHub/MobRob_Rover_NEW/Steering_Controller/MobRob_Steering_Controller/Libraries/XMCLib/inc\xmc_gpio.h **** 
 233:C:/GitHub/MobRob_Rover_NEW/Steering_Controller/MobRob_Steering_Controller/Libraries/XMCLib/inc\xmc_gpio.h **** 
 234:C:/GitHub/MobRob_Rover_NEW/Steering_Controller/MobRob_Steering_Controller/Libraries/XMCLib/inc\xmc_gpio.h **** __STATIC_INLINE void XMC_GPIO_SetOutputLevel(XMC_GPIO_PORT_t *const port, const uint8_t pin, const 
 235:C:/GitHub/MobRob_Rover_NEW/Steering_Controller/MobRob_Steering_Controller/Libraries/XMCLib/inc\xmc_gpio.h **** {
 236:C:/GitHub/MobRob_Rover_NEW/Steering_Controller/MobRob_Steering_Controller/Libraries/XMCLib/inc\xmc_gpio.h ****   XMC_ASSERT("XMC_GPIO_SetOutputLevel: Invalid port", XMC_GPIO_CHECK_OUTPUT_PORT(port));
 237:C:/GitHub/MobRob_Rover_NEW/Steering_Controller/MobRob_Steering_Controller/Libraries/XMCLib/inc\xmc_gpio.h ****   XMC_ASSERT("XMC_GPIO_SetOutputLevel: Invalid output level", XMC_GPIO_CHECK_OUTPUT_LEVEL(level));
 238:C:/GitHub/MobRob_Rover_NEW/Steering_Controller/MobRob_Steering_Controller/Libraries/XMCLib/inc\xmc_gpio.h **** 
 239:C:/GitHub/MobRob_Rover_NEW/Steering_Controller/MobRob_Steering_Controller/Libraries/XMCLib/inc\xmc_gpio.h ****   port->OMR = (uint32_t)level << pin;
 240:C:/GitHub/MobRob_Rover_NEW/Steering_Controller/MobRob_Steering_Controller/Libraries/XMCLib/inc\xmc_gpio.h **** }
 241:C:/GitHub/MobRob_Rover_NEW/Steering_Controller/MobRob_Steering_Controller/Libraries/XMCLib/inc\xmc_gpio.h **** 
 242:C:/GitHub/MobRob_Rover_NEW/Steering_Controller/MobRob_Steering_Controller/Libraries/XMCLib/inc\xmc_gpio.h **** 
 243:C:/GitHub/MobRob_Rover_NEW/Steering_Controller/MobRob_Steering_Controller/Libraries/XMCLib/inc\xmc_gpio.h **** /**
 244:C:/GitHub/MobRob_Rover_NEW/Steering_Controller/MobRob_Steering_Controller/Libraries/XMCLib/inc\xmc_gpio.h ****  * @param  port constant pointer pointing to GPIO port, to access hardware register Pn_OMR.
 245:C:/GitHub/MobRob_Rover_NEW/Steering_Controller/MobRob_Steering_Controller/Libraries/XMCLib/inc\xmc_gpio.h ****  * @param  pin	Port pin number.
 246:C:/GitHub/MobRob_Rover_NEW/Steering_Controller/MobRob_Steering_Controller/Libraries/XMCLib/inc\xmc_gpio.h ****  *
 247:C:/GitHub/MobRob_Rover_NEW/Steering_Controller/MobRob_Steering_Controller/Libraries/XMCLib/inc\xmc_gpio.h ****  * @return None
 248:C:/GitHub/MobRob_Rover_NEW/Steering_Controller/MobRob_Steering_Controller/Libraries/XMCLib/inc\xmc_gpio.h ****  *
 249:C:/GitHub/MobRob_Rover_NEW/Steering_Controller/MobRob_Steering_Controller/Libraries/XMCLib/inc\xmc_gpio.h ****  * \par<b>Description:</b><br>
 250:C:/GitHub/MobRob_Rover_NEW/Steering_Controller/MobRob_Steering_Controller/Libraries/XMCLib/inc\xmc_gpio.h ****  *  Sets port pin output to high. It configures hardware registers Pn_OMR.
 251:C:/GitHub/MobRob_Rover_NEW/Steering_Controller/MobRob_Steering_Controller/Libraries/XMCLib/inc\xmc_gpio.h ****  *
 252:C:/GitHub/MobRob_Rover_NEW/Steering_Controller/MobRob_Steering_Controller/Libraries/XMCLib/inc\xmc_gpio.h ****  *  \par<b>Related APIs:</b><BR>
 253:C:/GitHub/MobRob_Rover_NEW/Steering_Controller/MobRob_Steering_Controller/Libraries/XMCLib/inc\xmc_gpio.h ****  *  XMC_GPIO_SetOutputLow()
 254:C:/GitHub/MobRob_Rover_NEW/Steering_Controller/MobRob_Steering_Controller/Libraries/XMCLib/inc\xmc_gpio.h ****  *
 255:C:/GitHub/MobRob_Rover_NEW/Steering_Controller/MobRob_Steering_Controller/Libraries/XMCLib/inc\xmc_gpio.h ****  * \par<b>Note:</b><br>
 256:C:/GitHub/MobRob_Rover_NEW/Steering_Controller/MobRob_Steering_Controller/Libraries/XMCLib/inc\xmc_gpio.h ****  * Prior to this api, user has to configure port pin to output mode using XMC_GPIO_SetMode().\n
 257:C:/GitHub/MobRob_Rover_NEW/Steering_Controller/MobRob_Steering_Controller/Libraries/XMCLib/inc\xmc_gpio.h ****  * Register Pn_OMR is virtual and does not contain any flip-flop. A read action delivers the value 
 258:C:/GitHub/MobRob_Rover_NEW/Steering_Controller/MobRob_Steering_Controller/Libraries/XMCLib/inc\xmc_gpio.h ****  *
 259:C:/GitHub/MobRob_Rover_NEW/Steering_Controller/MobRob_Steering_Controller/Libraries/XMCLib/inc\xmc_gpio.h ****  */
 260:C:/GitHub/MobRob_Rover_NEW/Steering_Controller/MobRob_Steering_Controller/Libraries/XMCLib/inc\xmc_gpio.h **** 
 261:C:/GitHub/MobRob_Rover_NEW/Steering_Controller/MobRob_Steering_Controller/Libraries/XMCLib/inc\xmc_gpio.h **** __STATIC_INLINE void XMC_GPIO_SetOutputHigh(XMC_GPIO_PORT_t *const port, const uint8_t pin)
 262:C:/GitHub/MobRob_Rover_NEW/Steering_Controller/MobRob_Steering_Controller/Libraries/XMCLib/inc\xmc_gpio.h **** {
  26              	 .loc 1 262 0
  27              	 .cfi_startproc
  28 0000 80B5     	 push {r7,lr}
  29              	.LCFI0:
  30              	 .cfi_def_cfa_offset 8
  31              	 .cfi_offset 7,-8
  32              	 .cfi_offset 14,-4
  33 0002 82B0     	 sub sp,sp,#8
  34              	.LCFI1:
  35              	 .cfi_def_cfa_offset 16
  36 0004 00AF     	 add r7,sp,#0
  37              	.LCFI2:
  38              	 .cfi_def_cfa_register 7
  39 0006 7860     	 str r0,[r7,#4]
  40 0008 0A1C     	 mov r2,r1
  41 000a FB1C     	 add r3,r7,#3
  42 000c 1A70     	 strb r2,[r3]
 263:C:/GitHub/MobRob_Rover_NEW/Steering_Controller/MobRob_Steering_Controller/Libraries/XMCLib/inc\xmc_gpio.h ****   XMC_ASSERT("XMC_GPIO_SetOutputHigh: Invalid port", XMC_GPIO_CHECK_OUTPUT_PORT(port));
 264:C:/GitHub/MobRob_Rover_NEW/Steering_Controller/MobRob_Steering_Controller/Libraries/XMCLib/inc\xmc_gpio.h **** 
 265:C:/GitHub/MobRob_Rover_NEW/Steering_Controller/MobRob_Steering_Controller/Libraries/XMCLib/inc\xmc_gpio.h ****   port->OMR = (uint32_t)0x1U << pin;
  43              	 .loc 1 265 0
  44 000e FB1C     	 add r3,r7,#3
  45 0010 1B78     	 ldrb r3,[r3]
  46 0012 0122     	 mov r2,#1
  47 0014 9A40     	 lsl r2,r2,r3
  48 0016 7B68     	 ldr r3,[r7,#4]
  49 0018 5A60     	 str r2,[r3,#4]
 266:C:/GitHub/MobRob_Rover_NEW/Steering_Controller/MobRob_Steering_Controller/Libraries/XMCLib/inc\xmc_gpio.h **** }
  50              	 .loc 1 266 0
  51 001a BD46     	 mov sp,r7
  52 001c 02B0     	 add sp,sp,#8
  53              	 
  54 001e 80BD     	 pop {r7,pc}
  55              	 .cfi_endproc
  56              	.LFE122:
  58              	 .section .text.XMC_GPIO_SetOutputLow,"ax",%progbits
  59              	 .align 2
  60              	 .code 16
  61              	 .thumb_func
  63              	XMC_GPIO_SetOutputLow:
  64              	.LFB123:
 267:C:/GitHub/MobRob_Rover_NEW/Steering_Controller/MobRob_Steering_Controller/Libraries/XMCLib/inc\xmc_gpio.h **** 
 268:C:/GitHub/MobRob_Rover_NEW/Steering_Controller/MobRob_Steering_Controller/Libraries/XMCLib/inc\xmc_gpio.h **** /**
 269:C:/GitHub/MobRob_Rover_NEW/Steering_Controller/MobRob_Steering_Controller/Libraries/XMCLib/inc\xmc_gpio.h ****  *
 270:C:/GitHub/MobRob_Rover_NEW/Steering_Controller/MobRob_Steering_Controller/Libraries/XMCLib/inc\xmc_gpio.h ****  * @param  port	constant pointer pointing to GPIO port, to access hardware register Pn_OMR.
 271:C:/GitHub/MobRob_Rover_NEW/Steering_Controller/MobRob_Steering_Controller/Libraries/XMCLib/inc\xmc_gpio.h ****  * @param  pin	port pin number.
 272:C:/GitHub/MobRob_Rover_NEW/Steering_Controller/MobRob_Steering_Controller/Libraries/XMCLib/inc\xmc_gpio.h ****  *
 273:C:/GitHub/MobRob_Rover_NEW/Steering_Controller/MobRob_Steering_Controller/Libraries/XMCLib/inc\xmc_gpio.h ****  * @return  None
 274:C:/GitHub/MobRob_Rover_NEW/Steering_Controller/MobRob_Steering_Controller/Libraries/XMCLib/inc\xmc_gpio.h ****  *
 275:C:/GitHub/MobRob_Rover_NEW/Steering_Controller/MobRob_Steering_Controller/Libraries/XMCLib/inc\xmc_gpio.h ****  *\par<b>Description:</b><br>
 276:C:/GitHub/MobRob_Rover_NEW/Steering_Controller/MobRob_Steering_Controller/Libraries/XMCLib/inc\xmc_gpio.h ****  * Sets port pin output to low. It configures hardware registers Pn_OMR.\n
 277:C:/GitHub/MobRob_Rover_NEW/Steering_Controller/MobRob_Steering_Controller/Libraries/XMCLib/inc\xmc_gpio.h ****  *
 278:C:/GitHub/MobRob_Rover_NEW/Steering_Controller/MobRob_Steering_Controller/Libraries/XMCLib/inc\xmc_gpio.h ****  * \par<b>Related APIs:</b><BR>>
 279:C:/GitHub/MobRob_Rover_NEW/Steering_Controller/MobRob_Steering_Controller/Libraries/XMCLib/inc\xmc_gpio.h ****  * XMC_GPIO_SetOutputHigh()
 280:C:/GitHub/MobRob_Rover_NEW/Steering_Controller/MobRob_Steering_Controller/Libraries/XMCLib/inc\xmc_gpio.h ****  *
 281:C:/GitHub/MobRob_Rover_NEW/Steering_Controller/MobRob_Steering_Controller/Libraries/XMCLib/inc\xmc_gpio.h ****  *\par<b>Note:</b><br>
 282:C:/GitHub/MobRob_Rover_NEW/Steering_Controller/MobRob_Steering_Controller/Libraries/XMCLib/inc\xmc_gpio.h ****  * Prior to this api, user has to configure port pin to output mode using XMC_GPIO_SetMode().
 283:C:/GitHub/MobRob_Rover_NEW/Steering_Controller/MobRob_Steering_Controller/Libraries/XMCLib/inc\xmc_gpio.h ****  * Register Pn_OMR is virtual and does not contain any flip-flop. A read action delivers the value 
 284:C:/GitHub/MobRob_Rover_NEW/Steering_Controller/MobRob_Steering_Controller/Libraries/XMCLib/inc\xmc_gpio.h ****  *
 285:C:/GitHub/MobRob_Rover_NEW/Steering_Controller/MobRob_Steering_Controller/Libraries/XMCLib/inc\xmc_gpio.h ****  */
 286:C:/GitHub/MobRob_Rover_NEW/Steering_Controller/MobRob_Steering_Controller/Libraries/XMCLib/inc\xmc_gpio.h **** 
 287:C:/GitHub/MobRob_Rover_NEW/Steering_Controller/MobRob_Steering_Controller/Libraries/XMCLib/inc\xmc_gpio.h **** __STATIC_INLINE void XMC_GPIO_SetOutputLow(XMC_GPIO_PORT_t *const port, const uint8_t pin)
 288:C:/GitHub/MobRob_Rover_NEW/Steering_Controller/MobRob_Steering_Controller/Libraries/XMCLib/inc\xmc_gpio.h **** {
  65              	 .loc 1 288 0
  66              	 .cfi_startproc
  67 0000 80B5     	 push {r7,lr}
  68              	.LCFI3:
  69              	 .cfi_def_cfa_offset 8
  70              	 .cfi_offset 7,-8
  71              	 .cfi_offset 14,-4
  72 0002 82B0     	 sub sp,sp,#8
  73              	.LCFI4:
  74              	 .cfi_def_cfa_offset 16
  75 0004 00AF     	 add r7,sp,#0
  76              	.LCFI5:
  77              	 .cfi_def_cfa_register 7
  78 0006 7860     	 str r0,[r7,#4]
  79 0008 0A1C     	 mov r2,r1
  80 000a FB1C     	 add r3,r7,#3
  81 000c 1A70     	 strb r2,[r3]
 289:C:/GitHub/MobRob_Rover_NEW/Steering_Controller/MobRob_Steering_Controller/Libraries/XMCLib/inc\xmc_gpio.h ****   XMC_ASSERT("XMC_GPIO_SetOutputLow: Invalid port", XMC_GPIO_CHECK_OUTPUT_PORT(port));
 290:C:/GitHub/MobRob_Rover_NEW/Steering_Controller/MobRob_Steering_Controller/Libraries/XMCLib/inc\xmc_gpio.h **** 
 291:C:/GitHub/MobRob_Rover_NEW/Steering_Controller/MobRob_Steering_Controller/Libraries/XMCLib/inc\xmc_gpio.h ****   port->OMR = 0x10000U << pin;
  82              	 .loc 1 291 0
  83 000e FB1C     	 add r3,r7,#3
  84 0010 1B78     	 ldrb r3,[r3]
  85 0012 8022     	 mov r2,#128
  86 0014 5202     	 lsl r2,r2,#9
  87 0016 9A40     	 lsl r2,r2,r3
  88 0018 7B68     	 ldr r3,[r7,#4]
  89 001a 5A60     	 str r2,[r3,#4]
 292:C:/GitHub/MobRob_Rover_NEW/Steering_Controller/MobRob_Steering_Controller/Libraries/XMCLib/inc\xmc_gpio.h **** }
  90              	 .loc 1 292 0
  91 001c BD46     	 mov sp,r7
  92 001e 02B0     	 add sp,sp,#8
  93              	 
  94 0020 80BD     	 pop {r7,pc}
  95              	 .cfi_endproc
  96              	.LFE123:
  98 0022 C046     	 .section .text.XMC_GPIO_GetInput,"ax",%progbits
  99              	 .align 2
 100              	 .code 16
 101              	 .thumb_func
 103              	XMC_GPIO_GetInput:
 104              	.LFB125:
 293:C:/GitHub/MobRob_Rover_NEW/Steering_Controller/MobRob_Steering_Controller/Libraries/XMCLib/inc\xmc_gpio.h **** 
 294:C:/GitHub/MobRob_Rover_NEW/Steering_Controller/MobRob_Steering_Controller/Libraries/XMCLib/inc\xmc_gpio.h **** /**
 295:C:/GitHub/MobRob_Rover_NEW/Steering_Controller/MobRob_Steering_Controller/Libraries/XMCLib/inc\xmc_gpio.h ****  *
 296:C:/GitHub/MobRob_Rover_NEW/Steering_Controller/MobRob_Steering_Controller/Libraries/XMCLib/inc\xmc_gpio.h ****  * @param port constant pointer pointing to GPIO port, to access hardware register Pn_OMR.
 297:C:/GitHub/MobRob_Rover_NEW/Steering_Controller/MobRob_Steering_Controller/Libraries/XMCLib/inc\xmc_gpio.h ****  * @param pin  port pin number.
 298:C:/GitHub/MobRob_Rover_NEW/Steering_Controller/MobRob_Steering_Controller/Libraries/XMCLib/inc\xmc_gpio.h ****  *
 299:C:/GitHub/MobRob_Rover_NEW/Steering_Controller/MobRob_Steering_Controller/Libraries/XMCLib/inc\xmc_gpio.h ****  * @return None
 300:C:/GitHub/MobRob_Rover_NEW/Steering_Controller/MobRob_Steering_Controller/Libraries/XMCLib/inc\xmc_gpio.h ****  *
 301:C:/GitHub/MobRob_Rover_NEW/Steering_Controller/MobRob_Steering_Controller/Libraries/XMCLib/inc\xmc_gpio.h ****  * \par<b>Description:</b><br>
 302:C:/GitHub/MobRob_Rover_NEW/Steering_Controller/MobRob_Steering_Controller/Libraries/XMCLib/inc\xmc_gpio.h ****  * Configures port pin output to Toggle. It configures hardware registers Pn_OMR.
 303:C:/GitHub/MobRob_Rover_NEW/Steering_Controller/MobRob_Steering_Controller/Libraries/XMCLib/inc\xmc_gpio.h ****  *
 304:C:/GitHub/MobRob_Rover_NEW/Steering_Controller/MobRob_Steering_Controller/Libraries/XMCLib/inc\xmc_gpio.h ****  * \par<b>Related APIs:</b><BR>
 305:C:/GitHub/MobRob_Rover_NEW/Steering_Controller/MobRob_Steering_Controller/Libraries/XMCLib/inc\xmc_gpio.h ****  * XMC_GPIO_SetOutputHigh(), XMC_GPIO_SetOutputLow().
 306:C:/GitHub/MobRob_Rover_NEW/Steering_Controller/MobRob_Steering_Controller/Libraries/XMCLib/inc\xmc_gpio.h ****  *
 307:C:/GitHub/MobRob_Rover_NEW/Steering_Controller/MobRob_Steering_Controller/Libraries/XMCLib/inc\xmc_gpio.h ****  * \par<b>Note:</b><br>
 308:C:/GitHub/MobRob_Rover_NEW/Steering_Controller/MobRob_Steering_Controller/Libraries/XMCLib/inc\xmc_gpio.h ****  * Prior to this api, user has to configure port pin to output mode using XMC_GPIO_SetMode(). Regis
 309:C:/GitHub/MobRob_Rover_NEW/Steering_Controller/MobRob_Steering_Controller/Libraries/XMCLib/inc\xmc_gpio.h ****  * and does not contain any flip-flop. A read action delivers the value of 0.
 310:C:/GitHub/MobRob_Rover_NEW/Steering_Controller/MobRob_Steering_Controller/Libraries/XMCLib/inc\xmc_gpio.h ****  *
 311:C:/GitHub/MobRob_Rover_NEW/Steering_Controller/MobRob_Steering_Controller/Libraries/XMCLib/inc\xmc_gpio.h ****  */
 312:C:/GitHub/MobRob_Rover_NEW/Steering_Controller/MobRob_Steering_Controller/Libraries/XMCLib/inc\xmc_gpio.h **** 
 313:C:/GitHub/MobRob_Rover_NEW/Steering_Controller/MobRob_Steering_Controller/Libraries/XMCLib/inc\xmc_gpio.h **** __STATIC_INLINE void XMC_GPIO_ToggleOutput(XMC_GPIO_PORT_t *const port, const uint8_t pin)
 314:C:/GitHub/MobRob_Rover_NEW/Steering_Controller/MobRob_Steering_Controller/Libraries/XMCLib/inc\xmc_gpio.h **** {
 315:C:/GitHub/MobRob_Rover_NEW/Steering_Controller/MobRob_Steering_Controller/Libraries/XMCLib/inc\xmc_gpio.h ****   XMC_ASSERT("XMC_GPIO_ToggleOutput: Invalid port", XMC_GPIO_CHECK_OUTPUT_PORT(port));
 316:C:/GitHub/MobRob_Rover_NEW/Steering_Controller/MobRob_Steering_Controller/Libraries/XMCLib/inc\xmc_gpio.h **** 
 317:C:/GitHub/MobRob_Rover_NEW/Steering_Controller/MobRob_Steering_Controller/Libraries/XMCLib/inc\xmc_gpio.h ****   port->OMR = 0x10001U << pin;
 318:C:/GitHub/MobRob_Rover_NEW/Steering_Controller/MobRob_Steering_Controller/Libraries/XMCLib/inc\xmc_gpio.h **** }
 319:C:/GitHub/MobRob_Rover_NEW/Steering_Controller/MobRob_Steering_Controller/Libraries/XMCLib/inc\xmc_gpio.h **** 
 320:C:/GitHub/MobRob_Rover_NEW/Steering_Controller/MobRob_Steering_Controller/Libraries/XMCLib/inc\xmc_gpio.h **** /**
 321:C:/GitHub/MobRob_Rover_NEW/Steering_Controller/MobRob_Steering_Controller/Libraries/XMCLib/inc\xmc_gpio.h ****  *
 322:C:/GitHub/MobRob_Rover_NEW/Steering_Controller/MobRob_Steering_Controller/Libraries/XMCLib/inc\xmc_gpio.h ****  * @param port constant pointer pointing to GPIO port, to access hardware register Pn_IN.
 323:C:/GitHub/MobRob_Rover_NEW/Steering_Controller/MobRob_Steering_Controller/Libraries/XMCLib/inc\xmc_gpio.h ****  * @param pin  Port pin number.
 324:C:/GitHub/MobRob_Rover_NEW/Steering_Controller/MobRob_Steering_Controller/Libraries/XMCLib/inc\xmc_gpio.h ****  *
 325:C:/GitHub/MobRob_Rover_NEW/Steering_Controller/MobRob_Steering_Controller/Libraries/XMCLib/inc\xmc_gpio.h ****  * @return uint32_t pin logic level status.
 326:C:/GitHub/MobRob_Rover_NEW/Steering_Controller/MobRob_Steering_Controller/Libraries/XMCLib/inc\xmc_gpio.h ****  *
 327:C:/GitHub/MobRob_Rover_NEW/Steering_Controller/MobRob_Steering_Controller/Libraries/XMCLib/inc\xmc_gpio.h ****  *\par<b>Description:</b><br>
 328:C:/GitHub/MobRob_Rover_NEW/Steering_Controller/MobRob_Steering_Controller/Libraries/XMCLib/inc\xmc_gpio.h ****  * Reads the Pn_IN register and returns the current logical value at the GPIO pin.
 329:C:/GitHub/MobRob_Rover_NEW/Steering_Controller/MobRob_Steering_Controller/Libraries/XMCLib/inc\xmc_gpio.h ****  *
 330:C:/GitHub/MobRob_Rover_NEW/Steering_Controller/MobRob_Steering_Controller/Libraries/XMCLib/inc\xmc_gpio.h ****  * \par<b>Related APIs:</b><BR>
 331:C:/GitHub/MobRob_Rover_NEW/Steering_Controller/MobRob_Steering_Controller/Libraries/XMCLib/inc\xmc_gpio.h ****  * None
 332:C:/GitHub/MobRob_Rover_NEW/Steering_Controller/MobRob_Steering_Controller/Libraries/XMCLib/inc\xmc_gpio.h ****  *
 333:C:/GitHub/MobRob_Rover_NEW/Steering_Controller/MobRob_Steering_Controller/Libraries/XMCLib/inc\xmc_gpio.h ****  * \par<b>Note:</b><br>
 334:C:/GitHub/MobRob_Rover_NEW/Steering_Controller/MobRob_Steering_Controller/Libraries/XMCLib/inc\xmc_gpio.h ****  * Prior to this api, user has to configure port pin to input mode using XMC_GPIO_SetMode().
 335:C:/GitHub/MobRob_Rover_NEW/Steering_Controller/MobRob_Steering_Controller/Libraries/XMCLib/inc\xmc_gpio.h ****  *
 336:C:/GitHub/MobRob_Rover_NEW/Steering_Controller/MobRob_Steering_Controller/Libraries/XMCLib/inc\xmc_gpio.h ****  */
 337:C:/GitHub/MobRob_Rover_NEW/Steering_Controller/MobRob_Steering_Controller/Libraries/XMCLib/inc\xmc_gpio.h **** 
 338:C:/GitHub/MobRob_Rover_NEW/Steering_Controller/MobRob_Steering_Controller/Libraries/XMCLib/inc\xmc_gpio.h **** __STATIC_INLINE uint32_t XMC_GPIO_GetInput(XMC_GPIO_PORT_t *const port, const uint8_t pin)
 339:C:/GitHub/MobRob_Rover_NEW/Steering_Controller/MobRob_Steering_Controller/Libraries/XMCLib/inc\xmc_gpio.h **** {
 105              	 .loc 1 339 0
 106              	 .cfi_startproc
 107 0000 80B5     	 push {r7,lr}
 108              	.LCFI6:
 109              	 .cfi_def_cfa_offset 8
 110              	 .cfi_offset 7,-8
 111              	 .cfi_offset 14,-4
 112 0002 82B0     	 sub sp,sp,#8
 113              	.LCFI7:
 114              	 .cfi_def_cfa_offset 16
 115 0004 00AF     	 add r7,sp,#0
 116              	.LCFI8:
 117              	 .cfi_def_cfa_register 7
 118 0006 7860     	 str r0,[r7,#4]
 119 0008 0A1C     	 mov r2,r1
 120 000a FB1C     	 add r3,r7,#3
 121 000c 1A70     	 strb r2,[r3]
 340:C:/GitHub/MobRob_Rover_NEW/Steering_Controller/MobRob_Steering_Controller/Libraries/XMCLib/inc\xmc_gpio.h ****   XMC_ASSERT("XMC_GPIO_GetInput: Invalid port", XMC_GPIO_CHECK_PORT(port));
 341:C:/GitHub/MobRob_Rover_NEW/Steering_Controller/MobRob_Steering_Controller/Libraries/XMCLib/inc\xmc_gpio.h **** 
 342:C:/GitHub/MobRob_Rover_NEW/Steering_Controller/MobRob_Steering_Controller/Libraries/XMCLib/inc\xmc_gpio.h ****   return (((port->IN) >> pin) & 0x1U);
 122              	 .loc 1 342 0
 123 000e 7B68     	 ldr r3,[r7,#4]
 124 0010 5A6A     	 ldr r2,[r3,#36]
 125 0012 FB1C     	 add r3,r7,#3
 126 0014 1B78     	 ldrb r3,[r3]
 127 0016 DA40     	 lsr r2,r2,r3
 128 0018 131C     	 mov r3,r2
 129 001a 0122     	 mov r2,#1
 130 001c 1340     	 and r3,r2
 343:C:/GitHub/MobRob_Rover_NEW/Steering_Controller/MobRob_Steering_Controller/Libraries/XMCLib/inc\xmc_gpio.h **** }
 131              	 .loc 1 343 0
 132 001e 181C     	 mov r0,r3
 133 0020 BD46     	 mov sp,r7
 134 0022 02B0     	 add sp,sp,#8
 135              	 
 136 0024 80BD     	 pop {r7,pc}
 137              	 .cfi_endproc
 138              	.LFE125:
 140 0026 C046     	 .section .text.DIGITAL_IO_SetOutputHigh,"ax",%progbits
 141              	 .align 2
 142              	 .code 16
 143              	 .thumb_func
 145              	DIGITAL_IO_SetOutputHigh:
 146              	.LFB195:
 147              	 .file 2 "C:/GitHub/MobRob_Rover_NEW/Steering_Controller/MobRob_Steering_Controller/Dave/Generated/DIGITAL_IO/digital_io.h"
   1:C:/GitHub/MobRob_Rover_NEW/Steering_Controller/MobRob_Steering_Controller/Dave/Generated/DIGITAL_IO\digital_io.h **** /*
   2:C:/GitHub/MobRob_Rover_NEW/Steering_Controller/MobRob_Steering_Controller/Dave/Generated/DIGITAL_IO\digital_io.h ****  *
   3:C:/GitHub/MobRob_Rover_NEW/Steering_Controller/MobRob_Steering_Controller/Dave/Generated/DIGITAL_IO\digital_io.h ****  * @file digital_io.h
   4:C:/GitHub/MobRob_Rover_NEW/Steering_Controller/MobRob_Steering_Controller/Dave/Generated/DIGITAL_IO\digital_io.h ****  * @date 2021-01-08
   5:C:/GitHub/MobRob_Rover_NEW/Steering_Controller/MobRob_Steering_Controller/Dave/Generated/DIGITAL_IO\digital_io.h ****  *
   6:C:/GitHub/MobRob_Rover_NEW/Steering_Controller/MobRob_Steering_Controller/Dave/Generated/DIGITAL_IO\digital_io.h ****  * NOTE:
   7:C:/GitHub/MobRob_Rover_NEW/Steering_Controller/MobRob_Steering_Controller/Dave/Generated/DIGITAL_IO\digital_io.h ****  * This file is generated by DAVE. Any manual modification done to this file will be lost when the 
   8:C:/GitHub/MobRob_Rover_NEW/Steering_Controller/MobRob_Steering_Controller/Dave/Generated/DIGITAL_IO\digital_io.h ****  *
   9:C:/GitHub/MobRob_Rover_NEW/Steering_Controller/MobRob_Steering_Controller/Dave/Generated/DIGITAL_IO\digital_io.h ****  * @cond
  10:C:/GitHub/MobRob_Rover_NEW/Steering_Controller/MobRob_Steering_Controller/Dave/Generated/DIGITAL_IO\digital_io.h ****  **************************************************************************************************
  11:C:/GitHub/MobRob_Rover_NEW/Steering_Controller/MobRob_Steering_Controller/Dave/Generated/DIGITAL_IO\digital_io.h ****  * DIGITAL_IO v4.0.18 - The DIGITAL_IO APP is used to configure a port pin as digital Input/Output.
  12:C:/GitHub/MobRob_Rover_NEW/Steering_Controller/MobRob_Steering_Controller/Dave/Generated/DIGITAL_IO\digital_io.h ****  *
  13:C:/GitHub/MobRob_Rover_NEW/Steering_Controller/MobRob_Steering_Controller/Dave/Generated/DIGITAL_IO\digital_io.h ****  * Copyright (c) 2015-2020, Infineon Technologies AG
  14:C:/GitHub/MobRob_Rover_NEW/Steering_Controller/MobRob_Steering_Controller/Dave/Generated/DIGITAL_IO\digital_io.h ****  * All rights reserved.
  15:C:/GitHub/MobRob_Rover_NEW/Steering_Controller/MobRob_Steering_Controller/Dave/Generated/DIGITAL_IO\digital_io.h ****  *
  16:C:/GitHub/MobRob_Rover_NEW/Steering_Controller/MobRob_Steering_Controller/Dave/Generated/DIGITAL_IO\digital_io.h ****  * Redistribution and use in source and binary forms, with or without modification,are permitted pr
  17:C:/GitHub/MobRob_Rover_NEW/Steering_Controller/MobRob_Steering_Controller/Dave/Generated/DIGITAL_IO\digital_io.h ****  * following conditions are met:
  18:C:/GitHub/MobRob_Rover_NEW/Steering_Controller/MobRob_Steering_Controller/Dave/Generated/DIGITAL_IO\digital_io.h ****  *
  19:C:/GitHub/MobRob_Rover_NEW/Steering_Controller/MobRob_Steering_Controller/Dave/Generated/DIGITAL_IO\digital_io.h ****  *   Redistributions of source code must retain the above copyright notice, this list of conditions
  20:C:/GitHub/MobRob_Rover_NEW/Steering_Controller/MobRob_Steering_Controller/Dave/Generated/DIGITAL_IO\digital_io.h ****  *   disclaimer.
  21:C:/GitHub/MobRob_Rover_NEW/Steering_Controller/MobRob_Steering_Controller/Dave/Generated/DIGITAL_IO\digital_io.h ****  *
  22:C:/GitHub/MobRob_Rover_NEW/Steering_Controller/MobRob_Steering_Controller/Dave/Generated/DIGITAL_IO\digital_io.h ****  *   Redistributions in binary form must reproduce the above copyright notice, this list of conditi
  23:C:/GitHub/MobRob_Rover_NEW/Steering_Controller/MobRob_Steering_Controller/Dave/Generated/DIGITAL_IO\digital_io.h ****  *   following disclaimer in the documentation and/or other materials provided with the distributio
  24:C:/GitHub/MobRob_Rover_NEW/Steering_Controller/MobRob_Steering_Controller/Dave/Generated/DIGITAL_IO\digital_io.h ****  *
  25:C:/GitHub/MobRob_Rover_NEW/Steering_Controller/MobRob_Steering_Controller/Dave/Generated/DIGITAL_IO\digital_io.h ****  *   Neither the name of the copyright holders nor the names of its contributors may be used to end
  26:C:/GitHub/MobRob_Rover_NEW/Steering_Controller/MobRob_Steering_Controller/Dave/Generated/DIGITAL_IO\digital_io.h ****  *   products derived from this software without specific prior written permission.
  27:C:/GitHub/MobRob_Rover_NEW/Steering_Controller/MobRob_Steering_Controller/Dave/Generated/DIGITAL_IO\digital_io.h ****  *
  28:C:/GitHub/MobRob_Rover_NEW/Steering_Controller/MobRob_Steering_Controller/Dave/Generated/DIGITAL_IO\digital_io.h ****  * THIS SOFTWARE IS PROVIDED BY THE COPYRIGHT HOLDERS AND CONTRIBUTORS "AS IS" AND ANY EXPRESS OR I
  29:C:/GitHub/MobRob_Rover_NEW/Steering_Controller/MobRob_Steering_Controller/Dave/Generated/DIGITAL_IO\digital_io.h ****  * INCLUDING, BUT NOT LIMITED TO, THE IMPLIED WARRANTIES OF MERCHANTABILITY AND FITNESS FOR A PARTI
  30:C:/GitHub/MobRob_Rover_NEW/Steering_Controller/MobRob_Steering_Controller/Dave/Generated/DIGITAL_IO\digital_io.h ****  * DISCLAIMED. IN NO EVENT SHALL THE COPYRIGHT HOLDER OR CONTRIBUTORS BE LIABLE  FOR ANY DIRECT, IN
  31:C:/GitHub/MobRob_Rover_NEW/Steering_Controller/MobRob_Steering_Controller/Dave/Generated/DIGITAL_IO\digital_io.h ****  * SPECIAL, EXEMPLARY, OR CONSEQUENTIAL DAMAGES (INCLUDING, BUT NOT LIMITED TO, PROCUREMENT OF SUBS
  32:C:/GitHub/MobRob_Rover_NEW/Steering_Controller/MobRob_Steering_Controller/Dave/Generated/DIGITAL_IO\digital_io.h ****  * SERVICES; LOSS OF USE, DATA, OR PROFITS; OR BUSINESS INTERRUPTION) HOWEVER CAUSED AND ON ANY THE
  33:C:/GitHub/MobRob_Rover_NEW/Steering_Controller/MobRob_Steering_Controller/Dave/Generated/DIGITAL_IO\digital_io.h ****  * WHETHER IN CONTRACT, STRICT LIABILITY,OR TORT (INCLUDING NEGLIGENCE OR OTHERWISE) ARISING IN ANY
  34:C:/GitHub/MobRob_Rover_NEW/Steering_Controller/MobRob_Steering_Controller/Dave/Generated/DIGITAL_IO\digital_io.h ****  * USE OF THIS SOFTWARE, EVEN IF ADVISED OF THE POSSIBILITY OF SUCH DAMAGE.
  35:C:/GitHub/MobRob_Rover_NEW/Steering_Controller/MobRob_Steering_Controller/Dave/Generated/DIGITAL_IO\digital_io.h ****  *
  36:C:/GitHub/MobRob_Rover_NEW/Steering_Controller/MobRob_Steering_Controller/Dave/Generated/DIGITAL_IO\digital_io.h ****  * To improve the quality of the software, users are encouraged to share modifications, enhancement
  37:C:/GitHub/MobRob_Rover_NEW/Steering_Controller/MobRob_Steering_Controller/Dave/Generated/DIGITAL_IO\digital_io.h ****  * with Infineon Technologies AG (dave@infineon.com).
  38:C:/GitHub/MobRob_Rover_NEW/Steering_Controller/MobRob_Steering_Controller/Dave/Generated/DIGITAL_IO\digital_io.h ****  **************************************************************************************************
  39:C:/GitHub/MobRob_Rover_NEW/Steering_Controller/MobRob_Steering_Controller/Dave/Generated/DIGITAL_IO\digital_io.h ****  *
  40:C:/GitHub/MobRob_Rover_NEW/Steering_Controller/MobRob_Steering_Controller/Dave/Generated/DIGITAL_IO\digital_io.h ****  * Change History
  41:C:/GitHub/MobRob_Rover_NEW/Steering_Controller/MobRob_Steering_Controller/Dave/Generated/DIGITAL_IO\digital_io.h ****  * --------------
  42:C:/GitHub/MobRob_Rover_NEW/Steering_Controller/MobRob_Steering_Controller/Dave/Generated/DIGITAL_IO\digital_io.h ****  *
  43:C:/GitHub/MobRob_Rover_NEW/Steering_Controller/MobRob_Steering_Controller/Dave/Generated/DIGITAL_IO\digital_io.h ****  * 2015-02-16
  44:C:/GitHub/MobRob_Rover_NEW/Steering_Controller/MobRob_Steering_Controller/Dave/Generated/DIGITAL_IO\digital_io.h ****  *     - Initial version
  45:C:/GitHub/MobRob_Rover_NEW/Steering_Controller/MobRob_Steering_Controller/Dave/Generated/DIGITAL_IO\digital_io.h ****  *
  46:C:/GitHub/MobRob_Rover_NEW/Steering_Controller/MobRob_Steering_Controller/Dave/Generated/DIGITAL_IO\digital_io.h ****  * 2015-04-22
  47:C:/GitHub/MobRob_Rover_NEW/Steering_Controller/MobRob_Steering_Controller/Dave/Generated/DIGITAL_IO\digital_io.h ****  *     - XMC_ASSERT is added in static inline functions.<br>
  48:C:/GitHub/MobRob_Rover_NEW/Steering_Controller/MobRob_Steering_Controller/Dave/Generated/DIGITAL_IO\digital_io.h ****  *
  49:C:/GitHub/MobRob_Rover_NEW/Steering_Controller/MobRob_Steering_Controller/Dave/Generated/DIGITAL_IO\digital_io.h ****  * 2015-06-20
  50:C:/GitHub/MobRob_Rover_NEW/Steering_Controller/MobRob_Steering_Controller/Dave/Generated/DIGITAL_IO\digital_io.h ****  *     - Version check added for XMCLib dependency.<br>
  51:C:/GitHub/MobRob_Rover_NEW/Steering_Controller/MobRob_Steering_Controller/Dave/Generated/DIGITAL_IO\digital_io.h ****  *
  52:C:/GitHub/MobRob_Rover_NEW/Steering_Controller/MobRob_Steering_Controller/Dave/Generated/DIGITAL_IO\digital_io.h ****  * 2015-12-22
  53:C:/GitHub/MobRob_Rover_NEW/Steering_Controller/MobRob_Steering_Controller/Dave/Generated/DIGITAL_IO\digital_io.h ****  *     - Added hardware controlled IO feature.
  54:C:/GitHub/MobRob_Rover_NEW/Steering_Controller/MobRob_Steering_Controller/Dave/Generated/DIGITAL_IO\digital_io.h ****  * 2016-07-08:
  55:C:/GitHub/MobRob_Rover_NEW/Steering_Controller/MobRob_Steering_Controller/Dave/Generated/DIGITAL_IO\digital_io.h ****  *     - Fixed incorrect case for an included header.<br>
  56:C:/GitHub/MobRob_Rover_NEW/Steering_Controller/MobRob_Steering_Controller/Dave/Generated/DIGITAL_IO\digital_io.h ****  * 2021-01-08:
  57:C:/GitHub/MobRob_Rover_NEW/Steering_Controller/MobRob_Steering_Controller/Dave/Generated/DIGITAL_IO\digital_io.h ****  *     - Modified check for minimum XMCLib version
  58:C:/GitHub/MobRob_Rover_NEW/Steering_Controller/MobRob_Steering_Controller/Dave/Generated/DIGITAL_IO\digital_io.h ****  *
  59:C:/GitHub/MobRob_Rover_NEW/Steering_Controller/MobRob_Steering_Controller/Dave/Generated/DIGITAL_IO\digital_io.h ****  * @endcond
  60:C:/GitHub/MobRob_Rover_NEW/Steering_Controller/MobRob_Steering_Controller/Dave/Generated/DIGITAL_IO\digital_io.h ****  *
  61:C:/GitHub/MobRob_Rover_NEW/Steering_Controller/MobRob_Steering_Controller/Dave/Generated/DIGITAL_IO\digital_io.h ****  */
  62:C:/GitHub/MobRob_Rover_NEW/Steering_Controller/MobRob_Steering_Controller/Dave/Generated/DIGITAL_IO\digital_io.h **** 
  63:C:/GitHub/MobRob_Rover_NEW/Steering_Controller/MobRob_Steering_Controller/Dave/Generated/DIGITAL_IO\digital_io.h **** /**************************************************************************************************
  64:C:/GitHub/MobRob_Rover_NEW/Steering_Controller/MobRob_Steering_Controller/Dave/Generated/DIGITAL_IO\digital_io.h ****  * HEADER FILES
  65:C:/GitHub/MobRob_Rover_NEW/Steering_Controller/MobRob_Steering_Controller/Dave/Generated/DIGITAL_IO\digital_io.h ****  **************************************************************************************************
  66:C:/GitHub/MobRob_Rover_NEW/Steering_Controller/MobRob_Steering_Controller/Dave/Generated/DIGITAL_IO\digital_io.h **** 
  67:C:/GitHub/MobRob_Rover_NEW/Steering_Controller/MobRob_Steering_Controller/Dave/Generated/DIGITAL_IO\digital_io.h **** #ifndef DIGITAL_IO_H
  68:C:/GitHub/MobRob_Rover_NEW/Steering_Controller/MobRob_Steering_Controller/Dave/Generated/DIGITAL_IO\digital_io.h **** #define DIGITAL_IO_H
  69:C:/GitHub/MobRob_Rover_NEW/Steering_Controller/MobRob_Steering_Controller/Dave/Generated/DIGITAL_IO\digital_io.h **** 
  70:C:/GitHub/MobRob_Rover_NEW/Steering_Controller/MobRob_Steering_Controller/Dave/Generated/DIGITAL_IO\digital_io.h **** #include "xmc_gpio.h"
  71:C:/GitHub/MobRob_Rover_NEW/Steering_Controller/MobRob_Steering_Controller/Dave/Generated/DIGITAL_IO\digital_io.h **** #include "DAVE_Common.h"
  72:C:/GitHub/MobRob_Rover_NEW/Steering_Controller/MobRob_Steering_Controller/Dave/Generated/DIGITAL_IO\digital_io.h **** #include "digital_io_conf.h"
  73:C:/GitHub/MobRob_Rover_NEW/Steering_Controller/MobRob_Steering_Controller/Dave/Generated/DIGITAL_IO\digital_io.h **** 
  74:C:/GitHub/MobRob_Rover_NEW/Steering_Controller/MobRob_Steering_Controller/Dave/Generated/DIGITAL_IO\digital_io.h **** /**************************************************************************************************
  75:C:/GitHub/MobRob_Rover_NEW/Steering_Controller/MobRob_Steering_Controller/Dave/Generated/DIGITAL_IO\digital_io.h ****  * MACROS
  76:C:/GitHub/MobRob_Rover_NEW/Steering_Controller/MobRob_Steering_Controller/Dave/Generated/DIGITAL_IO\digital_io.h ****  **************************************************************************************************
  77:C:/GitHub/MobRob_Rover_NEW/Steering_Controller/MobRob_Steering_Controller/Dave/Generated/DIGITAL_IO\digital_io.h **** #define DIGITAL_IO_XMC_LIB_MAJOR_VERSION 2
  78:C:/GitHub/MobRob_Rover_NEW/Steering_Controller/MobRob_Steering_Controller/Dave/Generated/DIGITAL_IO\digital_io.h **** #define DIGITAL_IO_XMC_LIB_MINOR_VERSION 0
  79:C:/GitHub/MobRob_Rover_NEW/Steering_Controller/MobRob_Steering_Controller/Dave/Generated/DIGITAL_IO\digital_io.h **** #define DIGITAL_IO_XMC_LIB_PATCH_VERSION 0
  80:C:/GitHub/MobRob_Rover_NEW/Steering_Controller/MobRob_Steering_Controller/Dave/Generated/DIGITAL_IO\digital_io.h **** 
  81:C:/GitHub/MobRob_Rover_NEW/Steering_Controller/MobRob_Steering_Controller/Dave/Generated/DIGITAL_IO\digital_io.h **** #if !((XMC_LIB_MAJOR_VERSION > DIGITAL_IO_XMC_LIB_MAJOR_VERSION) ||\
  82:C:/GitHub/MobRob_Rover_NEW/Steering_Controller/MobRob_Steering_Controller/Dave/Generated/DIGITAL_IO\digital_io.h ****       ((XMC_LIB_MAJOR_VERSION == DIGITAL_IO_XMC_LIB_MAJOR_VERSION) && (XMC_LIB_MINOR_VERSION > DIGI
  83:C:/GitHub/MobRob_Rover_NEW/Steering_Controller/MobRob_Steering_Controller/Dave/Generated/DIGITAL_IO\digital_io.h ****       ((XMC_LIB_MAJOR_VERSION == DIGITAL_IO_XMC_LIB_MAJOR_VERSION) && (XMC_LIB_MINOR_VERSION == DIG
  84:C:/GitHub/MobRob_Rover_NEW/Steering_Controller/MobRob_Steering_Controller/Dave/Generated/DIGITAL_IO\digital_io.h **** #error "DIGITAL_IO requires XMC Peripheral Library v2.0.0 or higher"
  85:C:/GitHub/MobRob_Rover_NEW/Steering_Controller/MobRob_Steering_Controller/Dave/Generated/DIGITAL_IO\digital_io.h **** #endif
  86:C:/GitHub/MobRob_Rover_NEW/Steering_Controller/MobRob_Steering_Controller/Dave/Generated/DIGITAL_IO\digital_io.h **** 
  87:C:/GitHub/MobRob_Rover_NEW/Steering_Controller/MobRob_Steering_Controller/Dave/Generated/DIGITAL_IO\digital_io.h ****  /*************************************************************************************************
  88:C:/GitHub/MobRob_Rover_NEW/Steering_Controller/MobRob_Steering_Controller/Dave/Generated/DIGITAL_IO\digital_io.h ****  * ENUMS
  89:C:/GitHub/MobRob_Rover_NEW/Steering_Controller/MobRob_Steering_Controller/Dave/Generated/DIGITAL_IO\digital_io.h ****  **************************************************************************************************
  90:C:/GitHub/MobRob_Rover_NEW/Steering_Controller/MobRob_Steering_Controller/Dave/Generated/DIGITAL_IO\digital_io.h **** 
  91:C:/GitHub/MobRob_Rover_NEW/Steering_Controller/MobRob_Steering_Controller/Dave/Generated/DIGITAL_IO\digital_io.h **** /**
  92:C:/GitHub/MobRob_Rover_NEW/Steering_Controller/MobRob_Steering_Controller/Dave/Generated/DIGITAL_IO\digital_io.h **** * @ingroup DIGITAL_IO_enumerations
  93:C:/GitHub/MobRob_Rover_NEW/Steering_Controller/MobRob_Steering_Controller/Dave/Generated/DIGITAL_IO\digital_io.h **** * @{
  94:C:/GitHub/MobRob_Rover_NEW/Steering_Controller/MobRob_Steering_Controller/Dave/Generated/DIGITAL_IO\digital_io.h **** */
  95:C:/GitHub/MobRob_Rover_NEW/Steering_Controller/MobRob_Steering_Controller/Dave/Generated/DIGITAL_IO\digital_io.h **** 
  96:C:/GitHub/MobRob_Rover_NEW/Steering_Controller/MobRob_Steering_Controller/Dave/Generated/DIGITAL_IO\digital_io.h **** /**
  97:C:/GitHub/MobRob_Rover_NEW/Steering_Controller/MobRob_Steering_Controller/Dave/Generated/DIGITAL_IO\digital_io.h **** * @brief Initialization status of DIGITAL_IO APP.
  98:C:/GitHub/MobRob_Rover_NEW/Steering_Controller/MobRob_Steering_Controller/Dave/Generated/DIGITAL_IO\digital_io.h **** */
  99:C:/GitHub/MobRob_Rover_NEW/Steering_Controller/MobRob_Steering_Controller/Dave/Generated/DIGITAL_IO\digital_io.h **** typedef enum DIGITAL_IO_STATUS
 100:C:/GitHub/MobRob_Rover_NEW/Steering_Controller/MobRob_Steering_Controller/Dave/Generated/DIGITAL_IO\digital_io.h **** {
 101:C:/GitHub/MobRob_Rover_NEW/Steering_Controller/MobRob_Steering_Controller/Dave/Generated/DIGITAL_IO\digital_io.h ****   DIGITAL_IO_STATUS_OK = 0U,/**< 0=Status OK */
 102:C:/GitHub/MobRob_Rover_NEW/Steering_Controller/MobRob_Steering_Controller/Dave/Generated/DIGITAL_IO\digital_io.h ****   DIGITAL_IO_STATUS_FAILURE = 1U/**< 1=Status Failed */
 103:C:/GitHub/MobRob_Rover_NEW/Steering_Controller/MobRob_Steering_Controller/Dave/Generated/DIGITAL_IO\digital_io.h **** } DIGITAL_IO_STATUS_t;
 104:C:/GitHub/MobRob_Rover_NEW/Steering_Controller/MobRob_Steering_Controller/Dave/Generated/DIGITAL_IO\digital_io.h **** 
 105:C:/GitHub/MobRob_Rover_NEW/Steering_Controller/MobRob_Steering_Controller/Dave/Generated/DIGITAL_IO\digital_io.h **** /**
 106:C:/GitHub/MobRob_Rover_NEW/Steering_Controller/MobRob_Steering_Controller/Dave/Generated/DIGITAL_IO\digital_io.h **** * @}
 107:C:/GitHub/MobRob_Rover_NEW/Steering_Controller/MobRob_Steering_Controller/Dave/Generated/DIGITAL_IO\digital_io.h **** */
 108:C:/GitHub/MobRob_Rover_NEW/Steering_Controller/MobRob_Steering_Controller/Dave/Generated/DIGITAL_IO\digital_io.h **** 
 109:C:/GitHub/MobRob_Rover_NEW/Steering_Controller/MobRob_Steering_Controller/Dave/Generated/DIGITAL_IO\digital_io.h **** /**************************************************************************************************
 110:C:/GitHub/MobRob_Rover_NEW/Steering_Controller/MobRob_Steering_Controller/Dave/Generated/DIGITAL_IO\digital_io.h ****  * DATA STRUCTURES
 111:C:/GitHub/MobRob_Rover_NEW/Steering_Controller/MobRob_Steering_Controller/Dave/Generated/DIGITAL_IO\digital_io.h ****  **************************************************************************************************
 112:C:/GitHub/MobRob_Rover_NEW/Steering_Controller/MobRob_Steering_Controller/Dave/Generated/DIGITAL_IO\digital_io.h **** /**
 113:C:/GitHub/MobRob_Rover_NEW/Steering_Controller/MobRob_Steering_Controller/Dave/Generated/DIGITAL_IO\digital_io.h **** * @ingroup DIGITAL_IO_datastructures
 114:C:/GitHub/MobRob_Rover_NEW/Steering_Controller/MobRob_Steering_Controller/Dave/Generated/DIGITAL_IO\digital_io.h **** * @{
 115:C:/GitHub/MobRob_Rover_NEW/Steering_Controller/MobRob_Steering_Controller/Dave/Generated/DIGITAL_IO\digital_io.h **** */
 116:C:/GitHub/MobRob_Rover_NEW/Steering_Controller/MobRob_Steering_Controller/Dave/Generated/DIGITAL_IO\digital_io.h **** 
 117:C:/GitHub/MobRob_Rover_NEW/Steering_Controller/MobRob_Steering_Controller/Dave/Generated/DIGITAL_IO\digital_io.h **** /**
 118:C:/GitHub/MobRob_Rover_NEW/Steering_Controller/MobRob_Steering_Controller/Dave/Generated/DIGITAL_IO\digital_io.h **** * @brief Initialization data structure of DIGITAL_IO APP
 119:C:/GitHub/MobRob_Rover_NEW/Steering_Controller/MobRob_Steering_Controller/Dave/Generated/DIGITAL_IO\digital_io.h **** */
 120:C:/GitHub/MobRob_Rover_NEW/Steering_Controller/MobRob_Steering_Controller/Dave/Generated/DIGITAL_IO\digital_io.h **** typedef struct DIGITAL_IO
 121:C:/GitHub/MobRob_Rover_NEW/Steering_Controller/MobRob_Steering_Controller/Dave/Generated/DIGITAL_IO\digital_io.h **** {
 122:C:/GitHub/MobRob_Rover_NEW/Steering_Controller/MobRob_Steering_Controller/Dave/Generated/DIGITAL_IO\digital_io.h ****   XMC_GPIO_PORT_t *const gpio_port;             /**< port number */
 123:C:/GitHub/MobRob_Rover_NEW/Steering_Controller/MobRob_Steering_Controller/Dave/Generated/DIGITAL_IO\digital_io.h ****   const XMC_GPIO_CONFIG_t gpio_config;          /**< mode, initial output level and pad driver stre
 124:C:/GitHub/MobRob_Rover_NEW/Steering_Controller/MobRob_Steering_Controller/Dave/Generated/DIGITAL_IO\digital_io.h ****   const uint8_t gpio_pin;                       /**< pin number */
 125:C:/GitHub/MobRob_Rover_NEW/Steering_Controller/MobRob_Steering_Controller/Dave/Generated/DIGITAL_IO\digital_io.h ****   const XMC_GPIO_HWCTRL_t hwctrl;               /**< Hardware port control */
 126:C:/GitHub/MobRob_Rover_NEW/Steering_Controller/MobRob_Steering_Controller/Dave/Generated/DIGITAL_IO\digital_io.h **** } DIGITAL_IO_t;
 127:C:/GitHub/MobRob_Rover_NEW/Steering_Controller/MobRob_Steering_Controller/Dave/Generated/DIGITAL_IO\digital_io.h **** 
 128:C:/GitHub/MobRob_Rover_NEW/Steering_Controller/MobRob_Steering_Controller/Dave/Generated/DIGITAL_IO\digital_io.h **** 
 129:C:/GitHub/MobRob_Rover_NEW/Steering_Controller/MobRob_Steering_Controller/Dave/Generated/DIGITAL_IO\digital_io.h **** /**
 130:C:/GitHub/MobRob_Rover_NEW/Steering_Controller/MobRob_Steering_Controller/Dave/Generated/DIGITAL_IO\digital_io.h **** * @}
 131:C:/GitHub/MobRob_Rover_NEW/Steering_Controller/MobRob_Steering_Controller/Dave/Generated/DIGITAL_IO\digital_io.h **** */
 132:C:/GitHub/MobRob_Rover_NEW/Steering_Controller/MobRob_Steering_Controller/Dave/Generated/DIGITAL_IO\digital_io.h **** 
 133:C:/GitHub/MobRob_Rover_NEW/Steering_Controller/MobRob_Steering_Controller/Dave/Generated/DIGITAL_IO\digital_io.h **** 
 134:C:/GitHub/MobRob_Rover_NEW/Steering_Controller/MobRob_Steering_Controller/Dave/Generated/DIGITAL_IO\digital_io.h **** /**************************************************************************************************
 135:C:/GitHub/MobRob_Rover_NEW/Steering_Controller/MobRob_Steering_Controller/Dave/Generated/DIGITAL_IO\digital_io.h ****  * API Prototypes
 136:C:/GitHub/MobRob_Rover_NEW/Steering_Controller/MobRob_Steering_Controller/Dave/Generated/DIGITAL_IO\digital_io.h ****  **************************************************************************************************
 137:C:/GitHub/MobRob_Rover_NEW/Steering_Controller/MobRob_Steering_Controller/Dave/Generated/DIGITAL_IO\digital_io.h **** 
 138:C:/GitHub/MobRob_Rover_NEW/Steering_Controller/MobRob_Steering_Controller/Dave/Generated/DIGITAL_IO\digital_io.h **** 
 139:C:/GitHub/MobRob_Rover_NEW/Steering_Controller/MobRob_Steering_Controller/Dave/Generated/DIGITAL_IO\digital_io.h **** #ifdef __cplusplus
 140:C:/GitHub/MobRob_Rover_NEW/Steering_Controller/MobRob_Steering_Controller/Dave/Generated/DIGITAL_IO\digital_io.h **** extern "C" {
 141:C:/GitHub/MobRob_Rover_NEW/Steering_Controller/MobRob_Steering_Controller/Dave/Generated/DIGITAL_IO\digital_io.h **** #endif
 142:C:/GitHub/MobRob_Rover_NEW/Steering_Controller/MobRob_Steering_Controller/Dave/Generated/DIGITAL_IO\digital_io.h **** 
 143:C:/GitHub/MobRob_Rover_NEW/Steering_Controller/MobRob_Steering_Controller/Dave/Generated/DIGITAL_IO\digital_io.h **** /**
 144:C:/GitHub/MobRob_Rover_NEW/Steering_Controller/MobRob_Steering_Controller/Dave/Generated/DIGITAL_IO\digital_io.h **** * @ingroup DIGITAL_IO_apidoc
 145:C:/GitHub/MobRob_Rover_NEW/Steering_Controller/MobRob_Steering_Controller/Dave/Generated/DIGITAL_IO\digital_io.h **** * @{
 146:C:/GitHub/MobRob_Rover_NEW/Steering_Controller/MobRob_Steering_Controller/Dave/Generated/DIGITAL_IO\digital_io.h **** */
 147:C:/GitHub/MobRob_Rover_NEW/Steering_Controller/MobRob_Steering_Controller/Dave/Generated/DIGITAL_IO\digital_io.h **** 
 148:C:/GitHub/MobRob_Rover_NEW/Steering_Controller/MobRob_Steering_Controller/Dave/Generated/DIGITAL_IO\digital_io.h **** 
 149:C:/GitHub/MobRob_Rover_NEW/Steering_Controller/MobRob_Steering_Controller/Dave/Generated/DIGITAL_IO\digital_io.h **** 
 150:C:/GitHub/MobRob_Rover_NEW/Steering_Controller/MobRob_Steering_Controller/Dave/Generated/DIGITAL_IO\digital_io.h **** /**
 151:C:/GitHub/MobRob_Rover_NEW/Steering_Controller/MobRob_Steering_Controller/Dave/Generated/DIGITAL_IO\digital_io.h **** * @brief Get DIGITAL_IO APP version
 152:C:/GitHub/MobRob_Rover_NEW/Steering_Controller/MobRob_Steering_Controller/Dave/Generated/DIGITAL_IO\digital_io.h **** * @return DAVE_APP_VERSION_t APP version information (major, minor and patch number)
 153:C:/GitHub/MobRob_Rover_NEW/Steering_Controller/MobRob_Steering_Controller/Dave/Generated/DIGITAL_IO\digital_io.h **** *
 154:C:/GitHub/MobRob_Rover_NEW/Steering_Controller/MobRob_Steering_Controller/Dave/Generated/DIGITAL_IO\digital_io.h **** * \par<b>Description: </b><br>
 155:C:/GitHub/MobRob_Rover_NEW/Steering_Controller/MobRob_Steering_Controller/Dave/Generated/DIGITAL_IO\digital_io.h **** * The function can be used to check application software compatibility with a
 156:C:/GitHub/MobRob_Rover_NEW/Steering_Controller/MobRob_Steering_Controller/Dave/Generated/DIGITAL_IO\digital_io.h **** * specific version of the APP.
 157:C:/GitHub/MobRob_Rover_NEW/Steering_Controller/MobRob_Steering_Controller/Dave/Generated/DIGITAL_IO\digital_io.h **** *
 158:C:/GitHub/MobRob_Rover_NEW/Steering_Controller/MobRob_Steering_Controller/Dave/Generated/DIGITAL_IO\digital_io.h **** * Example Usage:
 159:C:/GitHub/MobRob_Rover_NEW/Steering_Controller/MobRob_Steering_Controller/Dave/Generated/DIGITAL_IO\digital_io.h **** *
 160:C:/GitHub/MobRob_Rover_NEW/Steering_Controller/MobRob_Steering_Controller/Dave/Generated/DIGITAL_IO\digital_io.h **** * @code
 161:C:/GitHub/MobRob_Rover_NEW/Steering_Controller/MobRob_Steering_Controller/Dave/Generated/DIGITAL_IO\digital_io.h **** * #include "DAVE.h"
 162:C:/GitHub/MobRob_Rover_NEW/Steering_Controller/MobRob_Steering_Controller/Dave/Generated/DIGITAL_IO\digital_io.h **** *
 163:C:/GitHub/MobRob_Rover_NEW/Steering_Controller/MobRob_Steering_Controller/Dave/Generated/DIGITAL_IO\digital_io.h **** * int main(void)
 164:C:/GitHub/MobRob_Rover_NEW/Steering_Controller/MobRob_Steering_Controller/Dave/Generated/DIGITAL_IO\digital_io.h **** * {
 165:C:/GitHub/MobRob_Rover_NEW/Steering_Controller/MobRob_Steering_Controller/Dave/Generated/DIGITAL_IO\digital_io.h **** *   DAVE_STATUS_t init_status;
 166:C:/GitHub/MobRob_Rover_NEW/Steering_Controller/MobRob_Steering_Controller/Dave/Generated/DIGITAL_IO\digital_io.h **** *   DAVE_APP_VERSION_t version;
 167:C:/GitHub/MobRob_Rover_NEW/Steering_Controller/MobRob_Steering_Controller/Dave/Generated/DIGITAL_IO\digital_io.h **** *
 168:C:/GitHub/MobRob_Rover_NEW/Steering_Controller/MobRob_Steering_Controller/Dave/Generated/DIGITAL_IO\digital_io.h **** *   // Initialize DIGITAL_IO APP:
 169:C:/GitHub/MobRob_Rover_NEW/Steering_Controller/MobRob_Steering_Controller/Dave/Generated/DIGITAL_IO\digital_io.h **** *   // DIGITAL_IO_Init() is called from within DAVE_Init().
 170:C:/GitHub/MobRob_Rover_NEW/Steering_Controller/MobRob_Steering_Controller/Dave/Generated/DIGITAL_IO\digital_io.h **** *   init_status = DAVE_Init();
 171:C:/GitHub/MobRob_Rover_NEW/Steering_Controller/MobRob_Steering_Controller/Dave/Generated/DIGITAL_IO\digital_io.h **** *   if(init_status == DAVE_STATUS_SUCCESS)
 172:C:/GitHub/MobRob_Rover_NEW/Steering_Controller/MobRob_Steering_Controller/Dave/Generated/DIGITAL_IO\digital_io.h **** *   {
 173:C:/GitHub/MobRob_Rover_NEW/Steering_Controller/MobRob_Steering_Controller/Dave/Generated/DIGITAL_IO\digital_io.h **** *     version = DIGITAL_IO_GetAppVersion();
 174:C:/GitHub/MobRob_Rover_NEW/Steering_Controller/MobRob_Steering_Controller/Dave/Generated/DIGITAL_IO\digital_io.h **** *     if (version.major != 4U) {
 175:C:/GitHub/MobRob_Rover_NEW/Steering_Controller/MobRob_Steering_Controller/Dave/Generated/DIGITAL_IO\digital_io.h **** *     // Probably, not the right version.
 176:C:/GitHub/MobRob_Rover_NEW/Steering_Controller/MobRob_Steering_Controller/Dave/Generated/DIGITAL_IO\digital_io.h **** *     }
 177:C:/GitHub/MobRob_Rover_NEW/Steering_Controller/MobRob_Steering_Controller/Dave/Generated/DIGITAL_IO\digital_io.h **** *   }
 178:C:/GitHub/MobRob_Rover_NEW/Steering_Controller/MobRob_Steering_Controller/Dave/Generated/DIGITAL_IO\digital_io.h **** *
 179:C:/GitHub/MobRob_Rover_NEW/Steering_Controller/MobRob_Steering_Controller/Dave/Generated/DIGITAL_IO\digital_io.h **** *     // More code here
 180:C:/GitHub/MobRob_Rover_NEW/Steering_Controller/MobRob_Steering_Controller/Dave/Generated/DIGITAL_IO\digital_io.h **** *     while(1) {
 181:C:/GitHub/MobRob_Rover_NEW/Steering_Controller/MobRob_Steering_Controller/Dave/Generated/DIGITAL_IO\digital_io.h **** *
 182:C:/GitHub/MobRob_Rover_NEW/Steering_Controller/MobRob_Steering_Controller/Dave/Generated/DIGITAL_IO\digital_io.h **** *     }
 183:C:/GitHub/MobRob_Rover_NEW/Steering_Controller/MobRob_Steering_Controller/Dave/Generated/DIGITAL_IO\digital_io.h **** *     return (1);
 184:C:/GitHub/MobRob_Rover_NEW/Steering_Controller/MobRob_Steering_Controller/Dave/Generated/DIGITAL_IO\digital_io.h **** *  }
 185:C:/GitHub/MobRob_Rover_NEW/Steering_Controller/MobRob_Steering_Controller/Dave/Generated/DIGITAL_IO\digital_io.h **** * @endcode<BR>
 186:C:/GitHub/MobRob_Rover_NEW/Steering_Controller/MobRob_Steering_Controller/Dave/Generated/DIGITAL_IO\digital_io.h **** */
 187:C:/GitHub/MobRob_Rover_NEW/Steering_Controller/MobRob_Steering_Controller/Dave/Generated/DIGITAL_IO\digital_io.h **** 
 188:C:/GitHub/MobRob_Rover_NEW/Steering_Controller/MobRob_Steering_Controller/Dave/Generated/DIGITAL_IO\digital_io.h **** DAVE_APP_VERSION_t DIGITAL_IO_GetAppVersion(void);
 189:C:/GitHub/MobRob_Rover_NEW/Steering_Controller/MobRob_Steering_Controller/Dave/Generated/DIGITAL_IO\digital_io.h **** 
 190:C:/GitHub/MobRob_Rover_NEW/Steering_Controller/MobRob_Steering_Controller/Dave/Generated/DIGITAL_IO\digital_io.h **** /**
 191:C:/GitHub/MobRob_Rover_NEW/Steering_Controller/MobRob_Steering_Controller/Dave/Generated/DIGITAL_IO\digital_io.h **** *
 192:C:/GitHub/MobRob_Rover_NEW/Steering_Controller/MobRob_Steering_Controller/Dave/Generated/DIGITAL_IO\digital_io.h **** * @brief Function to initialize the port pin as per UI settings.
 193:C:/GitHub/MobRob_Rover_NEW/Steering_Controller/MobRob_Steering_Controller/Dave/Generated/DIGITAL_IO\digital_io.h **** * @param handler Pointer pointing to APP data structure. Refer @ref DIGITAL_IO_t for details.
 194:C:/GitHub/MobRob_Rover_NEW/Steering_Controller/MobRob_Steering_Controller/Dave/Generated/DIGITAL_IO\digital_io.h **** * @return DIGITAL_IO_STATUS_t DIGITAL_IO APP status. Refer @ref DIGITAL_IO_STATUS_t structure for d
 195:C:/GitHub/MobRob_Rover_NEW/Steering_Controller/MobRob_Steering_Controller/Dave/Generated/DIGITAL_IO\digital_io.h **** *
 196:C:/GitHub/MobRob_Rover_NEW/Steering_Controller/MobRob_Steering_Controller/Dave/Generated/DIGITAL_IO\digital_io.h **** * \par<b>Description:</b><br>
 197:C:/GitHub/MobRob_Rover_NEW/Steering_Controller/MobRob_Steering_Controller/Dave/Generated/DIGITAL_IO\digital_io.h **** * This function initializes GPIO port registers IOCR,PDISC,OMR,PDR/PHCR to configure pin direction,
 198:C:/GitHub/MobRob_Rover_NEW/Steering_Controller/MobRob_Steering_Controller/Dave/Generated/DIGITAL_IO\digital_io.h **** * and pad driver strength/hysteresis.
 199:C:/GitHub/MobRob_Rover_NEW/Steering_Controller/MobRob_Steering_Controller/Dave/Generated/DIGITAL_IO\digital_io.h **** *
 200:C:/GitHub/MobRob_Rover_NEW/Steering_Controller/MobRob_Steering_Controller/Dave/Generated/DIGITAL_IO\digital_io.h **** * \par<b>Related APIs:</b><BR>
 201:C:/GitHub/MobRob_Rover_NEW/Steering_Controller/MobRob_Steering_Controller/Dave/Generated/DIGITAL_IO\digital_io.h **** * None
 202:C:/GitHub/MobRob_Rover_NEW/Steering_Controller/MobRob_Steering_Controller/Dave/Generated/DIGITAL_IO\digital_io.h **** *
 203:C:/GitHub/MobRob_Rover_NEW/Steering_Controller/MobRob_Steering_Controller/Dave/Generated/DIGITAL_IO\digital_io.h **** * Example Usage:
 204:C:/GitHub/MobRob_Rover_NEW/Steering_Controller/MobRob_Steering_Controller/Dave/Generated/DIGITAL_IO\digital_io.h **** * @code
 205:C:/GitHub/MobRob_Rover_NEW/Steering_Controller/MobRob_Steering_Controller/Dave/Generated/DIGITAL_IO\digital_io.h **** * #include "DAVE.h" //Declarations from DAVE Code Generation (includes SFR declaration)
 206:C:/GitHub/MobRob_Rover_NEW/Steering_Controller/MobRob_Steering_Controller/Dave/Generated/DIGITAL_IO\digital_io.h **** *
 207:C:/GitHub/MobRob_Rover_NEW/Steering_Controller/MobRob_Steering_Controller/Dave/Generated/DIGITAL_IO\digital_io.h **** * int main(void)
 208:C:/GitHub/MobRob_Rover_NEW/Steering_Controller/MobRob_Steering_Controller/Dave/Generated/DIGITAL_IO\digital_io.h **** * {
 209:C:/GitHub/MobRob_Rover_NEW/Steering_Controller/MobRob_Steering_Controller/Dave/Generated/DIGITAL_IO\digital_io.h **** *   DAVE_STATUS_t status;
 210:C:/GitHub/MobRob_Rover_NEW/Steering_Controller/MobRob_Steering_Controller/Dave/Generated/DIGITAL_IO\digital_io.h **** *   status = DAVE_Init();  //(DAVE_STATUS_t)DIGITAL_IO_Init(&DIGITAL_IO_0) is called within DAVE_In
 211:C:/GitHub/MobRob_Rover_NEW/Steering_Controller/MobRob_Steering_Controller/Dave/Generated/DIGITAL_IO\digital_io.h **** *   if(status == DAVE_STATUS_SUCCESS)
 212:C:/GitHub/MobRob_Rover_NEW/Steering_Controller/MobRob_Steering_Controller/Dave/Generated/DIGITAL_IO\digital_io.h **** *   {
 213:C:/GitHub/MobRob_Rover_NEW/Steering_Controller/MobRob_Steering_Controller/Dave/Generated/DIGITAL_IO\digital_io.h **** *     XMC_DEBUG("DAVE Apps initialization success\n");
 214:C:/GitHub/MobRob_Rover_NEW/Steering_Controller/MobRob_Steering_Controller/Dave/Generated/DIGITAL_IO\digital_io.h **** *   }
 215:C:/GitHub/MobRob_Rover_NEW/Steering_Controller/MobRob_Steering_Controller/Dave/Generated/DIGITAL_IO\digital_io.h **** *   else
 216:C:/GitHub/MobRob_Rover_NEW/Steering_Controller/MobRob_Steering_Controller/Dave/Generated/DIGITAL_IO\digital_io.h **** *   {
 217:C:/GitHub/MobRob_Rover_NEW/Steering_Controller/MobRob_Steering_Controller/Dave/Generated/DIGITAL_IO\digital_io.h **** *     XMC_DEBUG(("DAVE Apps initialization failed with status %d\n", status));
 218:C:/GitHub/MobRob_Rover_NEW/Steering_Controller/MobRob_Steering_Controller/Dave/Generated/DIGITAL_IO\digital_io.h **** *     while(1U)
 219:C:/GitHub/MobRob_Rover_NEW/Steering_Controller/MobRob_Steering_Controller/Dave/Generated/DIGITAL_IO\digital_io.h **** *     {
 220:C:/GitHub/MobRob_Rover_NEW/Steering_Controller/MobRob_Steering_Controller/Dave/Generated/DIGITAL_IO\digital_io.h **** *     }
 221:C:/GitHub/MobRob_Rover_NEW/Steering_Controller/MobRob_Steering_Controller/Dave/Generated/DIGITAL_IO\digital_io.h **** *   }
 222:C:/GitHub/MobRob_Rover_NEW/Steering_Controller/MobRob_Steering_Controller/Dave/Generated/DIGITAL_IO\digital_io.h **** *   //Placeholder for user application code. The while loop below can be replaced with user applica
 223:C:/GitHub/MobRob_Rover_NEW/Steering_Controller/MobRob_Steering_Controller/Dave/Generated/DIGITAL_IO\digital_io.h **** *   while(1U)
 224:C:/GitHub/MobRob_Rover_NEW/Steering_Controller/MobRob_Steering_Controller/Dave/Generated/DIGITAL_IO\digital_io.h **** *   {
 225:C:/GitHub/MobRob_Rover_NEW/Steering_Controller/MobRob_Steering_Controller/Dave/Generated/DIGITAL_IO\digital_io.h **** *   }
 226:C:/GitHub/MobRob_Rover_NEW/Steering_Controller/MobRob_Steering_Controller/Dave/Generated/DIGITAL_IO\digital_io.h **** *   return 1U;
 227:C:/GitHub/MobRob_Rover_NEW/Steering_Controller/MobRob_Steering_Controller/Dave/Generated/DIGITAL_IO\digital_io.h **** *  }
 228:C:/GitHub/MobRob_Rover_NEW/Steering_Controller/MobRob_Steering_Controller/Dave/Generated/DIGITAL_IO\digital_io.h **** *  @endcode
 229:C:/GitHub/MobRob_Rover_NEW/Steering_Controller/MobRob_Steering_Controller/Dave/Generated/DIGITAL_IO\digital_io.h **** */
 230:C:/GitHub/MobRob_Rover_NEW/Steering_Controller/MobRob_Steering_Controller/Dave/Generated/DIGITAL_IO\digital_io.h **** 
 231:C:/GitHub/MobRob_Rover_NEW/Steering_Controller/MobRob_Steering_Controller/Dave/Generated/DIGITAL_IO\digital_io.h **** DIGITAL_IO_STATUS_t DIGITAL_IO_Init(const DIGITAL_IO_t *const handler);
 232:C:/GitHub/MobRob_Rover_NEW/Steering_Controller/MobRob_Steering_Controller/Dave/Generated/DIGITAL_IO\digital_io.h **** 
 233:C:/GitHub/MobRob_Rover_NEW/Steering_Controller/MobRob_Steering_Controller/Dave/Generated/DIGITAL_IO\digital_io.h **** /**
 234:C:/GitHub/MobRob_Rover_NEW/Steering_Controller/MobRob_Steering_Controller/Dave/Generated/DIGITAL_IO\digital_io.h **** *
 235:C:/GitHub/MobRob_Rover_NEW/Steering_Controller/MobRob_Steering_Controller/Dave/Generated/DIGITAL_IO\digital_io.h **** * @brief Function to set port pin high.
 236:C:/GitHub/MobRob_Rover_NEW/Steering_Controller/MobRob_Steering_Controller/Dave/Generated/DIGITAL_IO\digital_io.h **** * @param handler Pointer pointing to APP data structure. Refer @ref DIGITAL_IO_t for details.
 237:C:/GitHub/MobRob_Rover_NEW/Steering_Controller/MobRob_Steering_Controller/Dave/Generated/DIGITAL_IO\digital_io.h **** * @return None
 238:C:/GitHub/MobRob_Rover_NEW/Steering_Controller/MobRob_Steering_Controller/Dave/Generated/DIGITAL_IO\digital_io.h **** *
 239:C:/GitHub/MobRob_Rover_NEW/Steering_Controller/MobRob_Steering_Controller/Dave/Generated/DIGITAL_IO\digital_io.h **** * \par<b>Description:</b><br>
 240:C:/GitHub/MobRob_Rover_NEW/Steering_Controller/MobRob_Steering_Controller/Dave/Generated/DIGITAL_IO\digital_io.h **** * This function configures port output modification register Pn_OMR, to make port pin to high level
 241:C:/GitHub/MobRob_Rover_NEW/Steering_Controller/MobRob_Steering_Controller/Dave/Generated/DIGITAL_IO\digital_io.h **** *
 242:C:/GitHub/MobRob_Rover_NEW/Steering_Controller/MobRob_Steering_Controller/Dave/Generated/DIGITAL_IO\digital_io.h **** * \par<b>Related APIs:</b><BR>
 243:C:/GitHub/MobRob_Rover_NEW/Steering_Controller/MobRob_Steering_Controller/Dave/Generated/DIGITAL_IO\digital_io.h **** *  DIGITAL_IO_SetOutputLow()
 244:C:/GitHub/MobRob_Rover_NEW/Steering_Controller/MobRob_Steering_Controller/Dave/Generated/DIGITAL_IO\digital_io.h **** *
 245:C:/GitHub/MobRob_Rover_NEW/Steering_Controller/MobRob_Steering_Controller/Dave/Generated/DIGITAL_IO\digital_io.h **** * Example Usage:
 246:C:/GitHub/MobRob_Rover_NEW/Steering_Controller/MobRob_Steering_Controller/Dave/Generated/DIGITAL_IO\digital_io.h **** * @code
 247:C:/GitHub/MobRob_Rover_NEW/Steering_Controller/MobRob_Steering_Controller/Dave/Generated/DIGITAL_IO\digital_io.h **** * #include "DAVE.h" //Declarations from DAVE Code Generation (includes SFR declaration)
 248:C:/GitHub/MobRob_Rover_NEW/Steering_Controller/MobRob_Steering_Controller/Dave/Generated/DIGITAL_IO\digital_io.h **** *
 249:C:/GitHub/MobRob_Rover_NEW/Steering_Controller/MobRob_Steering_Controller/Dave/Generated/DIGITAL_IO\digital_io.h **** * int main(void)
 250:C:/GitHub/MobRob_Rover_NEW/Steering_Controller/MobRob_Steering_Controller/Dave/Generated/DIGITAL_IO\digital_io.h **** * {
 251:C:/GitHub/MobRob_Rover_NEW/Steering_Controller/MobRob_Steering_Controller/Dave/Generated/DIGITAL_IO\digital_io.h **** *   DAVE_STATUS_t status;
 252:C:/GitHub/MobRob_Rover_NEW/Steering_Controller/MobRob_Steering_Controller/Dave/Generated/DIGITAL_IO\digital_io.h **** *   status = DAVE_Init();  //(DAVE_STATUS_t)DIGITAL_IO_Init(&DIGITAL_IO_0) is called within DAVE_In
 253:C:/GitHub/MobRob_Rover_NEW/Steering_Controller/MobRob_Steering_Controller/Dave/Generated/DIGITAL_IO\digital_io.h **** *   if(status == DAVE_STATUS_SUCCESS)
 254:C:/GitHub/MobRob_Rover_NEW/Steering_Controller/MobRob_Steering_Controller/Dave/Generated/DIGITAL_IO\digital_io.h **** *   {
 255:C:/GitHub/MobRob_Rover_NEW/Steering_Controller/MobRob_Steering_Controller/Dave/Generated/DIGITAL_IO\digital_io.h **** *     XMC_DEBUG("DAVE Apps initialization success\n");
 256:C:/GitHub/MobRob_Rover_NEW/Steering_Controller/MobRob_Steering_Controller/Dave/Generated/DIGITAL_IO\digital_io.h **** *   }
 257:C:/GitHub/MobRob_Rover_NEW/Steering_Controller/MobRob_Steering_Controller/Dave/Generated/DIGITAL_IO\digital_io.h **** *   else
 258:C:/GitHub/MobRob_Rover_NEW/Steering_Controller/MobRob_Steering_Controller/Dave/Generated/DIGITAL_IO\digital_io.h **** *   {
 259:C:/GitHub/MobRob_Rover_NEW/Steering_Controller/MobRob_Steering_Controller/Dave/Generated/DIGITAL_IO\digital_io.h **** *     XMC_DEBUG(("DAVE Apps initialization failed with status %d\n", status));
 260:C:/GitHub/MobRob_Rover_NEW/Steering_Controller/MobRob_Steering_Controller/Dave/Generated/DIGITAL_IO\digital_io.h **** *     while(1U)
 261:C:/GitHub/MobRob_Rover_NEW/Steering_Controller/MobRob_Steering_Controller/Dave/Generated/DIGITAL_IO\digital_io.h **** *     {
 262:C:/GitHub/MobRob_Rover_NEW/Steering_Controller/MobRob_Steering_Controller/Dave/Generated/DIGITAL_IO\digital_io.h **** *     }
 263:C:/GitHub/MobRob_Rover_NEW/Steering_Controller/MobRob_Steering_Controller/Dave/Generated/DIGITAL_IO\digital_io.h **** *   }
 264:C:/GitHub/MobRob_Rover_NEW/Steering_Controller/MobRob_Steering_Controller/Dave/Generated/DIGITAL_IO\digital_io.h **** *   //Placeholder for user application code. The while loop below can be replaced with user applica
 265:C:/GitHub/MobRob_Rover_NEW/Steering_Controller/MobRob_Steering_Controller/Dave/Generated/DIGITAL_IO\digital_io.h **** *   DIGITAL_IO_SetOutputHigh(&DIGITAL_IO_0);
 266:C:/GitHub/MobRob_Rover_NEW/Steering_Controller/MobRob_Steering_Controller/Dave/Generated/DIGITAL_IO\digital_io.h **** *   while(1U)
 267:C:/GitHub/MobRob_Rover_NEW/Steering_Controller/MobRob_Steering_Controller/Dave/Generated/DIGITAL_IO\digital_io.h **** *   {
 268:C:/GitHub/MobRob_Rover_NEW/Steering_Controller/MobRob_Steering_Controller/Dave/Generated/DIGITAL_IO\digital_io.h **** *     // Add application code here
 269:C:/GitHub/MobRob_Rover_NEW/Steering_Controller/MobRob_Steering_Controller/Dave/Generated/DIGITAL_IO\digital_io.h **** *   }
 270:C:/GitHub/MobRob_Rover_NEW/Steering_Controller/MobRob_Steering_Controller/Dave/Generated/DIGITAL_IO\digital_io.h **** *
 271:C:/GitHub/MobRob_Rover_NEW/Steering_Controller/MobRob_Steering_Controller/Dave/Generated/DIGITAL_IO\digital_io.h **** *   return (1);
 272:C:/GitHub/MobRob_Rover_NEW/Steering_Controller/MobRob_Steering_Controller/Dave/Generated/DIGITAL_IO\digital_io.h **** * }
 273:C:/GitHub/MobRob_Rover_NEW/Steering_Controller/MobRob_Steering_Controller/Dave/Generated/DIGITAL_IO\digital_io.h **** *  @endcode
 274:C:/GitHub/MobRob_Rover_NEW/Steering_Controller/MobRob_Steering_Controller/Dave/Generated/DIGITAL_IO\digital_io.h **** */
 275:C:/GitHub/MobRob_Rover_NEW/Steering_Controller/MobRob_Steering_Controller/Dave/Generated/DIGITAL_IO\digital_io.h **** 
 276:C:/GitHub/MobRob_Rover_NEW/Steering_Controller/MobRob_Steering_Controller/Dave/Generated/DIGITAL_IO\digital_io.h **** __STATIC_INLINE void DIGITAL_IO_SetOutputHigh(const DIGITAL_IO_t *const handler)
 277:C:/GitHub/MobRob_Rover_NEW/Steering_Controller/MobRob_Steering_Controller/Dave/Generated/DIGITAL_IO\digital_io.h **** {
 148              	 .loc 2 277 0
 149              	 .cfi_startproc
 150 0000 80B5     	 push {r7,lr}
 151              	.LCFI9:
 152              	 .cfi_def_cfa_offset 8
 153              	 .cfi_offset 7,-8
 154              	 .cfi_offset 14,-4
 155 0002 82B0     	 sub sp,sp,#8
 156              	.LCFI10:
 157              	 .cfi_def_cfa_offset 16
 158 0004 00AF     	 add r7,sp,#0
 159              	.LCFI11:
 160              	 .cfi_def_cfa_register 7
 161 0006 7860     	 str r0,[r7,#4]
 278:C:/GitHub/MobRob_Rover_NEW/Steering_Controller/MobRob_Steering_Controller/Dave/Generated/DIGITAL_IO\digital_io.h ****   XMC_ASSERT("DIGITAL_IO_SetOutputHigh: handler null pointer", handler != NULL);
 279:C:/GitHub/MobRob_Rover_NEW/Steering_Controller/MobRob_Steering_Controller/Dave/Generated/DIGITAL_IO\digital_io.h ****   XMC_GPIO_SetOutputHigh(handler->gpio_port, handler->gpio_pin);
 162              	 .loc 2 279 0
 163 0008 7B68     	 ldr r3,[r7,#4]
 164 000a 1A68     	 ldr r2,[r3]
 165 000c 7B68     	 ldr r3,[r7,#4]
 166 000e 1B7B     	 ldrb r3,[r3,#12]
 167 0010 101C     	 mov r0,r2
 168 0012 191C     	 mov r1,r3
 169 0014 FFF7FEFF 	 bl XMC_GPIO_SetOutputHigh
 280:C:/GitHub/MobRob_Rover_NEW/Steering_Controller/MobRob_Steering_Controller/Dave/Generated/DIGITAL_IO\digital_io.h **** }
 170              	 .loc 2 280 0
 171 0018 BD46     	 mov sp,r7
 172 001a 02B0     	 add sp,sp,#8
 173              	 
 174 001c 80BD     	 pop {r7,pc}
 175              	 .cfi_endproc
 176              	.LFE195:
 178 001e C046     	 .section .text.DIGITAL_IO_SetOutputLow,"ax",%progbits
 179              	 .align 2
 180              	 .code 16
 181              	 .thumb_func
 183              	DIGITAL_IO_SetOutputLow:
 184              	.LFB196:
 281:C:/GitHub/MobRob_Rover_NEW/Steering_Controller/MobRob_Steering_Controller/Dave/Generated/DIGITAL_IO\digital_io.h **** 
 282:C:/GitHub/MobRob_Rover_NEW/Steering_Controller/MobRob_Steering_Controller/Dave/Generated/DIGITAL_IO\digital_io.h **** /**
 283:C:/GitHub/MobRob_Rover_NEW/Steering_Controller/MobRob_Steering_Controller/Dave/Generated/DIGITAL_IO\digital_io.h **** * @brief Function to reset port pin.
 284:C:/GitHub/MobRob_Rover_NEW/Steering_Controller/MobRob_Steering_Controller/Dave/Generated/DIGITAL_IO\digital_io.h **** * @param handler Pointer pointing to APP data structure. Refer @ref DIGITAL_IO_t for details.
 285:C:/GitHub/MobRob_Rover_NEW/Steering_Controller/MobRob_Steering_Controller/Dave/Generated/DIGITAL_IO\digital_io.h **** * @return None
 286:C:/GitHub/MobRob_Rover_NEW/Steering_Controller/MobRob_Steering_Controller/Dave/Generated/DIGITAL_IO\digital_io.h **** *
 287:C:/GitHub/MobRob_Rover_NEW/Steering_Controller/MobRob_Steering_Controller/Dave/Generated/DIGITAL_IO\digital_io.h **** * \par<b>Description:</b><br>
 288:C:/GitHub/MobRob_Rover_NEW/Steering_Controller/MobRob_Steering_Controller/Dave/Generated/DIGITAL_IO\digital_io.h **** * This function configures port output modification register Pn_OMR, to make port pin to low level.
 289:C:/GitHub/MobRob_Rover_NEW/Steering_Controller/MobRob_Steering_Controller/Dave/Generated/DIGITAL_IO\digital_io.h **** *
 290:C:/GitHub/MobRob_Rover_NEW/Steering_Controller/MobRob_Steering_Controller/Dave/Generated/DIGITAL_IO\digital_io.h **** * \par<b>Related APIs:</b><BR>
 291:C:/GitHub/MobRob_Rover_NEW/Steering_Controller/MobRob_Steering_Controller/Dave/Generated/DIGITAL_IO\digital_io.h **** * DIGITAL_IO_SetOutputHigh()
 292:C:/GitHub/MobRob_Rover_NEW/Steering_Controller/MobRob_Steering_Controller/Dave/Generated/DIGITAL_IO\digital_io.h **** *
 293:C:/GitHub/MobRob_Rover_NEW/Steering_Controller/MobRob_Steering_Controller/Dave/Generated/DIGITAL_IO\digital_io.h **** * Example Usage:
 294:C:/GitHub/MobRob_Rover_NEW/Steering_Controller/MobRob_Steering_Controller/Dave/Generated/DIGITAL_IO\digital_io.h **** * @code
 295:C:/GitHub/MobRob_Rover_NEW/Steering_Controller/MobRob_Steering_Controller/Dave/Generated/DIGITAL_IO\digital_io.h **** *  #include "DAVE.h" //Declarations from DAVE Code Generation (includes SFR declaration)
 296:C:/GitHub/MobRob_Rover_NEW/Steering_Controller/MobRob_Steering_Controller/Dave/Generated/DIGITAL_IO\digital_io.h **** *
 297:C:/GitHub/MobRob_Rover_NEW/Steering_Controller/MobRob_Steering_Controller/Dave/Generated/DIGITAL_IO\digital_io.h **** *  int main(void)
 298:C:/GitHub/MobRob_Rover_NEW/Steering_Controller/MobRob_Steering_Controller/Dave/Generated/DIGITAL_IO\digital_io.h **** *  {
 299:C:/GitHub/MobRob_Rover_NEW/Steering_Controller/MobRob_Steering_Controller/Dave/Generated/DIGITAL_IO\digital_io.h **** *    DAVE_STATUS_t status;
 300:C:/GitHub/MobRob_Rover_NEW/Steering_Controller/MobRob_Steering_Controller/Dave/Generated/DIGITAL_IO\digital_io.h **** *    status = DAVE_Init();  //(DAVE_STATUS_t)DIGITAL_IO_Init(&DIGITAL_IO_0) is called within DAVE_I
 301:C:/GitHub/MobRob_Rover_NEW/Steering_Controller/MobRob_Steering_Controller/Dave/Generated/DIGITAL_IO\digital_io.h **** *    if(status == DAVE_STATUS_SUCCESS)
 302:C:/GitHub/MobRob_Rover_NEW/Steering_Controller/MobRob_Steering_Controller/Dave/Generated/DIGITAL_IO\digital_io.h **** *    {
 303:C:/GitHub/MobRob_Rover_NEW/Steering_Controller/MobRob_Steering_Controller/Dave/Generated/DIGITAL_IO\digital_io.h **** *      XMC_DEBUG("DAVE Apps initialization success\n");
 304:C:/GitHub/MobRob_Rover_NEW/Steering_Controller/MobRob_Steering_Controller/Dave/Generated/DIGITAL_IO\digital_io.h **** *    }
 305:C:/GitHub/MobRob_Rover_NEW/Steering_Controller/MobRob_Steering_Controller/Dave/Generated/DIGITAL_IO\digital_io.h **** *    else
 306:C:/GitHub/MobRob_Rover_NEW/Steering_Controller/MobRob_Steering_Controller/Dave/Generated/DIGITAL_IO\digital_io.h **** *    {
 307:C:/GitHub/MobRob_Rover_NEW/Steering_Controller/MobRob_Steering_Controller/Dave/Generated/DIGITAL_IO\digital_io.h **** *      XMC_DEBUG(("DAVE Apps initialization failed with status %d\n", status));
 308:C:/GitHub/MobRob_Rover_NEW/Steering_Controller/MobRob_Steering_Controller/Dave/Generated/DIGITAL_IO\digital_io.h **** *      while(1U)
 309:C:/GitHub/MobRob_Rover_NEW/Steering_Controller/MobRob_Steering_Controller/Dave/Generated/DIGITAL_IO\digital_io.h **** *      {
 310:C:/GitHub/MobRob_Rover_NEW/Steering_Controller/MobRob_Steering_Controller/Dave/Generated/DIGITAL_IO\digital_io.h **** *      }
 311:C:/GitHub/MobRob_Rover_NEW/Steering_Controller/MobRob_Steering_Controller/Dave/Generated/DIGITAL_IO\digital_io.h **** *    }
 312:C:/GitHub/MobRob_Rover_NEW/Steering_Controller/MobRob_Steering_Controller/Dave/Generated/DIGITAL_IO\digital_io.h **** *    //Placeholder for user application code. The while loop below can be replaced with user applic
 313:C:/GitHub/MobRob_Rover_NEW/Steering_Controller/MobRob_Steering_Controller/Dave/Generated/DIGITAL_IO\digital_io.h **** *    DIGITAL_IO_SetOutputLow(&DIGITAL_IO_0);
 314:C:/GitHub/MobRob_Rover_NEW/Steering_Controller/MobRob_Steering_Controller/Dave/Generated/DIGITAL_IO\digital_io.h **** *    while(1U)
 315:C:/GitHub/MobRob_Rover_NEW/Steering_Controller/MobRob_Steering_Controller/Dave/Generated/DIGITAL_IO\digital_io.h **** *    {
 316:C:/GitHub/MobRob_Rover_NEW/Steering_Controller/MobRob_Steering_Controller/Dave/Generated/DIGITAL_IO\digital_io.h **** *      // Add application code here
 317:C:/GitHub/MobRob_Rover_NEW/Steering_Controller/MobRob_Steering_Controller/Dave/Generated/DIGITAL_IO\digital_io.h **** *    }
 318:C:/GitHub/MobRob_Rover_NEW/Steering_Controller/MobRob_Steering_Controller/Dave/Generated/DIGITAL_IO\digital_io.h **** *
 319:C:/GitHub/MobRob_Rover_NEW/Steering_Controller/MobRob_Steering_Controller/Dave/Generated/DIGITAL_IO\digital_io.h **** *   return (1);
 320:C:/GitHub/MobRob_Rover_NEW/Steering_Controller/MobRob_Steering_Controller/Dave/Generated/DIGITAL_IO\digital_io.h **** * }
 321:C:/GitHub/MobRob_Rover_NEW/Steering_Controller/MobRob_Steering_Controller/Dave/Generated/DIGITAL_IO\digital_io.h **** *  @endcode
 322:C:/GitHub/MobRob_Rover_NEW/Steering_Controller/MobRob_Steering_Controller/Dave/Generated/DIGITAL_IO\digital_io.h **** */
 323:C:/GitHub/MobRob_Rover_NEW/Steering_Controller/MobRob_Steering_Controller/Dave/Generated/DIGITAL_IO\digital_io.h **** 
 324:C:/GitHub/MobRob_Rover_NEW/Steering_Controller/MobRob_Steering_Controller/Dave/Generated/DIGITAL_IO\digital_io.h **** __STATIC_INLINE void DIGITAL_IO_SetOutputLow(const DIGITAL_IO_t *const handler)
 325:C:/GitHub/MobRob_Rover_NEW/Steering_Controller/MobRob_Steering_Controller/Dave/Generated/DIGITAL_IO\digital_io.h **** {
 185              	 .loc 2 325 0
 186              	 .cfi_startproc
 187 0000 80B5     	 push {r7,lr}
 188              	.LCFI12:
 189              	 .cfi_def_cfa_offset 8
 190              	 .cfi_offset 7,-8
 191              	 .cfi_offset 14,-4
 192 0002 82B0     	 sub sp,sp,#8
 193              	.LCFI13:
 194              	 .cfi_def_cfa_offset 16
 195 0004 00AF     	 add r7,sp,#0
 196              	.LCFI14:
 197              	 .cfi_def_cfa_register 7
 198 0006 7860     	 str r0,[r7,#4]
 326:C:/GitHub/MobRob_Rover_NEW/Steering_Controller/MobRob_Steering_Controller/Dave/Generated/DIGITAL_IO\digital_io.h ****   XMC_ASSERT("DIGITAL_IO_SetOutputLow: handler null pointer", handler != NULL);
 327:C:/GitHub/MobRob_Rover_NEW/Steering_Controller/MobRob_Steering_Controller/Dave/Generated/DIGITAL_IO\digital_io.h ****   XMC_GPIO_SetOutputLow(handler->gpio_port,handler->gpio_pin);
 199              	 .loc 2 327 0
 200 0008 7B68     	 ldr r3,[r7,#4]
 201 000a 1A68     	 ldr r2,[r3]
 202 000c 7B68     	 ldr r3,[r7,#4]
 203 000e 1B7B     	 ldrb r3,[r3,#12]
 204 0010 101C     	 mov r0,r2
 205 0012 191C     	 mov r1,r3
 206 0014 FFF7FEFF 	 bl XMC_GPIO_SetOutputLow
 328:C:/GitHub/MobRob_Rover_NEW/Steering_Controller/MobRob_Steering_Controller/Dave/Generated/DIGITAL_IO\digital_io.h **** }
 207              	 .loc 2 328 0
 208 0018 BD46     	 mov sp,r7
 209 001a 02B0     	 add sp,sp,#8
 210              	 
 211 001c 80BD     	 pop {r7,pc}
 212              	 .cfi_endproc
 213              	.LFE196:
 215 001e C046     	 .section .text.PIN_INTERRUPT_GetPinValue,"ax",%progbits
 216              	 .align 2
 217              	 .code 16
 218              	 .thumb_func
 220              	PIN_INTERRUPT_GetPinValue:
 221              	.LFB205:
 222              	 .file 3 "C:/GitHub/MobRob_Rover_NEW/Steering_Controller/MobRob_Steering_Controller/Dave/Generated/PIN_INTERRUPT/pin_interrupt.h"
   1:C:/GitHub/MobRob_Rover_NEW/Steering_Controller/MobRob_Steering_Controller/Dave/Generated/PIN_INTERRUPT\pin_interrupt.h **** /**
   2:C:/GitHub/MobRob_Rover_NEW/Steering_Controller/MobRob_Steering_Controller/Dave/Generated/PIN_INTERRUPT\pin_interrupt.h ****  * @file pin_interrupt.h
   3:C:/GitHub/MobRob_Rover_NEW/Steering_Controller/MobRob_Steering_Controller/Dave/Generated/PIN_INTERRUPT\pin_interrupt.h ****  * @date 2021-01-08
   4:C:/GitHub/MobRob_Rover_NEW/Steering_Controller/MobRob_Steering_Controller/Dave/Generated/PIN_INTERRUPT\pin_interrupt.h ****  *
   5:C:/GitHub/MobRob_Rover_NEW/Steering_Controller/MobRob_Steering_Controller/Dave/Generated/PIN_INTERRUPT\pin_interrupt.h ****  * NOTE:
   6:C:/GitHub/MobRob_Rover_NEW/Steering_Controller/MobRob_Steering_Controller/Dave/Generated/PIN_INTERRUPT\pin_interrupt.h ****  * This file is generated by DAVE. Any manual modification done to this file will be lost when the 
   7:C:/GitHub/MobRob_Rover_NEW/Steering_Controller/MobRob_Steering_Controller/Dave/Generated/PIN_INTERRUPT\pin_interrupt.h ****  *
   8:C:/GitHub/MobRob_Rover_NEW/Steering_Controller/MobRob_Steering_Controller/Dave/Generated/PIN_INTERRUPT\pin_interrupt.h ****  * @cond
   9:C:/GitHub/MobRob_Rover_NEW/Steering_Controller/MobRob_Steering_Controller/Dave/Generated/PIN_INTERRUPT\pin_interrupt.h ****  **************************************************************************************************
  10:C:/GitHub/MobRob_Rover_NEW/Steering_Controller/MobRob_Steering_Controller/Dave/Generated/PIN_INTERRUPT\pin_interrupt.h ****  * PIN_INTERRUPT v4.0.4 - The PIN_INTERRUPT APP invokes user interrupt handler in a response to ris
  11:C:/GitHub/MobRob_Rover_NEW/Steering_Controller/MobRob_Steering_Controller/Dave/Generated/PIN_INTERRUPT\pin_interrupt.h ****  *                        edge event signal on a pin.
  12:C:/GitHub/MobRob_Rover_NEW/Steering_Controller/MobRob_Steering_Controller/Dave/Generated/PIN_INTERRUPT\pin_interrupt.h ****  *
  13:C:/GitHub/MobRob_Rover_NEW/Steering_Controller/MobRob_Steering_Controller/Dave/Generated/PIN_INTERRUPT\pin_interrupt.h ****  * Copyright (c) 2016-2020, Infineon Technologies AG
  14:C:/GitHub/MobRob_Rover_NEW/Steering_Controller/MobRob_Steering_Controller/Dave/Generated/PIN_INTERRUPT\pin_interrupt.h ****  * All rights reserved.                        
  15:C:/GitHub/MobRob_Rover_NEW/Steering_Controller/MobRob_Steering_Controller/Dave/Generated/PIN_INTERRUPT\pin_interrupt.h ****  *                                             
  16:C:/GitHub/MobRob_Rover_NEW/Steering_Controller/MobRob_Steering_Controller/Dave/Generated/PIN_INTERRUPT\pin_interrupt.h ****  * Redistribution and use in source and binary forms, with or without modification,are permitted pr
  17:C:/GitHub/MobRob_Rover_NEW/Steering_Controller/MobRob_Steering_Controller/Dave/Generated/PIN_INTERRUPT\pin_interrupt.h ****  * following conditions are met:   
  18:C:/GitHub/MobRob_Rover_NEW/Steering_Controller/MobRob_Steering_Controller/Dave/Generated/PIN_INTERRUPT\pin_interrupt.h ****  *                                                                              
  19:C:/GitHub/MobRob_Rover_NEW/Steering_Controller/MobRob_Steering_Controller/Dave/Generated/PIN_INTERRUPT\pin_interrupt.h ****  *   Redistributions of source code must retain the above copyright notice, this list of conditions
  20:C:/GitHub/MobRob_Rover_NEW/Steering_Controller/MobRob_Steering_Controller/Dave/Generated/PIN_INTERRUPT\pin_interrupt.h ****  *   disclaimer.                        
  21:C:/GitHub/MobRob_Rover_NEW/Steering_Controller/MobRob_Steering_Controller/Dave/Generated/PIN_INTERRUPT\pin_interrupt.h ****  * 
  22:C:/GitHub/MobRob_Rover_NEW/Steering_Controller/MobRob_Steering_Controller/Dave/Generated/PIN_INTERRUPT\pin_interrupt.h ****  *   Redistributions in binary form must reproduce the above copyright notice, this list of conditi
  23:C:/GitHub/MobRob_Rover_NEW/Steering_Controller/MobRob_Steering_Controller/Dave/Generated/PIN_INTERRUPT\pin_interrupt.h ****  *   disclaimer in the documentation and/or other materials provided with the distribution.     
  24:C:/GitHub/MobRob_Rover_NEW/Steering_Controller/MobRob_Steering_Controller/Dave/Generated/PIN_INTERRUPT\pin_interrupt.h ****  *                         
  25:C:/GitHub/MobRob_Rover_NEW/Steering_Controller/MobRob_Steering_Controller/Dave/Generated/PIN_INTERRUPT\pin_interrupt.h ****  *   Neither the name of the copyright holders nor the names of its contributors may be used to end
  26:C:/GitHub/MobRob_Rover_NEW/Steering_Controller/MobRob_Steering_Controller/Dave/Generated/PIN_INTERRUPT\pin_interrupt.h ****  *   products derived from this software without specific prior written permission. 
  27:C:/GitHub/MobRob_Rover_NEW/Steering_Controller/MobRob_Steering_Controller/Dave/Generated/PIN_INTERRUPT\pin_interrupt.h ****  *                                             
  28:C:/GitHub/MobRob_Rover_NEW/Steering_Controller/MobRob_Steering_Controller/Dave/Generated/PIN_INTERRUPT\pin_interrupt.h ****  * THIS SOFTWARE IS PROVIDED BY THE COPYRIGHT HOLDERS AND CONTRIBUTORS "AS IS" AND ANY EXPRESS OR I
  29:C:/GitHub/MobRob_Rover_NEW/Steering_Controller/MobRob_Steering_Controller/Dave/Generated/PIN_INTERRUPT\pin_interrupt.h ****  * INCLUDING, BUT NOT LIMITED TO, THE IMPLIED WARRANTIES OF MERCHANTABILITY AND FITNESS FOR A PARTI
  30:C:/GitHub/MobRob_Rover_NEW/Steering_Controller/MobRob_Steering_Controller/Dave/Generated/PIN_INTERRUPT\pin_interrupt.h ****  * DISCLAIMED. IN NO EVENT SHALL THE COPYRIGHT HOLDER OR CONTRIBUTORS BE LIABLE  FOR ANY DIRECT, IN
  31:C:/GitHub/MobRob_Rover_NEW/Steering_Controller/MobRob_Steering_Controller/Dave/Generated/PIN_INTERRUPT\pin_interrupt.h ****  * SPECIAL, EXEMPLARY, OR CONSEQUENTIAL DAMAGES (INCLUDING, BUT NOT LIMITED TO, PROCUREMENT OF SUBS
  32:C:/GitHub/MobRob_Rover_NEW/Steering_Controller/MobRob_Steering_Controller/Dave/Generated/PIN_INTERRUPT\pin_interrupt.h ****  * SERVICES; LOSS OF USE, DATA, OR PROFITS; OR BUSINESS INTERRUPTION) HOWEVER CAUSED AND ON ANY THE
  33:C:/GitHub/MobRob_Rover_NEW/Steering_Controller/MobRob_Steering_Controller/Dave/Generated/PIN_INTERRUPT\pin_interrupt.h ****  * WHETHER IN CONTRACT, STRICT LIABILITY,OR TORT (INCLUDING NEGLIGENCE OR OTHERWISE) ARISING IN ANY
  34:C:/GitHub/MobRob_Rover_NEW/Steering_Controller/MobRob_Steering_Controller/Dave/Generated/PIN_INTERRUPT\pin_interrupt.h ****  * USE OF THIS SOFTWARE, EVEN IF ADVISED OF THE POSSIBILITY OF SUCH DAMAGE.    
  35:C:/GitHub/MobRob_Rover_NEW/Steering_Controller/MobRob_Steering_Controller/Dave/Generated/PIN_INTERRUPT\pin_interrupt.h ****  *                                                                              
  36:C:/GitHub/MobRob_Rover_NEW/Steering_Controller/MobRob_Steering_Controller/Dave/Generated/PIN_INTERRUPT\pin_interrupt.h ****  * To improve the quality of the software, users are encouraged to share modifications, enhancement
  37:C:/GitHub/MobRob_Rover_NEW/Steering_Controller/MobRob_Steering_Controller/Dave/Generated/PIN_INTERRUPT\pin_interrupt.h ****  * with Infineon Technologies AG (dave@infineon.com).         
  38:C:/GitHub/MobRob_Rover_NEW/Steering_Controller/MobRob_Steering_Controller/Dave/Generated/PIN_INTERRUPT\pin_interrupt.h ****  **************************************************************************************************
  39:C:/GitHub/MobRob_Rover_NEW/Steering_Controller/MobRob_Steering_Controller/Dave/Generated/PIN_INTERRUPT\pin_interrupt.h ****  *
  40:C:/GitHub/MobRob_Rover_NEW/Steering_Controller/MobRob_Steering_Controller/Dave/Generated/PIN_INTERRUPT\pin_interrupt.h ****  * Change History
  41:C:/GitHub/MobRob_Rover_NEW/Steering_Controller/MobRob_Steering_Controller/Dave/Generated/PIN_INTERRUPT\pin_interrupt.h ****  * --------------
  42:C:/GitHub/MobRob_Rover_NEW/Steering_Controller/MobRob_Steering_Controller/Dave/Generated/PIN_INTERRUPT\pin_interrupt.h ****  * 2015-12-03:
  43:C:/GitHub/MobRob_Rover_NEW/Steering_Controller/MobRob_Steering_Controller/Dave/Generated/PIN_INTERRUPT\pin_interrupt.h ****  *     - Initial version for DAVEv4. <BR>
  44:C:/GitHub/MobRob_Rover_NEW/Steering_Controller/MobRob_Steering_Controller/Dave/Generated/PIN_INTERRUPT\pin_interrupt.h ****  * 
  45:C:/GitHub/MobRob_Rover_NEW/Steering_Controller/MobRob_Steering_Controller/Dave/Generated/PIN_INTERRUPT\pin_interrupt.h ****  * 2021-01-08:
  46:C:/GitHub/MobRob_Rover_NEW/Steering_Controller/MobRob_Steering_Controller/Dave/Generated/PIN_INTERRUPT\pin_interrupt.h ****  *     - Modified check for minimum XMCLib version
  47:C:/GitHub/MobRob_Rover_NEW/Steering_Controller/MobRob_Steering_Controller/Dave/Generated/PIN_INTERRUPT\pin_interrupt.h ****  *
  48:C:/GitHub/MobRob_Rover_NEW/Steering_Controller/MobRob_Steering_Controller/Dave/Generated/PIN_INTERRUPT\pin_interrupt.h ****  * @endcond 
  49:C:/GitHub/MobRob_Rover_NEW/Steering_Controller/MobRob_Steering_Controller/Dave/Generated/PIN_INTERRUPT\pin_interrupt.h ****  *
  50:C:/GitHub/MobRob_Rover_NEW/Steering_Controller/MobRob_Steering_Controller/Dave/Generated/PIN_INTERRUPT\pin_interrupt.h ****  */
  51:C:/GitHub/MobRob_Rover_NEW/Steering_Controller/MobRob_Steering_Controller/Dave/Generated/PIN_INTERRUPT\pin_interrupt.h **** 
  52:C:/GitHub/MobRob_Rover_NEW/Steering_Controller/MobRob_Steering_Controller/Dave/Generated/PIN_INTERRUPT\pin_interrupt.h **** #ifndef PIN_INTERRUPT_H
  53:C:/GitHub/MobRob_Rover_NEW/Steering_Controller/MobRob_Steering_Controller/Dave/Generated/PIN_INTERRUPT\pin_interrupt.h **** #define PIN_INTERRUPT_H
  54:C:/GitHub/MobRob_Rover_NEW/Steering_Controller/MobRob_Steering_Controller/Dave/Generated/PIN_INTERRUPT\pin_interrupt.h **** 
  55:C:/GitHub/MobRob_Rover_NEW/Steering_Controller/MobRob_Steering_Controller/Dave/Generated/PIN_INTERRUPT\pin_interrupt.h **** /**************************************************************************************************
  56:C:/GitHub/MobRob_Rover_NEW/Steering_Controller/MobRob_Steering_Controller/Dave/Generated/PIN_INTERRUPT\pin_interrupt.h ****  * HEADER FILES                                                                                    
  57:C:/GitHub/MobRob_Rover_NEW/Steering_Controller/MobRob_Steering_Controller/Dave/Generated/PIN_INTERRUPT\pin_interrupt.h ****  **************************************************************************************************
  58:C:/GitHub/MobRob_Rover_NEW/Steering_Controller/MobRob_Steering_Controller/Dave/Generated/PIN_INTERRUPT\pin_interrupt.h **** #if (UC_SERIES == XMC14)
  59:C:/GitHub/MobRob_Rover_NEW/Steering_Controller/MobRob_Steering_Controller/Dave/Generated/PIN_INTERRUPT\pin_interrupt.h **** #include "xmc_scu.h"
  60:C:/GitHub/MobRob_Rover_NEW/Steering_Controller/MobRob_Steering_Controller/Dave/Generated/PIN_INTERRUPT\pin_interrupt.h **** #endif
  61:C:/GitHub/MobRob_Rover_NEW/Steering_Controller/MobRob_Steering_Controller/Dave/Generated/PIN_INTERRUPT\pin_interrupt.h **** #include "xmc_gpio.h"
  62:C:/GitHub/MobRob_Rover_NEW/Steering_Controller/MobRob_Steering_Controller/Dave/Generated/PIN_INTERRUPT\pin_interrupt.h **** #include "xmc_eru.h"
  63:C:/GitHub/MobRob_Rover_NEW/Steering_Controller/MobRob_Steering_Controller/Dave/Generated/PIN_INTERRUPT\pin_interrupt.h **** 
  64:C:/GitHub/MobRob_Rover_NEW/Steering_Controller/MobRob_Steering_Controller/Dave/Generated/PIN_INTERRUPT\pin_interrupt.h **** #include "DAVE_Common.h"
  65:C:/GitHub/MobRob_Rover_NEW/Steering_Controller/MobRob_Steering_Controller/Dave/Generated/PIN_INTERRUPT\pin_interrupt.h **** #include "pin_interrupt_conf.h"
  66:C:/GitHub/MobRob_Rover_NEW/Steering_Controller/MobRob_Steering_Controller/Dave/Generated/PIN_INTERRUPT\pin_interrupt.h **** 
  67:C:/GitHub/MobRob_Rover_NEW/Steering_Controller/MobRob_Steering_Controller/Dave/Generated/PIN_INTERRUPT\pin_interrupt.h **** /**************************************************************************************************
  68:C:/GitHub/MobRob_Rover_NEW/Steering_Controller/MobRob_Steering_Controller/Dave/Generated/PIN_INTERRUPT\pin_interrupt.h ****  * MACROS                                                                                          
  69:C:/GitHub/MobRob_Rover_NEW/Steering_Controller/MobRob_Steering_Controller/Dave/Generated/PIN_INTERRUPT\pin_interrupt.h ****  **************************************************************************************************
  70:C:/GitHub/MobRob_Rover_NEW/Steering_Controller/MobRob_Steering_Controller/Dave/Generated/PIN_INTERRUPT\pin_interrupt.h **** #define PIN_INTERRUPT_XMC_LIB_MAJOR_VERSION 2
  71:C:/GitHub/MobRob_Rover_NEW/Steering_Controller/MobRob_Steering_Controller/Dave/Generated/PIN_INTERRUPT\pin_interrupt.h **** #define PIN_INTERRUPT_XMC_LIB_MINOR_VERSION 1
  72:C:/GitHub/MobRob_Rover_NEW/Steering_Controller/MobRob_Steering_Controller/Dave/Generated/PIN_INTERRUPT\pin_interrupt.h **** #define PIN_INTERRUPT_XMC_LIB_PATCH_VERSION 6
  73:C:/GitHub/MobRob_Rover_NEW/Steering_Controller/MobRob_Steering_Controller/Dave/Generated/PIN_INTERRUPT\pin_interrupt.h **** 
  74:C:/GitHub/MobRob_Rover_NEW/Steering_Controller/MobRob_Steering_Controller/Dave/Generated/PIN_INTERRUPT\pin_interrupt.h **** #if !((XMC_LIB_MAJOR_VERSION > PIN_INTERRUPT_XMC_LIB_MAJOR_VERSION) ||\
  75:C:/GitHub/MobRob_Rover_NEW/Steering_Controller/MobRob_Steering_Controller/Dave/Generated/PIN_INTERRUPT\pin_interrupt.h ****       ((XMC_LIB_MAJOR_VERSION == PIN_INTERRUPT_XMC_LIB_MAJOR_VERSION) && (XMC_LIB_MINOR_VERSION > P
  76:C:/GitHub/MobRob_Rover_NEW/Steering_Controller/MobRob_Steering_Controller/Dave/Generated/PIN_INTERRUPT\pin_interrupt.h ****       ((XMC_LIB_MAJOR_VERSION == PIN_INTERRUPT_XMC_LIB_MAJOR_VERSION) && (XMC_LIB_MINOR_VERSION == 
  77:C:/GitHub/MobRob_Rover_NEW/Steering_Controller/MobRob_Steering_Controller/Dave/Generated/PIN_INTERRUPT\pin_interrupt.h **** #error "PIN_INTERRUPT requires XMC Peripheral Library v2.1.6 or higher"
  78:C:/GitHub/MobRob_Rover_NEW/Steering_Controller/MobRob_Steering_Controller/Dave/Generated/PIN_INTERRUPT\pin_interrupt.h **** #endif
  79:C:/GitHub/MobRob_Rover_NEW/Steering_Controller/MobRob_Steering_Controller/Dave/Generated/PIN_INTERRUPT\pin_interrupt.h **** 
  80:C:/GitHub/MobRob_Rover_NEW/Steering_Controller/MobRob_Steering_Controller/Dave/Generated/PIN_INTERRUPT\pin_interrupt.h **** /**
  81:C:/GitHub/MobRob_Rover_NEW/Steering_Controller/MobRob_Steering_Controller/Dave/Generated/PIN_INTERRUPT\pin_interrupt.h ****  * @ingroup App_publicparam
  82:C:/GitHub/MobRob_Rover_NEW/Steering_Controller/MobRob_Steering_Controller/Dave/Generated/PIN_INTERRUPT\pin_interrupt.h ****  * @{
  83:C:/GitHub/MobRob_Rover_NEW/Steering_Controller/MobRob_Steering_Controller/Dave/Generated/PIN_INTERRUPT\pin_interrupt.h ****  */
  84:C:/GitHub/MobRob_Rover_NEW/Steering_Controller/MobRob_Steering_Controller/Dave/Generated/PIN_INTERRUPT\pin_interrupt.h **** /**
  85:C:/GitHub/MobRob_Rover_NEW/Steering_Controller/MobRob_Steering_Controller/Dave/Generated/PIN_INTERRUPT\pin_interrupt.h ****  *  @brief Initialization data structure for PIN_INTERRUPT APP
  86:C:/GitHub/MobRob_Rover_NEW/Steering_Controller/MobRob_Steering_Controller/Dave/Generated/PIN_INTERRUPT\pin_interrupt.h ****  */
  87:C:/GitHub/MobRob_Rover_NEW/Steering_Controller/MobRob_Steering_Controller/Dave/Generated/PIN_INTERRUPT\pin_interrupt.h **** 
  88:C:/GitHub/MobRob_Rover_NEW/Steering_Controller/MobRob_Steering_Controller/Dave/Generated/PIN_INTERRUPT\pin_interrupt.h **** /**
  89:C:/GitHub/MobRob_Rover_NEW/Steering_Controller/MobRob_Steering_Controller/Dave/Generated/PIN_INTERRUPT\pin_interrupt.h ****  * @}
  90:C:/GitHub/MobRob_Rover_NEW/Steering_Controller/MobRob_Steering_Controller/Dave/Generated/PIN_INTERRUPT\pin_interrupt.h ****  */
  91:C:/GitHub/MobRob_Rover_NEW/Steering_Controller/MobRob_Steering_Controller/Dave/Generated/PIN_INTERRUPT\pin_interrupt.h **** 
  92:C:/GitHub/MobRob_Rover_NEW/Steering_Controller/MobRob_Steering_Controller/Dave/Generated/PIN_INTERRUPT\pin_interrupt.h ****  /*************************************************************************************************
  93:C:/GitHub/MobRob_Rover_NEW/Steering_Controller/MobRob_Steering_Controller/Dave/Generated/PIN_INTERRUPT\pin_interrupt.h ****  * ENUMS
  94:C:/GitHub/MobRob_Rover_NEW/Steering_Controller/MobRob_Steering_Controller/Dave/Generated/PIN_INTERRUPT\pin_interrupt.h ****  **************************************************************************************************
  95:C:/GitHub/MobRob_Rover_NEW/Steering_Controller/MobRob_Steering_Controller/Dave/Generated/PIN_INTERRUPT\pin_interrupt.h **** /**
  96:C:/GitHub/MobRob_Rover_NEW/Steering_Controller/MobRob_Steering_Controller/Dave/Generated/PIN_INTERRUPT\pin_interrupt.h ****  * @ingroup PIN_INTERRUPT_enumerations
  97:C:/GitHub/MobRob_Rover_NEW/Steering_Controller/MobRob_Steering_Controller/Dave/Generated/PIN_INTERRUPT\pin_interrupt.h ****  * @{
  98:C:/GitHub/MobRob_Rover_NEW/Steering_Controller/MobRob_Steering_Controller/Dave/Generated/PIN_INTERRUPT\pin_interrupt.h ****  */
  99:C:/GitHub/MobRob_Rover_NEW/Steering_Controller/MobRob_Steering_Controller/Dave/Generated/PIN_INTERRUPT\pin_interrupt.h **** /*
 100:C:/GitHub/MobRob_Rover_NEW/Steering_Controller/MobRob_Steering_Controller/Dave/Generated/PIN_INTERRUPT\pin_interrupt.h ****  * @brief enumeration for PIN_INTERRUPT APP
 101:C:/GitHub/MobRob_Rover_NEW/Steering_Controller/MobRob_Steering_Controller/Dave/Generated/PIN_INTERRUPT\pin_interrupt.h ****  */
 102:C:/GitHub/MobRob_Rover_NEW/Steering_Controller/MobRob_Steering_Controller/Dave/Generated/PIN_INTERRUPT\pin_interrupt.h **** typedef enum PIN_INTERRUPT_STATUS
 103:C:/GitHub/MobRob_Rover_NEW/Steering_Controller/MobRob_Steering_Controller/Dave/Generated/PIN_INTERRUPT\pin_interrupt.h **** {
 104:C:/GitHub/MobRob_Rover_NEW/Steering_Controller/MobRob_Steering_Controller/Dave/Generated/PIN_INTERRUPT\pin_interrupt.h ****   PIN_INTERRUPT_STATUS_SUCCESS = 0U,        /**<APP initialization is success */
 105:C:/GitHub/MobRob_Rover_NEW/Steering_Controller/MobRob_Steering_Controller/Dave/Generated/PIN_INTERRUPT\pin_interrupt.h ****   PIN_INTERRUPT_STATUS_FAILURE = 1U         /**<APP initialization is failure */
 106:C:/GitHub/MobRob_Rover_NEW/Steering_Controller/MobRob_Steering_Controller/Dave/Generated/PIN_INTERRUPT\pin_interrupt.h **** } PIN_INTERRUPT_STATUS_t;
 107:C:/GitHub/MobRob_Rover_NEW/Steering_Controller/MobRob_Steering_Controller/Dave/Generated/PIN_INTERRUPT\pin_interrupt.h **** 
 108:C:/GitHub/MobRob_Rover_NEW/Steering_Controller/MobRob_Steering_Controller/Dave/Generated/PIN_INTERRUPT\pin_interrupt.h **** 
 109:C:/GitHub/MobRob_Rover_NEW/Steering_Controller/MobRob_Steering_Controller/Dave/Generated/PIN_INTERRUPT\pin_interrupt.h **** /**
 110:C:/GitHub/MobRob_Rover_NEW/Steering_Controller/MobRob_Steering_Controller/Dave/Generated/PIN_INTERRUPT\pin_interrupt.h ****  * Defines trigger edge for the event generation by ETLx (Event Trigger Logic, x = [0 to 3]) unit, 
 111:C:/GitHub/MobRob_Rover_NEW/Steering_Controller/MobRob_Steering_Controller/Dave/Generated/PIN_INTERRUPT\pin_interrupt.h ****  * from ERSx(Event request source, x = [0 to 3]) unit.
 112:C:/GitHub/MobRob_Rover_NEW/Steering_Controller/MobRob_Steering_Controller/Dave/Generated/PIN_INTERRUPT\pin_interrupt.h ****  */
 113:C:/GitHub/MobRob_Rover_NEW/Steering_Controller/MobRob_Steering_Controller/Dave/Generated/PIN_INTERRUPT\pin_interrupt.h **** typedef enum PIN_INTERRUPT_EDGE
 114:C:/GitHub/MobRob_Rover_NEW/Steering_Controller/MobRob_Steering_Controller/Dave/Generated/PIN_INTERRUPT\pin_interrupt.h **** {
 115:C:/GitHub/MobRob_Rover_NEW/Steering_Controller/MobRob_Steering_Controller/Dave/Generated/PIN_INTERRUPT\pin_interrupt.h ****   PIN_INTERRUPT_EDGE_NONE = 0U, /**< no event enabled */
 116:C:/GitHub/MobRob_Rover_NEW/Steering_Controller/MobRob_Steering_Controller/Dave/Generated/PIN_INTERRUPT\pin_interrupt.h ****   PIN_INTERRUPT_EDGE_RISING = 1U,   /**< detection of rising edge generates the event */
 117:C:/GitHub/MobRob_Rover_NEW/Steering_Controller/MobRob_Steering_Controller/Dave/Generated/PIN_INTERRUPT\pin_interrupt.h ****   PIN_INTERRUPT_EDGE_FALLING = 2U,  /**< detection of falling edge generates the event */
 118:C:/GitHub/MobRob_Rover_NEW/Steering_Controller/MobRob_Steering_Controller/Dave/Generated/PIN_INTERRUPT\pin_interrupt.h ****   PIN_INTERRUPT_EDGE_BOTH = 3U      /**< detection of either edges generates the event */
 119:C:/GitHub/MobRob_Rover_NEW/Steering_Controller/MobRob_Steering_Controller/Dave/Generated/PIN_INTERRUPT\pin_interrupt.h **** } PIN_INTERRUPT_EDGE_t;
 120:C:/GitHub/MobRob_Rover_NEW/Steering_Controller/MobRob_Steering_Controller/Dave/Generated/PIN_INTERRUPT\pin_interrupt.h **** /**
 121:C:/GitHub/MobRob_Rover_NEW/Steering_Controller/MobRob_Steering_Controller/Dave/Generated/PIN_INTERRUPT\pin_interrupt.h ****  * @}
 122:C:/GitHub/MobRob_Rover_NEW/Steering_Controller/MobRob_Steering_Controller/Dave/Generated/PIN_INTERRUPT\pin_interrupt.h ****  */
 123:C:/GitHub/MobRob_Rover_NEW/Steering_Controller/MobRob_Steering_Controller/Dave/Generated/PIN_INTERRUPT\pin_interrupt.h **** 
 124:C:/GitHub/MobRob_Rover_NEW/Steering_Controller/MobRob_Steering_Controller/Dave/Generated/PIN_INTERRUPT\pin_interrupt.h **** /**************************************************************************************************
 125:C:/GitHub/MobRob_Rover_NEW/Steering_Controller/MobRob_Steering_Controller/Dave/Generated/PIN_INTERRUPT\pin_interrupt.h **** * DATA STRUCTURES
 126:C:/GitHub/MobRob_Rover_NEW/Steering_Controller/MobRob_Steering_Controller/Dave/Generated/PIN_INTERRUPT\pin_interrupt.h **** ***************************************************************************************************
 127:C:/GitHub/MobRob_Rover_NEW/Steering_Controller/MobRob_Steering_Controller/Dave/Generated/PIN_INTERRUPT\pin_interrupt.h **** /**
 128:C:/GitHub/MobRob_Rover_NEW/Steering_Controller/MobRob_Steering_Controller/Dave/Generated/PIN_INTERRUPT\pin_interrupt.h ****  * @ingroup PIN_INTERRUPT_datastructures
 129:C:/GitHub/MobRob_Rover_NEW/Steering_Controller/MobRob_Steering_Controller/Dave/Generated/PIN_INTERRUPT\pin_interrupt.h ****  * @{
 130:C:/GitHub/MobRob_Rover_NEW/Steering_Controller/MobRob_Steering_Controller/Dave/Generated/PIN_INTERRUPT\pin_interrupt.h ****  */
 131:C:/GitHub/MobRob_Rover_NEW/Steering_Controller/MobRob_Steering_Controller/Dave/Generated/PIN_INTERRUPT\pin_interrupt.h **** 
 132:C:/GitHub/MobRob_Rover_NEW/Steering_Controller/MobRob_Steering_Controller/Dave/Generated/PIN_INTERRUPT\pin_interrupt.h **** /**
 133:C:/GitHub/MobRob_Rover_NEW/Steering_Controller/MobRob_Steering_Controller/Dave/Generated/PIN_INTERRUPT\pin_interrupt.h ****  * @brief Configuration structure for PIN_INTERRUPT APP
 134:C:/GitHub/MobRob_Rover_NEW/Steering_Controller/MobRob_Steering_Controller/Dave/Generated/PIN_INTERRUPT\pin_interrupt.h ****  */
 135:C:/GitHub/MobRob_Rover_NEW/Steering_Controller/MobRob_Steering_Controller/Dave/Generated/PIN_INTERRUPT\pin_interrupt.h **** typedef struct PIN_INTERRUPT
 136:C:/GitHub/MobRob_Rover_NEW/Steering_Controller/MobRob_Steering_Controller/Dave/Generated/PIN_INTERRUPT\pin_interrupt.h **** {
 137:C:/GitHub/MobRob_Rover_NEW/Steering_Controller/MobRob_Steering_Controller/Dave/Generated/PIN_INTERRUPT\pin_interrupt.h ****   XMC_ERU_t *eru;  /**< Mapped ERU module */
 138:C:/GitHub/MobRob_Rover_NEW/Steering_Controller/MobRob_Steering_Controller/Dave/Generated/PIN_INTERRUPT\pin_interrupt.h ****   XMC_GPIO_PORT_t *port;  /**< Mapped port number */
 139:C:/GitHub/MobRob_Rover_NEW/Steering_Controller/MobRob_Steering_Controller/Dave/Generated/PIN_INTERRUPT\pin_interrupt.h ****   XMC_GPIO_CONFIG_t gpio_config;   /**< Initializes the input pin characteristics */
 140:C:/GitHub/MobRob_Rover_NEW/Steering_Controller/MobRob_Steering_Controller/Dave/Generated/PIN_INTERRUPT\pin_interrupt.h ****   XMC_ERU_ETL_CONFIG_t etl_config;  /**< reference to ERUx_ETLy (x = [0..1], y = [0..4])
 141:C:/GitHub/MobRob_Rover_NEW/Steering_Controller/MobRob_Steering_Controller/Dave/Generated/PIN_INTERRUPT\pin_interrupt.h ****                                                       module configuration */
 142:C:/GitHub/MobRob_Rover_NEW/Steering_Controller/MobRob_Steering_Controller/Dave/Generated/PIN_INTERRUPT\pin_interrupt.h **** #if (UC_SERIES == XMC14)
 143:C:/GitHub/MobRob_Rover_NEW/Steering_Controller/MobRob_Steering_Controller/Dave/Generated/PIN_INTERRUPT\pin_interrupt.h ****   XMC_SCU_IRQCTRL_t irqctrl;  /**< selects the interrupt source for a NVIC interrupt node*/
 144:C:/GitHub/MobRob_Rover_NEW/Steering_Controller/MobRob_Steering_Controller/Dave/Generated/PIN_INTERRUPT\pin_interrupt.h **** #endif
 145:C:/GitHub/MobRob_Rover_NEW/Steering_Controller/MobRob_Steering_Controller/Dave/Generated/PIN_INTERRUPT\pin_interrupt.h ****   IRQn_Type IRQn;       /**< Mapped NVIC Node */
 146:C:/GitHub/MobRob_Rover_NEW/Steering_Controller/MobRob_Steering_Controller/Dave/Generated/PIN_INTERRUPT\pin_interrupt.h ****   uint8_t irq_priority; 	  /**< Node Interrupt Priority */
 147:C:/GitHub/MobRob_Rover_NEW/Steering_Controller/MobRob_Steering_Controller/Dave/Generated/PIN_INTERRUPT\pin_interrupt.h **** #if (UC_FAMILY == XMC4)
 148:C:/GitHub/MobRob_Rover_NEW/Steering_Controller/MobRob_Steering_Controller/Dave/Generated/PIN_INTERRUPT\pin_interrupt.h ****   uint8_t irq_subpriority;  /**< Node Interrupt SubPriority only valid for XMC4x */
 149:C:/GitHub/MobRob_Rover_NEW/Steering_Controller/MobRob_Steering_Controller/Dave/Generated/PIN_INTERRUPT\pin_interrupt.h **** #endif
 150:C:/GitHub/MobRob_Rover_NEW/Steering_Controller/MobRob_Steering_Controller/Dave/Generated/PIN_INTERRUPT\pin_interrupt.h ****   uint8_t etl; /*< ETLx channel (x = [0..3])*/
 151:C:/GitHub/MobRob_Rover_NEW/Steering_Controller/MobRob_Steering_Controller/Dave/Generated/PIN_INTERRUPT\pin_interrupt.h ****   uint8_t ogu; /*< OGUy channel (y = [0..3])*/
 152:C:/GitHub/MobRob_Rover_NEW/Steering_Controller/MobRob_Steering_Controller/Dave/Generated/PIN_INTERRUPT\pin_interrupt.h ****   uint8_t pin; /*< Mapped pin number */
 153:C:/GitHub/MobRob_Rover_NEW/Steering_Controller/MobRob_Steering_Controller/Dave/Generated/PIN_INTERRUPT\pin_interrupt.h ****   bool enable_at_init;  /**< Interrupt enable for Node at initialization*/
 154:C:/GitHub/MobRob_Rover_NEW/Steering_Controller/MobRob_Steering_Controller/Dave/Generated/PIN_INTERRUPT\pin_interrupt.h **** } PIN_INTERRUPT_t;
 155:C:/GitHub/MobRob_Rover_NEW/Steering_Controller/MobRob_Steering_Controller/Dave/Generated/PIN_INTERRUPT\pin_interrupt.h **** /**
 156:C:/GitHub/MobRob_Rover_NEW/Steering_Controller/MobRob_Steering_Controller/Dave/Generated/PIN_INTERRUPT\pin_interrupt.h ****  * @}
 157:C:/GitHub/MobRob_Rover_NEW/Steering_Controller/MobRob_Steering_Controller/Dave/Generated/PIN_INTERRUPT\pin_interrupt.h ****  */
 158:C:/GitHub/MobRob_Rover_NEW/Steering_Controller/MobRob_Steering_Controller/Dave/Generated/PIN_INTERRUPT\pin_interrupt.h **** 
 159:C:/GitHub/MobRob_Rover_NEW/Steering_Controller/MobRob_Steering_Controller/Dave/Generated/PIN_INTERRUPT\pin_interrupt.h **** #ifdef __cplusplus
 160:C:/GitHub/MobRob_Rover_NEW/Steering_Controller/MobRob_Steering_Controller/Dave/Generated/PIN_INTERRUPT\pin_interrupt.h **** extern "C" {
 161:C:/GitHub/MobRob_Rover_NEW/Steering_Controller/MobRob_Steering_Controller/Dave/Generated/PIN_INTERRUPT\pin_interrupt.h **** #endif
 162:C:/GitHub/MobRob_Rover_NEW/Steering_Controller/MobRob_Steering_Controller/Dave/Generated/PIN_INTERRUPT\pin_interrupt.h **** /**************************************************************************************************
 163:C:/GitHub/MobRob_Rover_NEW/Steering_Controller/MobRob_Steering_Controller/Dave/Generated/PIN_INTERRUPT\pin_interrupt.h ****  * API Prototypes
 164:C:/GitHub/MobRob_Rover_NEW/Steering_Controller/MobRob_Steering_Controller/Dave/Generated/PIN_INTERRUPT\pin_interrupt.h ****  **************************************************************************************************
 165:C:/GitHub/MobRob_Rover_NEW/Steering_Controller/MobRob_Steering_Controller/Dave/Generated/PIN_INTERRUPT\pin_interrupt.h **** /**
 166:C:/GitHub/MobRob_Rover_NEW/Steering_Controller/MobRob_Steering_Controller/Dave/Generated/PIN_INTERRUPT\pin_interrupt.h ****  * @ingroup PIN_INTERRUPT_apidoc
 167:C:/GitHub/MobRob_Rover_NEW/Steering_Controller/MobRob_Steering_Controller/Dave/Generated/PIN_INTERRUPT\pin_interrupt.h ****  * @{
 168:C:/GitHub/MobRob_Rover_NEW/Steering_Controller/MobRob_Steering_Controller/Dave/Generated/PIN_INTERRUPT\pin_interrupt.h ****  */
 169:C:/GitHub/MobRob_Rover_NEW/Steering_Controller/MobRob_Steering_Controller/Dave/Generated/PIN_INTERRUPT\pin_interrupt.h **** /**
 170:C:/GitHub/MobRob_Rover_NEW/Steering_Controller/MobRob_Steering_Controller/Dave/Generated/PIN_INTERRUPT\pin_interrupt.h ****  * @brief Get PIN_INTERRUPT APP version
 171:C:/GitHub/MobRob_Rover_NEW/Steering_Controller/MobRob_Steering_Controller/Dave/Generated/PIN_INTERRUPT\pin_interrupt.h ****  * @return DAVE_APP_VERSION_t APP version information (major, minor and patch number)
 172:C:/GitHub/MobRob_Rover_NEW/Steering_Controller/MobRob_Steering_Controller/Dave/Generated/PIN_INTERRUPT\pin_interrupt.h ****  *
 173:C:/GitHub/MobRob_Rover_NEW/Steering_Controller/MobRob_Steering_Controller/Dave/Generated/PIN_INTERRUPT\pin_interrupt.h ****  * \par<b>Description: </b><br>
 174:C:/GitHub/MobRob_Rover_NEW/Steering_Controller/MobRob_Steering_Controller/Dave/Generated/PIN_INTERRUPT\pin_interrupt.h ****  * The function can be used to check application software compatibility with a
 175:C:/GitHub/MobRob_Rover_NEW/Steering_Controller/MobRob_Steering_Controller/Dave/Generated/PIN_INTERRUPT\pin_interrupt.h ****  * specific version of the APP.
 176:C:/GitHub/MobRob_Rover_NEW/Steering_Controller/MobRob_Steering_Controller/Dave/Generated/PIN_INTERRUPT\pin_interrupt.h ****  *
 177:C:/GitHub/MobRob_Rover_NEW/Steering_Controller/MobRob_Steering_Controller/Dave/Generated/PIN_INTERRUPT\pin_interrupt.h ****  * \par<b>Example Usage:</b><br>
 178:C:/GitHub/MobRob_Rover_NEW/Steering_Controller/MobRob_Steering_Controller/Dave/Generated/PIN_INTERRUPT\pin_interrupt.h ****  *
 179:C:/GitHub/MobRob_Rover_NEW/Steering_Controller/MobRob_Steering_Controller/Dave/Generated/PIN_INTERRUPT\pin_interrupt.h ****  * @code
 180:C:/GitHub/MobRob_Rover_NEW/Steering_Controller/MobRob_Steering_Controller/Dave/Generated/PIN_INTERRUPT\pin_interrupt.h ****  * #include "DAVE.h"
 181:C:/GitHub/MobRob_Rover_NEW/Steering_Controller/MobRob_Steering_Controller/Dave/Generated/PIN_INTERRUPT\pin_interrupt.h ****  *
 182:C:/GitHub/MobRob_Rover_NEW/Steering_Controller/MobRob_Steering_Controller/Dave/Generated/PIN_INTERRUPT\pin_interrupt.h ****  * int main(void) 
 183:C:/GitHub/MobRob_Rover_NEW/Steering_Controller/MobRob_Steering_Controller/Dave/Generated/PIN_INTERRUPT\pin_interrupt.h ****  * {
 184:C:/GitHub/MobRob_Rover_NEW/Steering_Controller/MobRob_Steering_Controller/Dave/Generated/PIN_INTERRUPT\pin_interrupt.h ****  *   DAVE_STATUS_t init_status;
 185:C:/GitHub/MobRob_Rover_NEW/Steering_Controller/MobRob_Steering_Controller/Dave/Generated/PIN_INTERRUPT\pin_interrupt.h ****  *   DAVE_APP_VERSION_t version;
 186:C:/GitHub/MobRob_Rover_NEW/Steering_Controller/MobRob_Steering_Controller/Dave/Generated/PIN_INTERRUPT\pin_interrupt.h ****  *
 187:C:/GitHub/MobRob_Rover_NEW/Steering_Controller/MobRob_Steering_Controller/Dave/Generated/PIN_INTERRUPT\pin_interrupt.h ****  *   // Initialize PIN_INTERRUPT APP:
 188:C:/GitHub/MobRob_Rover_NEW/Steering_Controller/MobRob_Steering_Controller/Dave/Generated/PIN_INTERRUPT\pin_interrupt.h ****  *   // PIN_INTERRUPT_Init() is called from within DAVE_Init().
 189:C:/GitHub/MobRob_Rover_NEW/Steering_Controller/MobRob_Steering_Controller/Dave/Generated/PIN_INTERRUPT\pin_interrupt.h ****  *   init_status = DAVE_Init();
 190:C:/GitHub/MobRob_Rover_NEW/Steering_Controller/MobRob_Steering_Controller/Dave/Generated/PIN_INTERRUPT\pin_interrupt.h ****  *
 191:C:/GitHub/MobRob_Rover_NEW/Steering_Controller/MobRob_Steering_Controller/Dave/Generated/PIN_INTERRUPT\pin_interrupt.h ****  *   if (DAVE_STATUS_SUCCESS == init_status)
 192:C:/GitHub/MobRob_Rover_NEW/Steering_Controller/MobRob_Steering_Controller/Dave/Generated/PIN_INTERRUPT\pin_interrupt.h ****  *   {
 193:C:/GitHub/MobRob_Rover_NEW/Steering_Controller/MobRob_Steering_Controller/Dave/Generated/PIN_INTERRUPT\pin_interrupt.h ****  *     version = PIN_INTERRUPT_GetAppVersion();
 194:C:/GitHub/MobRob_Rover_NEW/Steering_Controller/MobRob_Steering_Controller/Dave/Generated/PIN_INTERRUPT\pin_interrupt.h ****  *     if (version.major != 4U) {
 195:C:/GitHub/MobRob_Rover_NEW/Steering_Controller/MobRob_Steering_Controller/Dave/Generated/PIN_INTERRUPT\pin_interrupt.h ****  *       // Probably, not the right version.
 196:C:/GitHub/MobRob_Rover_NEW/Steering_Controller/MobRob_Steering_Controller/Dave/Generated/PIN_INTERRUPT\pin_interrupt.h ****  *     }
 197:C:/GitHub/MobRob_Rover_NEW/Steering_Controller/MobRob_Steering_Controller/Dave/Generated/PIN_INTERRUPT\pin_interrupt.h ****  *   }
 198:C:/GitHub/MobRob_Rover_NEW/Steering_Controller/MobRob_Steering_Controller/Dave/Generated/PIN_INTERRUPT\pin_interrupt.h ****  *
 199:C:/GitHub/MobRob_Rover_NEW/Steering_Controller/MobRob_Steering_Controller/Dave/Generated/PIN_INTERRUPT\pin_interrupt.h ****  *   // More code here
 200:C:/GitHub/MobRob_Rover_NEW/Steering_Controller/MobRob_Steering_Controller/Dave/Generated/PIN_INTERRUPT\pin_interrupt.h ****  *   while(1)
 201:C:/GitHub/MobRob_Rover_NEW/Steering_Controller/MobRob_Steering_Controller/Dave/Generated/PIN_INTERRUPT\pin_interrupt.h ****  *   {
 202:C:/GitHub/MobRob_Rover_NEW/Steering_Controller/MobRob_Steering_Controller/Dave/Generated/PIN_INTERRUPT\pin_interrupt.h ****  *   }
 203:C:/GitHub/MobRob_Rover_NEW/Steering_Controller/MobRob_Steering_Controller/Dave/Generated/PIN_INTERRUPT\pin_interrupt.h ****  *   return (1);
 204:C:/GitHub/MobRob_Rover_NEW/Steering_Controller/MobRob_Steering_Controller/Dave/Generated/PIN_INTERRUPT\pin_interrupt.h ****  * }
 205:C:/GitHub/MobRob_Rover_NEW/Steering_Controller/MobRob_Steering_Controller/Dave/Generated/PIN_INTERRUPT\pin_interrupt.h ****  * @endcode<BR>
 206:C:/GitHub/MobRob_Rover_NEW/Steering_Controller/MobRob_Steering_Controller/Dave/Generated/PIN_INTERRUPT\pin_interrupt.h ****  */
 207:C:/GitHub/MobRob_Rover_NEW/Steering_Controller/MobRob_Steering_Controller/Dave/Generated/PIN_INTERRUPT\pin_interrupt.h **** DAVE_APP_VERSION_t PIN_INTERRUPT_GetAppVersion(void);
 208:C:/GitHub/MobRob_Rover_NEW/Steering_Controller/MobRob_Steering_Controller/Dave/Generated/PIN_INTERRUPT\pin_interrupt.h **** 
 209:C:/GitHub/MobRob_Rover_NEW/Steering_Controller/MobRob_Steering_Controller/Dave/Generated/PIN_INTERRUPT\pin_interrupt.h **** /**
 210:C:/GitHub/MobRob_Rover_NEW/Steering_Controller/MobRob_Steering_Controller/Dave/Generated/PIN_INTERRUPT\pin_interrupt.h ****  * @brief Initializes a PIN_INTERRUPT APP instance
 211:C:/GitHub/MobRob_Rover_NEW/Steering_Controller/MobRob_Steering_Controller/Dave/Generated/PIN_INTERRUPT\pin_interrupt.h ****  * @param handle Pointer pointing to APP data structure. Refer @ref PIN_INTERRUPT_t for details.
 212:C:/GitHub/MobRob_Rover_NEW/Steering_Controller/MobRob_Steering_Controller/Dave/Generated/PIN_INTERRUPT\pin_interrupt.h ****  * @return
 213:C:/GitHub/MobRob_Rover_NEW/Steering_Controller/MobRob_Steering_Controller/Dave/Generated/PIN_INTERRUPT\pin_interrupt.h ****  *            PIN_INTERRUPT_STATUS_SUCCESS             : if initialization is successful\n
 214:C:/GitHub/MobRob_Rover_NEW/Steering_Controller/MobRob_Steering_Controller/Dave/Generated/PIN_INTERRUPT\pin_interrupt.h ****  *            PIN_INTERRUPT_STATUS_FAILURE             : if initialization is failed
 215:C:/GitHub/MobRob_Rover_NEW/Steering_Controller/MobRob_Steering_Controller/Dave/Generated/PIN_INTERRUPT\pin_interrupt.h ****  *
 216:C:/GitHub/MobRob_Rover_NEW/Steering_Controller/MobRob_Steering_Controller/Dave/Generated/PIN_INTERRUPT\pin_interrupt.h ****  * \par<b>Description:</b><br>
 217:C:/GitHub/MobRob_Rover_NEW/Steering_Controller/MobRob_Steering_Controller/Dave/Generated/PIN_INTERRUPT\pin_interrupt.h ****  * PIN_INTERRUPT_Init API is called during initialization of DAVE APPS. This API Initializes input 
 218:C:/GitHub/MobRob_Rover_NEW/Steering_Controller/MobRob_Steering_Controller/Dave/Generated/PIN_INTERRUPT\pin_interrupt.h ****  * ERU and OGU hardware module initialization, Configures NVIC node and its priority in order to ge
 219:C:/GitHub/MobRob_Rover_NEW/Steering_Controller/MobRob_Steering_Controller/Dave/Generated/PIN_INTERRUPT\pin_interrupt.h ****  *
 220:C:/GitHub/MobRob_Rover_NEW/Steering_Controller/MobRob_Steering_Controller/Dave/Generated/PIN_INTERRUPT\pin_interrupt.h ****  * \par<b>Example Usage:</b><br>
 221:C:/GitHub/MobRob_Rover_NEW/Steering_Controller/MobRob_Steering_Controller/Dave/Generated/PIN_INTERRUPT\pin_interrupt.h ****  *
 222:C:/GitHub/MobRob_Rover_NEW/Steering_Controller/MobRob_Steering_Controller/Dave/Generated/PIN_INTERRUPT\pin_interrupt.h ****  * @code
 223:C:/GitHub/MobRob_Rover_NEW/Steering_Controller/MobRob_Steering_Controller/Dave/Generated/PIN_INTERRUPT\pin_interrupt.h ****  * #include "DAVE.h"
 224:C:/GitHub/MobRob_Rover_NEW/Steering_Controller/MobRob_Steering_Controller/Dave/Generated/PIN_INTERRUPT\pin_interrupt.h ****  *
 225:C:/GitHub/MobRob_Rover_NEW/Steering_Controller/MobRob_Steering_Controller/Dave/Generated/PIN_INTERRUPT\pin_interrupt.h ****  * int main(void)
 226:C:/GitHub/MobRob_Rover_NEW/Steering_Controller/MobRob_Steering_Controller/Dave/Generated/PIN_INTERRUPT\pin_interrupt.h ****  * {
 227:C:/GitHub/MobRob_Rover_NEW/Steering_Controller/MobRob_Steering_Controller/Dave/Generated/PIN_INTERRUPT\pin_interrupt.h ****  *   DAVE_STATUS_t status;
 228:C:/GitHub/MobRob_Rover_NEW/Steering_Controller/MobRob_Steering_Controller/Dave/Generated/PIN_INTERRUPT\pin_interrupt.h ****  *
 229:C:/GitHub/MobRob_Rover_NEW/Steering_Controller/MobRob_Steering_Controller/Dave/Generated/PIN_INTERRUPT\pin_interrupt.h ****  *   status = DAVE_Init();  //  PIN_INTERRUPT_Init API is called during initialization of DAVE APPS
 230:C:/GitHub/MobRob_Rover_NEW/Steering_Controller/MobRob_Steering_Controller/Dave/Generated/PIN_INTERRUPT\pin_interrupt.h ****  *   if (DAVE_STATUS_SUCCESS == status)
 231:C:/GitHub/MobRob_Rover_NEW/Steering_Controller/MobRob_Steering_Controller/Dave/Generated/PIN_INTERRUPT\pin_interrupt.h ****  *   {
 232:C:/GitHub/MobRob_Rover_NEW/Steering_Controller/MobRob_Steering_Controller/Dave/Generated/PIN_INTERRUPT\pin_interrupt.h ****  *     // user code
 233:C:/GitHub/MobRob_Rover_NEW/Steering_Controller/MobRob_Steering_Controller/Dave/Generated/PIN_INTERRUPT\pin_interrupt.h ****  *
 234:C:/GitHub/MobRob_Rover_NEW/Steering_Controller/MobRob_Steering_Controller/Dave/Generated/PIN_INTERRUPT\pin_interrupt.h ****  *     while(1)
 235:C:/GitHub/MobRob_Rover_NEW/Steering_Controller/MobRob_Steering_Controller/Dave/Generated/PIN_INTERRUPT\pin_interrupt.h ****  *     {
 236:C:/GitHub/MobRob_Rover_NEW/Steering_Controller/MobRob_Steering_Controller/Dave/Generated/PIN_INTERRUPT\pin_interrupt.h ****  *
 237:C:/GitHub/MobRob_Rover_NEW/Steering_Controller/MobRob_Steering_Controller/Dave/Generated/PIN_INTERRUPT\pin_interrupt.h ****  *     }
 238:C:/GitHub/MobRob_Rover_NEW/Steering_Controller/MobRob_Steering_Controller/Dave/Generated/PIN_INTERRUPT\pin_interrupt.h ****  *   }
 239:C:/GitHub/MobRob_Rover_NEW/Steering_Controller/MobRob_Steering_Controller/Dave/Generated/PIN_INTERRUPT\pin_interrupt.h ****  *   return (1);
 240:C:/GitHub/MobRob_Rover_NEW/Steering_Controller/MobRob_Steering_Controller/Dave/Generated/PIN_INTERRUPT\pin_interrupt.h ****  * }
 241:C:/GitHub/MobRob_Rover_NEW/Steering_Controller/MobRob_Steering_Controller/Dave/Generated/PIN_INTERRUPT\pin_interrupt.h ****  *
 242:C:/GitHub/MobRob_Rover_NEW/Steering_Controller/MobRob_Steering_Controller/Dave/Generated/PIN_INTERRUPT\pin_interrupt.h ****  * @endcode<BR>
 243:C:/GitHub/MobRob_Rover_NEW/Steering_Controller/MobRob_Steering_Controller/Dave/Generated/PIN_INTERRUPT\pin_interrupt.h ****  */
 244:C:/GitHub/MobRob_Rover_NEW/Steering_Controller/MobRob_Steering_Controller/Dave/Generated/PIN_INTERRUPT\pin_interrupt.h **** PIN_INTERRUPT_STATUS_t PIN_INTERRUPT_Init(const PIN_INTERRUPT_t *const handle);
 245:C:/GitHub/MobRob_Rover_NEW/Steering_Controller/MobRob_Steering_Controller/Dave/Generated/PIN_INTERRUPT\pin_interrupt.h **** 
 246:C:/GitHub/MobRob_Rover_NEW/Steering_Controller/MobRob_Steering_Controller/Dave/Generated/PIN_INTERRUPT\pin_interrupt.h **** /**
 247:C:/GitHub/MobRob_Rover_NEW/Steering_Controller/MobRob_Steering_Controller/Dave/Generated/PIN_INTERRUPT\pin_interrupt.h ****  * @brief Enables the IRQ.
 248:C:/GitHub/MobRob_Rover_NEW/Steering_Controller/MobRob_Steering_Controller/Dave/Generated/PIN_INTERRUPT\pin_interrupt.h ****  * @param handle Pointer pointing to APP data structure. Refer @ref PIN_INTERRUPT_t for details.
 249:C:/GitHub/MobRob_Rover_NEW/Steering_Controller/MobRob_Steering_Controller/Dave/Generated/PIN_INTERRUPT\pin_interrupt.h ****  * @return None
 250:C:/GitHub/MobRob_Rover_NEW/Steering_Controller/MobRob_Steering_Controller/Dave/Generated/PIN_INTERRUPT\pin_interrupt.h ****  * <BR><P ALIGN="LEFT"><B>Example:</B>
 251:C:/GitHub/MobRob_Rover_NEW/Steering_Controller/MobRob_Steering_Controller/Dave/Generated/PIN_INTERRUPT\pin_interrupt.h ****  *
 252:C:/GitHub/MobRob_Rover_NEW/Steering_Controller/MobRob_Steering_Controller/Dave/Generated/PIN_INTERRUPT\pin_interrupt.h ****  * @code
 253:C:/GitHub/MobRob_Rover_NEW/Steering_Controller/MobRob_Steering_Controller/Dave/Generated/PIN_INTERRUPT\pin_interrupt.h ****  *  #include "DAVE.h"
 254:C:/GitHub/MobRob_Rover_NEW/Steering_Controller/MobRob_Steering_Controller/Dave/Generated/PIN_INTERRUPT\pin_interrupt.h ****  *
 255:C:/GitHub/MobRob_Rover_NEW/Steering_Controller/MobRob_Steering_Controller/Dave/Generated/PIN_INTERRUPT\pin_interrupt.h ****  *  int main(void)
 256:C:/GitHub/MobRob_Rover_NEW/Steering_Controller/MobRob_Steering_Controller/Dave/Generated/PIN_INTERRUPT\pin_interrupt.h ****  *  {
 257:C:/GitHub/MobRob_Rover_NEW/Steering_Controller/MobRob_Steering_Controller/Dave/Generated/PIN_INTERRUPT\pin_interrupt.h ****  *    DAVE_STATUS_t status;
 258:C:/GitHub/MobRob_Rover_NEW/Steering_Controller/MobRob_Steering_Controller/Dave/Generated/PIN_INTERRUPT\pin_interrupt.h ****  *
 259:C:/GitHub/MobRob_Rover_NEW/Steering_Controller/MobRob_Steering_Controller/Dave/Generated/PIN_INTERRUPT\pin_interrupt.h ****  *    status = DAVE_Init();  //  PIN_INTERRUPT_Init API is called during initialization of DAVE APP
 260:C:/GitHub/MobRob_Rover_NEW/Steering_Controller/MobRob_Steering_Controller/Dave/Generated/PIN_INTERRUPT\pin_interrupt.h ****  *    if (DAVE_STATUS_SUCCESS == status)
 261:C:/GitHub/MobRob_Rover_NEW/Steering_Controller/MobRob_Steering_Controller/Dave/Generated/PIN_INTERRUPT\pin_interrupt.h ****  *    {
 262:C:/GitHub/MobRob_Rover_NEW/Steering_Controller/MobRob_Steering_Controller/Dave/Generated/PIN_INTERRUPT\pin_interrupt.h ****  *      // user code
 263:C:/GitHub/MobRob_Rover_NEW/Steering_Controller/MobRob_Steering_Controller/Dave/Generated/PIN_INTERRUPT\pin_interrupt.h ****  *
 264:C:/GitHub/MobRob_Rover_NEW/Steering_Controller/MobRob_Steering_Controller/Dave/Generated/PIN_INTERRUPT\pin_interrupt.h ****  *      PIN_INTERRUPT_Enable(&PIN_INTERRUPT_0);
 265:C:/GitHub/MobRob_Rover_NEW/Steering_Controller/MobRob_Steering_Controller/Dave/Generated/PIN_INTERRUPT\pin_interrupt.h ****  *      while(1)
 266:C:/GitHub/MobRob_Rover_NEW/Steering_Controller/MobRob_Steering_Controller/Dave/Generated/PIN_INTERRUPT\pin_interrupt.h ****  *      {}
 267:C:/GitHub/MobRob_Rover_NEW/Steering_Controller/MobRob_Steering_Controller/Dave/Generated/PIN_INTERRUPT\pin_interrupt.h ****  *    }
 268:C:/GitHub/MobRob_Rover_NEW/Steering_Controller/MobRob_Steering_Controller/Dave/Generated/PIN_INTERRUPT\pin_interrupt.h ****  *
 269:C:/GitHub/MobRob_Rover_NEW/Steering_Controller/MobRob_Steering_Controller/Dave/Generated/PIN_INTERRUPT\pin_interrupt.h ****  *    return (1);
 270:C:/GitHub/MobRob_Rover_NEW/Steering_Controller/MobRob_Steering_Controller/Dave/Generated/PIN_INTERRUPT\pin_interrupt.h ****  *  }
 271:C:/GitHub/MobRob_Rover_NEW/Steering_Controller/MobRob_Steering_Controller/Dave/Generated/PIN_INTERRUPT\pin_interrupt.h ****  * @endcode<BR> </p>
 272:C:/GitHub/MobRob_Rover_NEW/Steering_Controller/MobRob_Steering_Controller/Dave/Generated/PIN_INTERRUPT\pin_interrupt.h ****  */
 273:C:/GitHub/MobRob_Rover_NEW/Steering_Controller/MobRob_Steering_Controller/Dave/Generated/PIN_INTERRUPT\pin_interrupt.h **** __STATIC_INLINE void PIN_INTERRUPT_Enable(const PIN_INTERRUPT_t *const handle)
 274:C:/GitHub/MobRob_Rover_NEW/Steering_Controller/MobRob_Steering_Controller/Dave/Generated/PIN_INTERRUPT\pin_interrupt.h **** {
 275:C:/GitHub/MobRob_Rover_NEW/Steering_Controller/MobRob_Steering_Controller/Dave/Generated/PIN_INTERRUPT\pin_interrupt.h ****   XMC_ASSERT("PIN_INTERRUPT_Enable: Handler null pointer", handle != NULL);
 276:C:/GitHub/MobRob_Rover_NEW/Steering_Controller/MobRob_Steering_Controller/Dave/Generated/PIN_INTERRUPT\pin_interrupt.h ****   NVIC_EnableIRQ(handle->IRQn);
 277:C:/GitHub/MobRob_Rover_NEW/Steering_Controller/MobRob_Steering_Controller/Dave/Generated/PIN_INTERRUPT\pin_interrupt.h **** }
 278:C:/GitHub/MobRob_Rover_NEW/Steering_Controller/MobRob_Steering_Controller/Dave/Generated/PIN_INTERRUPT\pin_interrupt.h **** 
 279:C:/GitHub/MobRob_Rover_NEW/Steering_Controller/MobRob_Steering_Controller/Dave/Generated/PIN_INTERRUPT\pin_interrupt.h **** /**
 280:C:/GitHub/MobRob_Rover_NEW/Steering_Controller/MobRob_Steering_Controller/Dave/Generated/PIN_INTERRUPT\pin_interrupt.h ****  * @brief Disables the IRQ.
 281:C:/GitHub/MobRob_Rover_NEW/Steering_Controller/MobRob_Steering_Controller/Dave/Generated/PIN_INTERRUPT\pin_interrupt.h ****  * @param handle Pointer pointing to APP data structure. Refer @ref PIN_INTERRUPT_t for details.
 282:C:/GitHub/MobRob_Rover_NEW/Steering_Controller/MobRob_Steering_Controller/Dave/Generated/PIN_INTERRUPT\pin_interrupt.h ****  * @return None
 283:C:/GitHub/MobRob_Rover_NEW/Steering_Controller/MobRob_Steering_Controller/Dave/Generated/PIN_INTERRUPT\pin_interrupt.h ****  * <BR><P ALIGN="LEFT"><B>Example:</B>
 284:C:/GitHub/MobRob_Rover_NEW/Steering_Controller/MobRob_Steering_Controller/Dave/Generated/PIN_INTERRUPT\pin_interrupt.h ****  *
 285:C:/GitHub/MobRob_Rover_NEW/Steering_Controller/MobRob_Steering_Controller/Dave/Generated/PIN_INTERRUPT\pin_interrupt.h ****  * @code
 286:C:/GitHub/MobRob_Rover_NEW/Steering_Controller/MobRob_Steering_Controller/Dave/Generated/PIN_INTERRUPT\pin_interrupt.h ****  *  #include "DAVE.h"
 287:C:/GitHub/MobRob_Rover_NEW/Steering_Controller/MobRob_Steering_Controller/Dave/Generated/PIN_INTERRUPT\pin_interrupt.h ****  *
 288:C:/GitHub/MobRob_Rover_NEW/Steering_Controller/MobRob_Steering_Controller/Dave/Generated/PIN_INTERRUPT\pin_interrupt.h ****  *  int main(void)
 289:C:/GitHub/MobRob_Rover_NEW/Steering_Controller/MobRob_Steering_Controller/Dave/Generated/PIN_INTERRUPT\pin_interrupt.h ****  *  {
 290:C:/GitHub/MobRob_Rover_NEW/Steering_Controller/MobRob_Steering_Controller/Dave/Generated/PIN_INTERRUPT\pin_interrupt.h ****  *
 291:C:/GitHub/MobRob_Rover_NEW/Steering_Controller/MobRob_Steering_Controller/Dave/Generated/PIN_INTERRUPT\pin_interrupt.h ****  *    DAVE_STATUS_t status;
 292:C:/GitHub/MobRob_Rover_NEW/Steering_Controller/MobRob_Steering_Controller/Dave/Generated/PIN_INTERRUPT\pin_interrupt.h ****  *
 293:C:/GitHub/MobRob_Rover_NEW/Steering_Controller/MobRob_Steering_Controller/Dave/Generated/PIN_INTERRUPT\pin_interrupt.h ****  *    status = DAVE_Init();  //  PIN_INTERRUPT_Init API is called during initialization of DAVE APP
 294:C:/GitHub/MobRob_Rover_NEW/Steering_Controller/MobRob_Steering_Controller/Dave/Generated/PIN_INTERRUPT\pin_interrupt.h ****  *    if(DAVE_STATUS_SUCCESS == status)
 295:C:/GitHub/MobRob_Rover_NEW/Steering_Controller/MobRob_Steering_Controller/Dave/Generated/PIN_INTERRUPT\pin_interrupt.h ****  *    {
 296:C:/GitHub/MobRob_Rover_NEW/Steering_Controller/MobRob_Steering_Controller/Dave/Generated/PIN_INTERRUPT\pin_interrupt.h ****  *      // user code
 297:C:/GitHub/MobRob_Rover_NEW/Steering_Controller/MobRob_Steering_Controller/Dave/Generated/PIN_INTERRUPT\pin_interrupt.h ****  *
 298:C:/GitHub/MobRob_Rover_NEW/Steering_Controller/MobRob_Steering_Controller/Dave/Generated/PIN_INTERRUPT\pin_interrupt.h ****  *      PIN_INTERRUPT_Disable(&PIN_INTERRUPT_0);
 299:C:/GitHub/MobRob_Rover_NEW/Steering_Controller/MobRob_Steering_Controller/Dave/Generated/PIN_INTERRUPT\pin_interrupt.h ****  *      while(1)
 300:C:/GitHub/MobRob_Rover_NEW/Steering_Controller/MobRob_Steering_Controller/Dave/Generated/PIN_INTERRUPT\pin_interrupt.h ****  *      {}
 301:C:/GitHub/MobRob_Rover_NEW/Steering_Controller/MobRob_Steering_Controller/Dave/Generated/PIN_INTERRUPT\pin_interrupt.h ****  *    }
 302:C:/GitHub/MobRob_Rover_NEW/Steering_Controller/MobRob_Steering_Controller/Dave/Generated/PIN_INTERRUPT\pin_interrupt.h ****  *
 303:C:/GitHub/MobRob_Rover_NEW/Steering_Controller/MobRob_Steering_Controller/Dave/Generated/PIN_INTERRUPT\pin_interrupt.h ****  *    return (1);
 304:C:/GitHub/MobRob_Rover_NEW/Steering_Controller/MobRob_Steering_Controller/Dave/Generated/PIN_INTERRUPT\pin_interrupt.h ****  *
 305:C:/GitHub/MobRob_Rover_NEW/Steering_Controller/MobRob_Steering_Controller/Dave/Generated/PIN_INTERRUPT\pin_interrupt.h ****  *  }
 306:C:/GitHub/MobRob_Rover_NEW/Steering_Controller/MobRob_Steering_Controller/Dave/Generated/PIN_INTERRUPT\pin_interrupt.h ****  * @endcode<BR> </p>
 307:C:/GitHub/MobRob_Rover_NEW/Steering_Controller/MobRob_Steering_Controller/Dave/Generated/PIN_INTERRUPT\pin_interrupt.h ****  */
 308:C:/GitHub/MobRob_Rover_NEW/Steering_Controller/MobRob_Steering_Controller/Dave/Generated/PIN_INTERRUPT\pin_interrupt.h **** __STATIC_INLINE void PIN_INTERRUPT_Disable(const PIN_INTERRUPT_t *const handle)
 309:C:/GitHub/MobRob_Rover_NEW/Steering_Controller/MobRob_Steering_Controller/Dave/Generated/PIN_INTERRUPT\pin_interrupt.h **** {
 310:C:/GitHub/MobRob_Rover_NEW/Steering_Controller/MobRob_Steering_Controller/Dave/Generated/PIN_INTERRUPT\pin_interrupt.h ****   XMC_ASSERT("PIN_INTERRUPT_Disable: Handler null pointer", handle != NULL);
 311:C:/GitHub/MobRob_Rover_NEW/Steering_Controller/MobRob_Steering_Controller/Dave/Generated/PIN_INTERRUPT\pin_interrupt.h ****   NVIC_DisableIRQ(handle->IRQn);
 312:C:/GitHub/MobRob_Rover_NEW/Steering_Controller/MobRob_Steering_Controller/Dave/Generated/PIN_INTERRUPT\pin_interrupt.h **** }
 313:C:/GitHub/MobRob_Rover_NEW/Steering_Controller/MobRob_Steering_Controller/Dave/Generated/PIN_INTERRUPT\pin_interrupt.h **** 
 314:C:/GitHub/MobRob_Rover_NEW/Steering_Controller/MobRob_Steering_Controller/Dave/Generated/PIN_INTERRUPT\pin_interrupt.h **** /**
 315:C:/GitHub/MobRob_Rover_NEW/Steering_Controller/MobRob_Steering_Controller/Dave/Generated/PIN_INTERRUPT\pin_interrupt.h **** * @brief Read input level of port pin.
 316:C:/GitHub/MobRob_Rover_NEW/Steering_Controller/MobRob_Steering_Controller/Dave/Generated/PIN_INTERRUPT\pin_interrupt.h **** * @param handle Pointer pointing to APP data structure. Refer @ref PIN_INTERRUPT_t for details.
 317:C:/GitHub/MobRob_Rover_NEW/Steering_Controller/MobRob_Steering_Controller/Dave/Generated/PIN_INTERRUPT\pin_interrupt.h **** * @return uint32_t input logic level. Range:0-1
 318:C:/GitHub/MobRob_Rover_NEW/Steering_Controller/MobRob_Steering_Controller/Dave/Generated/PIN_INTERRUPT\pin_interrupt.h **** *
 319:C:/GitHub/MobRob_Rover_NEW/Steering_Controller/MobRob_Steering_Controller/Dave/Generated/PIN_INTERRUPT\pin_interrupt.h **** * \par<b>Description:</b><br>
 320:C:/GitHub/MobRob_Rover_NEW/Steering_Controller/MobRob_Steering_Controller/Dave/Generated/PIN_INTERRUPT\pin_interrupt.h **** * This function reads the Pn_IN register and returns the current logical value at the GPIO pin.
 321:C:/GitHub/MobRob_Rover_NEW/Steering_Controller/MobRob_Steering_Controller/Dave/Generated/PIN_INTERRUPT\pin_interrupt.h **** *
 322:C:/GitHub/MobRob_Rover_NEW/Steering_Controller/MobRob_Steering_Controller/Dave/Generated/PIN_INTERRUPT\pin_interrupt.h **** *
 323:C:/GitHub/MobRob_Rover_NEW/Steering_Controller/MobRob_Steering_Controller/Dave/Generated/PIN_INTERRUPT\pin_interrupt.h **** * Example Usage:
 324:C:/GitHub/MobRob_Rover_NEW/Steering_Controller/MobRob_Steering_Controller/Dave/Generated/PIN_INTERRUPT\pin_interrupt.h **** * @code
 325:C:/GitHub/MobRob_Rover_NEW/Steering_Controller/MobRob_Steering_Controller/Dave/Generated/PIN_INTERRUPT\pin_interrupt.h **** * #include "DAVE.h"//Declarations from DAVE Code Generation (includes SFR declaration)
 326:C:/GitHub/MobRob_Rover_NEW/Steering_Controller/MobRob_Steering_Controller/Dave/Generated/PIN_INTERRUPT\pin_interrupt.h **** *
 327:C:/GitHub/MobRob_Rover_NEW/Steering_Controller/MobRob_Steering_Controller/Dave/Generated/PIN_INTERRUPT\pin_interrupt.h **** * int main(void)
 328:C:/GitHub/MobRob_Rover_NEW/Steering_Controller/MobRob_Steering_Controller/Dave/Generated/PIN_INTERRUPT\pin_interrupt.h **** * {
 329:C:/GitHub/MobRob_Rover_NEW/Steering_Controller/MobRob_Steering_Controller/Dave/Generated/PIN_INTERRUPT\pin_interrupt.h **** *   DAVE_STATUS_t status;
 330:C:/GitHub/MobRob_Rover_NEW/Steering_Controller/MobRob_Steering_Controller/Dave/Generated/PIN_INTERRUPT\pin_interrupt.h **** *   uint32_t pin_status;
 331:C:/GitHub/MobRob_Rover_NEW/Steering_Controller/MobRob_Steering_Controller/Dave/Generated/PIN_INTERRUPT\pin_interrupt.h **** *   status = DAVE_Init();   // (DAVE_STATUS_t)PIN_INTERRUPT_Init(&PIN_INTERRUPT_0) is called within
 332:C:/GitHub/MobRob_Rover_NEW/Steering_Controller/MobRob_Steering_Controller/Dave/Generated/PIN_INTERRUPT\pin_interrupt.h **** *   
 333:C:/GitHub/MobRob_Rover_NEW/Steering_Controller/MobRob_Steering_Controller/Dave/Generated/PIN_INTERRUPT\pin_interrupt.h **** *   if (status == DAVE_STATUS_SUCCESS)
 334:C:/GitHub/MobRob_Rover_NEW/Steering_Controller/MobRob_Steering_Controller/Dave/Generated/PIN_INTERRUPT\pin_interrupt.h **** *   {
 335:C:/GitHub/MobRob_Rover_NEW/Steering_Controller/MobRob_Steering_Controller/Dave/Generated/PIN_INTERRUPT\pin_interrupt.h **** *     XMC_DEBUG("DAVE Apps initialization success\n");
 336:C:/GitHub/MobRob_Rover_NEW/Steering_Controller/MobRob_Steering_Controller/Dave/Generated/PIN_INTERRUPT\pin_interrupt.h **** *   }
 337:C:/GitHub/MobRob_Rover_NEW/Steering_Controller/MobRob_Steering_Controller/Dave/Generated/PIN_INTERRUPT\pin_interrupt.h **** *   else
 338:C:/GitHub/MobRob_Rover_NEW/Steering_Controller/MobRob_Steering_Controller/Dave/Generated/PIN_INTERRUPT\pin_interrupt.h **** *   {
 339:C:/GitHub/MobRob_Rover_NEW/Steering_Controller/MobRob_Steering_Controller/Dave/Generated/PIN_INTERRUPT\pin_interrupt.h **** *     XMC_DEBUG(("DAVE Apps initialization failed with status %d\n", status));
 340:C:/GitHub/MobRob_Rover_NEW/Steering_Controller/MobRob_Steering_Controller/Dave/Generated/PIN_INTERRUPT\pin_interrupt.h **** *     while(1U)
 341:C:/GitHub/MobRob_Rover_NEW/Steering_Controller/MobRob_Steering_Controller/Dave/Generated/PIN_INTERRUPT\pin_interrupt.h **** *     {
 342:C:/GitHub/MobRob_Rover_NEW/Steering_Controller/MobRob_Steering_Controller/Dave/Generated/PIN_INTERRUPT\pin_interrupt.h **** *     }
 343:C:/GitHub/MobRob_Rover_NEW/Steering_Controller/MobRob_Steering_Controller/Dave/Generated/PIN_INTERRUPT\pin_interrupt.h **** *   }
 344:C:/GitHub/MobRob_Rover_NEW/Steering_Controller/MobRob_Steering_Controller/Dave/Generated/PIN_INTERRUPT\pin_interrupt.h **** *   //Placeholder for user application code. The while loop below can be replaced with user applica
 345:C:/GitHub/MobRob_Rover_NEW/Steering_Controller/MobRob_Steering_Controller/Dave/Generated/PIN_INTERRUPT\pin_interrupt.h **** *   while(1U)
 346:C:/GitHub/MobRob_Rover_NEW/Steering_Controller/MobRob_Steering_Controller/Dave/Generated/PIN_INTERRUPT\pin_interrupt.h **** *   {
 347:C:/GitHub/MobRob_Rover_NEW/Steering_Controller/MobRob_Steering_Controller/Dave/Generated/PIN_INTERRUPT\pin_interrupt.h **** *     pin_status = PIN_INTERRUPT_GetPinValue(&PIN_INTERRUPT_0);
 348:C:/GitHub/MobRob_Rover_NEW/Steering_Controller/MobRob_Steering_Controller/Dave/Generated/PIN_INTERRUPT\pin_interrupt.h **** *     if (pin_status == 1)
 349:C:/GitHub/MobRob_Rover_NEW/Steering_Controller/MobRob_Steering_Controller/Dave/Generated/PIN_INTERRUPT\pin_interrupt.h **** *     {
 350:C:/GitHub/MobRob_Rover_NEW/Steering_Controller/MobRob_Steering_Controller/Dave/Generated/PIN_INTERRUPT\pin_interrupt.h **** *       // Add application code here
 351:C:/GitHub/MobRob_Rover_NEW/Steering_Controller/MobRob_Steering_Controller/Dave/Generated/PIN_INTERRUPT\pin_interrupt.h **** *     }
 352:C:/GitHub/MobRob_Rover_NEW/Steering_Controller/MobRob_Steering_Controller/Dave/Generated/PIN_INTERRUPT\pin_interrupt.h **** *     else
 353:C:/GitHub/MobRob_Rover_NEW/Steering_Controller/MobRob_Steering_Controller/Dave/Generated/PIN_INTERRUPT\pin_interrupt.h **** *     {
 354:C:/GitHub/MobRob_Rover_NEW/Steering_Controller/MobRob_Steering_Controller/Dave/Generated/PIN_INTERRUPT\pin_interrupt.h **** *       // Add application code here
 355:C:/GitHub/MobRob_Rover_NEW/Steering_Controller/MobRob_Steering_Controller/Dave/Generated/PIN_INTERRUPT\pin_interrupt.h **** *     }
 356:C:/GitHub/MobRob_Rover_NEW/Steering_Controller/MobRob_Steering_Controller/Dave/Generated/PIN_INTERRUPT\pin_interrupt.h **** *   }
 357:C:/GitHub/MobRob_Rover_NEW/Steering_Controller/MobRob_Steering_Controller/Dave/Generated/PIN_INTERRUPT\pin_interrupt.h **** *   return (1);
 358:C:/GitHub/MobRob_Rover_NEW/Steering_Controller/MobRob_Steering_Controller/Dave/Generated/PIN_INTERRUPT\pin_interrupt.h **** * }
 359:C:/GitHub/MobRob_Rover_NEW/Steering_Controller/MobRob_Steering_Controller/Dave/Generated/PIN_INTERRUPT\pin_interrupt.h **** *  @endcode
 360:C:/GitHub/MobRob_Rover_NEW/Steering_Controller/MobRob_Steering_Controller/Dave/Generated/PIN_INTERRUPT\pin_interrupt.h **** */
 361:C:/GitHub/MobRob_Rover_NEW/Steering_Controller/MobRob_Steering_Controller/Dave/Generated/PIN_INTERRUPT\pin_interrupt.h **** __STATIC_INLINE uint32_t PIN_INTERRUPT_GetPinValue(const PIN_INTERRUPT_t *const handle)
 362:C:/GitHub/MobRob_Rover_NEW/Steering_Controller/MobRob_Steering_Controller/Dave/Generated/PIN_INTERRUPT\pin_interrupt.h **** {
 223              	 .loc 3 362 0
 224              	 .cfi_startproc
 225 0000 80B5     	 push {r7,lr}
 226              	.LCFI15:
 227              	 .cfi_def_cfa_offset 8
 228              	 .cfi_offset 7,-8
 229              	 .cfi_offset 14,-4
 230 0002 82B0     	 sub sp,sp,#8
 231              	.LCFI16:
 232              	 .cfi_def_cfa_offset 16
 233 0004 00AF     	 add r7,sp,#0
 234              	.LCFI17:
 235              	 .cfi_def_cfa_register 7
 236 0006 7860     	 str r0,[r7,#4]
 363:C:/GitHub/MobRob_Rover_NEW/Steering_Controller/MobRob_Steering_Controller/Dave/Generated/PIN_INTERRUPT\pin_interrupt.h ****   XMC_ASSERT("PIN_INTERRUPT_GetPinValue: Handler null pointer", handle != NULL);
 364:C:/GitHub/MobRob_Rover_NEW/Steering_Controller/MobRob_Steering_Controller/Dave/Generated/PIN_INTERRUPT\pin_interrupt.h ****   return (XMC_GPIO_GetInput(handle->port, handle->pin));
 237              	 .loc 3 364 0
 238 0008 7B68     	 ldr r3,[r7,#4]
 239 000a 5A68     	 ldr r2,[r3,#4]
 240 000c 7B68     	 ldr r3,[r7,#4]
 241 000e 9B7F     	 ldrb r3,[r3,#30]
 242 0010 101C     	 mov r0,r2
 243 0012 191C     	 mov r1,r3
 244 0014 FFF7FEFF 	 bl XMC_GPIO_GetInput
 245 0018 031C     	 mov r3,r0
 365:C:/GitHub/MobRob_Rover_NEW/Steering_Controller/MobRob_Steering_Controller/Dave/Generated/PIN_INTERRUPT\pin_interrupt.h **** }
 246              	 .loc 3 365 0
 247 001a 181C     	 mov r0,r3
 248 001c BD46     	 mov sp,r7
 249 001e 02B0     	 add sp,sp,#8
 250              	 
 251 0020 80BD     	 pop {r7,pc}
 252              	 .cfi_endproc
 253              	.LFE205:
 255              	 .global RC_Signal_OK
 256 0022 C046     	 .section .bss.RC_Signal_OK,"aw",%nobits
 259              	RC_Signal_OK:
 260 0000 00       	 .space 1
 261              	 .global RC_Signal_not_OK_counter
 262              	 .section .bss.RC_Signal_not_OK_counter,"aw",%nobits
 265              	RC_Signal_not_OK_counter:
 266 0000 00       	 .space 1
 267              	 .global captured_time_Steering
 268              	 .section .bss.captured_time_Steering,"aw",%nobits
 269              	 .align 2
 272              	captured_time_Steering:
 273 0000 00000000 	 .space 4
 274              	 .global captured_time_Speed
 275              	 .section .bss.captured_time_Speed,"aw",%nobits
 276              	 .align 2
 279              	captured_time_Speed:
 280 0000 00000000 	 .space 4
 281              	 .global RC_no_Speed_data_counter
 282              	 .section .bss.RC_no_Speed_data_counter,"aw",%nobits
 285              	RC_no_Speed_data_counter:
 286 0000 00       	 .space 1
 287              	 .global RC_no_Steering_data_counter
 288              	 .section .bss.RC_no_Steering_data_counter,"aw",%nobits
 291              	RC_no_Steering_data_counter:
 292 0000 00       	 .space 1
 293              	 .global RC_Speed
 294              	 .section .bss.RC_Speed,"aw",%nobits
 295              	 .align 2
 298              	RC_Speed:
 299 0000 00000000 	 .space 4
 300              	 .global RC_Steering
 301              	 .section .bss.RC_Steering,"aw",%nobits
 302              	 .align 2
 305              	RC_Steering:
 306 0000 00000000 	 .space 4
 307              	 .global RC_Speed_ns_to_mps
 308              	 .section .data.RC_Speed_ns_to_mps,"aw",%progbits
 309              	 .align 2
 312              	RC_Speed_ns_to_mps:
 313 0000 ACC5A735 	 .word 900187564
 314              	 .global RC_Steering_ns_to_deg
 315              	 .section .data.RC_Steering_ns_to_deg,"aw",%progbits
 316              	 .align 2
 319              	RC_Steering_ns_to_deg:
 320 0000 72335C39 	 .word 962343794
 321              	 .global RC_gear_100us_counter
 322              	 .section .bss.RC_gear_100us_counter,"aw",%nobits
 323              	 .align 2
 326              	RC_gear_100us_counter:
 327 0000 00000000 	 .space 4
 328              	 .global RC_AUX1_100us_counter
 329              	 .section .bss.RC_AUX1_100us_counter,"aw",%nobits
 330              	 .align 2
 333              	RC_AUX1_100us_counter:
 334 0000 00000000 	 .space 4
 335              	 .global RC_Gear_state
 336              	 .section .data.RC_Gear_state,"aw",%progbits
 339              	RC_Gear_state:
 340 0000 02       	 .byte 2
 341              	 .global RC_AUX1_state
 342              	 .section .data.RC_AUX1_state,"aw",%progbits
 345              	RC_AUX1_state:
 346 0000 02       	 .byte 2
 347              	 .global RC_Gear_duty
 348              	 .section .data.RC_Gear_duty,"aw",%progbits
 351              	RC_Gear_duty:
 352 0000 02       	 .byte 2
 353              	 .global RC_Gear_duty_OLD
 354              	 .section .data.RC_Gear_duty_OLD,"aw",%progbits
 357              	RC_Gear_duty_OLD:
 358 0000 02       	 .byte 2
 359              	 .global RC_AUX1_duty
 360              	 .section .data.RC_AUX1_duty,"aw",%progbits
 363              	RC_AUX1_duty:
 364 0000 02       	 .byte 2
 365              	 .global RC_Speed_Stop
 366              	 .section .data.RC_Speed_Stop,"aw",%progbits
 369              	RC_Speed_Stop:
 370 0000 01       	 .byte 1
 371              	 .section .text.IRQ8_Handler,"ax",%progbits
 372              	 .align 2
 373              	 .global IRQ8_Handler
 374              	 .code 16
 375              	 .thumb_func
 377              	IRQ8_Handler:
 378              	.LFB224:
 379              	 .file 4 "../RC_data_recive.c"
   1:../RC_data_recive.c **** /*
   2:../RC_data_recive.c ****  * RC_data_recive.c
   3:../RC_data_recive.c ****  *
   4:../RC_data_recive.c ****  *  Created on: 1 Jul 2022
   5:../RC_data_recive.c ****  *      Author: lukas
   6:../RC_data_recive.c ****  */
   7:../RC_data_recive.c **** #include "RC_data_recive.h"
   8:../RC_data_recive.c **** 
   9:../RC_data_recive.c **** 
  10:../RC_data_recive.c **** uint8_t RC_Signal_OK = 0, RC_Signal_not_OK_counter = 0; // 0 no ok 1 OK
  11:../RC_data_recive.c **** uint32_t  captured_time_Steering=0, captured_time_Speed=0;
  12:../RC_data_recive.c **** uint8_t RC_no_Speed_data_counter = 0, RC_no_Steering_data_counter = 0;
  13:../RC_data_recive.c **** float RC_Speed = 0, RC_Steering = 0;
  14:../RC_data_recive.c **** #define RC_NP_SPEED  1500000
  15:../RC_data_recive.c **** #define RC_NP_STEERING  1560000
  16:../RC_data_recive.c **** //uint32_t RC_NP_STEERING = 1500000;
  17:../RC_data_recive.c **** float RC_Speed_ns_to_mps = 0.00000125;
  18:../RC_data_recive.c **** float RC_Steering_ns_to_deg = 0.00021;
  19:../RC_data_recive.c **** 
  20:../RC_data_recive.c **** volatile uint32_t RC_gear_100us_counter = 0, RC_AUX1_100us_counter = 0;
  21:../RC_data_recive.c **** volatile uint8_t RC_Gear_state = 2, RC_AUX1_state = 2;
  22:../RC_data_recive.c **** volatile uint8_t RC_Gear_duty = 2, RC_Gear_duty_OLD =2, RC_AUX1_duty = 2;
  23:../RC_data_recive.c **** uint8_t RC_Speed_Stop = 1;
  24:../RC_data_recive.c **** 
  25:../RC_data_recive.c **** 
  26:../RC_data_recive.c **** void INTERRUPT_TIMER_10us_ISR(void){ // every 1ms so 10kHz
 380              	 .loc 4 26 0
 381              	 .cfi_startproc
 382 0000 80B5     	 push {r7,lr}
 383              	.LCFI18:
 384              	 .cfi_def_cfa_offset 8
 385              	 .cfi_offset 7,-8
 386              	 .cfi_offset 14,-4
 387 0002 00AF     	 add r7,sp,#0
 388              	.LCFI19:
 389              	 .cfi_def_cfa_register 7
  27:../RC_data_recive.c **** 	if(RC_Gear_state == 1)RC_gear_100us_counter ++;
 390              	 .loc 4 27 0
 391 0004 0A4B     	 ldr r3,.L12
 392 0006 1B78     	 ldrb r3,[r3]
 393 0008 DBB2     	 uxtb r3,r3
 394 000a 012B     	 cmp r3,#1
 395 000c 04D1     	 bne .L10
 396              	 .loc 4 27 0 is_stmt 0 discriminator 1
 397 000e 094B     	 ldr r3,.L12+4
 398 0010 1B68     	 ldr r3,[r3]
 399 0012 5A1C     	 add r2,r3,#1
 400 0014 074B     	 ldr r3,.L12+4
 401 0016 1A60     	 str r2,[r3]
 402              	.L10:
  28:../RC_data_recive.c **** 	if(RC_AUX1_state == 1)RC_AUX1_100us_counter ++;
 403              	 .loc 4 28 0 is_stmt 1
 404 0018 074B     	 ldr r3,.L12+8
 405 001a 1B78     	 ldrb r3,[r3]
 406 001c DBB2     	 uxtb r3,r3
 407 001e 012B     	 cmp r3,#1
 408 0020 04D1     	 bne .L9
 409              	 .loc 4 28 0 is_stmt 0 discriminator 1
 410 0022 064B     	 ldr r3,.L12+12
 411 0024 1B68     	 ldr r3,[r3]
 412 0026 5A1C     	 add r2,r3,#1
 413 0028 044B     	 ldr r3,.L12+12
 414 002a 1A60     	 str r2,[r3]
 415              	.L9:
  29:../RC_data_recive.c **** }
 416              	 .loc 4 29 0 is_stmt 1
 417 002c BD46     	 mov sp,r7
 418              	 
 419 002e 80BD     	 pop {r7,pc}
 420              	.L13:
 421              	 .align 2
 422              	.L12:
 423 0030 00000000 	 .word RC_Gear_state
 424 0034 00000000 	 .word RC_gear_100us_counter
 425 0038 00000000 	 .word RC_AUX1_state
 426 003c 00000000 	 .word RC_AUX1_100us_counter
 427              	 .cfi_endproc
 428              	.LFE224:
 430              	 .global __aeabi_ui2d
 431              	 .global __aeabi_dsub
 432              	 .global __aeabi_f2d
 433              	 .global __aeabi_dmul
 434              	 .global __aeabi_d2f
 435              	 .global __aeabi_dcmplt
 436              	 .global __aeabi_dcmpgt
 437              	 .global __aeabi_fcmplt
 438              	 .global __aeabi_fcmpgt
 439              	 .section .text.RC_Recive,"ax",%progbits
 440              	 .align 2
 441              	 .global RC_Recive
 442              	 .code 16
 443              	 .thumb_func
 445              	RC_Recive:
 446              	.LFB225:
  30:../RC_data_recive.c **** 
  31:../RC_data_recive.c **** 
  32:../RC_data_recive.c **** 
  33:../RC_data_recive.c **** void RC_Recive(void){
 447              	 .loc 4 33 0
 448              	 .cfi_startproc
 449 0000 F8B5     	 push {r3,r4,r5,r6,r7,lr}
 450              	.LCFI20:
 451              	 .cfi_def_cfa_offset 24
 452              	 .cfi_offset 3,-24
 453              	 .cfi_offset 4,-20
 454              	 .cfi_offset 5,-16
 455              	 .cfi_offset 6,-12
 456              	 .cfi_offset 7,-8
 457              	 .cfi_offset 14,-4
 458 0002 00AF     	 add r7,sp,#0
 459              	.LCFI21:
 460              	 .cfi_def_cfa_register 7
  34:../RC_data_recive.c **** 
  35:../RC_data_recive.c **** 	CAPTURE_Start(&CAPTURE_RC_Steering);
 461              	 .loc 4 35 0
 462 0004 784B     	 ldr r3,.L34
 463 0006 181C     	 mov r0,r3
 464 0008 FFF7FEFF 	 bl CAPTURE_Start
  36:../RC_data_recive.c **** 	CAPTURE_Start(&CAPTURE_RC_Speed);
 465              	 .loc 4 36 0
 466 000c 774B     	 ldr r3,.L34+4
 467 000e 181C     	 mov r0,r3
 468 0010 FFF7FEFF 	 bl CAPTURE_Start
  37:../RC_data_recive.c **** 
  38:../RC_data_recive.c **** 	CAPTURE_GetCapturedTimeInNanoSec(&CAPTURE_RC_Steering, &captured_time_Steering);
 469              	 .loc 4 38 0
 470 0014 744A     	 ldr r2,.L34
 471 0016 764B     	 ldr r3,.L34+8
 472 0018 101C     	 mov r0,r2
 473 001a 191C     	 mov r1,r3
 474 001c FFF7FEFF 	 bl CAPTURE_GetCapturedTimeInNanoSec
  39:../RC_data_recive.c **** 	CAPTURE_GetCapturedTimeInNanoSec(&CAPTURE_RC_Speed, &captured_time_Speed);
 475              	 .loc 4 39 0
 476 0020 724A     	 ldr r2,.L34+4
 477 0022 744B     	 ldr r3,.L34+12
 478 0024 101C     	 mov r0,r2
 479 0026 191C     	 mov r1,r3
 480 0028 FFF7FEFF 	 bl CAPTURE_GetCapturedTimeInNanoSec
  40:../RC_data_recive.c **** 
  41:../RC_data_recive.c **** 	if(RC_Speed_Stop == 1){
 481              	 .loc 4 41 0
 482 002c 724B     	 ldr r3,.L34+16
 483 002e 1B78     	 ldrb r3,[r3]
 484 0030 012B     	 cmp r3,#1
 485 0032 5CD1     	 bne .L15
  42:../RC_data_recive.c **** 		if((captured_time_Speed >= 1000000) && (captured_time_Speed <= 2000000)){
 486              	 .loc 4 42 0
 487 0034 6F4B     	 ldr r3,.L34+12
 488 0036 1B68     	 ldr r3,[r3]
 489 0038 704A     	 ldr r2,.L34+20
 490 003a 9342     	 cmp r3,r2
 491 003c 50D9     	 bls .L16
 492              	 .loc 4 42 0 is_stmt 0 discriminator 1
 493 003e 6D4B     	 ldr r3,.L34+12
 494 0040 1B68     	 ldr r3,[r3]
 495 0042 6F4A     	 ldr r2,.L34+24
 496 0044 9342     	 cmp r3,r2
 497 0046 4BD8     	 bhi .L16
  43:../RC_data_recive.c **** 		  RC_Speed = ((double)captured_time_Speed - RC_NP_SPEED) * RC_Speed_ns_to_mps; // form +-0.6m/s
 498              	 .loc 4 43 0 is_stmt 1
 499 0048 6A4B     	 ldr r3,.L34+12
 500 004a 1B68     	 ldr r3,[r3]
 501 004c 181C     	 mov r0,r3
 502 004e FFF7FEFF 	 bl __aeabi_ui2d
 503 0052 031C     	 mov r3,r0
 504 0054 0C1C     	 mov r4,r1
 505 0056 181C     	 mov r0,r3
 506 0058 211C     	 mov r1,r4
 507 005a 0022     	 mov r2,#0
 508 005c 694B     	 ldr r3,.L34+28
 509 005e FFF7FEFF 	 bl __aeabi_dsub
 510 0062 031C     	 mov r3,r0
 511 0064 0C1C     	 mov r4,r1
 512 0066 1D1C     	 mov r5,r3
 513 0068 261C     	 mov r6,r4
 514 006a 674B     	 ldr r3,.L34+32
 515 006c 1B68     	 ldr r3,[r3]
 516 006e 181C     	 add r0,r3,#0
 517 0070 FFF7FEFF 	 bl __aeabi_f2d
 518 0074 031C     	 mov r3,r0
 519 0076 0C1C     	 mov r4,r1
 520 0078 281C     	 mov r0,r5
 521 007a 311C     	 mov r1,r6
 522 007c 1A1C     	 mov r2,r3
 523 007e 231C     	 mov r3,r4
 524 0080 FFF7FEFF 	 bl __aeabi_dmul
 525 0084 031C     	 mov r3,r0
 526 0086 0C1C     	 mov r4,r1
 527 0088 181C     	 mov r0,r3
 528 008a 211C     	 mov r1,r4
 529 008c FFF7FEFF 	 bl __aeabi_d2f
 530 0090 021C     	 add r2,r0,#0
 531 0092 5E4B     	 ldr r3,.L34+36
 532 0094 1A60     	 str r2,[r3]
  44:../RC_data_recive.c **** 		  if((RC_Speed < 0.1) && (RC_Speed > -0.1)) RC_Speed = 0; // to have accutal 0
 533              	 .loc 4 44 0
 534 0096 5D4B     	 ldr r3,.L34+36
 535 0098 1B68     	 ldr r3,[r3]
 536 009a 181C     	 add r0,r3,#0
 537 009c FFF7FEFF 	 bl __aeabi_f2d
 538 00a0 031C     	 mov r3,r0
 539 00a2 0C1C     	 mov r4,r1
 540 00a4 181C     	 mov r0,r3
 541 00a6 211C     	 mov r1,r4
 542 00a8 594A     	 ldr r2,.L34+40
 543 00aa 5A4B     	 ldr r3,.L34+44
 544 00ac FFF7FEFF 	 bl __aeabi_dcmplt
 545 00b0 031E     	 sub r3,r0,#0
 546 00b2 11D0     	 beq .L17
 547              	 .loc 4 44 0 is_stmt 0 discriminator 1
 548 00b4 554B     	 ldr r3,.L34+36
 549 00b6 1B68     	 ldr r3,[r3]
 550 00b8 181C     	 add r0,r3,#0
 551 00ba FFF7FEFF 	 bl __aeabi_f2d
 552 00be 031C     	 mov r3,r0
 553 00c0 0C1C     	 mov r4,r1
 554 00c2 181C     	 mov r0,r3
 555 00c4 211C     	 mov r1,r4
 556 00c6 524A     	 ldr r2,.L34+40
 557 00c8 534B     	 ldr r3,.L34+48
 558 00ca FFF7FEFF 	 bl __aeabi_dcmpgt
 559 00ce 031E     	 sub r3,r0,#0
 560 00d0 02D0     	 beq .L17
 561              	 .loc 4 44 0 discriminator 2
 562 00d2 4E4B     	 ldr r3,.L34+36
 563 00d4 0022     	 mov r2,#0
 564 00d6 1A60     	 str r2,[r3]
 565              	.L17:
  45:../RC_data_recive.c **** 		  RC_no_Speed_data_counter = 0;
 566              	 .loc 4 45 0 is_stmt 1
 567 00d8 504B     	 ldr r3,.L34+52
 568 00da 0022     	 mov r2,#0
 569 00dc 1A70     	 strb r2,[r3]
 570 00de 09E0     	 b .L21
 571              	.L16:
  46:../RC_data_recive.c **** 		}
  47:../RC_data_recive.c **** 		else{
  48:../RC_data_recive.c **** 			RC_no_Speed_data_counter ++;
 572              	 .loc 4 48 0
 573 00e0 4E4B     	 ldr r3,.L34+52
 574 00e2 1B78     	 ldrb r3,[r3]
 575 00e4 0133     	 add r3,r3,#1
 576 00e6 DAB2     	 uxtb r2,r3
 577 00e8 4C4B     	 ldr r3,.L34+52
 578 00ea 1A70     	 strb r2,[r3]
 579 00ec 02E0     	 b .L21
 580              	.L15:
  49:../RC_data_recive.c **** 		}
  50:../RC_data_recive.c **** 	}
  51:../RC_data_recive.c **** 	else RC_Speed = 0;
 581              	 .loc 4 51 0
 582 00ee 474B     	 ldr r3,.L34+36
 583 00f0 0022     	 mov r2,#0
 584 00f2 1A60     	 str r2,[r3]
 585              	.L21:
  52:../RC_data_recive.c **** 
  53:../RC_data_recive.c **** 	if((captured_time_Steering >= 1000000) && (captured_time_Steering <= 2000000)){
 586              	 .loc 4 53 0
 587 00f4 3E4B     	 ldr r3,.L34+8
 588 00f6 1B68     	 ldr r3,[r3]
 589 00f8 404A     	 ldr r2,.L34+20
 590 00fa 9342     	 cmp r3,r2
 591 00fc 44D9     	 bls .L22
 592              	 .loc 4 53 0 is_stmt 0 discriminator 1
 593 00fe 3C4B     	 ldr r3,.L34+8
 594 0100 1B68     	 ldr r3,[r3]
 595 0102 3F4A     	 ldr r2,.L34+24
 596 0104 9342     	 cmp r3,r2
 597 0106 3FD8     	 bhi .L22
  54:../RC_data_recive.c **** 	  RC_Steering = (((double)captured_time_Steering - RC_NP_STEERING) * RC_Steering_ns_to_deg); // fo
 598              	 .loc 4 54 0 is_stmt 1
 599 0108 394B     	 ldr r3,.L34+8
 600 010a 1B68     	 ldr r3,[r3]
 601 010c 181C     	 mov r0,r3
 602 010e FFF7FEFF 	 bl __aeabi_ui2d
 603 0112 031C     	 mov r3,r0
 604 0114 0C1C     	 mov r4,r1
 605 0116 181C     	 mov r0,r3
 606 0118 211C     	 mov r1,r4
 607 011a 0022     	 mov r2,#0
 608 011c 404B     	 ldr r3,.L34+56
 609 011e FFF7FEFF 	 bl __aeabi_dsub
 610 0122 031C     	 mov r3,r0
 611 0124 0C1C     	 mov r4,r1
 612 0126 1D1C     	 mov r5,r3
 613 0128 261C     	 mov r6,r4
 614 012a 3E4B     	 ldr r3,.L34+60
 615 012c 1B68     	 ldr r3,[r3]
 616 012e 181C     	 add r0,r3,#0
 617 0130 FFF7FEFF 	 bl __aeabi_f2d
 618 0134 031C     	 mov r3,r0
 619 0136 0C1C     	 mov r4,r1
 620 0138 281C     	 mov r0,r5
 621 013a 311C     	 mov r1,r6
 622 013c 1A1C     	 mov r2,r3
 623 013e 231C     	 mov r3,r4
 624 0140 FFF7FEFF 	 bl __aeabi_dmul
 625 0144 031C     	 mov r3,r0
 626 0146 0C1C     	 mov r4,r1
 627 0148 181C     	 mov r0,r3
 628 014a 211C     	 mov r1,r4
 629 014c FFF7FEFF 	 bl __aeabi_d2f
 630 0150 021C     	 add r2,r0,#0
 631 0152 354B     	 ldr r3,.L34+64
 632 0154 1A60     	 str r2,[r3]
  55:../RC_data_recive.c **** 	  if((RC_Steering < 2) && (RC_Steering > -2)) RC_Steering = 0; // to have accutal 0
 633              	 .loc 4 55 0
 634 0156 344B     	 ldr r3,.L34+64
 635 0158 1B68     	 ldr r3,[r3]
 636 015a 181C     	 add r0,r3,#0
 637 015c 8021     	 mov r1,#128
 638 015e C905     	 lsl r1,r1,#23
 639 0160 FFF7FEFF 	 bl __aeabi_fcmplt
 640 0164 031E     	 sub r3,r0,#0
 641 0166 0BD0     	 beq .L23
 642              	 .loc 4 55 0 is_stmt 0 discriminator 1
 643 0168 2F4B     	 ldr r3,.L34+64
 644 016a 1B68     	 ldr r3,[r3]
 645 016c 181C     	 add r0,r3,#0
 646 016e C021     	 mov r1,#192
 647 0170 0906     	 lsl r1,r1,#24
 648 0172 FFF7FEFF 	 bl __aeabi_fcmpgt
 649 0176 031E     	 sub r3,r0,#0
 650 0178 02D0     	 beq .L23
 651              	 .loc 4 55 0 discriminator 2
 652 017a 2B4B     	 ldr r3,.L34+64
 653 017c 0022     	 mov r2,#0
 654 017e 1A60     	 str r2,[r3]
 655              	.L23:
  56:../RC_data_recive.c **** 	  RC_no_Steering_data_counter = 0;
 656              	 .loc 4 56 0 is_stmt 1
 657 0180 2A4B     	 ldr r3,.L34+68
 658 0182 0022     	 mov r2,#0
 659 0184 1A70     	 strb r2,[r3]
 660 0186 05E0     	 b .L26
 661              	.L22:
  57:../RC_data_recive.c **** 	}
  58:../RC_data_recive.c **** 	else{
  59:../RC_data_recive.c **** 	  RC_no_Steering_data_counter ++;
 662              	 .loc 4 59 0
 663 0188 284B     	 ldr r3,.L34+68
 664 018a 1B78     	 ldrb r3,[r3]
 665 018c 0133     	 add r3,r3,#1
 666 018e DAB2     	 uxtb r2,r3
 667 0190 264B     	 ldr r3,.L34+68
 668 0192 1A70     	 strb r2,[r3]
 669              	.L26:
  60:../RC_data_recive.c **** 	}
  61:../RC_data_recive.c **** 
  62:../RC_data_recive.c **** 	if(RC_no_Speed_data_counter > 20 || RC_no_Steering_data_counter > 20 ){ // internall values not ok
 670              	 .loc 4 62 0
 671 0194 214B     	 ldr r3,.L34+52
 672 0196 1B78     	 ldrb r3,[r3]
 673 0198 142B     	 cmp r3,#20
 674 019a 03D8     	 bhi .L27
 675              	 .loc 4 62 0 is_stmt 0 discriminator 1
 676 019c 234B     	 ldr r3,.L34+68
 677 019e 1B78     	 ldrb r3,[r3]
 678 01a0 142B     	 cmp r3,#20
 679 01a2 10D9     	 bls .L28
 680              	.L27:
  63:../RC_data_recive.c **** 	  DIGITAL_IO_SetOutputLow(&RC_no_data_LED);
 681              	 .loc 4 63 0 is_stmt 1
 682 01a4 224B     	 ldr r3,.L34+72
 683 01a6 181C     	 mov r0,r3
 684 01a8 FFF7FEFF 	 bl DIGITAL_IO_SetOutputLow
  64:../RC_data_recive.c **** 	  RC_no_Speed_data_counter = 20;
 685              	 .loc 4 64 0
 686 01ac 1B4B     	 ldr r3,.L34+52
 687 01ae 1422     	 mov r2,#20
 688 01b0 1A70     	 strb r2,[r3]
  65:../RC_data_recive.c **** 	  RC_no_Steering_data_counter = 20;
 689              	 .loc 4 65 0
 690 01b2 1E4B     	 ldr r3,.L34+68
 691 01b4 1422     	 mov r2,#20
 692 01b6 1A70     	 strb r2,[r3]
  66:../RC_data_recive.c **** 
  67:../RC_data_recive.c **** 	  //set gobal vars 0
  68:../RC_data_recive.c **** 	  Driving_speed = 0;
 693              	 .loc 4 68 0
 694 01b8 1E4B     	 ldr r3,.L34+76
 695 01ba 0022     	 mov r2,#0
 696 01bc 1A60     	 str r2,[r3]
  69:../RC_data_recive.c **** 	  Steering_direction = 0;
 697              	 .loc 4 69 0
 698 01be 1E4B     	 ldr r3,.L34+80
 699 01c0 0022     	 mov r2,#0
 700 01c2 1A60     	 str r2,[r3]
 701 01c4 0BE0     	 b .L29
 702              	.L28:
  70:../RC_data_recive.c **** 	}
  71:../RC_data_recive.c **** 	else{ // values filternig
  72:../RC_data_recive.c **** 	  DIGITAL_IO_SetOutputHigh(&RC_no_data_LED);
 703              	 .loc 4 72 0
 704 01c6 1A4B     	 ldr r3,.L34+72
 705 01c8 181C     	 mov r0,r3
 706 01ca FFF7FEFF 	 bl DIGITAL_IO_SetOutputHigh
  73:../RC_data_recive.c **** 
  74:../RC_data_recive.c **** 	  //set gobal vars stanart
  75:../RC_data_recive.c **** 	  Driving_speed = RC_Speed;
 707              	 .loc 4 75 0
 708 01ce 0F4B     	 ldr r3,.L34+36
 709 01d0 1A68     	 ldr r2,[r3]
 710 01d2 184B     	 ldr r3,.L34+76
 711 01d4 1A60     	 str r2,[r3]
  76:../RC_data_recive.c **** 	  Steering_direction = RC_Steering;
 712              	 .loc 4 76 0
 713 01d6 144B     	 ldr r3,.L34+64
 714 01d8 1A68     	 ldr r2,[r3]
 715 01da 174B     	 ldr r3,.L34+80
 716 01dc 1A60     	 str r2,[r3]
 717              	.L29:
  77:../RC_data_recive.c **** 	}
  78:../RC_data_recive.c **** 
  79:../RC_data_recive.c **** 	New_Input = 1; //goalb var to tell it that there in new data to calculate
 718              	 .loc 4 79 0
 719 01de 174B     	 ldr r3,.L34+84
 720 01e0 0122     	 mov r2,#1
 721 01e2 1A70     	 strb r2,[r3]
  80:../RC_data_recive.c **** }
 722              	 .loc 4 80 0
 723 01e4 BD46     	 mov sp,r7
 724              	 
 725 01e6 F8BD     	 pop {r3,r4,r5,r6,r7,pc}
 726              	.L35:
 727              	 .align 2
 728              	.L34:
 729 01e8 00000000 	 .word CAPTURE_RC_Steering
 730 01ec 00000000 	 .word CAPTURE_RC_Speed
 731 01f0 00000000 	 .word captured_time_Steering
 732 01f4 00000000 	 .word captured_time_Speed
 733 01f8 00000000 	 .word RC_Speed_Stop
 734 01fc 3F420F00 	 .word 999999
 735 0200 80841E00 	 .word 2000000
 736 0204 60E33641 	 .word 1094116192
 737 0208 00000000 	 .word RC_Speed_ns_to_mps
 738 020c 00000000 	 .word RC_Speed
 739 0210 9A999999 	 .word -1717986918
 740 0214 9999B93F 	 .word 1069128089
 741 0218 9999B9BF 	 .word -1078355559
 742 021c 00000000 	 .word RC_no_Speed_data_counter
 743 0220 C0CD3741 	 .word 1094176192
 744 0224 00000000 	 .word RC_Steering_ns_to_deg
 745 0228 00000000 	 .word RC_Steering
 746 022c 00000000 	 .word RC_no_Steering_data_counter
 747 0230 00000000 	 .word RC_no_data_LED
 748 0234 00000000 	 .word Driving_speed
 749 0238 00000000 	 .word Steering_direction
 750 023c 00000000 	 .word New_Input
 751              	 .cfi_endproc
 752              	.LFE225:
 754              	 .section .text.IRQ12_Handler,"ax",%progbits
 755              	 .align 2
 756              	 .global IRQ12_Handler
 757              	 .code 16
 758              	 .thumb_func
 760              	IRQ12_Handler:
 761              	.LFB226:
  81:../RC_data_recive.c **** 
  82:../RC_data_recive.c **** void RC_Connected_ISR(void){
 762              	 .loc 4 82 0
 763              	 .cfi_startproc
 764 0000 80B5     	 push {r7,lr}
 765              	.LCFI22:
 766              	 .cfi_def_cfa_offset 8
 767              	 .cfi_offset 7,-8
 768              	 .cfi_offset 14,-4
 769 0002 82B0     	 sub sp,sp,#8
 770              	.LCFI23:
 771              	 .cfi_def_cfa_offset 16
 772 0004 00AF     	 add r7,sp,#0
 773              	.LCFI24:
 774              	 .cfi_def_cfa_register 7
  83:../RC_data_recive.c **** 
  84:../RC_data_recive.c **** 	if(RC_controll == 1){
 775              	 .loc 4 84 0
 776 0006 314B     	 ldr r3,.L45
 777 0008 1B78     	 ldrb r3,[r3]
 778 000a DBB2     	 uxtb r3,r3
 779 000c 012B     	 cmp r3,#1
 780 000e 59D1     	 bne .L36
  85:../RC_data_recive.c **** 
  86:../RC_data_recive.c **** 		RC_Gear_state =  PIN_INTERRUPT_GetPinValue(&RC_Connected); // pin haig or low
 781              	 .loc 4 86 0
 782 0010 2F4B     	 ldr r3,.L45+4
 783 0012 181C     	 mov r0,r3
 784 0014 FFF7FEFF 	 bl PIN_INTERRUPT_GetPinValue
 785 0018 031C     	 mov r3,r0
 786 001a DAB2     	 uxtb r2,r3
 787 001c 2D4B     	 ldr r3,.L45+8
 788 001e 1A70     	 strb r2,[r3]
  87:../RC_data_recive.c **** 
  88:../RC_data_recive.c **** 		if(RC_Gear_state == 0){// do nothing during high
 789              	 .loc 4 88 0
 790 0020 2C4B     	 ldr r3,.L45+8
 791 0022 1B78     	 ldrb r3,[r3]
 792 0024 DBB2     	 uxtb r3,r3
 793 0026 002B     	 cmp r3,#0
 794 0028 4CD1     	 bne .L36
 795              	.LBB2:
  89:../RC_data_recive.c **** 
  90:../RC_data_recive.c **** 			RC_Recive(); // get speed and steering data
 796              	 .loc 4 90 0
 797 002a FFF7FEFF 	 bl RC_Recive
  91:../RC_data_recive.c **** 
  92:../RC_data_recive.c **** 			uint32_t RC_Gear_on_time_100us = RC_gear_100us_counter;
 798              	 .loc 4 92 0
 799 002e 2A4B     	 ldr r3,.L45+12
 800 0030 1B68     	 ldr r3,[r3]
 801 0032 7B60     	 str r3,[r7,#4]
  93:../RC_data_recive.c **** 			RC_gear_100us_counter = 0;
 802              	 .loc 4 93 0
 803 0034 284B     	 ldr r3,.L45+12
 804 0036 0022     	 mov r2,#0
 805 0038 1A60     	 str r2,[r3]
  94:../RC_data_recive.c **** 
  95:../RC_data_recive.c **** 			if((80 < RC_Gear_on_time_100us) && (RC_Gear_on_time_100us < 150)) RC_Gear_duty= 0;
 806              	 .loc 4 95 0
 807 003a 7B68     	 ldr r3,[r7,#4]
 808 003c 502B     	 cmp r3,#80
 809 003e 06D9     	 bls .L38
 810              	 .loc 4 95 0 is_stmt 0 discriminator 1
 811 0040 7B68     	 ldr r3,[r7,#4]
 812 0042 952B     	 cmp r3,#149
 813 0044 03D8     	 bhi .L38
 814              	 .loc 4 95 0 discriminator 2
 815 0046 254B     	 ldr r3,.L45+16
 816 0048 0022     	 mov r2,#0
 817 004a 1A70     	 strb r2,[r3]
 818 004c 0CE0     	 b .L39
 819              	.L38:
  96:../RC_data_recive.c **** 			else if ((150 < RC_Gear_on_time_100us) && (RC_Gear_on_time_100us < 210)) RC_Gear_duty = 1;
 820              	 .loc 4 96 0 is_stmt 1
 821 004e 7B68     	 ldr r3,[r7,#4]
 822 0050 962B     	 cmp r3,#150
 823 0052 06D9     	 bls .L40
 824              	 .loc 4 96 0 is_stmt 0 discriminator 1
 825 0054 7B68     	 ldr r3,[r7,#4]
 826 0056 D12B     	 cmp r3,#209
 827 0058 03D8     	 bhi .L40
 828              	 .loc 4 96 0 discriminator 2
 829 005a 204B     	 ldr r3,.L45+16
 830 005c 0122     	 mov r2,#1
 831 005e 1A70     	 strb r2,[r3]
 832 0060 02E0     	 b .L39
 833              	.L40:
  97:../RC_data_recive.c **** 			else RC_Gear_duty = 2;
 834              	 .loc 4 97 0 is_stmt 1
 835 0062 1E4B     	 ldr r3,.L45+16
 836 0064 0222     	 mov r2,#2
 837 0066 1A70     	 strb r2,[r3]
 838              	.L39:
  98:../RC_data_recive.c **** 
  99:../RC_data_recive.c **** 
 100:../RC_data_recive.c **** 			if(modeswitch_colldown == 0){
 839              	 .loc 4 100 0
 840 0068 1D4B     	 ldr r3,.L45+20
 841 006a 1B78     	 ldrb r3,[r3]
 842 006c DBB2     	 uxtb r3,r3
 843 006e 002B     	 cmp r3,#0
 844 0070 1CD1     	 bne .L41
 101:../RC_data_recive.c **** 				if(RC_Gear_duty == 0 && RC_Gear_duty_OLD == 1){
 845              	 .loc 4 101 0
 846 0072 1A4B     	 ldr r3,.L45+16
 847 0074 1B78     	 ldrb r3,[r3]
 848 0076 DBB2     	 uxtb r3,r3
 849 0078 002B     	 cmp r3,#0
 850 007a 1ED1     	 bne .L44
 851              	 .loc 4 101 0 is_stmt 0 discriminator 1
 852 007c 194B     	 ldr r3,.L45+24
 853 007e 1B78     	 ldrb r3,[r3]
 854 0080 DBB2     	 uxtb r3,r3
 855 0082 012B     	 cmp r3,#1
 856 0084 19D1     	 bne .L44
 102:../RC_data_recive.c **** 					Steering_mode ++;
 857              	 .loc 4 102 0 is_stmt 1
 858 0086 184B     	 ldr r3,.L45+28
 859 0088 1B78     	 ldrb r3,[r3]
 860 008a DBB2     	 uxtb r3,r3
 861 008c 0133     	 add r3,r3,#1
 862 008e DAB2     	 uxtb r2,r3
 863 0090 154B     	 ldr r3,.L45+28
 864 0092 1A70     	 strb r2,[r3]
 103:../RC_data_recive.c **** 					if(Steering_mode > 5)Steering_mode = 0;
 865              	 .loc 4 103 0
 866 0094 144B     	 ldr r3,.L45+28
 867 0096 1B78     	 ldrb r3,[r3]
 868 0098 DBB2     	 uxtb r3,r3
 869 009a 052B     	 cmp r3,#5
 870 009c 02D9     	 bls .L43
 871              	 .loc 4 103 0 is_stmt 0 discriminator 1
 872 009e 124B     	 ldr r3,.L45+28
 873 00a0 0022     	 mov r2,#0
 874 00a2 1A70     	 strb r2,[r3]
 875              	.L43:
 104:../RC_data_recive.c **** 					modeswitch_colldown = 10;
 876              	 .loc 4 104 0 is_stmt 1
 877 00a4 0E4B     	 ldr r3,.L45+20
 878 00a6 0A22     	 mov r2,#10
 879 00a8 1A70     	 strb r2,[r3]
 880 00aa 06E0     	 b .L44
 881              	.L41:
 105:../RC_data_recive.c **** 				}
 106:../RC_data_recive.c **** 			}
 107:../RC_data_recive.c **** 			else modeswitch_colldown--;
 882              	 .loc 4 107 0
 883 00ac 0C4B     	 ldr r3,.L45+20
 884 00ae 1B78     	 ldrb r3,[r3]
 885 00b0 DBB2     	 uxtb r3,r3
 886 00b2 013B     	 sub r3,r3,#1
 887 00b4 DAB2     	 uxtb r2,r3
 888 00b6 0A4B     	 ldr r3,.L45+20
 889 00b8 1A70     	 strb r2,[r3]
 890              	.L44:
 108:../RC_data_recive.c **** 			RC_Gear_duty_OLD = RC_Gear_duty;
 891              	 .loc 4 108 0
 892 00ba 084B     	 ldr r3,.L45+16
 893 00bc 1B78     	 ldrb r3,[r3]
 894 00be DAB2     	 uxtb r2,r3
 895 00c0 084B     	 ldr r3,.L45+24
 896 00c2 1A70     	 strb r2,[r3]
 897              	.L36:
 898              	.LBE2:
 109:../RC_data_recive.c **** 		}
 110:../RC_data_recive.c **** 	}
 111:../RC_data_recive.c **** }
 899              	 .loc 4 111 0
 900 00c4 BD46     	 mov sp,r7
 901 00c6 02B0     	 add sp,sp,#8
 902              	 
 903 00c8 80BD     	 pop {r7,pc}
 904              	.L46:
 905 00ca C046     	 .align 2
 906              	.L45:
 907 00cc 00000000 	 .word RC_controll
 908 00d0 00000000 	 .word RC_Connected
 909 00d4 00000000 	 .word RC_Gear_state
 910 00d8 00000000 	 .word RC_gear_100us_counter
 911 00dc 00000000 	 .word RC_Gear_duty
 912 00e0 00000000 	 .word modeswitch_colldown
 913 00e4 00000000 	 .word RC_Gear_duty_OLD
 914 00e8 00000000 	 .word Steering_mode
 915              	 .cfi_endproc
 916              	.LFE226:
 918              	 .section .text.IRQ6_Handler,"ax",%progbits
 919              	 .align 2
 920              	 .global IRQ6_Handler
 921              	 .code 16
 922              	 .thumb_func
 924              	IRQ6_Handler:
 925              	.LFB227:
 112:../RC_data_recive.c **** 
 113:../RC_data_recive.c **** void RC_AUX1_ISR(void){
 926              	 .loc 4 113 0
 927              	 .cfi_startproc
 928 0000 80B5     	 push {r7,lr}
 929              	.LCFI25:
 930              	 .cfi_def_cfa_offset 8
 931              	 .cfi_offset 7,-8
 932              	 .cfi_offset 14,-4
 933 0002 82B0     	 sub sp,sp,#8
 934              	.LCFI26:
 935              	 .cfi_def_cfa_offset 16
 936 0004 00AF     	 add r7,sp,#0
 937              	.LCFI27:
 938              	 .cfi_def_cfa_register 7
 114:../RC_data_recive.c **** 	if(RC_controll == 1){
 939              	 .loc 4 114 0
 940 0006 1F4B     	 ldr r3,.L53
 941 0008 1B78     	 ldrb r3,[r3]
 942 000a DBB2     	 uxtb r3,r3
 943 000c 012B     	 cmp r3,#1
 944 000e 35D1     	 bne .L47
 115:../RC_data_recive.c **** 		RC_AUX1_state =  PIN_INTERRUPT_GetPinValue(&RC_AUX1); // pin haig or low
 945              	 .loc 4 115 0
 946 0010 1D4B     	 ldr r3,.L53+4
 947 0012 181C     	 mov r0,r3
 948 0014 FFF7FEFF 	 bl PIN_INTERRUPT_GetPinValue
 949 0018 031C     	 mov r3,r0
 950 001a DAB2     	 uxtb r2,r3
 951 001c 1B4B     	 ldr r3,.L53+8
 952 001e 1A70     	 strb r2,[r3]
 116:../RC_data_recive.c **** 
 117:../RC_data_recive.c **** 		if(RC_AUX1_state == 0){// do nothing during high
 953              	 .loc 4 117 0
 954 0020 1A4B     	 ldr r3,.L53+8
 955 0022 1B78     	 ldrb r3,[r3]
 956 0024 DBB2     	 uxtb r3,r3
 957 0026 002B     	 cmp r3,#0
 958 0028 28D1     	 bne .L47
 959              	.LBB3:
 118:../RC_data_recive.c **** 			uint32_t RC_AUX1_on_time_100us = RC_AUX1_100us_counter;
 960              	 .loc 4 118 0
 961 002a 194B     	 ldr r3,.L53+12
 962 002c 1B68     	 ldr r3,[r3]
 963 002e 7B60     	 str r3,[r7,#4]
 119:../RC_data_recive.c **** 			RC_AUX1_100us_counter = 0;
 964              	 .loc 4 119 0
 965 0030 174B     	 ldr r3,.L53+12
 966 0032 0022     	 mov r2,#0
 967 0034 1A60     	 str r2,[r3]
 120:../RC_data_recive.c **** 
 121:../RC_data_recive.c **** 			if((80 < RC_AUX1_on_time_100us) && (RC_AUX1_on_time_100us < 150)) RC_AUX1_duty= 0;
 968              	 .loc 4 121 0
 969 0036 7B68     	 ldr r3,[r7,#4]
 970 0038 502B     	 cmp r3,#80
 971 003a 06D9     	 bls .L49
 972              	 .loc 4 121 0 is_stmt 0 discriminator 1
 973 003c 7B68     	 ldr r3,[r7,#4]
 974 003e 952B     	 cmp r3,#149
 975 0040 03D8     	 bhi .L49
 976              	 .loc 4 121 0 discriminator 2
 977 0042 144B     	 ldr r3,.L53+16
 978 0044 0022     	 mov r2,#0
 979 0046 1A70     	 strb r2,[r3]
 980 0048 0CE0     	 b .L50
 981              	.L49:
 122:../RC_data_recive.c **** 			else if ((150 < RC_AUX1_on_time_100us) && (RC_AUX1_on_time_100us < 210)) RC_AUX1_duty = 1;
 982              	 .loc 4 122 0 is_stmt 1
 983 004a 7B68     	 ldr r3,[r7,#4]
 984 004c 962B     	 cmp r3,#150
 985 004e 06D9     	 bls .L51
 986              	 .loc 4 122 0 is_stmt 0 discriminator 1
 987 0050 7B68     	 ldr r3,[r7,#4]
 988 0052 D12B     	 cmp r3,#209
 989 0054 03D8     	 bhi .L51
 990              	 .loc 4 122 0 discriminator 2
 991 0056 0F4B     	 ldr r3,.L53+16
 992 0058 0122     	 mov r2,#1
 993 005a 1A70     	 strb r2,[r3]
 994 005c 02E0     	 b .L50
 995              	.L51:
 123:../RC_data_recive.c **** 			else RC_AUX1_duty = 2;
 996              	 .loc 4 123 0 is_stmt 1
 997 005e 0D4B     	 ldr r3,.L53+16
 998 0060 0222     	 mov r2,#2
 999 0062 1A70     	 strb r2,[r3]
 1000              	.L50:
 124:../RC_data_recive.c **** 
 125:../RC_data_recive.c **** 
 126:../RC_data_recive.c **** 			if(RC_AUX1_duty == 1)RC_Speed_Stop = 1;
 1001              	 .loc 4 126 0
 1002 0064 0B4B     	 ldr r3,.L53+16
 1003 0066 1B78     	 ldrb r3,[r3]
 1004 0068 DBB2     	 uxtb r3,r3
 1005 006a 012B     	 cmp r3,#1
 1006 006c 03D1     	 bne .L52
 1007              	 .loc 4 126 0 is_stmt 0 discriminator 1
 1008 006e 0A4B     	 ldr r3,.L53+20
 1009 0070 0122     	 mov r2,#1
 1010 0072 1A70     	 strb r2,[r3]
 1011 0074 02E0     	 b .L47
 1012              	.L52:
 127:../RC_data_recive.c **** 			else RC_Speed_Stop = 0;
 1013              	 .loc 4 127 0 is_stmt 1
 1014 0076 084B     	 ldr r3,.L53+20
 1015 0078 0022     	 mov r2,#0
 1016 007a 1A70     	 strb r2,[r3]
 1017              	.L47:
 1018              	.LBE3:
 128:../RC_data_recive.c **** 		}
 129:../RC_data_recive.c **** 	}
 130:../RC_data_recive.c **** }
 1019              	 .loc 4 130 0
 1020 007c BD46     	 mov sp,r7
 1021 007e 02B0     	 add sp,sp,#8
 1022              	 
 1023 0080 80BD     	 pop {r7,pc}
 1024              	.L54:
 1025 0082 C046     	 .align 2
 1026              	.L53:
 1027 0084 00000000 	 .word RC_controll
 1028 0088 00000000 	 .word RC_AUX1
 1029 008c 00000000 	 .word RC_AUX1_state
 1030 0090 00000000 	 .word RC_AUX1_100us_counter
 1031 0094 00000000 	 .word RC_AUX1_duty
 1032 0098 00000000 	 .word RC_Speed_Stop
 1033              	 .cfi_endproc
 1034              	.LFE227:
 1036              	 .text
 1037              	.Letext0:
 1038              	 .file 5 "c:\\dave\\dave-ide-4.4.2-64bit\\dave-ide-4.4.2-64bit\\eclipse\\arm-gcc-49\\arm-none-eabi\\include\\machine\\_default_types.h"
 1039              	 .file 6 "c:\\dave\\dave-ide-4.4.2-64bit\\dave-ide-4.4.2-64bit\\eclipse\\arm-gcc-49\\arm-none-eabi\\include\\stdint.h"
 1040              	 .file 7 "C:/GitHub/MobRob_Rover_NEW/Steering_Controller/MobRob_Steering_Controller/Libraries/CMSIS/Infineon/XMC1400_series/Include/XMC1400.h"
 1041              	 .file 8 "../Globals.h"
 1042              	 .file 9 "C:/GitHub/MobRob_Rover_NEW/Steering_Controller/MobRob_Steering_Controller/Libraries/XMCLib/inc/xmc1_scu.h"
 1043              	 .file 10 "C:/GitHub/MobRob_Rover_NEW/Steering_Controller/MobRob_Steering_Controller/Libraries/XMCLib/inc/xmc1_gpio.h"
 1044              	 .file 11 "C:/GitHub/MobRob_Rover_NEW/Steering_Controller/MobRob_Steering_Controller/Libraries/XMCLib/inc/xmc_ccu4.h"
 1045              	 .file 12 "C:/GitHub/MobRob_Rover_NEW/Steering_Controller/MobRob_Steering_Controller/Dave/Generated/GLOBAL_CCU4/global_ccu4.h"
 1046              	 .file 13 "C:/GitHub/MobRob_Rover_NEW/Steering_Controller/MobRob_Steering_Controller/Dave/Generated/CAPTURE/capture.h"
 1047              	 .file 14 "C:/GitHub/MobRob_Rover_NEW/Steering_Controller/MobRob_Steering_Controller/Libraries/XMCLib/inc/xmc_eru.h"
 1048              	 .file 15 "C:/GitHub/MobRob_Rover_NEW/Steering_Controller/MobRob_Steering_Controller/Libraries/CMSIS/Include/cmsis_gcc.h"
 1049              	 .file 16 "C:/GitHub/MobRob_Rover_NEW/Steering_Controller/MobRob_Steering_Controller/Libraries/CMSIS/Infineon/XMC1400_series/Include/system_XMC1400.h"
 1050              	 .file 17 "C:/GitHub/MobRob_Rover_NEW/Steering_Controller/MobRob_Steering_Controller/Dave/Generated/CAPTURE/capture_extern.h"
 1051              	 .file 18 "C:/GitHub/MobRob_Rover_NEW/Steering_Controller/MobRob_Steering_Controller/Dave/Generated/DIGITAL_IO/digital_io_extern.h"
 1052              	 .file 19 "C:/GitHub/MobRob_Rover_NEW/Steering_Controller/MobRob_Steering_Controller/Dave/Generated/PIN_INTERRUPT/pin_interrupt_extern.h"