   1              	 .cpu cortex-m0
   2              	 .fpu softvfp
   3              	 .eabi_attribute 20,1
   4              	 .eabi_attribute 21,1
   5              	 .eabi_attribute 23,3
   6              	 .eabi_attribute 24,1
   7              	 .eabi_attribute 25,1
   8              	 .eabi_attribute 26,1
   9              	 .eabi_attribute 30,6
  10              	 .eabi_attribute 34,0
  11              	 .eabi_attribute 18,4
  12              	 .code 16
  13              	 .file "main.c"
  14              	 .text
  15              	.Ltext0:
  16              	 .cfi_sections .debug_frame
  17              	 .section .text.XMC_GPIO_SetOutputHigh,"ax",%progbits
  18              	 .align 2
  19              	 .code 16
  20              	 .thumb_func
  22              	XMC_GPIO_SetOutputHigh:
  23              	.LFB122:
  24              	 .file 1 "C:/GitHub/MobRob_Rover_NEW/Ultrasonic_Sensor_Node/Ultrasonic_XMC_1400_Dynamic/Libraries/XMCLib/inc/xmc_gpio.h"
   1:C:/GitHub/MobRob_Rover_NEW/Ultrasonic_Sensor_Node/Ultrasonic_XMC_1400_Dynamic/Libraries/XMCLib/inc\xmc_gpio.h **** /**
   2:C:/GitHub/MobRob_Rover_NEW/Ultrasonic_Sensor_Node/Ultrasonic_XMC_1400_Dynamic/Libraries/XMCLib/inc\xmc_gpio.h ****  * @file xmc_gpio.h
   3:C:/GitHub/MobRob_Rover_NEW/Ultrasonic_Sensor_Node/Ultrasonic_XMC_1400_Dynamic/Libraries/XMCLib/inc\xmc_gpio.h ****  * @date 2015-06-20
   4:C:/GitHub/MobRob_Rover_NEW/Ultrasonic_Sensor_Node/Ultrasonic_XMC_1400_Dynamic/Libraries/XMCLib/inc\xmc_gpio.h ****  *
   5:C:/GitHub/MobRob_Rover_NEW/Ultrasonic_Sensor_Node/Ultrasonic_XMC_1400_Dynamic/Libraries/XMCLib/inc\xmc_gpio.h ****  * @cond
   6:C:/GitHub/MobRob_Rover_NEW/Ultrasonic_Sensor_Node/Ultrasonic_XMC_1400_Dynamic/Libraries/XMCLib/inc\xmc_gpio.h ****  *****************************************************************************
   7:C:/GitHub/MobRob_Rover_NEW/Ultrasonic_Sensor_Node/Ultrasonic_XMC_1400_Dynamic/Libraries/XMCLib/inc\xmc_gpio.h ****  * XMClib v2.2.0 - XMC Peripheral Driver Library
   8:C:/GitHub/MobRob_Rover_NEW/Ultrasonic_Sensor_Node/Ultrasonic_XMC_1400_Dynamic/Libraries/XMCLib/inc\xmc_gpio.h ****  *
   9:C:/GitHub/MobRob_Rover_NEW/Ultrasonic_Sensor_Node/Ultrasonic_XMC_1400_Dynamic/Libraries/XMCLib/inc\xmc_gpio.h ****  * Copyright (c) 2015-2020, Infineon Technologies AG
  10:C:/GitHub/MobRob_Rover_NEW/Ultrasonic_Sensor_Node/Ultrasonic_XMC_1400_Dynamic/Libraries/XMCLib/inc\xmc_gpio.h ****  * All rights reserved.
  11:C:/GitHub/MobRob_Rover_NEW/Ultrasonic_Sensor_Node/Ultrasonic_XMC_1400_Dynamic/Libraries/XMCLib/inc\xmc_gpio.h ****  *
  12:C:/GitHub/MobRob_Rover_NEW/Ultrasonic_Sensor_Node/Ultrasonic_XMC_1400_Dynamic/Libraries/XMCLib/inc\xmc_gpio.h ****  * Boost Software License - Version 1.0 - August 17th, 2003
  13:C:/GitHub/MobRob_Rover_NEW/Ultrasonic_Sensor_Node/Ultrasonic_XMC_1400_Dynamic/Libraries/XMCLib/inc\xmc_gpio.h ****  *
  14:C:/GitHub/MobRob_Rover_NEW/Ultrasonic_Sensor_Node/Ultrasonic_XMC_1400_Dynamic/Libraries/XMCLib/inc\xmc_gpio.h ****  * Permission is hereby granted, free of charge, to any person or organization
  15:C:/GitHub/MobRob_Rover_NEW/Ultrasonic_Sensor_Node/Ultrasonic_XMC_1400_Dynamic/Libraries/XMCLib/inc\xmc_gpio.h ****  * obtaining a copy of the software and accompanying documentation covered by
  16:C:/GitHub/MobRob_Rover_NEW/Ultrasonic_Sensor_Node/Ultrasonic_XMC_1400_Dynamic/Libraries/XMCLib/inc\xmc_gpio.h ****  * this license (the "Software") to use, reproduce, display, distribute,
  17:C:/GitHub/MobRob_Rover_NEW/Ultrasonic_Sensor_Node/Ultrasonic_XMC_1400_Dynamic/Libraries/XMCLib/inc\xmc_gpio.h ****  * execute, and transmit the Software, and to prepare derivative works of the
  18:C:/GitHub/MobRob_Rover_NEW/Ultrasonic_Sensor_Node/Ultrasonic_XMC_1400_Dynamic/Libraries/XMCLib/inc\xmc_gpio.h ****  * Software, and to permit third-parties to whom the Software is furnished to
  19:C:/GitHub/MobRob_Rover_NEW/Ultrasonic_Sensor_Node/Ultrasonic_XMC_1400_Dynamic/Libraries/XMCLib/inc\xmc_gpio.h ****  * do so, all subject to the following:
  20:C:/GitHub/MobRob_Rover_NEW/Ultrasonic_Sensor_Node/Ultrasonic_XMC_1400_Dynamic/Libraries/XMCLib/inc\xmc_gpio.h ****  *
  21:C:/GitHub/MobRob_Rover_NEW/Ultrasonic_Sensor_Node/Ultrasonic_XMC_1400_Dynamic/Libraries/XMCLib/inc\xmc_gpio.h ****  * The copyright notices in the Software and this entire statement, including
  22:C:/GitHub/MobRob_Rover_NEW/Ultrasonic_Sensor_Node/Ultrasonic_XMC_1400_Dynamic/Libraries/XMCLib/inc\xmc_gpio.h ****  * the above license grant, this restriction and the following disclaimer,
  23:C:/GitHub/MobRob_Rover_NEW/Ultrasonic_Sensor_Node/Ultrasonic_XMC_1400_Dynamic/Libraries/XMCLib/inc\xmc_gpio.h ****  * must be included in all copies of the Software, in whole or in part, and
  24:C:/GitHub/MobRob_Rover_NEW/Ultrasonic_Sensor_Node/Ultrasonic_XMC_1400_Dynamic/Libraries/XMCLib/inc\xmc_gpio.h ****  * all derivative works of the Software, unless such copies or derivative
  25:C:/GitHub/MobRob_Rover_NEW/Ultrasonic_Sensor_Node/Ultrasonic_XMC_1400_Dynamic/Libraries/XMCLib/inc\xmc_gpio.h ****  * works are solely in the form of machine-executable object code generated by
  26:C:/GitHub/MobRob_Rover_NEW/Ultrasonic_Sensor_Node/Ultrasonic_XMC_1400_Dynamic/Libraries/XMCLib/inc\xmc_gpio.h ****  * a source language processor.
  27:C:/GitHub/MobRob_Rover_NEW/Ultrasonic_Sensor_Node/Ultrasonic_XMC_1400_Dynamic/Libraries/XMCLib/inc\xmc_gpio.h ****  *
  28:C:/GitHub/MobRob_Rover_NEW/Ultrasonic_Sensor_Node/Ultrasonic_XMC_1400_Dynamic/Libraries/XMCLib/inc\xmc_gpio.h ****  * THE SOFTWARE IS PROVIDED "AS IS", WITHOUT WARRANTY OF ANY KIND, EXPRESS OR
  29:C:/GitHub/MobRob_Rover_NEW/Ultrasonic_Sensor_Node/Ultrasonic_XMC_1400_Dynamic/Libraries/XMCLib/inc\xmc_gpio.h ****  * IMPLIED, INCLUDING BUT NOT LIMITED TO THE WARRANTIES OF MERCHANTABILITY,
  30:C:/GitHub/MobRob_Rover_NEW/Ultrasonic_Sensor_Node/Ultrasonic_XMC_1400_Dynamic/Libraries/XMCLib/inc\xmc_gpio.h ****  * FITNESS FOR A PARTICULAR PURPOSE, TITLE AND NON-INFRINGEMENT. IN NO EVENT
  31:C:/GitHub/MobRob_Rover_NEW/Ultrasonic_Sensor_Node/Ultrasonic_XMC_1400_Dynamic/Libraries/XMCLib/inc\xmc_gpio.h ****  * SHALL THE COPYRIGHT HOLDERS OR ANYONE DISTRIBUTING THE SOFTWARE BE LIABLE
  32:C:/GitHub/MobRob_Rover_NEW/Ultrasonic_Sensor_Node/Ultrasonic_XMC_1400_Dynamic/Libraries/XMCLib/inc\xmc_gpio.h ****  * FOR ANY DAMAGES OR OTHER LIABILITY, WHETHER IN CONTRACT, TORT OR OTHERWISE,
  33:C:/GitHub/MobRob_Rover_NEW/Ultrasonic_Sensor_Node/Ultrasonic_XMC_1400_Dynamic/Libraries/XMCLib/inc\xmc_gpio.h ****  * ARISING FROM, OUT OF OR IN CONNECTION WITH THE SOFTWARE OR THE USE OR OTHER
  34:C:/GitHub/MobRob_Rover_NEW/Ultrasonic_Sensor_Node/Ultrasonic_XMC_1400_Dynamic/Libraries/XMCLib/inc\xmc_gpio.h ****  * DEALINGS IN THE SOFTWARE.
  35:C:/GitHub/MobRob_Rover_NEW/Ultrasonic_Sensor_Node/Ultrasonic_XMC_1400_Dynamic/Libraries/XMCLib/inc\xmc_gpio.h ****  *
  36:C:/GitHub/MobRob_Rover_NEW/Ultrasonic_Sensor_Node/Ultrasonic_XMC_1400_Dynamic/Libraries/XMCLib/inc\xmc_gpio.h ****  * To improve the quality of the software, users are encouraged to share
  37:C:/GitHub/MobRob_Rover_NEW/Ultrasonic_Sensor_Node/Ultrasonic_XMC_1400_Dynamic/Libraries/XMCLib/inc\xmc_gpio.h ****  * modifications, enhancements or bug fixes with Infineon Technologies AG
  38:C:/GitHub/MobRob_Rover_NEW/Ultrasonic_Sensor_Node/Ultrasonic_XMC_1400_Dynamic/Libraries/XMCLib/inc\xmc_gpio.h ****  * at XMCSupport@infineon.com.
  39:C:/GitHub/MobRob_Rover_NEW/Ultrasonic_Sensor_Node/Ultrasonic_XMC_1400_Dynamic/Libraries/XMCLib/inc\xmc_gpio.h ****  *****************************************************************************
  40:C:/GitHub/MobRob_Rover_NEW/Ultrasonic_Sensor_Node/Ultrasonic_XMC_1400_Dynamic/Libraries/XMCLib/inc\xmc_gpio.h ****  *
  41:C:/GitHub/MobRob_Rover_NEW/Ultrasonic_Sensor_Node/Ultrasonic_XMC_1400_Dynamic/Libraries/XMCLib/inc\xmc_gpio.h ****  * Change History
  42:C:/GitHub/MobRob_Rover_NEW/Ultrasonic_Sensor_Node/Ultrasonic_XMC_1400_Dynamic/Libraries/XMCLib/inc\xmc_gpio.h ****  * --------------
  43:C:/GitHub/MobRob_Rover_NEW/Ultrasonic_Sensor_Node/Ultrasonic_XMC_1400_Dynamic/Libraries/XMCLib/inc\xmc_gpio.h ****  *
  44:C:/GitHub/MobRob_Rover_NEW/Ultrasonic_Sensor_Node/Ultrasonic_XMC_1400_Dynamic/Libraries/XMCLib/inc\xmc_gpio.h ****  * 2015-02-20:
  45:C:/GitHub/MobRob_Rover_NEW/Ultrasonic_Sensor_Node/Ultrasonic_XMC_1400_Dynamic/Libraries/XMCLib/inc\xmc_gpio.h ****  *     - Initial draft<br>
  46:C:/GitHub/MobRob_Rover_NEW/Ultrasonic_Sensor_Node/Ultrasonic_XMC_1400_Dynamic/Libraries/XMCLib/inc\xmc_gpio.h ****  *     - Documentation improved <br>
  47:C:/GitHub/MobRob_Rover_NEW/Ultrasonic_Sensor_Node/Ultrasonic_XMC_1400_Dynamic/Libraries/XMCLib/inc\xmc_gpio.h ****  *
  48:C:/GitHub/MobRob_Rover_NEW/Ultrasonic_Sensor_Node/Ultrasonic_XMC_1400_Dynamic/Libraries/XMCLib/inc\xmc_gpio.h ****  * 2015-06-20:
  49:C:/GitHub/MobRob_Rover_NEW/Ultrasonic_Sensor_Node/Ultrasonic_XMC_1400_Dynamic/Libraries/XMCLib/inc\xmc_gpio.h ****  *     - Removed version macros and declaration of GetDriverVersion API
  50:C:/GitHub/MobRob_Rover_NEW/Ultrasonic_Sensor_Node/Ultrasonic_XMC_1400_Dynamic/Libraries/XMCLib/inc\xmc_gpio.h ****  *
  51:C:/GitHub/MobRob_Rover_NEW/Ultrasonic_Sensor_Node/Ultrasonic_XMC_1400_Dynamic/Libraries/XMCLib/inc\xmc_gpio.h ****  * @endcond
  52:C:/GitHub/MobRob_Rover_NEW/Ultrasonic_Sensor_Node/Ultrasonic_XMC_1400_Dynamic/Libraries/XMCLib/inc\xmc_gpio.h ****  *
  53:C:/GitHub/MobRob_Rover_NEW/Ultrasonic_Sensor_Node/Ultrasonic_XMC_1400_Dynamic/Libraries/XMCLib/inc\xmc_gpio.h ****  */
  54:C:/GitHub/MobRob_Rover_NEW/Ultrasonic_Sensor_Node/Ultrasonic_XMC_1400_Dynamic/Libraries/XMCLib/inc\xmc_gpio.h **** 
  55:C:/GitHub/MobRob_Rover_NEW/Ultrasonic_Sensor_Node/Ultrasonic_XMC_1400_Dynamic/Libraries/XMCLib/inc\xmc_gpio.h **** #ifndef XMC_GPIO_H
  56:C:/GitHub/MobRob_Rover_NEW/Ultrasonic_Sensor_Node/Ultrasonic_XMC_1400_Dynamic/Libraries/XMCLib/inc\xmc_gpio.h **** #define XMC_GPIO_H
  57:C:/GitHub/MobRob_Rover_NEW/Ultrasonic_Sensor_Node/Ultrasonic_XMC_1400_Dynamic/Libraries/XMCLib/inc\xmc_gpio.h **** 
  58:C:/GitHub/MobRob_Rover_NEW/Ultrasonic_Sensor_Node/Ultrasonic_XMC_1400_Dynamic/Libraries/XMCLib/inc\xmc_gpio.h **** /**************************************************************************************************
  59:C:/GitHub/MobRob_Rover_NEW/Ultrasonic_Sensor_Node/Ultrasonic_XMC_1400_Dynamic/Libraries/XMCLib/inc\xmc_gpio.h ****  * HEADER FILES
  60:C:/GitHub/MobRob_Rover_NEW/Ultrasonic_Sensor_Node/Ultrasonic_XMC_1400_Dynamic/Libraries/XMCLib/inc\xmc_gpio.h ****  **************************************************************************************************
  61:C:/GitHub/MobRob_Rover_NEW/Ultrasonic_Sensor_Node/Ultrasonic_XMC_1400_Dynamic/Libraries/XMCLib/inc\xmc_gpio.h **** 
  62:C:/GitHub/MobRob_Rover_NEW/Ultrasonic_Sensor_Node/Ultrasonic_XMC_1400_Dynamic/Libraries/XMCLib/inc\xmc_gpio.h **** #include "xmc_common.h"
  63:C:/GitHub/MobRob_Rover_NEW/Ultrasonic_Sensor_Node/Ultrasonic_XMC_1400_Dynamic/Libraries/XMCLib/inc\xmc_gpio.h **** 
  64:C:/GitHub/MobRob_Rover_NEW/Ultrasonic_Sensor_Node/Ultrasonic_XMC_1400_Dynamic/Libraries/XMCLib/inc\xmc_gpio.h **** /**
  65:C:/GitHub/MobRob_Rover_NEW/Ultrasonic_Sensor_Node/Ultrasonic_XMC_1400_Dynamic/Libraries/XMCLib/inc\xmc_gpio.h ****  * @addtogroup XMClib XMC Peripheral Library
  66:C:/GitHub/MobRob_Rover_NEW/Ultrasonic_Sensor_Node/Ultrasonic_XMC_1400_Dynamic/Libraries/XMCLib/inc\xmc_gpio.h ****  * @{
  67:C:/GitHub/MobRob_Rover_NEW/Ultrasonic_Sensor_Node/Ultrasonic_XMC_1400_Dynamic/Libraries/XMCLib/inc\xmc_gpio.h ****  */
  68:C:/GitHub/MobRob_Rover_NEW/Ultrasonic_Sensor_Node/Ultrasonic_XMC_1400_Dynamic/Libraries/XMCLib/inc\xmc_gpio.h **** 
  69:C:/GitHub/MobRob_Rover_NEW/Ultrasonic_Sensor_Node/Ultrasonic_XMC_1400_Dynamic/Libraries/XMCLib/inc\xmc_gpio.h **** /**
  70:C:/GitHub/MobRob_Rover_NEW/Ultrasonic_Sensor_Node/Ultrasonic_XMC_1400_Dynamic/Libraries/XMCLib/inc\xmc_gpio.h ****  * @addtogroup GPIO
  71:C:/GitHub/MobRob_Rover_NEW/Ultrasonic_Sensor_Node/Ultrasonic_XMC_1400_Dynamic/Libraries/XMCLib/inc\xmc_gpio.h ****  * @brief General Purpose Input Output (GPIO) driver for the XMC microcontroller family.
  72:C:/GitHub/MobRob_Rover_NEW/Ultrasonic_Sensor_Node/Ultrasonic_XMC_1400_Dynamic/Libraries/XMCLib/inc\xmc_gpio.h ****  *
  73:C:/GitHub/MobRob_Rover_NEW/Ultrasonic_Sensor_Node/Ultrasonic_XMC_1400_Dynamic/Libraries/XMCLib/inc\xmc_gpio.h ****  * GPIO driver provide a generic and very flexible software interface for all standard digital I/O 
  74:C:/GitHub/MobRob_Rover_NEW/Ultrasonic_Sensor_Node/Ultrasonic_XMC_1400_Dynamic/Libraries/XMCLib/inc\xmc_gpio.h ****  * Each port slice has individual interfaces for the operation as General Purpose I/O and it furthe
  75:C:/GitHub/MobRob_Rover_NEW/Ultrasonic_Sensor_Node/Ultrasonic_XMC_1400_Dynamic/Libraries/XMCLib/inc\xmc_gpio.h ****  * connectivity to the on-chip periphery and the control for the pad characteristics.
  76:C:/GitHub/MobRob_Rover_NEW/Ultrasonic_Sensor_Node/Ultrasonic_XMC_1400_Dynamic/Libraries/XMCLib/inc\xmc_gpio.h ****  *
  77:C:/GitHub/MobRob_Rover_NEW/Ultrasonic_Sensor_Node/Ultrasonic_XMC_1400_Dynamic/Libraries/XMCLib/inc\xmc_gpio.h ****  * The driver is divided into Input and Output mode.
  78:C:/GitHub/MobRob_Rover_NEW/Ultrasonic_Sensor_Node/Ultrasonic_XMC_1400_Dynamic/Libraries/XMCLib/inc\xmc_gpio.h ****  *
  79:C:/GitHub/MobRob_Rover_NEW/Ultrasonic_Sensor_Node/Ultrasonic_XMC_1400_Dynamic/Libraries/XMCLib/inc\xmc_gpio.h ****  * Input mode features:
  80:C:/GitHub/MobRob_Rover_NEW/Ultrasonic_Sensor_Node/Ultrasonic_XMC_1400_Dynamic/Libraries/XMCLib/inc\xmc_gpio.h ****  * -# Configuration structure XMC_GPIO_CONFIG_t and initialization function XMC_GPIO_Init()
  81:C:/GitHub/MobRob_Rover_NEW/Ultrasonic_Sensor_Node/Ultrasonic_XMC_1400_Dynamic/Libraries/XMCLib/inc\xmc_gpio.h ****  * -# Allows the selection of weak pull-up or pull-down device. Configuration structure XMC_GPIO_MO
  82:C:/GitHub/MobRob_Rover_NEW/Ultrasonic_Sensor_Node/Ultrasonic_XMC_1400_Dynamic/Libraries/XMCLib/inc\xmc_gpio.h ****  * \if XMC1
  83:C:/GitHub/MobRob_Rover_NEW/Ultrasonic_Sensor_Node/Ultrasonic_XMC_1400_Dynamic/Libraries/XMCLib/inc\xmc_gpio.h ****  * -# Allows the selection of input hysteresis. XMC_GPIO_SetInputHysteresis()
  84:C:/GitHub/MobRob_Rover_NEW/Ultrasonic_Sensor_Node/Ultrasonic_XMC_1400_Dynamic/Libraries/XMCLib/inc\xmc_gpio.h ****  * \endif
  85:C:/GitHub/MobRob_Rover_NEW/Ultrasonic_Sensor_Node/Ultrasonic_XMC_1400_Dynamic/Libraries/XMCLib/inc\xmc_gpio.h ****  *
  86:C:/GitHub/MobRob_Rover_NEW/Ultrasonic_Sensor_Node/Ultrasonic_XMC_1400_Dynamic/Libraries/XMCLib/inc\xmc_gpio.h ****  *
  87:C:/GitHub/MobRob_Rover_NEW/Ultrasonic_Sensor_Node/Ultrasonic_XMC_1400_Dynamic/Libraries/XMCLib/inc\xmc_gpio.h ****  * Output mode features:
  88:C:/GitHub/MobRob_Rover_NEW/Ultrasonic_Sensor_Node/Ultrasonic_XMC_1400_Dynamic/Libraries/XMCLib/inc\xmc_gpio.h ****  * -# Allows the selection of push pull/open drain and Alternate output. Configuration structure XM
  89:C:/GitHub/MobRob_Rover_NEW/Ultrasonic_Sensor_Node/Ultrasonic_XMC_1400_Dynamic/Libraries/XMCLib/inc\xmc_gpio.h ****  * \if XMC4
  90:C:/GitHub/MobRob_Rover_NEW/Ultrasonic_Sensor_Node/Ultrasonic_XMC_1400_Dynamic/Libraries/XMCLib/inc\xmc_gpio.h ****  * -# Allows the selection of pad driver strength. Configuration structure XMC_GPIO_OUTPUT_STRENGTH
  91:C:/GitHub/MobRob_Rover_NEW/Ultrasonic_Sensor_Node/Ultrasonic_XMC_1400_Dynamic/Libraries/XMCLib/inc\xmc_gpio.h ****  * \endif
  92:C:/GitHub/MobRob_Rover_NEW/Ultrasonic_Sensor_Node/Ultrasonic_XMC_1400_Dynamic/Libraries/XMCLib/inc\xmc_gpio.h ****  *
  93:C:/GitHub/MobRob_Rover_NEW/Ultrasonic_Sensor_Node/Ultrasonic_XMC_1400_Dynamic/Libraries/XMCLib/inc\xmc_gpio.h ****  * -# Allows the selection of initial output level. Configuration structure XMC_GPIO_OUTPUT_LEVEL_t
  94:C:/GitHub/MobRob_Rover_NEW/Ultrasonic_Sensor_Node/Ultrasonic_XMC_1400_Dynamic/Libraries/XMCLib/inc\xmc_gpio.h ****  *
  95:C:/GitHub/MobRob_Rover_NEW/Ultrasonic_Sensor_Node/Ultrasonic_XMC_1400_Dynamic/Libraries/XMCLib/inc\xmc_gpio.h ****  *@{
  96:C:/GitHub/MobRob_Rover_NEW/Ultrasonic_Sensor_Node/Ultrasonic_XMC_1400_Dynamic/Libraries/XMCLib/inc\xmc_gpio.h ****  */
  97:C:/GitHub/MobRob_Rover_NEW/Ultrasonic_Sensor_Node/Ultrasonic_XMC_1400_Dynamic/Libraries/XMCLib/inc\xmc_gpio.h **** 
  98:C:/GitHub/MobRob_Rover_NEW/Ultrasonic_Sensor_Node/Ultrasonic_XMC_1400_Dynamic/Libraries/XMCLib/inc\xmc_gpio.h **** /**************************************************************************************************
  99:C:/GitHub/MobRob_Rover_NEW/Ultrasonic_Sensor_Node/Ultrasonic_XMC_1400_Dynamic/Libraries/XMCLib/inc\xmc_gpio.h ****  * MACROS
 100:C:/GitHub/MobRob_Rover_NEW/Ultrasonic_Sensor_Node/Ultrasonic_XMC_1400_Dynamic/Libraries/XMCLib/inc\xmc_gpio.h ****  **************************************************************************************************
 101:C:/GitHub/MobRob_Rover_NEW/Ultrasonic_Sensor_Node/Ultrasonic_XMC_1400_Dynamic/Libraries/XMCLib/inc\xmc_gpio.h **** 
 102:C:/GitHub/MobRob_Rover_NEW/Ultrasonic_Sensor_Node/Ultrasonic_XMC_1400_Dynamic/Libraries/XMCLib/inc\xmc_gpio.h **** #define PORT_IOCR_PC_Pos PORT0_IOCR0_PC0_Pos
 103:C:/GitHub/MobRob_Rover_NEW/Ultrasonic_Sensor_Node/Ultrasonic_XMC_1400_Dynamic/Libraries/XMCLib/inc\xmc_gpio.h **** #define PORT_IOCR_PC_Msk PORT0_IOCR0_PC0_Msk
 104:C:/GitHub/MobRob_Rover_NEW/Ultrasonic_Sensor_Node/Ultrasonic_XMC_1400_Dynamic/Libraries/XMCLib/inc\xmc_gpio.h **** 
 105:C:/GitHub/MobRob_Rover_NEW/Ultrasonic_Sensor_Node/Ultrasonic_XMC_1400_Dynamic/Libraries/XMCLib/inc\xmc_gpio.h **** #define PORT_IOCR_PC_Size 				(8U)
 106:C:/GitHub/MobRob_Rover_NEW/Ultrasonic_Sensor_Node/Ultrasonic_XMC_1400_Dynamic/Libraries/XMCLib/inc\xmc_gpio.h **** 
 107:C:/GitHub/MobRob_Rover_NEW/Ultrasonic_Sensor_Node/Ultrasonic_XMC_1400_Dynamic/Libraries/XMCLib/inc\xmc_gpio.h **** 
 108:C:/GitHub/MobRob_Rover_NEW/Ultrasonic_Sensor_Node/Ultrasonic_XMC_1400_Dynamic/Libraries/XMCLib/inc\xmc_gpio.h **** #define XMC_GPIO_CHECK_OUTPUT_LEVEL(level) ((level == XMC_GPIO_OUTPUT_LEVEL_LOW) || \
 109:C:/GitHub/MobRob_Rover_NEW/Ultrasonic_Sensor_Node/Ultrasonic_XMC_1400_Dynamic/Libraries/XMCLib/inc\xmc_gpio.h ****                                             (level == XMC_GPIO_OUTPUT_LEVEL_HIGH))
 110:C:/GitHub/MobRob_Rover_NEW/Ultrasonic_Sensor_Node/Ultrasonic_XMC_1400_Dynamic/Libraries/XMCLib/inc\xmc_gpio.h **** 
 111:C:/GitHub/MobRob_Rover_NEW/Ultrasonic_Sensor_Node/Ultrasonic_XMC_1400_Dynamic/Libraries/XMCLib/inc\xmc_gpio.h **** #define XMC_GPIO_CHECK_HWCTRL(hwctrl) ((hwctrl == XMC_GPIO_HWCTRL_DISABLED) || \
 112:C:/GitHub/MobRob_Rover_NEW/Ultrasonic_Sensor_Node/Ultrasonic_XMC_1400_Dynamic/Libraries/XMCLib/inc\xmc_gpio.h ****                                        (hwctrl == XMC_GPIO_HWCTRL_PERIPHERAL1) || \
 113:C:/GitHub/MobRob_Rover_NEW/Ultrasonic_Sensor_Node/Ultrasonic_XMC_1400_Dynamic/Libraries/XMCLib/inc\xmc_gpio.h ****                                        (hwctrl == XMC_GPIO_HWCTRL_PERIPHERAL2))
 114:C:/GitHub/MobRob_Rover_NEW/Ultrasonic_Sensor_Node/Ultrasonic_XMC_1400_Dynamic/Libraries/XMCLib/inc\xmc_gpio.h **** 
 115:C:/GitHub/MobRob_Rover_NEW/Ultrasonic_Sensor_Node/Ultrasonic_XMC_1400_Dynamic/Libraries/XMCLib/inc\xmc_gpio.h **** /**************************************************************************************************
 116:C:/GitHub/MobRob_Rover_NEW/Ultrasonic_Sensor_Node/Ultrasonic_XMC_1400_Dynamic/Libraries/XMCLib/inc\xmc_gpio.h ****  * ENUMS
 117:C:/GitHub/MobRob_Rover_NEW/Ultrasonic_Sensor_Node/Ultrasonic_XMC_1400_Dynamic/Libraries/XMCLib/inc\xmc_gpio.h ****  **************************************************************************************************
 118:C:/GitHub/MobRob_Rover_NEW/Ultrasonic_Sensor_Node/Ultrasonic_XMC_1400_Dynamic/Libraries/XMCLib/inc\xmc_gpio.h **** 
 119:C:/GitHub/MobRob_Rover_NEW/Ultrasonic_Sensor_Node/Ultrasonic_XMC_1400_Dynamic/Libraries/XMCLib/inc\xmc_gpio.h **** 
 120:C:/GitHub/MobRob_Rover_NEW/Ultrasonic_Sensor_Node/Ultrasonic_XMC_1400_Dynamic/Libraries/XMCLib/inc\xmc_gpio.h **** /**
 121:C:/GitHub/MobRob_Rover_NEW/Ultrasonic_Sensor_Node/Ultrasonic_XMC_1400_Dynamic/Libraries/XMCLib/inc\xmc_gpio.h ****  * Defines output level of a pin. Use type \a XMC_GPIO_OUTPUT_LEVEL_t for this enum.
 122:C:/GitHub/MobRob_Rover_NEW/Ultrasonic_Sensor_Node/Ultrasonic_XMC_1400_Dynamic/Libraries/XMCLib/inc\xmc_gpio.h ****  */
 123:C:/GitHub/MobRob_Rover_NEW/Ultrasonic_Sensor_Node/Ultrasonic_XMC_1400_Dynamic/Libraries/XMCLib/inc\xmc_gpio.h **** typedef enum XMC_GPIO_OUTPUT_LEVEL
 124:C:/GitHub/MobRob_Rover_NEW/Ultrasonic_Sensor_Node/Ultrasonic_XMC_1400_Dynamic/Libraries/XMCLib/inc\xmc_gpio.h **** {
 125:C:/GitHub/MobRob_Rover_NEW/Ultrasonic_Sensor_Node/Ultrasonic_XMC_1400_Dynamic/Libraries/XMCLib/inc\xmc_gpio.h ****   XMC_GPIO_OUTPUT_LEVEL_LOW  = 0x10000U, /**<  Reset bit */
 126:C:/GitHub/MobRob_Rover_NEW/Ultrasonic_Sensor_Node/Ultrasonic_XMC_1400_Dynamic/Libraries/XMCLib/inc\xmc_gpio.h ****   XMC_GPIO_OUTPUT_LEVEL_HIGH = 0x1U, 	/**< Set bit  */
 127:C:/GitHub/MobRob_Rover_NEW/Ultrasonic_Sensor_Node/Ultrasonic_XMC_1400_Dynamic/Libraries/XMCLib/inc\xmc_gpio.h **** } XMC_GPIO_OUTPUT_LEVEL_t;
 128:C:/GitHub/MobRob_Rover_NEW/Ultrasonic_Sensor_Node/Ultrasonic_XMC_1400_Dynamic/Libraries/XMCLib/inc\xmc_gpio.h **** 
 129:C:/GitHub/MobRob_Rover_NEW/Ultrasonic_Sensor_Node/Ultrasonic_XMC_1400_Dynamic/Libraries/XMCLib/inc\xmc_gpio.h **** /**
 130:C:/GitHub/MobRob_Rover_NEW/Ultrasonic_Sensor_Node/Ultrasonic_XMC_1400_Dynamic/Libraries/XMCLib/inc\xmc_gpio.h ****  * Defines direct hardware control characteristics of the pin . Use type \a XMC_GPIO_HWCTRL_t for t
 131:C:/GitHub/MobRob_Rover_NEW/Ultrasonic_Sensor_Node/Ultrasonic_XMC_1400_Dynamic/Libraries/XMCLib/inc\xmc_gpio.h ****  */
 132:C:/GitHub/MobRob_Rover_NEW/Ultrasonic_Sensor_Node/Ultrasonic_XMC_1400_Dynamic/Libraries/XMCLib/inc\xmc_gpio.h **** typedef enum XMC_GPIO_HWCTRL
 133:C:/GitHub/MobRob_Rover_NEW/Ultrasonic_Sensor_Node/Ultrasonic_XMC_1400_Dynamic/Libraries/XMCLib/inc\xmc_gpio.h **** {
 134:C:/GitHub/MobRob_Rover_NEW/Ultrasonic_Sensor_Node/Ultrasonic_XMC_1400_Dynamic/Libraries/XMCLib/inc\xmc_gpio.h ****   XMC_GPIO_HWCTRL_DISABLED     = 0x0U, /**<  Software control only */
 135:C:/GitHub/MobRob_Rover_NEW/Ultrasonic_Sensor_Node/Ultrasonic_XMC_1400_Dynamic/Libraries/XMCLib/inc\xmc_gpio.h ****   XMC_GPIO_HWCTRL_PERIPHERAL1  = 0x1U, /**<  HWI0/HWO0 control path can override the software confi
 136:C:/GitHub/MobRob_Rover_NEW/Ultrasonic_Sensor_Node/Ultrasonic_XMC_1400_Dynamic/Libraries/XMCLib/inc\xmc_gpio.h ****   XMC_GPIO_HWCTRL_PERIPHERAL2  = 0x2U  /**<  HWI1/HWO1 control path can override the software confi
 137:C:/GitHub/MobRob_Rover_NEW/Ultrasonic_Sensor_Node/Ultrasonic_XMC_1400_Dynamic/Libraries/XMCLib/inc\xmc_gpio.h **** } XMC_GPIO_HWCTRL_t;
 138:C:/GitHub/MobRob_Rover_NEW/Ultrasonic_Sensor_Node/Ultrasonic_XMC_1400_Dynamic/Libraries/XMCLib/inc\xmc_gpio.h **** 
 139:C:/GitHub/MobRob_Rover_NEW/Ultrasonic_Sensor_Node/Ultrasonic_XMC_1400_Dynamic/Libraries/XMCLib/inc\xmc_gpio.h **** /**************************************************************************************************
 140:C:/GitHub/MobRob_Rover_NEW/Ultrasonic_Sensor_Node/Ultrasonic_XMC_1400_Dynamic/Libraries/XMCLib/inc\xmc_gpio.h ****  * DEVICE FAMILY EXTENSIONS
 141:C:/GitHub/MobRob_Rover_NEW/Ultrasonic_Sensor_Node/Ultrasonic_XMC_1400_Dynamic/Libraries/XMCLib/inc\xmc_gpio.h ****  **************************************************************************************************
 142:C:/GitHub/MobRob_Rover_NEW/Ultrasonic_Sensor_Node/Ultrasonic_XMC_1400_Dynamic/Libraries/XMCLib/inc\xmc_gpio.h **** 
 143:C:/GitHub/MobRob_Rover_NEW/Ultrasonic_Sensor_Node/Ultrasonic_XMC_1400_Dynamic/Libraries/XMCLib/inc\xmc_gpio.h **** #if UC_FAMILY == XMC1
 144:C:/GitHub/MobRob_Rover_NEW/Ultrasonic_Sensor_Node/Ultrasonic_XMC_1400_Dynamic/Libraries/XMCLib/inc\xmc_gpio.h **** #include "xmc1_gpio.h"
 145:C:/GitHub/MobRob_Rover_NEW/Ultrasonic_Sensor_Node/Ultrasonic_XMC_1400_Dynamic/Libraries/XMCLib/inc\xmc_gpio.h **** #elif UC_FAMILY == XMC4
 146:C:/GitHub/MobRob_Rover_NEW/Ultrasonic_Sensor_Node/Ultrasonic_XMC_1400_Dynamic/Libraries/XMCLib/inc\xmc_gpio.h **** #include "xmc4_gpio.h"
 147:C:/GitHub/MobRob_Rover_NEW/Ultrasonic_Sensor_Node/Ultrasonic_XMC_1400_Dynamic/Libraries/XMCLib/inc\xmc_gpio.h **** #else
 148:C:/GitHub/MobRob_Rover_NEW/Ultrasonic_Sensor_Node/Ultrasonic_XMC_1400_Dynamic/Libraries/XMCLib/inc\xmc_gpio.h **** #error "xmc_gpio.h: family device not supported"
 149:C:/GitHub/MobRob_Rover_NEW/Ultrasonic_Sensor_Node/Ultrasonic_XMC_1400_Dynamic/Libraries/XMCLib/inc\xmc_gpio.h **** #endif
 150:C:/GitHub/MobRob_Rover_NEW/Ultrasonic_Sensor_Node/Ultrasonic_XMC_1400_Dynamic/Libraries/XMCLib/inc\xmc_gpio.h **** 
 151:C:/GitHub/MobRob_Rover_NEW/Ultrasonic_Sensor_Node/Ultrasonic_XMC_1400_Dynamic/Libraries/XMCLib/inc\xmc_gpio.h **** /**************************************************************************************************
 152:C:/GitHub/MobRob_Rover_NEW/Ultrasonic_Sensor_Node/Ultrasonic_XMC_1400_Dynamic/Libraries/XMCLib/inc\xmc_gpio.h ****  * API PROTOTYPES
 153:C:/GitHub/MobRob_Rover_NEW/Ultrasonic_Sensor_Node/Ultrasonic_XMC_1400_Dynamic/Libraries/XMCLib/inc\xmc_gpio.h ****  **************************************************************************************************
 154:C:/GitHub/MobRob_Rover_NEW/Ultrasonic_Sensor_Node/Ultrasonic_XMC_1400_Dynamic/Libraries/XMCLib/inc\xmc_gpio.h **** 
 155:C:/GitHub/MobRob_Rover_NEW/Ultrasonic_Sensor_Node/Ultrasonic_XMC_1400_Dynamic/Libraries/XMCLib/inc\xmc_gpio.h **** #ifdef __cplusplus
 156:C:/GitHub/MobRob_Rover_NEW/Ultrasonic_Sensor_Node/Ultrasonic_XMC_1400_Dynamic/Libraries/XMCLib/inc\xmc_gpio.h **** extern "C" {
 157:C:/GitHub/MobRob_Rover_NEW/Ultrasonic_Sensor_Node/Ultrasonic_XMC_1400_Dynamic/Libraries/XMCLib/inc\xmc_gpio.h **** #endif
 158:C:/GitHub/MobRob_Rover_NEW/Ultrasonic_Sensor_Node/Ultrasonic_XMC_1400_Dynamic/Libraries/XMCLib/inc\xmc_gpio.h **** 
 159:C:/GitHub/MobRob_Rover_NEW/Ultrasonic_Sensor_Node/Ultrasonic_XMC_1400_Dynamic/Libraries/XMCLib/inc\xmc_gpio.h **** 
 160:C:/GitHub/MobRob_Rover_NEW/Ultrasonic_Sensor_Node/Ultrasonic_XMC_1400_Dynamic/Libraries/XMCLib/inc\xmc_gpio.h **** /**
 161:C:/GitHub/MobRob_Rover_NEW/Ultrasonic_Sensor_Node/Ultrasonic_XMC_1400_Dynamic/Libraries/XMCLib/inc\xmc_gpio.h ****  * @param  port	  Constant pointer pointing to GPIO port, to access port registers like Pn_OUT,Pn_O
 162:C:/GitHub/MobRob_Rover_NEW/Ultrasonic_Sensor_Node/Ultrasonic_XMC_1400_Dynamic/Libraries/XMCLib/inc\xmc_gpio.h ****  * @param  pin	  Port pin number.
 163:C:/GitHub/MobRob_Rover_NEW/Ultrasonic_Sensor_Node/Ultrasonic_XMC_1400_Dynamic/Libraries/XMCLib/inc\xmc_gpio.h ****  * @param  config GPIO configuration data structure. Refer data structure @ref XMC_GPIO_CONFIG_t fo
 164:C:/GitHub/MobRob_Rover_NEW/Ultrasonic_Sensor_Node/Ultrasonic_XMC_1400_Dynamic/Libraries/XMCLib/inc\xmc_gpio.h ****  *
 165:C:/GitHub/MobRob_Rover_NEW/Ultrasonic_Sensor_Node/Ultrasonic_XMC_1400_Dynamic/Libraries/XMCLib/inc\xmc_gpio.h ****  * @return None
 166:C:/GitHub/MobRob_Rover_NEW/Ultrasonic_Sensor_Node/Ultrasonic_XMC_1400_Dynamic/Libraries/XMCLib/inc\xmc_gpio.h ****  *
 167:C:/GitHub/MobRob_Rover_NEW/Ultrasonic_Sensor_Node/Ultrasonic_XMC_1400_Dynamic/Libraries/XMCLib/inc\xmc_gpio.h ****  * \par<b>Description:</b><br>
 168:C:/GitHub/MobRob_Rover_NEW/Ultrasonic_Sensor_Node/Ultrasonic_XMC_1400_Dynamic/Libraries/XMCLib/inc\xmc_gpio.h ****  * \if XMC1
 169:C:/GitHub/MobRob_Rover_NEW/Ultrasonic_Sensor_Node/Ultrasonic_XMC_1400_Dynamic/Libraries/XMCLib/inc\xmc_gpio.h ****  * Initializes input / output mode settings like, pull up / pull down devices,hysteresis, push pull
 170:C:/GitHub/MobRob_Rover_NEW/Ultrasonic_Sensor_Node/Ultrasonic_XMC_1400_Dynamic/Libraries/XMCLib/inc\xmc_gpio.h ****  * Also configures alternate function outputs and clears hardware port control for a selected \a po
 171:C:/GitHub/MobRob_Rover_NEW/Ultrasonic_Sensor_Node/Ultrasonic_XMC_1400_Dynamic/Libraries/XMCLib/inc\xmc_gpio.h ****  * \a config provides selected I/O settings. It configures hardware registers Pn_IOCR,Pn_OUT, Pn_OM
 172:C:/GitHub/MobRob_Rover_NEW/Ultrasonic_Sensor_Node/Ultrasonic_XMC_1400_Dynamic/Libraries/XMCLib/inc\xmc_gpio.h ****  * \endif
 173:C:/GitHub/MobRob_Rover_NEW/Ultrasonic_Sensor_Node/Ultrasonic_XMC_1400_Dynamic/Libraries/XMCLib/inc\xmc_gpio.h ****  * \if XMC4
 174:C:/GitHub/MobRob_Rover_NEW/Ultrasonic_Sensor_Node/Ultrasonic_XMC_1400_Dynamic/Libraries/XMCLib/inc\xmc_gpio.h ****  * Initializes input / output mode settings like, pull up / pull down devices,push pull /open drain
 175:C:/GitHub/MobRob_Rover_NEW/Ultrasonic_Sensor_Node/Ultrasonic_XMC_1400_Dynamic/Libraries/XMCLib/inc\xmc_gpio.h ****  * Also configures alternate function outputs and clears hardware port control for selected \a port
 176:C:/GitHub/MobRob_Rover_NEW/Ultrasonic_Sensor_Node/Ultrasonic_XMC_1400_Dynamic/Libraries/XMCLib/inc\xmc_gpio.h ****  * It configures hardware registers Pn_IOCR,Pn_OUT,Pn_OMR,Pn_PDISC and Pn_PDR.\n
 177:C:/GitHub/MobRob_Rover_NEW/Ultrasonic_Sensor_Node/Ultrasonic_XMC_1400_Dynamic/Libraries/XMCLib/inc\xmc_gpio.h ****  * \endif
 178:C:/GitHub/MobRob_Rover_NEW/Ultrasonic_Sensor_Node/Ultrasonic_XMC_1400_Dynamic/Libraries/XMCLib/inc\xmc_gpio.h ****  *
 179:C:/GitHub/MobRob_Rover_NEW/Ultrasonic_Sensor_Node/Ultrasonic_XMC_1400_Dynamic/Libraries/XMCLib/inc\xmc_gpio.h ****  * \par<b>Related APIs:</b><BR>
 180:C:/GitHub/MobRob_Rover_NEW/Ultrasonic_Sensor_Node/Ultrasonic_XMC_1400_Dynamic/Libraries/XMCLib/inc\xmc_gpio.h ****  *  None
 181:C:/GitHub/MobRob_Rover_NEW/Ultrasonic_Sensor_Node/Ultrasonic_XMC_1400_Dynamic/Libraries/XMCLib/inc\xmc_gpio.h ****  *
 182:C:/GitHub/MobRob_Rover_NEW/Ultrasonic_Sensor_Node/Ultrasonic_XMC_1400_Dynamic/Libraries/XMCLib/inc\xmc_gpio.h ****  * \par<b>Note:</b><br>
 183:C:/GitHub/MobRob_Rover_NEW/Ultrasonic_Sensor_Node/Ultrasonic_XMC_1400_Dynamic/Libraries/XMCLib/inc\xmc_gpio.h ****  * This API is called in definition of DAVE_init by code generation and therefore should not be exp
 184:C:/GitHub/MobRob_Rover_NEW/Ultrasonic_Sensor_Node/Ultrasonic_XMC_1400_Dynamic/Libraries/XMCLib/inc\xmc_gpio.h ****  * for the normal operation. Use other APIs only after DAVE_init is called successfully (returns DA
 185:C:/GitHub/MobRob_Rover_NEW/Ultrasonic_Sensor_Node/Ultrasonic_XMC_1400_Dynamic/Libraries/XMCLib/inc\xmc_gpio.h ****  *
 186:C:/GitHub/MobRob_Rover_NEW/Ultrasonic_Sensor_Node/Ultrasonic_XMC_1400_Dynamic/Libraries/XMCLib/inc\xmc_gpio.h ****  *
 187:C:/GitHub/MobRob_Rover_NEW/Ultrasonic_Sensor_Node/Ultrasonic_XMC_1400_Dynamic/Libraries/XMCLib/inc\xmc_gpio.h ****  */
 188:C:/GitHub/MobRob_Rover_NEW/Ultrasonic_Sensor_Node/Ultrasonic_XMC_1400_Dynamic/Libraries/XMCLib/inc\xmc_gpio.h **** 
 189:C:/GitHub/MobRob_Rover_NEW/Ultrasonic_Sensor_Node/Ultrasonic_XMC_1400_Dynamic/Libraries/XMCLib/inc\xmc_gpio.h **** 
 190:C:/GitHub/MobRob_Rover_NEW/Ultrasonic_Sensor_Node/Ultrasonic_XMC_1400_Dynamic/Libraries/XMCLib/inc\xmc_gpio.h **** void XMC_GPIO_Init(XMC_GPIO_PORT_t *const port, const uint8_t pin, const XMC_GPIO_CONFIG_t *const c
 191:C:/GitHub/MobRob_Rover_NEW/Ultrasonic_Sensor_Node/Ultrasonic_XMC_1400_Dynamic/Libraries/XMCLib/inc\xmc_gpio.h **** 
 192:C:/GitHub/MobRob_Rover_NEW/Ultrasonic_Sensor_Node/Ultrasonic_XMC_1400_Dynamic/Libraries/XMCLib/inc\xmc_gpio.h **** /**
 193:C:/GitHub/MobRob_Rover_NEW/Ultrasonic_Sensor_Node/Ultrasonic_XMC_1400_Dynamic/Libraries/XMCLib/inc\xmc_gpio.h ****  *
 194:C:/GitHub/MobRob_Rover_NEW/Ultrasonic_Sensor_Node/Ultrasonic_XMC_1400_Dynamic/Libraries/XMCLib/inc\xmc_gpio.h ****  * @param  port	Constant pointer pointing to GPIO port, to access hardware register Pn_IOCR.
 195:C:/GitHub/MobRob_Rover_NEW/Ultrasonic_Sensor_Node/Ultrasonic_XMC_1400_Dynamic/Libraries/XMCLib/inc\xmc_gpio.h ****  * @param  pin	Port pin number.
 196:C:/GitHub/MobRob_Rover_NEW/Ultrasonic_Sensor_Node/Ultrasonic_XMC_1400_Dynamic/Libraries/XMCLib/inc\xmc_gpio.h ****  * @param  mode input / output functionality selection. Refer @ref XMC_GPIO_MODE_t for valid values
 197:C:/GitHub/MobRob_Rover_NEW/Ultrasonic_Sensor_Node/Ultrasonic_XMC_1400_Dynamic/Libraries/XMCLib/inc\xmc_gpio.h ****  *
 198:C:/GitHub/MobRob_Rover_NEW/Ultrasonic_Sensor_Node/Ultrasonic_XMC_1400_Dynamic/Libraries/XMCLib/inc\xmc_gpio.h ****  * @return None
 199:C:/GitHub/MobRob_Rover_NEW/Ultrasonic_Sensor_Node/Ultrasonic_XMC_1400_Dynamic/Libraries/XMCLib/inc\xmc_gpio.h ****  *
 200:C:/GitHub/MobRob_Rover_NEW/Ultrasonic_Sensor_Node/Ultrasonic_XMC_1400_Dynamic/Libraries/XMCLib/inc\xmc_gpio.h ****  * \par<b>Description:</b><br>
 201:C:/GitHub/MobRob_Rover_NEW/Ultrasonic_Sensor_Node/Ultrasonic_XMC_1400_Dynamic/Libraries/XMCLib/inc\xmc_gpio.h ****  * Sets digital input and output driver functionality and characteristics of a GPIO port pin. It co
 202:C:/GitHub/MobRob_Rover_NEW/Ultrasonic_Sensor_Node/Ultrasonic_XMC_1400_Dynamic/Libraries/XMCLib/inc\xmc_gpio.h ****  * registers Pn_IOCR. \a mode is initially configured during initialization in XMC_GPIO_Init(). Cal
 203:C:/GitHub/MobRob_Rover_NEW/Ultrasonic_Sensor_Node/Ultrasonic_XMC_1400_Dynamic/Libraries/XMCLib/inc\xmc_gpio.h ****  * the port direction functionality as needed later in the program.
 204:C:/GitHub/MobRob_Rover_NEW/Ultrasonic_Sensor_Node/Ultrasonic_XMC_1400_Dynamic/Libraries/XMCLib/inc\xmc_gpio.h ****  *
 205:C:/GitHub/MobRob_Rover_NEW/Ultrasonic_Sensor_Node/Ultrasonic_XMC_1400_Dynamic/Libraries/XMCLib/inc\xmc_gpio.h ****  * \par<b>Related APIs:</b><BR>
 206:C:/GitHub/MobRob_Rover_NEW/Ultrasonic_Sensor_Node/Ultrasonic_XMC_1400_Dynamic/Libraries/XMCLib/inc\xmc_gpio.h ****  *  None
 207:C:/GitHub/MobRob_Rover_NEW/Ultrasonic_Sensor_Node/Ultrasonic_XMC_1400_Dynamic/Libraries/XMCLib/inc\xmc_gpio.h ****  *
 208:C:/GitHub/MobRob_Rover_NEW/Ultrasonic_Sensor_Node/Ultrasonic_XMC_1400_Dynamic/Libraries/XMCLib/inc\xmc_gpio.h ****  */
 209:C:/GitHub/MobRob_Rover_NEW/Ultrasonic_Sensor_Node/Ultrasonic_XMC_1400_Dynamic/Libraries/XMCLib/inc\xmc_gpio.h **** 
 210:C:/GitHub/MobRob_Rover_NEW/Ultrasonic_Sensor_Node/Ultrasonic_XMC_1400_Dynamic/Libraries/XMCLib/inc\xmc_gpio.h **** void XMC_GPIO_SetMode(XMC_GPIO_PORT_t *const port, const uint8_t pin, const XMC_GPIO_MODE_t mode);
 211:C:/GitHub/MobRob_Rover_NEW/Ultrasonic_Sensor_Node/Ultrasonic_XMC_1400_Dynamic/Libraries/XMCLib/inc\xmc_gpio.h **** 
 212:C:/GitHub/MobRob_Rover_NEW/Ultrasonic_Sensor_Node/Ultrasonic_XMC_1400_Dynamic/Libraries/XMCLib/inc\xmc_gpio.h **** 
 213:C:/GitHub/MobRob_Rover_NEW/Ultrasonic_Sensor_Node/Ultrasonic_XMC_1400_Dynamic/Libraries/XMCLib/inc\xmc_gpio.h **** /**
 214:C:/GitHub/MobRob_Rover_NEW/Ultrasonic_Sensor_Node/Ultrasonic_XMC_1400_Dynamic/Libraries/XMCLib/inc\xmc_gpio.h ****  *
 215:C:/GitHub/MobRob_Rover_NEW/Ultrasonic_Sensor_Node/Ultrasonic_XMC_1400_Dynamic/Libraries/XMCLib/inc\xmc_gpio.h ****  * @param  port	 Constant pointer pointing to GPIO port, to access hardware register Pn_OMR.
 216:C:/GitHub/MobRob_Rover_NEW/Ultrasonic_Sensor_Node/Ultrasonic_XMC_1400_Dynamic/Libraries/XMCLib/inc\xmc_gpio.h ****  * @param  pin	 Port pin number.
 217:C:/GitHub/MobRob_Rover_NEW/Ultrasonic_Sensor_Node/Ultrasonic_XMC_1400_Dynamic/Libraries/XMCLib/inc\xmc_gpio.h ****  * @param  level output level selection. Refer @ref XMC_GPIO_OUTPUT_LEVEL_t for valid values.
 218:C:/GitHub/MobRob_Rover_NEW/Ultrasonic_Sensor_Node/Ultrasonic_XMC_1400_Dynamic/Libraries/XMCLib/inc\xmc_gpio.h ****  *
 219:C:/GitHub/MobRob_Rover_NEW/Ultrasonic_Sensor_Node/Ultrasonic_XMC_1400_Dynamic/Libraries/XMCLib/inc\xmc_gpio.h ****  * @return None
 220:C:/GitHub/MobRob_Rover_NEW/Ultrasonic_Sensor_Node/Ultrasonic_XMC_1400_Dynamic/Libraries/XMCLib/inc\xmc_gpio.h ****  *
 221:C:/GitHub/MobRob_Rover_NEW/Ultrasonic_Sensor_Node/Ultrasonic_XMC_1400_Dynamic/Libraries/XMCLib/inc\xmc_gpio.h ****  * \par<b>Description:</b><br>
 222:C:/GitHub/MobRob_Rover_NEW/Ultrasonic_Sensor_Node/Ultrasonic_XMC_1400_Dynamic/Libraries/XMCLib/inc\xmc_gpio.h ****  * Set port pin output level to high or low.It configures hardware registers Pn_OMR.\a level is ini
 223:C:/GitHub/MobRob_Rover_NEW/Ultrasonic_Sensor_Node/Ultrasonic_XMC_1400_Dynamic/Libraries/XMCLib/inc\xmc_gpio.h ****  * configured during initialization in XMC_GPIO_Init(). Call this API to alter output level as need
 224:C:/GitHub/MobRob_Rover_NEW/Ultrasonic_Sensor_Node/Ultrasonic_XMC_1400_Dynamic/Libraries/XMCLib/inc\xmc_gpio.h ****  *
 225:C:/GitHub/MobRob_Rover_NEW/Ultrasonic_Sensor_Node/Ultrasonic_XMC_1400_Dynamic/Libraries/XMCLib/inc\xmc_gpio.h ****  * \par<b>Related APIs:</b><BR>
 226:C:/GitHub/MobRob_Rover_NEW/Ultrasonic_Sensor_Node/Ultrasonic_XMC_1400_Dynamic/Libraries/XMCLib/inc\xmc_gpio.h ****  *  XMC_GPIO_SetOutputHigh(), XMC_GPIO_SetOutputLow().
 227:C:/GitHub/MobRob_Rover_NEW/Ultrasonic_Sensor_Node/Ultrasonic_XMC_1400_Dynamic/Libraries/XMCLib/inc\xmc_gpio.h ****  *
 228:C:/GitHub/MobRob_Rover_NEW/Ultrasonic_Sensor_Node/Ultrasonic_XMC_1400_Dynamic/Libraries/XMCLib/inc\xmc_gpio.h ****  * \par<b>Note:</b><br>
 229:C:/GitHub/MobRob_Rover_NEW/Ultrasonic_Sensor_Node/Ultrasonic_XMC_1400_Dynamic/Libraries/XMCLib/inc\xmc_gpio.h ****  * Prior to this api, user has to configure port pin to output mode using XMC_GPIO_SetMode().
 230:C:/GitHub/MobRob_Rover_NEW/Ultrasonic_Sensor_Node/Ultrasonic_XMC_1400_Dynamic/Libraries/XMCLib/inc\xmc_gpio.h ****  *
 231:C:/GitHub/MobRob_Rover_NEW/Ultrasonic_Sensor_Node/Ultrasonic_XMC_1400_Dynamic/Libraries/XMCLib/inc\xmc_gpio.h ****  */
 232:C:/GitHub/MobRob_Rover_NEW/Ultrasonic_Sensor_Node/Ultrasonic_XMC_1400_Dynamic/Libraries/XMCLib/inc\xmc_gpio.h **** 
 233:C:/GitHub/MobRob_Rover_NEW/Ultrasonic_Sensor_Node/Ultrasonic_XMC_1400_Dynamic/Libraries/XMCLib/inc\xmc_gpio.h **** 
 234:C:/GitHub/MobRob_Rover_NEW/Ultrasonic_Sensor_Node/Ultrasonic_XMC_1400_Dynamic/Libraries/XMCLib/inc\xmc_gpio.h **** __STATIC_INLINE void XMC_GPIO_SetOutputLevel(XMC_GPIO_PORT_t *const port, const uint8_t pin, const 
 235:C:/GitHub/MobRob_Rover_NEW/Ultrasonic_Sensor_Node/Ultrasonic_XMC_1400_Dynamic/Libraries/XMCLib/inc\xmc_gpio.h **** {
 236:C:/GitHub/MobRob_Rover_NEW/Ultrasonic_Sensor_Node/Ultrasonic_XMC_1400_Dynamic/Libraries/XMCLib/inc\xmc_gpio.h ****   XMC_ASSERT("XMC_GPIO_SetOutputLevel: Invalid port", XMC_GPIO_CHECK_OUTPUT_PORT(port));
 237:C:/GitHub/MobRob_Rover_NEW/Ultrasonic_Sensor_Node/Ultrasonic_XMC_1400_Dynamic/Libraries/XMCLib/inc\xmc_gpio.h ****   XMC_ASSERT("XMC_GPIO_SetOutputLevel: Invalid output level", XMC_GPIO_CHECK_OUTPUT_LEVEL(level));
 238:C:/GitHub/MobRob_Rover_NEW/Ultrasonic_Sensor_Node/Ultrasonic_XMC_1400_Dynamic/Libraries/XMCLib/inc\xmc_gpio.h **** 
 239:C:/GitHub/MobRob_Rover_NEW/Ultrasonic_Sensor_Node/Ultrasonic_XMC_1400_Dynamic/Libraries/XMCLib/inc\xmc_gpio.h ****   port->OMR = (uint32_t)level << pin;
 240:C:/GitHub/MobRob_Rover_NEW/Ultrasonic_Sensor_Node/Ultrasonic_XMC_1400_Dynamic/Libraries/XMCLib/inc\xmc_gpio.h **** }
 241:C:/GitHub/MobRob_Rover_NEW/Ultrasonic_Sensor_Node/Ultrasonic_XMC_1400_Dynamic/Libraries/XMCLib/inc\xmc_gpio.h **** 
 242:C:/GitHub/MobRob_Rover_NEW/Ultrasonic_Sensor_Node/Ultrasonic_XMC_1400_Dynamic/Libraries/XMCLib/inc\xmc_gpio.h **** 
 243:C:/GitHub/MobRob_Rover_NEW/Ultrasonic_Sensor_Node/Ultrasonic_XMC_1400_Dynamic/Libraries/XMCLib/inc\xmc_gpio.h **** /**
 244:C:/GitHub/MobRob_Rover_NEW/Ultrasonic_Sensor_Node/Ultrasonic_XMC_1400_Dynamic/Libraries/XMCLib/inc\xmc_gpio.h ****  * @param  port constant pointer pointing to GPIO port, to access hardware register Pn_OMR.
 245:C:/GitHub/MobRob_Rover_NEW/Ultrasonic_Sensor_Node/Ultrasonic_XMC_1400_Dynamic/Libraries/XMCLib/inc\xmc_gpio.h ****  * @param  pin	Port pin number.
 246:C:/GitHub/MobRob_Rover_NEW/Ultrasonic_Sensor_Node/Ultrasonic_XMC_1400_Dynamic/Libraries/XMCLib/inc\xmc_gpio.h ****  *
 247:C:/GitHub/MobRob_Rover_NEW/Ultrasonic_Sensor_Node/Ultrasonic_XMC_1400_Dynamic/Libraries/XMCLib/inc\xmc_gpio.h ****  * @return None
 248:C:/GitHub/MobRob_Rover_NEW/Ultrasonic_Sensor_Node/Ultrasonic_XMC_1400_Dynamic/Libraries/XMCLib/inc\xmc_gpio.h ****  *
 249:C:/GitHub/MobRob_Rover_NEW/Ultrasonic_Sensor_Node/Ultrasonic_XMC_1400_Dynamic/Libraries/XMCLib/inc\xmc_gpio.h ****  * \par<b>Description:</b><br>
 250:C:/GitHub/MobRob_Rover_NEW/Ultrasonic_Sensor_Node/Ultrasonic_XMC_1400_Dynamic/Libraries/XMCLib/inc\xmc_gpio.h ****  *  Sets port pin output to high. It configures hardware registers Pn_OMR.
 251:C:/GitHub/MobRob_Rover_NEW/Ultrasonic_Sensor_Node/Ultrasonic_XMC_1400_Dynamic/Libraries/XMCLib/inc\xmc_gpio.h ****  *
 252:C:/GitHub/MobRob_Rover_NEW/Ultrasonic_Sensor_Node/Ultrasonic_XMC_1400_Dynamic/Libraries/XMCLib/inc\xmc_gpio.h ****  *  \par<b>Related APIs:</b><BR>
 253:C:/GitHub/MobRob_Rover_NEW/Ultrasonic_Sensor_Node/Ultrasonic_XMC_1400_Dynamic/Libraries/XMCLib/inc\xmc_gpio.h ****  *  XMC_GPIO_SetOutputLow()
 254:C:/GitHub/MobRob_Rover_NEW/Ultrasonic_Sensor_Node/Ultrasonic_XMC_1400_Dynamic/Libraries/XMCLib/inc\xmc_gpio.h ****  *
 255:C:/GitHub/MobRob_Rover_NEW/Ultrasonic_Sensor_Node/Ultrasonic_XMC_1400_Dynamic/Libraries/XMCLib/inc\xmc_gpio.h ****  * \par<b>Note:</b><br>
 256:C:/GitHub/MobRob_Rover_NEW/Ultrasonic_Sensor_Node/Ultrasonic_XMC_1400_Dynamic/Libraries/XMCLib/inc\xmc_gpio.h ****  * Prior to this api, user has to configure port pin to output mode using XMC_GPIO_SetMode().\n
 257:C:/GitHub/MobRob_Rover_NEW/Ultrasonic_Sensor_Node/Ultrasonic_XMC_1400_Dynamic/Libraries/XMCLib/inc\xmc_gpio.h ****  * Register Pn_OMR is virtual and does not contain any flip-flop. A read action delivers the value 
 258:C:/GitHub/MobRob_Rover_NEW/Ultrasonic_Sensor_Node/Ultrasonic_XMC_1400_Dynamic/Libraries/XMCLib/inc\xmc_gpio.h ****  *
 259:C:/GitHub/MobRob_Rover_NEW/Ultrasonic_Sensor_Node/Ultrasonic_XMC_1400_Dynamic/Libraries/XMCLib/inc\xmc_gpio.h ****  */
 260:C:/GitHub/MobRob_Rover_NEW/Ultrasonic_Sensor_Node/Ultrasonic_XMC_1400_Dynamic/Libraries/XMCLib/inc\xmc_gpio.h **** 
 261:C:/GitHub/MobRob_Rover_NEW/Ultrasonic_Sensor_Node/Ultrasonic_XMC_1400_Dynamic/Libraries/XMCLib/inc\xmc_gpio.h **** __STATIC_INLINE void XMC_GPIO_SetOutputHigh(XMC_GPIO_PORT_t *const port, const uint8_t pin)
 262:C:/GitHub/MobRob_Rover_NEW/Ultrasonic_Sensor_Node/Ultrasonic_XMC_1400_Dynamic/Libraries/XMCLib/inc\xmc_gpio.h **** {
  25              	 .loc 1 262 0
  26              	 .cfi_startproc
  27 0000 80B5     	 push {r7,lr}
  28              	.LCFI0:
  29              	 .cfi_def_cfa_offset 8
  30              	 .cfi_offset 7,-8
  31              	 .cfi_offset 14,-4
  32 0002 82B0     	 sub sp,sp,#8
  33              	.LCFI1:
  34              	 .cfi_def_cfa_offset 16
  35 0004 00AF     	 add r7,sp,#0
  36              	.LCFI2:
  37              	 .cfi_def_cfa_register 7
  38 0006 7860     	 str r0,[r7,#4]
  39 0008 0A1C     	 mov r2,r1
  40 000a FB1C     	 add r3,r7,#3
  41 000c 1A70     	 strb r2,[r3]
 263:C:/GitHub/MobRob_Rover_NEW/Ultrasonic_Sensor_Node/Ultrasonic_XMC_1400_Dynamic/Libraries/XMCLib/inc\xmc_gpio.h ****   XMC_ASSERT("XMC_GPIO_SetOutputHigh: Invalid port", XMC_GPIO_CHECK_OUTPUT_PORT(port));
 264:C:/GitHub/MobRob_Rover_NEW/Ultrasonic_Sensor_Node/Ultrasonic_XMC_1400_Dynamic/Libraries/XMCLib/inc\xmc_gpio.h **** 
 265:C:/GitHub/MobRob_Rover_NEW/Ultrasonic_Sensor_Node/Ultrasonic_XMC_1400_Dynamic/Libraries/XMCLib/inc\xmc_gpio.h ****   port->OMR = (uint32_t)0x1U << pin;
  42              	 .loc 1 265 0
  43 000e FB1C     	 add r3,r7,#3
  44 0010 1B78     	 ldrb r3,[r3]
  45 0012 0122     	 mov r2,#1
  46 0014 9A40     	 lsl r2,r2,r3
  47 0016 7B68     	 ldr r3,[r7,#4]
  48 0018 5A60     	 str r2,[r3,#4]
 266:C:/GitHub/MobRob_Rover_NEW/Ultrasonic_Sensor_Node/Ultrasonic_XMC_1400_Dynamic/Libraries/XMCLib/inc\xmc_gpio.h **** }
  49              	 .loc 1 266 0
  50 001a BD46     	 mov sp,r7
  51 001c 02B0     	 add sp,sp,#8
  52              	 
  53 001e 80BD     	 pop {r7,pc}
  54              	 .cfi_endproc
  55              	.LFE122:
  57              	 .section .text.XMC_GPIO_SetOutputLow,"ax",%progbits
  58              	 .align 2
  59              	 .code 16
  60              	 .thumb_func
  62              	XMC_GPIO_SetOutputLow:
  63              	.LFB123:
 267:C:/GitHub/MobRob_Rover_NEW/Ultrasonic_Sensor_Node/Ultrasonic_XMC_1400_Dynamic/Libraries/XMCLib/inc\xmc_gpio.h **** 
 268:C:/GitHub/MobRob_Rover_NEW/Ultrasonic_Sensor_Node/Ultrasonic_XMC_1400_Dynamic/Libraries/XMCLib/inc\xmc_gpio.h **** /**
 269:C:/GitHub/MobRob_Rover_NEW/Ultrasonic_Sensor_Node/Ultrasonic_XMC_1400_Dynamic/Libraries/XMCLib/inc\xmc_gpio.h ****  *
 270:C:/GitHub/MobRob_Rover_NEW/Ultrasonic_Sensor_Node/Ultrasonic_XMC_1400_Dynamic/Libraries/XMCLib/inc\xmc_gpio.h ****  * @param  port	constant pointer pointing to GPIO port, to access hardware register Pn_OMR.
 271:C:/GitHub/MobRob_Rover_NEW/Ultrasonic_Sensor_Node/Ultrasonic_XMC_1400_Dynamic/Libraries/XMCLib/inc\xmc_gpio.h ****  * @param  pin	port pin number.
 272:C:/GitHub/MobRob_Rover_NEW/Ultrasonic_Sensor_Node/Ultrasonic_XMC_1400_Dynamic/Libraries/XMCLib/inc\xmc_gpio.h ****  *
 273:C:/GitHub/MobRob_Rover_NEW/Ultrasonic_Sensor_Node/Ultrasonic_XMC_1400_Dynamic/Libraries/XMCLib/inc\xmc_gpio.h ****  * @return  None
 274:C:/GitHub/MobRob_Rover_NEW/Ultrasonic_Sensor_Node/Ultrasonic_XMC_1400_Dynamic/Libraries/XMCLib/inc\xmc_gpio.h ****  *
 275:C:/GitHub/MobRob_Rover_NEW/Ultrasonic_Sensor_Node/Ultrasonic_XMC_1400_Dynamic/Libraries/XMCLib/inc\xmc_gpio.h ****  *\par<b>Description:</b><br>
 276:C:/GitHub/MobRob_Rover_NEW/Ultrasonic_Sensor_Node/Ultrasonic_XMC_1400_Dynamic/Libraries/XMCLib/inc\xmc_gpio.h ****  * Sets port pin output to low. It configures hardware registers Pn_OMR.\n
 277:C:/GitHub/MobRob_Rover_NEW/Ultrasonic_Sensor_Node/Ultrasonic_XMC_1400_Dynamic/Libraries/XMCLib/inc\xmc_gpio.h ****  *
 278:C:/GitHub/MobRob_Rover_NEW/Ultrasonic_Sensor_Node/Ultrasonic_XMC_1400_Dynamic/Libraries/XMCLib/inc\xmc_gpio.h ****  * \par<b>Related APIs:</b><BR>>
 279:C:/GitHub/MobRob_Rover_NEW/Ultrasonic_Sensor_Node/Ultrasonic_XMC_1400_Dynamic/Libraries/XMCLib/inc\xmc_gpio.h ****  * XMC_GPIO_SetOutputHigh()
 280:C:/GitHub/MobRob_Rover_NEW/Ultrasonic_Sensor_Node/Ultrasonic_XMC_1400_Dynamic/Libraries/XMCLib/inc\xmc_gpio.h ****  *
 281:C:/GitHub/MobRob_Rover_NEW/Ultrasonic_Sensor_Node/Ultrasonic_XMC_1400_Dynamic/Libraries/XMCLib/inc\xmc_gpio.h ****  *\par<b>Note:</b><br>
 282:C:/GitHub/MobRob_Rover_NEW/Ultrasonic_Sensor_Node/Ultrasonic_XMC_1400_Dynamic/Libraries/XMCLib/inc\xmc_gpio.h ****  * Prior to this api, user has to configure port pin to output mode using XMC_GPIO_SetMode().
 283:C:/GitHub/MobRob_Rover_NEW/Ultrasonic_Sensor_Node/Ultrasonic_XMC_1400_Dynamic/Libraries/XMCLib/inc\xmc_gpio.h ****  * Register Pn_OMR is virtual and does not contain any flip-flop. A read action delivers the value 
 284:C:/GitHub/MobRob_Rover_NEW/Ultrasonic_Sensor_Node/Ultrasonic_XMC_1400_Dynamic/Libraries/XMCLib/inc\xmc_gpio.h ****  *
 285:C:/GitHub/MobRob_Rover_NEW/Ultrasonic_Sensor_Node/Ultrasonic_XMC_1400_Dynamic/Libraries/XMCLib/inc\xmc_gpio.h ****  */
 286:C:/GitHub/MobRob_Rover_NEW/Ultrasonic_Sensor_Node/Ultrasonic_XMC_1400_Dynamic/Libraries/XMCLib/inc\xmc_gpio.h **** 
 287:C:/GitHub/MobRob_Rover_NEW/Ultrasonic_Sensor_Node/Ultrasonic_XMC_1400_Dynamic/Libraries/XMCLib/inc\xmc_gpio.h **** __STATIC_INLINE void XMC_GPIO_SetOutputLow(XMC_GPIO_PORT_t *const port, const uint8_t pin)
 288:C:/GitHub/MobRob_Rover_NEW/Ultrasonic_Sensor_Node/Ultrasonic_XMC_1400_Dynamic/Libraries/XMCLib/inc\xmc_gpio.h **** {
  64              	 .loc 1 288 0
  65              	 .cfi_startproc
  66 0000 80B5     	 push {r7,lr}
  67              	.LCFI3:
  68              	 .cfi_def_cfa_offset 8
  69              	 .cfi_offset 7,-8
  70              	 .cfi_offset 14,-4
  71 0002 82B0     	 sub sp,sp,#8
  72              	.LCFI4:
  73              	 .cfi_def_cfa_offset 16
  74 0004 00AF     	 add r7,sp,#0
  75              	.LCFI5:
  76              	 .cfi_def_cfa_register 7
  77 0006 7860     	 str r0,[r7,#4]
  78 0008 0A1C     	 mov r2,r1
  79 000a FB1C     	 add r3,r7,#3
  80 000c 1A70     	 strb r2,[r3]
 289:C:/GitHub/MobRob_Rover_NEW/Ultrasonic_Sensor_Node/Ultrasonic_XMC_1400_Dynamic/Libraries/XMCLib/inc\xmc_gpio.h ****   XMC_ASSERT("XMC_GPIO_SetOutputLow: Invalid port", XMC_GPIO_CHECK_OUTPUT_PORT(port));
 290:C:/GitHub/MobRob_Rover_NEW/Ultrasonic_Sensor_Node/Ultrasonic_XMC_1400_Dynamic/Libraries/XMCLib/inc\xmc_gpio.h **** 
 291:C:/GitHub/MobRob_Rover_NEW/Ultrasonic_Sensor_Node/Ultrasonic_XMC_1400_Dynamic/Libraries/XMCLib/inc\xmc_gpio.h ****   port->OMR = 0x10000U << pin;
  81              	 .loc 1 291 0
  82 000e FB1C     	 add r3,r7,#3
  83 0010 1B78     	 ldrb r3,[r3]
  84 0012 8022     	 mov r2,#128
  85 0014 5202     	 lsl r2,r2,#9
  86 0016 9A40     	 lsl r2,r2,r3
  87 0018 7B68     	 ldr r3,[r7,#4]
  88 001a 5A60     	 str r2,[r3,#4]
 292:C:/GitHub/MobRob_Rover_NEW/Ultrasonic_Sensor_Node/Ultrasonic_XMC_1400_Dynamic/Libraries/XMCLib/inc\xmc_gpio.h **** }
  89              	 .loc 1 292 0
  90 001c BD46     	 mov sp,r7
  91 001e 02B0     	 add sp,sp,#8
  92              	 
  93 0020 80BD     	 pop {r7,pc}
  94              	 .cfi_endproc
  95              	.LFE123:
  97 0022 C046     	 .section .text.XMC_GPIO_GetInput,"ax",%progbits
  98              	 .align 2
  99              	 .code 16
 100              	 .thumb_func
 102              	XMC_GPIO_GetInput:
 103              	.LFB125:
 293:C:/GitHub/MobRob_Rover_NEW/Ultrasonic_Sensor_Node/Ultrasonic_XMC_1400_Dynamic/Libraries/XMCLib/inc\xmc_gpio.h **** 
 294:C:/GitHub/MobRob_Rover_NEW/Ultrasonic_Sensor_Node/Ultrasonic_XMC_1400_Dynamic/Libraries/XMCLib/inc\xmc_gpio.h **** /**
 295:C:/GitHub/MobRob_Rover_NEW/Ultrasonic_Sensor_Node/Ultrasonic_XMC_1400_Dynamic/Libraries/XMCLib/inc\xmc_gpio.h ****  *
 296:C:/GitHub/MobRob_Rover_NEW/Ultrasonic_Sensor_Node/Ultrasonic_XMC_1400_Dynamic/Libraries/XMCLib/inc\xmc_gpio.h ****  * @param port constant pointer pointing to GPIO port, to access hardware register Pn_OMR.
 297:C:/GitHub/MobRob_Rover_NEW/Ultrasonic_Sensor_Node/Ultrasonic_XMC_1400_Dynamic/Libraries/XMCLib/inc\xmc_gpio.h ****  * @param pin  port pin number.
 298:C:/GitHub/MobRob_Rover_NEW/Ultrasonic_Sensor_Node/Ultrasonic_XMC_1400_Dynamic/Libraries/XMCLib/inc\xmc_gpio.h ****  *
 299:C:/GitHub/MobRob_Rover_NEW/Ultrasonic_Sensor_Node/Ultrasonic_XMC_1400_Dynamic/Libraries/XMCLib/inc\xmc_gpio.h ****  * @return None
 300:C:/GitHub/MobRob_Rover_NEW/Ultrasonic_Sensor_Node/Ultrasonic_XMC_1400_Dynamic/Libraries/XMCLib/inc\xmc_gpio.h ****  *
 301:C:/GitHub/MobRob_Rover_NEW/Ultrasonic_Sensor_Node/Ultrasonic_XMC_1400_Dynamic/Libraries/XMCLib/inc\xmc_gpio.h ****  * \par<b>Description:</b><br>
 302:C:/GitHub/MobRob_Rover_NEW/Ultrasonic_Sensor_Node/Ultrasonic_XMC_1400_Dynamic/Libraries/XMCLib/inc\xmc_gpio.h ****  * Configures port pin output to Toggle. It configures hardware registers Pn_OMR.
 303:C:/GitHub/MobRob_Rover_NEW/Ultrasonic_Sensor_Node/Ultrasonic_XMC_1400_Dynamic/Libraries/XMCLib/inc\xmc_gpio.h ****  *
 304:C:/GitHub/MobRob_Rover_NEW/Ultrasonic_Sensor_Node/Ultrasonic_XMC_1400_Dynamic/Libraries/XMCLib/inc\xmc_gpio.h ****  * \par<b>Related APIs:</b><BR>
 305:C:/GitHub/MobRob_Rover_NEW/Ultrasonic_Sensor_Node/Ultrasonic_XMC_1400_Dynamic/Libraries/XMCLib/inc\xmc_gpio.h ****  * XMC_GPIO_SetOutputHigh(), XMC_GPIO_SetOutputLow().
 306:C:/GitHub/MobRob_Rover_NEW/Ultrasonic_Sensor_Node/Ultrasonic_XMC_1400_Dynamic/Libraries/XMCLib/inc\xmc_gpio.h ****  *
 307:C:/GitHub/MobRob_Rover_NEW/Ultrasonic_Sensor_Node/Ultrasonic_XMC_1400_Dynamic/Libraries/XMCLib/inc\xmc_gpio.h ****  * \par<b>Note:</b><br>
 308:C:/GitHub/MobRob_Rover_NEW/Ultrasonic_Sensor_Node/Ultrasonic_XMC_1400_Dynamic/Libraries/XMCLib/inc\xmc_gpio.h ****  * Prior to this api, user has to configure port pin to output mode using XMC_GPIO_SetMode(). Regis
 309:C:/GitHub/MobRob_Rover_NEW/Ultrasonic_Sensor_Node/Ultrasonic_XMC_1400_Dynamic/Libraries/XMCLib/inc\xmc_gpio.h ****  * and does not contain any flip-flop. A read action delivers the value of 0.
 310:C:/GitHub/MobRob_Rover_NEW/Ultrasonic_Sensor_Node/Ultrasonic_XMC_1400_Dynamic/Libraries/XMCLib/inc\xmc_gpio.h ****  *
 311:C:/GitHub/MobRob_Rover_NEW/Ultrasonic_Sensor_Node/Ultrasonic_XMC_1400_Dynamic/Libraries/XMCLib/inc\xmc_gpio.h ****  */
 312:C:/GitHub/MobRob_Rover_NEW/Ultrasonic_Sensor_Node/Ultrasonic_XMC_1400_Dynamic/Libraries/XMCLib/inc\xmc_gpio.h **** 
 313:C:/GitHub/MobRob_Rover_NEW/Ultrasonic_Sensor_Node/Ultrasonic_XMC_1400_Dynamic/Libraries/XMCLib/inc\xmc_gpio.h **** __STATIC_INLINE void XMC_GPIO_ToggleOutput(XMC_GPIO_PORT_t *const port, const uint8_t pin)
 314:C:/GitHub/MobRob_Rover_NEW/Ultrasonic_Sensor_Node/Ultrasonic_XMC_1400_Dynamic/Libraries/XMCLib/inc\xmc_gpio.h **** {
 315:C:/GitHub/MobRob_Rover_NEW/Ultrasonic_Sensor_Node/Ultrasonic_XMC_1400_Dynamic/Libraries/XMCLib/inc\xmc_gpio.h ****   XMC_ASSERT("XMC_GPIO_ToggleOutput: Invalid port", XMC_GPIO_CHECK_OUTPUT_PORT(port));
 316:C:/GitHub/MobRob_Rover_NEW/Ultrasonic_Sensor_Node/Ultrasonic_XMC_1400_Dynamic/Libraries/XMCLib/inc\xmc_gpio.h **** 
 317:C:/GitHub/MobRob_Rover_NEW/Ultrasonic_Sensor_Node/Ultrasonic_XMC_1400_Dynamic/Libraries/XMCLib/inc\xmc_gpio.h ****   port->OMR = 0x10001U << pin;
 318:C:/GitHub/MobRob_Rover_NEW/Ultrasonic_Sensor_Node/Ultrasonic_XMC_1400_Dynamic/Libraries/XMCLib/inc\xmc_gpio.h **** }
 319:C:/GitHub/MobRob_Rover_NEW/Ultrasonic_Sensor_Node/Ultrasonic_XMC_1400_Dynamic/Libraries/XMCLib/inc\xmc_gpio.h **** 
 320:C:/GitHub/MobRob_Rover_NEW/Ultrasonic_Sensor_Node/Ultrasonic_XMC_1400_Dynamic/Libraries/XMCLib/inc\xmc_gpio.h **** /**
 321:C:/GitHub/MobRob_Rover_NEW/Ultrasonic_Sensor_Node/Ultrasonic_XMC_1400_Dynamic/Libraries/XMCLib/inc\xmc_gpio.h ****  *
 322:C:/GitHub/MobRob_Rover_NEW/Ultrasonic_Sensor_Node/Ultrasonic_XMC_1400_Dynamic/Libraries/XMCLib/inc\xmc_gpio.h ****  * @param port constant pointer pointing to GPIO port, to access hardware register Pn_IN.
 323:C:/GitHub/MobRob_Rover_NEW/Ultrasonic_Sensor_Node/Ultrasonic_XMC_1400_Dynamic/Libraries/XMCLib/inc\xmc_gpio.h ****  * @param pin  Port pin number.
 324:C:/GitHub/MobRob_Rover_NEW/Ultrasonic_Sensor_Node/Ultrasonic_XMC_1400_Dynamic/Libraries/XMCLib/inc\xmc_gpio.h ****  *
 325:C:/GitHub/MobRob_Rover_NEW/Ultrasonic_Sensor_Node/Ultrasonic_XMC_1400_Dynamic/Libraries/XMCLib/inc\xmc_gpio.h ****  * @return uint32_t pin logic level status.
 326:C:/GitHub/MobRob_Rover_NEW/Ultrasonic_Sensor_Node/Ultrasonic_XMC_1400_Dynamic/Libraries/XMCLib/inc\xmc_gpio.h ****  *
 327:C:/GitHub/MobRob_Rover_NEW/Ultrasonic_Sensor_Node/Ultrasonic_XMC_1400_Dynamic/Libraries/XMCLib/inc\xmc_gpio.h ****  *\par<b>Description:</b><br>
 328:C:/GitHub/MobRob_Rover_NEW/Ultrasonic_Sensor_Node/Ultrasonic_XMC_1400_Dynamic/Libraries/XMCLib/inc\xmc_gpio.h ****  * Reads the Pn_IN register and returns the current logical value at the GPIO pin.
 329:C:/GitHub/MobRob_Rover_NEW/Ultrasonic_Sensor_Node/Ultrasonic_XMC_1400_Dynamic/Libraries/XMCLib/inc\xmc_gpio.h ****  *
 330:C:/GitHub/MobRob_Rover_NEW/Ultrasonic_Sensor_Node/Ultrasonic_XMC_1400_Dynamic/Libraries/XMCLib/inc\xmc_gpio.h ****  * \par<b>Related APIs:</b><BR>
 331:C:/GitHub/MobRob_Rover_NEW/Ultrasonic_Sensor_Node/Ultrasonic_XMC_1400_Dynamic/Libraries/XMCLib/inc\xmc_gpio.h ****  * None
 332:C:/GitHub/MobRob_Rover_NEW/Ultrasonic_Sensor_Node/Ultrasonic_XMC_1400_Dynamic/Libraries/XMCLib/inc\xmc_gpio.h ****  *
 333:C:/GitHub/MobRob_Rover_NEW/Ultrasonic_Sensor_Node/Ultrasonic_XMC_1400_Dynamic/Libraries/XMCLib/inc\xmc_gpio.h ****  * \par<b>Note:</b><br>
 334:C:/GitHub/MobRob_Rover_NEW/Ultrasonic_Sensor_Node/Ultrasonic_XMC_1400_Dynamic/Libraries/XMCLib/inc\xmc_gpio.h ****  * Prior to this api, user has to configure port pin to input mode using XMC_GPIO_SetMode().
 335:C:/GitHub/MobRob_Rover_NEW/Ultrasonic_Sensor_Node/Ultrasonic_XMC_1400_Dynamic/Libraries/XMCLib/inc\xmc_gpio.h ****  *
 336:C:/GitHub/MobRob_Rover_NEW/Ultrasonic_Sensor_Node/Ultrasonic_XMC_1400_Dynamic/Libraries/XMCLib/inc\xmc_gpio.h ****  */
 337:C:/GitHub/MobRob_Rover_NEW/Ultrasonic_Sensor_Node/Ultrasonic_XMC_1400_Dynamic/Libraries/XMCLib/inc\xmc_gpio.h **** 
 338:C:/GitHub/MobRob_Rover_NEW/Ultrasonic_Sensor_Node/Ultrasonic_XMC_1400_Dynamic/Libraries/XMCLib/inc\xmc_gpio.h **** __STATIC_INLINE uint32_t XMC_GPIO_GetInput(XMC_GPIO_PORT_t *const port, const uint8_t pin)
 339:C:/GitHub/MobRob_Rover_NEW/Ultrasonic_Sensor_Node/Ultrasonic_XMC_1400_Dynamic/Libraries/XMCLib/inc\xmc_gpio.h **** {
 104              	 .loc 1 339 0
 105              	 .cfi_startproc
 106 0000 80B5     	 push {r7,lr}
 107              	.LCFI6:
 108              	 .cfi_def_cfa_offset 8
 109              	 .cfi_offset 7,-8
 110              	 .cfi_offset 14,-4
 111 0002 82B0     	 sub sp,sp,#8
 112              	.LCFI7:
 113              	 .cfi_def_cfa_offset 16
 114 0004 00AF     	 add r7,sp,#0
 115              	.LCFI8:
 116              	 .cfi_def_cfa_register 7
 117 0006 7860     	 str r0,[r7,#4]
 118 0008 0A1C     	 mov r2,r1
 119 000a FB1C     	 add r3,r7,#3
 120 000c 1A70     	 strb r2,[r3]
 340:C:/GitHub/MobRob_Rover_NEW/Ultrasonic_Sensor_Node/Ultrasonic_XMC_1400_Dynamic/Libraries/XMCLib/inc\xmc_gpio.h ****   XMC_ASSERT("XMC_GPIO_GetInput: Invalid port", XMC_GPIO_CHECK_PORT(port));
 341:C:/GitHub/MobRob_Rover_NEW/Ultrasonic_Sensor_Node/Ultrasonic_XMC_1400_Dynamic/Libraries/XMCLib/inc\xmc_gpio.h **** 
 342:C:/GitHub/MobRob_Rover_NEW/Ultrasonic_Sensor_Node/Ultrasonic_XMC_1400_Dynamic/Libraries/XMCLib/inc\xmc_gpio.h ****   return (((port->IN) >> pin) & 0x1U);
 121              	 .loc 1 342 0
 122 000e 7B68     	 ldr r3,[r7,#4]
 123 0010 5A6A     	 ldr r2,[r3,#36]
 124 0012 FB1C     	 add r3,r7,#3
 125 0014 1B78     	 ldrb r3,[r3]
 126 0016 DA40     	 lsr r2,r2,r3
 127 0018 131C     	 mov r3,r2
 128 001a 0122     	 mov r2,#1
 129 001c 1340     	 and r3,r2
 343:C:/GitHub/MobRob_Rover_NEW/Ultrasonic_Sensor_Node/Ultrasonic_XMC_1400_Dynamic/Libraries/XMCLib/inc\xmc_gpio.h **** }
 130              	 .loc 1 343 0
 131 001e 181C     	 mov r0,r3
 132 0020 BD46     	 mov sp,r7
 133 0022 02B0     	 add sp,sp,#8
 134              	 
 135 0024 80BD     	 pop {r7,pc}
 136              	 .cfi_endproc
 137              	.LFE125:
 139 0026 C046     	 .section .text.PIN_INTERRUPT_GetPinValue,"ax",%progbits
 140              	 .align 2
 141              	 .code 16
 142              	 .thumb_func
 144              	PIN_INTERRUPT_GetPinValue:
 145              	.LFB136:
 146              	 .file 2 "C:/GitHub/MobRob_Rover_NEW/Ultrasonic_Sensor_Node/Ultrasonic_XMC_1400_Dynamic/Dave/Generated/PIN_INTERRUPT/pin_interrupt.h"
   1:C:/GitHub/MobRob_Rover_NEW/Ultrasonic_Sensor_Node/Ultrasonic_XMC_1400_Dynamic/Dave/Generated/PIN_INTERRUPT\pin_interrupt.h **** /**
   2:C:/GitHub/MobRob_Rover_NEW/Ultrasonic_Sensor_Node/Ultrasonic_XMC_1400_Dynamic/Dave/Generated/PIN_INTERRUPT\pin_interrupt.h ****  * @file pin_interrupt.h
   3:C:/GitHub/MobRob_Rover_NEW/Ultrasonic_Sensor_Node/Ultrasonic_XMC_1400_Dynamic/Dave/Generated/PIN_INTERRUPT\pin_interrupt.h ****  * @date 2021-01-08
   4:C:/GitHub/MobRob_Rover_NEW/Ultrasonic_Sensor_Node/Ultrasonic_XMC_1400_Dynamic/Dave/Generated/PIN_INTERRUPT\pin_interrupt.h ****  *
   5:C:/GitHub/MobRob_Rover_NEW/Ultrasonic_Sensor_Node/Ultrasonic_XMC_1400_Dynamic/Dave/Generated/PIN_INTERRUPT\pin_interrupt.h ****  * NOTE:
   6:C:/GitHub/MobRob_Rover_NEW/Ultrasonic_Sensor_Node/Ultrasonic_XMC_1400_Dynamic/Dave/Generated/PIN_INTERRUPT\pin_interrupt.h ****  * This file is generated by DAVE. Any manual modification done to this file will be lost when the 
   7:C:/GitHub/MobRob_Rover_NEW/Ultrasonic_Sensor_Node/Ultrasonic_XMC_1400_Dynamic/Dave/Generated/PIN_INTERRUPT\pin_interrupt.h ****  *
   8:C:/GitHub/MobRob_Rover_NEW/Ultrasonic_Sensor_Node/Ultrasonic_XMC_1400_Dynamic/Dave/Generated/PIN_INTERRUPT\pin_interrupt.h ****  * @cond
   9:C:/GitHub/MobRob_Rover_NEW/Ultrasonic_Sensor_Node/Ultrasonic_XMC_1400_Dynamic/Dave/Generated/PIN_INTERRUPT\pin_interrupt.h ****  **************************************************************************************************
  10:C:/GitHub/MobRob_Rover_NEW/Ultrasonic_Sensor_Node/Ultrasonic_XMC_1400_Dynamic/Dave/Generated/PIN_INTERRUPT\pin_interrupt.h ****  * PIN_INTERRUPT v4.0.4 - The PIN_INTERRUPT APP invokes user interrupt handler in a response to ris
  11:C:/GitHub/MobRob_Rover_NEW/Ultrasonic_Sensor_Node/Ultrasonic_XMC_1400_Dynamic/Dave/Generated/PIN_INTERRUPT\pin_interrupt.h ****  *                        edge event signal on a pin.
  12:C:/GitHub/MobRob_Rover_NEW/Ultrasonic_Sensor_Node/Ultrasonic_XMC_1400_Dynamic/Dave/Generated/PIN_INTERRUPT\pin_interrupt.h ****  *
  13:C:/GitHub/MobRob_Rover_NEW/Ultrasonic_Sensor_Node/Ultrasonic_XMC_1400_Dynamic/Dave/Generated/PIN_INTERRUPT\pin_interrupt.h ****  * Copyright (c) 2016-2020, Infineon Technologies AG
  14:C:/GitHub/MobRob_Rover_NEW/Ultrasonic_Sensor_Node/Ultrasonic_XMC_1400_Dynamic/Dave/Generated/PIN_INTERRUPT\pin_interrupt.h ****  * All rights reserved.                        
  15:C:/GitHub/MobRob_Rover_NEW/Ultrasonic_Sensor_Node/Ultrasonic_XMC_1400_Dynamic/Dave/Generated/PIN_INTERRUPT\pin_interrupt.h ****  *                                             
  16:C:/GitHub/MobRob_Rover_NEW/Ultrasonic_Sensor_Node/Ultrasonic_XMC_1400_Dynamic/Dave/Generated/PIN_INTERRUPT\pin_interrupt.h ****  * Redistribution and use in source and binary forms, with or without modification,are permitted pr
  17:C:/GitHub/MobRob_Rover_NEW/Ultrasonic_Sensor_Node/Ultrasonic_XMC_1400_Dynamic/Dave/Generated/PIN_INTERRUPT\pin_interrupt.h ****  * following conditions are met:   
  18:C:/GitHub/MobRob_Rover_NEW/Ultrasonic_Sensor_Node/Ultrasonic_XMC_1400_Dynamic/Dave/Generated/PIN_INTERRUPT\pin_interrupt.h ****  *                                                                              
  19:C:/GitHub/MobRob_Rover_NEW/Ultrasonic_Sensor_Node/Ultrasonic_XMC_1400_Dynamic/Dave/Generated/PIN_INTERRUPT\pin_interrupt.h ****  *   Redistributions of source code must retain the above copyright notice, this list of conditions
  20:C:/GitHub/MobRob_Rover_NEW/Ultrasonic_Sensor_Node/Ultrasonic_XMC_1400_Dynamic/Dave/Generated/PIN_INTERRUPT\pin_interrupt.h ****  *   disclaimer.                        
  21:C:/GitHub/MobRob_Rover_NEW/Ultrasonic_Sensor_Node/Ultrasonic_XMC_1400_Dynamic/Dave/Generated/PIN_INTERRUPT\pin_interrupt.h ****  * 
  22:C:/GitHub/MobRob_Rover_NEW/Ultrasonic_Sensor_Node/Ultrasonic_XMC_1400_Dynamic/Dave/Generated/PIN_INTERRUPT\pin_interrupt.h ****  *   Redistributions in binary form must reproduce the above copyright notice, this list of conditi
  23:C:/GitHub/MobRob_Rover_NEW/Ultrasonic_Sensor_Node/Ultrasonic_XMC_1400_Dynamic/Dave/Generated/PIN_INTERRUPT\pin_interrupt.h ****  *   disclaimer in the documentation and/or other materials provided with the distribution.     
  24:C:/GitHub/MobRob_Rover_NEW/Ultrasonic_Sensor_Node/Ultrasonic_XMC_1400_Dynamic/Dave/Generated/PIN_INTERRUPT\pin_interrupt.h ****  *                         
  25:C:/GitHub/MobRob_Rover_NEW/Ultrasonic_Sensor_Node/Ultrasonic_XMC_1400_Dynamic/Dave/Generated/PIN_INTERRUPT\pin_interrupt.h ****  *   Neither the name of the copyright holders nor the names of its contributors may be used to end
  26:C:/GitHub/MobRob_Rover_NEW/Ultrasonic_Sensor_Node/Ultrasonic_XMC_1400_Dynamic/Dave/Generated/PIN_INTERRUPT\pin_interrupt.h ****  *   products derived from this software without specific prior written permission. 
  27:C:/GitHub/MobRob_Rover_NEW/Ultrasonic_Sensor_Node/Ultrasonic_XMC_1400_Dynamic/Dave/Generated/PIN_INTERRUPT\pin_interrupt.h ****  *                                             
  28:C:/GitHub/MobRob_Rover_NEW/Ultrasonic_Sensor_Node/Ultrasonic_XMC_1400_Dynamic/Dave/Generated/PIN_INTERRUPT\pin_interrupt.h ****  * THIS SOFTWARE IS PROVIDED BY THE COPYRIGHT HOLDERS AND CONTRIBUTORS "AS IS" AND ANY EXPRESS OR I
  29:C:/GitHub/MobRob_Rover_NEW/Ultrasonic_Sensor_Node/Ultrasonic_XMC_1400_Dynamic/Dave/Generated/PIN_INTERRUPT\pin_interrupt.h ****  * INCLUDING, BUT NOT LIMITED TO, THE IMPLIED WARRANTIES OF MERCHANTABILITY AND FITNESS FOR A PARTI
  30:C:/GitHub/MobRob_Rover_NEW/Ultrasonic_Sensor_Node/Ultrasonic_XMC_1400_Dynamic/Dave/Generated/PIN_INTERRUPT\pin_interrupt.h ****  * DISCLAIMED. IN NO EVENT SHALL THE COPYRIGHT HOLDER OR CONTRIBUTORS BE LIABLE  FOR ANY DIRECT, IN
  31:C:/GitHub/MobRob_Rover_NEW/Ultrasonic_Sensor_Node/Ultrasonic_XMC_1400_Dynamic/Dave/Generated/PIN_INTERRUPT\pin_interrupt.h ****  * SPECIAL, EXEMPLARY, OR CONSEQUENTIAL DAMAGES (INCLUDING, BUT NOT LIMITED TO, PROCUREMENT OF SUBS
  32:C:/GitHub/MobRob_Rover_NEW/Ultrasonic_Sensor_Node/Ultrasonic_XMC_1400_Dynamic/Dave/Generated/PIN_INTERRUPT\pin_interrupt.h ****  * SERVICES; LOSS OF USE, DATA, OR PROFITS; OR BUSINESS INTERRUPTION) HOWEVER CAUSED AND ON ANY THE
  33:C:/GitHub/MobRob_Rover_NEW/Ultrasonic_Sensor_Node/Ultrasonic_XMC_1400_Dynamic/Dave/Generated/PIN_INTERRUPT\pin_interrupt.h ****  * WHETHER IN CONTRACT, STRICT LIABILITY,OR TORT (INCLUDING NEGLIGENCE OR OTHERWISE) ARISING IN ANY
  34:C:/GitHub/MobRob_Rover_NEW/Ultrasonic_Sensor_Node/Ultrasonic_XMC_1400_Dynamic/Dave/Generated/PIN_INTERRUPT\pin_interrupt.h ****  * USE OF THIS SOFTWARE, EVEN IF ADVISED OF THE POSSIBILITY OF SUCH DAMAGE.    
  35:C:/GitHub/MobRob_Rover_NEW/Ultrasonic_Sensor_Node/Ultrasonic_XMC_1400_Dynamic/Dave/Generated/PIN_INTERRUPT\pin_interrupt.h ****  *                                                                              
  36:C:/GitHub/MobRob_Rover_NEW/Ultrasonic_Sensor_Node/Ultrasonic_XMC_1400_Dynamic/Dave/Generated/PIN_INTERRUPT\pin_interrupt.h ****  * To improve the quality of the software, users are encouraged to share modifications, enhancement
  37:C:/GitHub/MobRob_Rover_NEW/Ultrasonic_Sensor_Node/Ultrasonic_XMC_1400_Dynamic/Dave/Generated/PIN_INTERRUPT\pin_interrupt.h ****  * with Infineon Technologies AG (dave@infineon.com).         
  38:C:/GitHub/MobRob_Rover_NEW/Ultrasonic_Sensor_Node/Ultrasonic_XMC_1400_Dynamic/Dave/Generated/PIN_INTERRUPT\pin_interrupt.h ****  **************************************************************************************************
  39:C:/GitHub/MobRob_Rover_NEW/Ultrasonic_Sensor_Node/Ultrasonic_XMC_1400_Dynamic/Dave/Generated/PIN_INTERRUPT\pin_interrupt.h ****  *
  40:C:/GitHub/MobRob_Rover_NEW/Ultrasonic_Sensor_Node/Ultrasonic_XMC_1400_Dynamic/Dave/Generated/PIN_INTERRUPT\pin_interrupt.h ****  * Change History
  41:C:/GitHub/MobRob_Rover_NEW/Ultrasonic_Sensor_Node/Ultrasonic_XMC_1400_Dynamic/Dave/Generated/PIN_INTERRUPT\pin_interrupt.h ****  * --------------
  42:C:/GitHub/MobRob_Rover_NEW/Ultrasonic_Sensor_Node/Ultrasonic_XMC_1400_Dynamic/Dave/Generated/PIN_INTERRUPT\pin_interrupt.h ****  * 2015-12-03:
  43:C:/GitHub/MobRob_Rover_NEW/Ultrasonic_Sensor_Node/Ultrasonic_XMC_1400_Dynamic/Dave/Generated/PIN_INTERRUPT\pin_interrupt.h ****  *     - Initial version for DAVEv4. <BR>
  44:C:/GitHub/MobRob_Rover_NEW/Ultrasonic_Sensor_Node/Ultrasonic_XMC_1400_Dynamic/Dave/Generated/PIN_INTERRUPT\pin_interrupt.h ****  * 
  45:C:/GitHub/MobRob_Rover_NEW/Ultrasonic_Sensor_Node/Ultrasonic_XMC_1400_Dynamic/Dave/Generated/PIN_INTERRUPT\pin_interrupt.h ****  * 2021-01-08:
  46:C:/GitHub/MobRob_Rover_NEW/Ultrasonic_Sensor_Node/Ultrasonic_XMC_1400_Dynamic/Dave/Generated/PIN_INTERRUPT\pin_interrupt.h ****  *     - Modified check for minimum XMCLib version
  47:C:/GitHub/MobRob_Rover_NEW/Ultrasonic_Sensor_Node/Ultrasonic_XMC_1400_Dynamic/Dave/Generated/PIN_INTERRUPT\pin_interrupt.h ****  *
  48:C:/GitHub/MobRob_Rover_NEW/Ultrasonic_Sensor_Node/Ultrasonic_XMC_1400_Dynamic/Dave/Generated/PIN_INTERRUPT\pin_interrupt.h ****  * @endcond 
  49:C:/GitHub/MobRob_Rover_NEW/Ultrasonic_Sensor_Node/Ultrasonic_XMC_1400_Dynamic/Dave/Generated/PIN_INTERRUPT\pin_interrupt.h ****  *
  50:C:/GitHub/MobRob_Rover_NEW/Ultrasonic_Sensor_Node/Ultrasonic_XMC_1400_Dynamic/Dave/Generated/PIN_INTERRUPT\pin_interrupt.h ****  */
  51:C:/GitHub/MobRob_Rover_NEW/Ultrasonic_Sensor_Node/Ultrasonic_XMC_1400_Dynamic/Dave/Generated/PIN_INTERRUPT\pin_interrupt.h **** 
  52:C:/GitHub/MobRob_Rover_NEW/Ultrasonic_Sensor_Node/Ultrasonic_XMC_1400_Dynamic/Dave/Generated/PIN_INTERRUPT\pin_interrupt.h **** #ifndef PIN_INTERRUPT_H
  53:C:/GitHub/MobRob_Rover_NEW/Ultrasonic_Sensor_Node/Ultrasonic_XMC_1400_Dynamic/Dave/Generated/PIN_INTERRUPT\pin_interrupt.h **** #define PIN_INTERRUPT_H
  54:C:/GitHub/MobRob_Rover_NEW/Ultrasonic_Sensor_Node/Ultrasonic_XMC_1400_Dynamic/Dave/Generated/PIN_INTERRUPT\pin_interrupt.h **** 
  55:C:/GitHub/MobRob_Rover_NEW/Ultrasonic_Sensor_Node/Ultrasonic_XMC_1400_Dynamic/Dave/Generated/PIN_INTERRUPT\pin_interrupt.h **** /**************************************************************************************************
  56:C:/GitHub/MobRob_Rover_NEW/Ultrasonic_Sensor_Node/Ultrasonic_XMC_1400_Dynamic/Dave/Generated/PIN_INTERRUPT\pin_interrupt.h ****  * HEADER FILES                                                                                    
  57:C:/GitHub/MobRob_Rover_NEW/Ultrasonic_Sensor_Node/Ultrasonic_XMC_1400_Dynamic/Dave/Generated/PIN_INTERRUPT\pin_interrupt.h ****  **************************************************************************************************
  58:C:/GitHub/MobRob_Rover_NEW/Ultrasonic_Sensor_Node/Ultrasonic_XMC_1400_Dynamic/Dave/Generated/PIN_INTERRUPT\pin_interrupt.h **** #if (UC_SERIES == XMC14)
  59:C:/GitHub/MobRob_Rover_NEW/Ultrasonic_Sensor_Node/Ultrasonic_XMC_1400_Dynamic/Dave/Generated/PIN_INTERRUPT\pin_interrupt.h **** #include "xmc_scu.h"
  60:C:/GitHub/MobRob_Rover_NEW/Ultrasonic_Sensor_Node/Ultrasonic_XMC_1400_Dynamic/Dave/Generated/PIN_INTERRUPT\pin_interrupt.h **** #endif
  61:C:/GitHub/MobRob_Rover_NEW/Ultrasonic_Sensor_Node/Ultrasonic_XMC_1400_Dynamic/Dave/Generated/PIN_INTERRUPT\pin_interrupt.h **** #include "xmc_gpio.h"
  62:C:/GitHub/MobRob_Rover_NEW/Ultrasonic_Sensor_Node/Ultrasonic_XMC_1400_Dynamic/Dave/Generated/PIN_INTERRUPT\pin_interrupt.h **** #include "xmc_eru.h"
  63:C:/GitHub/MobRob_Rover_NEW/Ultrasonic_Sensor_Node/Ultrasonic_XMC_1400_Dynamic/Dave/Generated/PIN_INTERRUPT\pin_interrupt.h **** 
  64:C:/GitHub/MobRob_Rover_NEW/Ultrasonic_Sensor_Node/Ultrasonic_XMC_1400_Dynamic/Dave/Generated/PIN_INTERRUPT\pin_interrupt.h **** #include "DAVE_Common.h"
  65:C:/GitHub/MobRob_Rover_NEW/Ultrasonic_Sensor_Node/Ultrasonic_XMC_1400_Dynamic/Dave/Generated/PIN_INTERRUPT\pin_interrupt.h **** #include "pin_interrupt_conf.h"
  66:C:/GitHub/MobRob_Rover_NEW/Ultrasonic_Sensor_Node/Ultrasonic_XMC_1400_Dynamic/Dave/Generated/PIN_INTERRUPT\pin_interrupt.h **** 
  67:C:/GitHub/MobRob_Rover_NEW/Ultrasonic_Sensor_Node/Ultrasonic_XMC_1400_Dynamic/Dave/Generated/PIN_INTERRUPT\pin_interrupt.h **** /**************************************************************************************************
  68:C:/GitHub/MobRob_Rover_NEW/Ultrasonic_Sensor_Node/Ultrasonic_XMC_1400_Dynamic/Dave/Generated/PIN_INTERRUPT\pin_interrupt.h ****  * MACROS                                                                                          
  69:C:/GitHub/MobRob_Rover_NEW/Ultrasonic_Sensor_Node/Ultrasonic_XMC_1400_Dynamic/Dave/Generated/PIN_INTERRUPT\pin_interrupt.h ****  **************************************************************************************************
  70:C:/GitHub/MobRob_Rover_NEW/Ultrasonic_Sensor_Node/Ultrasonic_XMC_1400_Dynamic/Dave/Generated/PIN_INTERRUPT\pin_interrupt.h **** #define PIN_INTERRUPT_XMC_LIB_MAJOR_VERSION 2
  71:C:/GitHub/MobRob_Rover_NEW/Ultrasonic_Sensor_Node/Ultrasonic_XMC_1400_Dynamic/Dave/Generated/PIN_INTERRUPT\pin_interrupt.h **** #define PIN_INTERRUPT_XMC_LIB_MINOR_VERSION 1
  72:C:/GitHub/MobRob_Rover_NEW/Ultrasonic_Sensor_Node/Ultrasonic_XMC_1400_Dynamic/Dave/Generated/PIN_INTERRUPT\pin_interrupt.h **** #define PIN_INTERRUPT_XMC_LIB_PATCH_VERSION 6
  73:C:/GitHub/MobRob_Rover_NEW/Ultrasonic_Sensor_Node/Ultrasonic_XMC_1400_Dynamic/Dave/Generated/PIN_INTERRUPT\pin_interrupt.h **** 
  74:C:/GitHub/MobRob_Rover_NEW/Ultrasonic_Sensor_Node/Ultrasonic_XMC_1400_Dynamic/Dave/Generated/PIN_INTERRUPT\pin_interrupt.h **** #if !((XMC_LIB_MAJOR_VERSION > PIN_INTERRUPT_XMC_LIB_MAJOR_VERSION) ||\
  75:C:/GitHub/MobRob_Rover_NEW/Ultrasonic_Sensor_Node/Ultrasonic_XMC_1400_Dynamic/Dave/Generated/PIN_INTERRUPT\pin_interrupt.h ****       ((XMC_LIB_MAJOR_VERSION == PIN_INTERRUPT_XMC_LIB_MAJOR_VERSION) && (XMC_LIB_MINOR_VERSION > P
  76:C:/GitHub/MobRob_Rover_NEW/Ultrasonic_Sensor_Node/Ultrasonic_XMC_1400_Dynamic/Dave/Generated/PIN_INTERRUPT\pin_interrupt.h ****       ((XMC_LIB_MAJOR_VERSION == PIN_INTERRUPT_XMC_LIB_MAJOR_VERSION) && (XMC_LIB_MINOR_VERSION == 
  77:C:/GitHub/MobRob_Rover_NEW/Ultrasonic_Sensor_Node/Ultrasonic_XMC_1400_Dynamic/Dave/Generated/PIN_INTERRUPT\pin_interrupt.h **** #error "PIN_INTERRUPT requires XMC Peripheral Library v2.1.6 or higher"
  78:C:/GitHub/MobRob_Rover_NEW/Ultrasonic_Sensor_Node/Ultrasonic_XMC_1400_Dynamic/Dave/Generated/PIN_INTERRUPT\pin_interrupt.h **** #endif
  79:C:/GitHub/MobRob_Rover_NEW/Ultrasonic_Sensor_Node/Ultrasonic_XMC_1400_Dynamic/Dave/Generated/PIN_INTERRUPT\pin_interrupt.h **** 
  80:C:/GitHub/MobRob_Rover_NEW/Ultrasonic_Sensor_Node/Ultrasonic_XMC_1400_Dynamic/Dave/Generated/PIN_INTERRUPT\pin_interrupt.h **** /**
  81:C:/GitHub/MobRob_Rover_NEW/Ultrasonic_Sensor_Node/Ultrasonic_XMC_1400_Dynamic/Dave/Generated/PIN_INTERRUPT\pin_interrupt.h ****  * @ingroup App_publicparam
  82:C:/GitHub/MobRob_Rover_NEW/Ultrasonic_Sensor_Node/Ultrasonic_XMC_1400_Dynamic/Dave/Generated/PIN_INTERRUPT\pin_interrupt.h ****  * @{
  83:C:/GitHub/MobRob_Rover_NEW/Ultrasonic_Sensor_Node/Ultrasonic_XMC_1400_Dynamic/Dave/Generated/PIN_INTERRUPT\pin_interrupt.h ****  */
  84:C:/GitHub/MobRob_Rover_NEW/Ultrasonic_Sensor_Node/Ultrasonic_XMC_1400_Dynamic/Dave/Generated/PIN_INTERRUPT\pin_interrupt.h **** /**
  85:C:/GitHub/MobRob_Rover_NEW/Ultrasonic_Sensor_Node/Ultrasonic_XMC_1400_Dynamic/Dave/Generated/PIN_INTERRUPT\pin_interrupt.h ****  *  @brief Initialization data structure for PIN_INTERRUPT APP
  86:C:/GitHub/MobRob_Rover_NEW/Ultrasonic_Sensor_Node/Ultrasonic_XMC_1400_Dynamic/Dave/Generated/PIN_INTERRUPT\pin_interrupt.h ****  */
  87:C:/GitHub/MobRob_Rover_NEW/Ultrasonic_Sensor_Node/Ultrasonic_XMC_1400_Dynamic/Dave/Generated/PIN_INTERRUPT\pin_interrupt.h **** 
  88:C:/GitHub/MobRob_Rover_NEW/Ultrasonic_Sensor_Node/Ultrasonic_XMC_1400_Dynamic/Dave/Generated/PIN_INTERRUPT\pin_interrupt.h **** /**
  89:C:/GitHub/MobRob_Rover_NEW/Ultrasonic_Sensor_Node/Ultrasonic_XMC_1400_Dynamic/Dave/Generated/PIN_INTERRUPT\pin_interrupt.h ****  * @}
  90:C:/GitHub/MobRob_Rover_NEW/Ultrasonic_Sensor_Node/Ultrasonic_XMC_1400_Dynamic/Dave/Generated/PIN_INTERRUPT\pin_interrupt.h ****  */
  91:C:/GitHub/MobRob_Rover_NEW/Ultrasonic_Sensor_Node/Ultrasonic_XMC_1400_Dynamic/Dave/Generated/PIN_INTERRUPT\pin_interrupt.h **** 
  92:C:/GitHub/MobRob_Rover_NEW/Ultrasonic_Sensor_Node/Ultrasonic_XMC_1400_Dynamic/Dave/Generated/PIN_INTERRUPT\pin_interrupt.h ****  /*************************************************************************************************
  93:C:/GitHub/MobRob_Rover_NEW/Ultrasonic_Sensor_Node/Ultrasonic_XMC_1400_Dynamic/Dave/Generated/PIN_INTERRUPT\pin_interrupt.h ****  * ENUMS
  94:C:/GitHub/MobRob_Rover_NEW/Ultrasonic_Sensor_Node/Ultrasonic_XMC_1400_Dynamic/Dave/Generated/PIN_INTERRUPT\pin_interrupt.h ****  **************************************************************************************************
  95:C:/GitHub/MobRob_Rover_NEW/Ultrasonic_Sensor_Node/Ultrasonic_XMC_1400_Dynamic/Dave/Generated/PIN_INTERRUPT\pin_interrupt.h **** /**
  96:C:/GitHub/MobRob_Rover_NEW/Ultrasonic_Sensor_Node/Ultrasonic_XMC_1400_Dynamic/Dave/Generated/PIN_INTERRUPT\pin_interrupt.h ****  * @ingroup PIN_INTERRUPT_enumerations
  97:C:/GitHub/MobRob_Rover_NEW/Ultrasonic_Sensor_Node/Ultrasonic_XMC_1400_Dynamic/Dave/Generated/PIN_INTERRUPT\pin_interrupt.h ****  * @{
  98:C:/GitHub/MobRob_Rover_NEW/Ultrasonic_Sensor_Node/Ultrasonic_XMC_1400_Dynamic/Dave/Generated/PIN_INTERRUPT\pin_interrupt.h ****  */
  99:C:/GitHub/MobRob_Rover_NEW/Ultrasonic_Sensor_Node/Ultrasonic_XMC_1400_Dynamic/Dave/Generated/PIN_INTERRUPT\pin_interrupt.h **** /*
 100:C:/GitHub/MobRob_Rover_NEW/Ultrasonic_Sensor_Node/Ultrasonic_XMC_1400_Dynamic/Dave/Generated/PIN_INTERRUPT\pin_interrupt.h ****  * @brief enumeration for PIN_INTERRUPT APP
 101:C:/GitHub/MobRob_Rover_NEW/Ultrasonic_Sensor_Node/Ultrasonic_XMC_1400_Dynamic/Dave/Generated/PIN_INTERRUPT\pin_interrupt.h ****  */
 102:C:/GitHub/MobRob_Rover_NEW/Ultrasonic_Sensor_Node/Ultrasonic_XMC_1400_Dynamic/Dave/Generated/PIN_INTERRUPT\pin_interrupt.h **** typedef enum PIN_INTERRUPT_STATUS
 103:C:/GitHub/MobRob_Rover_NEW/Ultrasonic_Sensor_Node/Ultrasonic_XMC_1400_Dynamic/Dave/Generated/PIN_INTERRUPT\pin_interrupt.h **** {
 104:C:/GitHub/MobRob_Rover_NEW/Ultrasonic_Sensor_Node/Ultrasonic_XMC_1400_Dynamic/Dave/Generated/PIN_INTERRUPT\pin_interrupt.h ****   PIN_INTERRUPT_STATUS_SUCCESS = 0U,        /**<APP initialization is success */
 105:C:/GitHub/MobRob_Rover_NEW/Ultrasonic_Sensor_Node/Ultrasonic_XMC_1400_Dynamic/Dave/Generated/PIN_INTERRUPT\pin_interrupt.h ****   PIN_INTERRUPT_STATUS_FAILURE = 1U         /**<APP initialization is failure */
 106:C:/GitHub/MobRob_Rover_NEW/Ultrasonic_Sensor_Node/Ultrasonic_XMC_1400_Dynamic/Dave/Generated/PIN_INTERRUPT\pin_interrupt.h **** } PIN_INTERRUPT_STATUS_t;
 107:C:/GitHub/MobRob_Rover_NEW/Ultrasonic_Sensor_Node/Ultrasonic_XMC_1400_Dynamic/Dave/Generated/PIN_INTERRUPT\pin_interrupt.h **** 
 108:C:/GitHub/MobRob_Rover_NEW/Ultrasonic_Sensor_Node/Ultrasonic_XMC_1400_Dynamic/Dave/Generated/PIN_INTERRUPT\pin_interrupt.h **** 
 109:C:/GitHub/MobRob_Rover_NEW/Ultrasonic_Sensor_Node/Ultrasonic_XMC_1400_Dynamic/Dave/Generated/PIN_INTERRUPT\pin_interrupt.h **** /**
 110:C:/GitHub/MobRob_Rover_NEW/Ultrasonic_Sensor_Node/Ultrasonic_XMC_1400_Dynamic/Dave/Generated/PIN_INTERRUPT\pin_interrupt.h ****  * Defines trigger edge for the event generation by ETLx (Event Trigger Logic, x = [0 to 3]) unit, 
 111:C:/GitHub/MobRob_Rover_NEW/Ultrasonic_Sensor_Node/Ultrasonic_XMC_1400_Dynamic/Dave/Generated/PIN_INTERRUPT\pin_interrupt.h ****  * from ERSx(Event request source, x = [0 to 3]) unit.
 112:C:/GitHub/MobRob_Rover_NEW/Ultrasonic_Sensor_Node/Ultrasonic_XMC_1400_Dynamic/Dave/Generated/PIN_INTERRUPT\pin_interrupt.h ****  */
 113:C:/GitHub/MobRob_Rover_NEW/Ultrasonic_Sensor_Node/Ultrasonic_XMC_1400_Dynamic/Dave/Generated/PIN_INTERRUPT\pin_interrupt.h **** typedef enum PIN_INTERRUPT_EDGE
 114:C:/GitHub/MobRob_Rover_NEW/Ultrasonic_Sensor_Node/Ultrasonic_XMC_1400_Dynamic/Dave/Generated/PIN_INTERRUPT\pin_interrupt.h **** {
 115:C:/GitHub/MobRob_Rover_NEW/Ultrasonic_Sensor_Node/Ultrasonic_XMC_1400_Dynamic/Dave/Generated/PIN_INTERRUPT\pin_interrupt.h ****   PIN_INTERRUPT_EDGE_NONE = 0U, /**< no event enabled */
 116:C:/GitHub/MobRob_Rover_NEW/Ultrasonic_Sensor_Node/Ultrasonic_XMC_1400_Dynamic/Dave/Generated/PIN_INTERRUPT\pin_interrupt.h ****   PIN_INTERRUPT_EDGE_RISING = 1U,   /**< detection of rising edge generates the event */
 117:C:/GitHub/MobRob_Rover_NEW/Ultrasonic_Sensor_Node/Ultrasonic_XMC_1400_Dynamic/Dave/Generated/PIN_INTERRUPT\pin_interrupt.h ****   PIN_INTERRUPT_EDGE_FALLING = 2U,  /**< detection of falling edge generates the event */
 118:C:/GitHub/MobRob_Rover_NEW/Ultrasonic_Sensor_Node/Ultrasonic_XMC_1400_Dynamic/Dave/Generated/PIN_INTERRUPT\pin_interrupt.h ****   PIN_INTERRUPT_EDGE_BOTH = 3U      /**< detection of either edges generates the event */
 119:C:/GitHub/MobRob_Rover_NEW/Ultrasonic_Sensor_Node/Ultrasonic_XMC_1400_Dynamic/Dave/Generated/PIN_INTERRUPT\pin_interrupt.h **** } PIN_INTERRUPT_EDGE_t;
 120:C:/GitHub/MobRob_Rover_NEW/Ultrasonic_Sensor_Node/Ultrasonic_XMC_1400_Dynamic/Dave/Generated/PIN_INTERRUPT\pin_interrupt.h **** /**
 121:C:/GitHub/MobRob_Rover_NEW/Ultrasonic_Sensor_Node/Ultrasonic_XMC_1400_Dynamic/Dave/Generated/PIN_INTERRUPT\pin_interrupt.h ****  * @}
 122:C:/GitHub/MobRob_Rover_NEW/Ultrasonic_Sensor_Node/Ultrasonic_XMC_1400_Dynamic/Dave/Generated/PIN_INTERRUPT\pin_interrupt.h ****  */
 123:C:/GitHub/MobRob_Rover_NEW/Ultrasonic_Sensor_Node/Ultrasonic_XMC_1400_Dynamic/Dave/Generated/PIN_INTERRUPT\pin_interrupt.h **** 
 124:C:/GitHub/MobRob_Rover_NEW/Ultrasonic_Sensor_Node/Ultrasonic_XMC_1400_Dynamic/Dave/Generated/PIN_INTERRUPT\pin_interrupt.h **** /**************************************************************************************************
 125:C:/GitHub/MobRob_Rover_NEW/Ultrasonic_Sensor_Node/Ultrasonic_XMC_1400_Dynamic/Dave/Generated/PIN_INTERRUPT\pin_interrupt.h **** * DATA STRUCTURES
 126:C:/GitHub/MobRob_Rover_NEW/Ultrasonic_Sensor_Node/Ultrasonic_XMC_1400_Dynamic/Dave/Generated/PIN_INTERRUPT\pin_interrupt.h **** ***************************************************************************************************
 127:C:/GitHub/MobRob_Rover_NEW/Ultrasonic_Sensor_Node/Ultrasonic_XMC_1400_Dynamic/Dave/Generated/PIN_INTERRUPT\pin_interrupt.h **** /**
 128:C:/GitHub/MobRob_Rover_NEW/Ultrasonic_Sensor_Node/Ultrasonic_XMC_1400_Dynamic/Dave/Generated/PIN_INTERRUPT\pin_interrupt.h ****  * @ingroup PIN_INTERRUPT_datastructures
 129:C:/GitHub/MobRob_Rover_NEW/Ultrasonic_Sensor_Node/Ultrasonic_XMC_1400_Dynamic/Dave/Generated/PIN_INTERRUPT\pin_interrupt.h ****  * @{
 130:C:/GitHub/MobRob_Rover_NEW/Ultrasonic_Sensor_Node/Ultrasonic_XMC_1400_Dynamic/Dave/Generated/PIN_INTERRUPT\pin_interrupt.h ****  */
 131:C:/GitHub/MobRob_Rover_NEW/Ultrasonic_Sensor_Node/Ultrasonic_XMC_1400_Dynamic/Dave/Generated/PIN_INTERRUPT\pin_interrupt.h **** 
 132:C:/GitHub/MobRob_Rover_NEW/Ultrasonic_Sensor_Node/Ultrasonic_XMC_1400_Dynamic/Dave/Generated/PIN_INTERRUPT\pin_interrupt.h **** /**
 133:C:/GitHub/MobRob_Rover_NEW/Ultrasonic_Sensor_Node/Ultrasonic_XMC_1400_Dynamic/Dave/Generated/PIN_INTERRUPT\pin_interrupt.h ****  * @brief Configuration structure for PIN_INTERRUPT APP
 134:C:/GitHub/MobRob_Rover_NEW/Ultrasonic_Sensor_Node/Ultrasonic_XMC_1400_Dynamic/Dave/Generated/PIN_INTERRUPT\pin_interrupt.h ****  */
 135:C:/GitHub/MobRob_Rover_NEW/Ultrasonic_Sensor_Node/Ultrasonic_XMC_1400_Dynamic/Dave/Generated/PIN_INTERRUPT\pin_interrupt.h **** typedef struct PIN_INTERRUPT
 136:C:/GitHub/MobRob_Rover_NEW/Ultrasonic_Sensor_Node/Ultrasonic_XMC_1400_Dynamic/Dave/Generated/PIN_INTERRUPT\pin_interrupt.h **** {
 137:C:/GitHub/MobRob_Rover_NEW/Ultrasonic_Sensor_Node/Ultrasonic_XMC_1400_Dynamic/Dave/Generated/PIN_INTERRUPT\pin_interrupt.h ****   XMC_ERU_t *eru;  /**< Mapped ERU module */
 138:C:/GitHub/MobRob_Rover_NEW/Ultrasonic_Sensor_Node/Ultrasonic_XMC_1400_Dynamic/Dave/Generated/PIN_INTERRUPT\pin_interrupt.h ****   XMC_GPIO_PORT_t *port;  /**< Mapped port number */
 139:C:/GitHub/MobRob_Rover_NEW/Ultrasonic_Sensor_Node/Ultrasonic_XMC_1400_Dynamic/Dave/Generated/PIN_INTERRUPT\pin_interrupt.h ****   XMC_GPIO_CONFIG_t gpio_config;   /**< Initializes the input pin characteristics */
 140:C:/GitHub/MobRob_Rover_NEW/Ultrasonic_Sensor_Node/Ultrasonic_XMC_1400_Dynamic/Dave/Generated/PIN_INTERRUPT\pin_interrupt.h ****   XMC_ERU_ETL_CONFIG_t etl_config;  /**< reference to ERUx_ETLy (x = [0..1], y = [0..4])
 141:C:/GitHub/MobRob_Rover_NEW/Ultrasonic_Sensor_Node/Ultrasonic_XMC_1400_Dynamic/Dave/Generated/PIN_INTERRUPT\pin_interrupt.h ****                                                       module configuration */
 142:C:/GitHub/MobRob_Rover_NEW/Ultrasonic_Sensor_Node/Ultrasonic_XMC_1400_Dynamic/Dave/Generated/PIN_INTERRUPT\pin_interrupt.h **** #if (UC_SERIES == XMC14)
 143:C:/GitHub/MobRob_Rover_NEW/Ultrasonic_Sensor_Node/Ultrasonic_XMC_1400_Dynamic/Dave/Generated/PIN_INTERRUPT\pin_interrupt.h ****   XMC_SCU_IRQCTRL_t irqctrl;  /**< selects the interrupt source for a NVIC interrupt node*/
 144:C:/GitHub/MobRob_Rover_NEW/Ultrasonic_Sensor_Node/Ultrasonic_XMC_1400_Dynamic/Dave/Generated/PIN_INTERRUPT\pin_interrupt.h **** #endif
 145:C:/GitHub/MobRob_Rover_NEW/Ultrasonic_Sensor_Node/Ultrasonic_XMC_1400_Dynamic/Dave/Generated/PIN_INTERRUPT\pin_interrupt.h ****   IRQn_Type IRQn;       /**< Mapped NVIC Node */
 146:C:/GitHub/MobRob_Rover_NEW/Ultrasonic_Sensor_Node/Ultrasonic_XMC_1400_Dynamic/Dave/Generated/PIN_INTERRUPT\pin_interrupt.h ****   uint8_t irq_priority; 	  /**< Node Interrupt Priority */
 147:C:/GitHub/MobRob_Rover_NEW/Ultrasonic_Sensor_Node/Ultrasonic_XMC_1400_Dynamic/Dave/Generated/PIN_INTERRUPT\pin_interrupt.h **** #if (UC_FAMILY == XMC4)
 148:C:/GitHub/MobRob_Rover_NEW/Ultrasonic_Sensor_Node/Ultrasonic_XMC_1400_Dynamic/Dave/Generated/PIN_INTERRUPT\pin_interrupt.h ****   uint8_t irq_subpriority;  /**< Node Interrupt SubPriority only valid for XMC4x */
 149:C:/GitHub/MobRob_Rover_NEW/Ultrasonic_Sensor_Node/Ultrasonic_XMC_1400_Dynamic/Dave/Generated/PIN_INTERRUPT\pin_interrupt.h **** #endif
 150:C:/GitHub/MobRob_Rover_NEW/Ultrasonic_Sensor_Node/Ultrasonic_XMC_1400_Dynamic/Dave/Generated/PIN_INTERRUPT\pin_interrupt.h ****   uint8_t etl; /*< ETLx channel (x = [0..3])*/
 151:C:/GitHub/MobRob_Rover_NEW/Ultrasonic_Sensor_Node/Ultrasonic_XMC_1400_Dynamic/Dave/Generated/PIN_INTERRUPT\pin_interrupt.h ****   uint8_t ogu; /*< OGUy channel (y = [0..3])*/
 152:C:/GitHub/MobRob_Rover_NEW/Ultrasonic_Sensor_Node/Ultrasonic_XMC_1400_Dynamic/Dave/Generated/PIN_INTERRUPT\pin_interrupt.h ****   uint8_t pin; /*< Mapped pin number */
 153:C:/GitHub/MobRob_Rover_NEW/Ultrasonic_Sensor_Node/Ultrasonic_XMC_1400_Dynamic/Dave/Generated/PIN_INTERRUPT\pin_interrupt.h ****   bool enable_at_init;  /**< Interrupt enable for Node at initialization*/
 154:C:/GitHub/MobRob_Rover_NEW/Ultrasonic_Sensor_Node/Ultrasonic_XMC_1400_Dynamic/Dave/Generated/PIN_INTERRUPT\pin_interrupt.h **** } PIN_INTERRUPT_t;
 155:C:/GitHub/MobRob_Rover_NEW/Ultrasonic_Sensor_Node/Ultrasonic_XMC_1400_Dynamic/Dave/Generated/PIN_INTERRUPT\pin_interrupt.h **** /**
 156:C:/GitHub/MobRob_Rover_NEW/Ultrasonic_Sensor_Node/Ultrasonic_XMC_1400_Dynamic/Dave/Generated/PIN_INTERRUPT\pin_interrupt.h ****  * @}
 157:C:/GitHub/MobRob_Rover_NEW/Ultrasonic_Sensor_Node/Ultrasonic_XMC_1400_Dynamic/Dave/Generated/PIN_INTERRUPT\pin_interrupt.h ****  */
 158:C:/GitHub/MobRob_Rover_NEW/Ultrasonic_Sensor_Node/Ultrasonic_XMC_1400_Dynamic/Dave/Generated/PIN_INTERRUPT\pin_interrupt.h **** 
 159:C:/GitHub/MobRob_Rover_NEW/Ultrasonic_Sensor_Node/Ultrasonic_XMC_1400_Dynamic/Dave/Generated/PIN_INTERRUPT\pin_interrupt.h **** #ifdef __cplusplus
 160:C:/GitHub/MobRob_Rover_NEW/Ultrasonic_Sensor_Node/Ultrasonic_XMC_1400_Dynamic/Dave/Generated/PIN_INTERRUPT\pin_interrupt.h **** extern "C" {
 161:C:/GitHub/MobRob_Rover_NEW/Ultrasonic_Sensor_Node/Ultrasonic_XMC_1400_Dynamic/Dave/Generated/PIN_INTERRUPT\pin_interrupt.h **** #endif
 162:C:/GitHub/MobRob_Rover_NEW/Ultrasonic_Sensor_Node/Ultrasonic_XMC_1400_Dynamic/Dave/Generated/PIN_INTERRUPT\pin_interrupt.h **** /**************************************************************************************************
 163:C:/GitHub/MobRob_Rover_NEW/Ultrasonic_Sensor_Node/Ultrasonic_XMC_1400_Dynamic/Dave/Generated/PIN_INTERRUPT\pin_interrupt.h ****  * API Prototypes
 164:C:/GitHub/MobRob_Rover_NEW/Ultrasonic_Sensor_Node/Ultrasonic_XMC_1400_Dynamic/Dave/Generated/PIN_INTERRUPT\pin_interrupt.h ****  **************************************************************************************************
 165:C:/GitHub/MobRob_Rover_NEW/Ultrasonic_Sensor_Node/Ultrasonic_XMC_1400_Dynamic/Dave/Generated/PIN_INTERRUPT\pin_interrupt.h **** /**
 166:C:/GitHub/MobRob_Rover_NEW/Ultrasonic_Sensor_Node/Ultrasonic_XMC_1400_Dynamic/Dave/Generated/PIN_INTERRUPT\pin_interrupt.h ****  * @ingroup PIN_INTERRUPT_apidoc
 167:C:/GitHub/MobRob_Rover_NEW/Ultrasonic_Sensor_Node/Ultrasonic_XMC_1400_Dynamic/Dave/Generated/PIN_INTERRUPT\pin_interrupt.h ****  * @{
 168:C:/GitHub/MobRob_Rover_NEW/Ultrasonic_Sensor_Node/Ultrasonic_XMC_1400_Dynamic/Dave/Generated/PIN_INTERRUPT\pin_interrupt.h ****  */
 169:C:/GitHub/MobRob_Rover_NEW/Ultrasonic_Sensor_Node/Ultrasonic_XMC_1400_Dynamic/Dave/Generated/PIN_INTERRUPT\pin_interrupt.h **** /**
 170:C:/GitHub/MobRob_Rover_NEW/Ultrasonic_Sensor_Node/Ultrasonic_XMC_1400_Dynamic/Dave/Generated/PIN_INTERRUPT\pin_interrupt.h ****  * @brief Get PIN_INTERRUPT APP version
 171:C:/GitHub/MobRob_Rover_NEW/Ultrasonic_Sensor_Node/Ultrasonic_XMC_1400_Dynamic/Dave/Generated/PIN_INTERRUPT\pin_interrupt.h ****  * @return DAVE_APP_VERSION_t APP version information (major, minor and patch number)
 172:C:/GitHub/MobRob_Rover_NEW/Ultrasonic_Sensor_Node/Ultrasonic_XMC_1400_Dynamic/Dave/Generated/PIN_INTERRUPT\pin_interrupt.h ****  *
 173:C:/GitHub/MobRob_Rover_NEW/Ultrasonic_Sensor_Node/Ultrasonic_XMC_1400_Dynamic/Dave/Generated/PIN_INTERRUPT\pin_interrupt.h ****  * \par<b>Description: </b><br>
 174:C:/GitHub/MobRob_Rover_NEW/Ultrasonic_Sensor_Node/Ultrasonic_XMC_1400_Dynamic/Dave/Generated/PIN_INTERRUPT\pin_interrupt.h ****  * The function can be used to check application software compatibility with a
 175:C:/GitHub/MobRob_Rover_NEW/Ultrasonic_Sensor_Node/Ultrasonic_XMC_1400_Dynamic/Dave/Generated/PIN_INTERRUPT\pin_interrupt.h ****  * specific version of the APP.
 176:C:/GitHub/MobRob_Rover_NEW/Ultrasonic_Sensor_Node/Ultrasonic_XMC_1400_Dynamic/Dave/Generated/PIN_INTERRUPT\pin_interrupt.h ****  *
 177:C:/GitHub/MobRob_Rover_NEW/Ultrasonic_Sensor_Node/Ultrasonic_XMC_1400_Dynamic/Dave/Generated/PIN_INTERRUPT\pin_interrupt.h ****  * \par<b>Example Usage:</b><br>
 178:C:/GitHub/MobRob_Rover_NEW/Ultrasonic_Sensor_Node/Ultrasonic_XMC_1400_Dynamic/Dave/Generated/PIN_INTERRUPT\pin_interrupt.h ****  *
 179:C:/GitHub/MobRob_Rover_NEW/Ultrasonic_Sensor_Node/Ultrasonic_XMC_1400_Dynamic/Dave/Generated/PIN_INTERRUPT\pin_interrupt.h ****  * @code
 180:C:/GitHub/MobRob_Rover_NEW/Ultrasonic_Sensor_Node/Ultrasonic_XMC_1400_Dynamic/Dave/Generated/PIN_INTERRUPT\pin_interrupt.h ****  * #include "DAVE.h"
 181:C:/GitHub/MobRob_Rover_NEW/Ultrasonic_Sensor_Node/Ultrasonic_XMC_1400_Dynamic/Dave/Generated/PIN_INTERRUPT\pin_interrupt.h ****  *
 182:C:/GitHub/MobRob_Rover_NEW/Ultrasonic_Sensor_Node/Ultrasonic_XMC_1400_Dynamic/Dave/Generated/PIN_INTERRUPT\pin_interrupt.h ****  * int main(void) 
 183:C:/GitHub/MobRob_Rover_NEW/Ultrasonic_Sensor_Node/Ultrasonic_XMC_1400_Dynamic/Dave/Generated/PIN_INTERRUPT\pin_interrupt.h ****  * {
 184:C:/GitHub/MobRob_Rover_NEW/Ultrasonic_Sensor_Node/Ultrasonic_XMC_1400_Dynamic/Dave/Generated/PIN_INTERRUPT\pin_interrupt.h ****  *   DAVE_STATUS_t init_status;
 185:C:/GitHub/MobRob_Rover_NEW/Ultrasonic_Sensor_Node/Ultrasonic_XMC_1400_Dynamic/Dave/Generated/PIN_INTERRUPT\pin_interrupt.h ****  *   DAVE_APP_VERSION_t version;
 186:C:/GitHub/MobRob_Rover_NEW/Ultrasonic_Sensor_Node/Ultrasonic_XMC_1400_Dynamic/Dave/Generated/PIN_INTERRUPT\pin_interrupt.h ****  *
 187:C:/GitHub/MobRob_Rover_NEW/Ultrasonic_Sensor_Node/Ultrasonic_XMC_1400_Dynamic/Dave/Generated/PIN_INTERRUPT\pin_interrupt.h ****  *   // Initialize PIN_INTERRUPT APP:
 188:C:/GitHub/MobRob_Rover_NEW/Ultrasonic_Sensor_Node/Ultrasonic_XMC_1400_Dynamic/Dave/Generated/PIN_INTERRUPT\pin_interrupt.h ****  *   // PIN_INTERRUPT_Init() is called from within DAVE_Init().
 189:C:/GitHub/MobRob_Rover_NEW/Ultrasonic_Sensor_Node/Ultrasonic_XMC_1400_Dynamic/Dave/Generated/PIN_INTERRUPT\pin_interrupt.h ****  *   init_status = DAVE_Init();
 190:C:/GitHub/MobRob_Rover_NEW/Ultrasonic_Sensor_Node/Ultrasonic_XMC_1400_Dynamic/Dave/Generated/PIN_INTERRUPT\pin_interrupt.h ****  *
 191:C:/GitHub/MobRob_Rover_NEW/Ultrasonic_Sensor_Node/Ultrasonic_XMC_1400_Dynamic/Dave/Generated/PIN_INTERRUPT\pin_interrupt.h ****  *   if (DAVE_STATUS_SUCCESS == init_status)
 192:C:/GitHub/MobRob_Rover_NEW/Ultrasonic_Sensor_Node/Ultrasonic_XMC_1400_Dynamic/Dave/Generated/PIN_INTERRUPT\pin_interrupt.h ****  *   {
 193:C:/GitHub/MobRob_Rover_NEW/Ultrasonic_Sensor_Node/Ultrasonic_XMC_1400_Dynamic/Dave/Generated/PIN_INTERRUPT\pin_interrupt.h ****  *     version = PIN_INTERRUPT_GetAppVersion();
 194:C:/GitHub/MobRob_Rover_NEW/Ultrasonic_Sensor_Node/Ultrasonic_XMC_1400_Dynamic/Dave/Generated/PIN_INTERRUPT\pin_interrupt.h ****  *     if (version.major != 4U) {
 195:C:/GitHub/MobRob_Rover_NEW/Ultrasonic_Sensor_Node/Ultrasonic_XMC_1400_Dynamic/Dave/Generated/PIN_INTERRUPT\pin_interrupt.h ****  *       // Probably, not the right version.
 196:C:/GitHub/MobRob_Rover_NEW/Ultrasonic_Sensor_Node/Ultrasonic_XMC_1400_Dynamic/Dave/Generated/PIN_INTERRUPT\pin_interrupt.h ****  *     }
 197:C:/GitHub/MobRob_Rover_NEW/Ultrasonic_Sensor_Node/Ultrasonic_XMC_1400_Dynamic/Dave/Generated/PIN_INTERRUPT\pin_interrupt.h ****  *   }
 198:C:/GitHub/MobRob_Rover_NEW/Ultrasonic_Sensor_Node/Ultrasonic_XMC_1400_Dynamic/Dave/Generated/PIN_INTERRUPT\pin_interrupt.h ****  *
 199:C:/GitHub/MobRob_Rover_NEW/Ultrasonic_Sensor_Node/Ultrasonic_XMC_1400_Dynamic/Dave/Generated/PIN_INTERRUPT\pin_interrupt.h ****  *   // More code here
 200:C:/GitHub/MobRob_Rover_NEW/Ultrasonic_Sensor_Node/Ultrasonic_XMC_1400_Dynamic/Dave/Generated/PIN_INTERRUPT\pin_interrupt.h ****  *   while(1)
 201:C:/GitHub/MobRob_Rover_NEW/Ultrasonic_Sensor_Node/Ultrasonic_XMC_1400_Dynamic/Dave/Generated/PIN_INTERRUPT\pin_interrupt.h ****  *   {
 202:C:/GitHub/MobRob_Rover_NEW/Ultrasonic_Sensor_Node/Ultrasonic_XMC_1400_Dynamic/Dave/Generated/PIN_INTERRUPT\pin_interrupt.h ****  *   }
 203:C:/GitHub/MobRob_Rover_NEW/Ultrasonic_Sensor_Node/Ultrasonic_XMC_1400_Dynamic/Dave/Generated/PIN_INTERRUPT\pin_interrupt.h ****  *   return (1);
 204:C:/GitHub/MobRob_Rover_NEW/Ultrasonic_Sensor_Node/Ultrasonic_XMC_1400_Dynamic/Dave/Generated/PIN_INTERRUPT\pin_interrupt.h ****  * }
 205:C:/GitHub/MobRob_Rover_NEW/Ultrasonic_Sensor_Node/Ultrasonic_XMC_1400_Dynamic/Dave/Generated/PIN_INTERRUPT\pin_interrupt.h ****  * @endcode<BR>
 206:C:/GitHub/MobRob_Rover_NEW/Ultrasonic_Sensor_Node/Ultrasonic_XMC_1400_Dynamic/Dave/Generated/PIN_INTERRUPT\pin_interrupt.h ****  */
 207:C:/GitHub/MobRob_Rover_NEW/Ultrasonic_Sensor_Node/Ultrasonic_XMC_1400_Dynamic/Dave/Generated/PIN_INTERRUPT\pin_interrupt.h **** DAVE_APP_VERSION_t PIN_INTERRUPT_GetAppVersion(void);
 208:C:/GitHub/MobRob_Rover_NEW/Ultrasonic_Sensor_Node/Ultrasonic_XMC_1400_Dynamic/Dave/Generated/PIN_INTERRUPT\pin_interrupt.h **** 
 209:C:/GitHub/MobRob_Rover_NEW/Ultrasonic_Sensor_Node/Ultrasonic_XMC_1400_Dynamic/Dave/Generated/PIN_INTERRUPT\pin_interrupt.h **** /**
 210:C:/GitHub/MobRob_Rover_NEW/Ultrasonic_Sensor_Node/Ultrasonic_XMC_1400_Dynamic/Dave/Generated/PIN_INTERRUPT\pin_interrupt.h ****  * @brief Initializes a PIN_INTERRUPT APP instance
 211:C:/GitHub/MobRob_Rover_NEW/Ultrasonic_Sensor_Node/Ultrasonic_XMC_1400_Dynamic/Dave/Generated/PIN_INTERRUPT\pin_interrupt.h ****  * @param handle Pointer pointing to APP data structure. Refer @ref PIN_INTERRUPT_t for details.
 212:C:/GitHub/MobRob_Rover_NEW/Ultrasonic_Sensor_Node/Ultrasonic_XMC_1400_Dynamic/Dave/Generated/PIN_INTERRUPT\pin_interrupt.h ****  * @return
 213:C:/GitHub/MobRob_Rover_NEW/Ultrasonic_Sensor_Node/Ultrasonic_XMC_1400_Dynamic/Dave/Generated/PIN_INTERRUPT\pin_interrupt.h ****  *            PIN_INTERRUPT_STATUS_SUCCESS             : if initialization is successful\n
 214:C:/GitHub/MobRob_Rover_NEW/Ultrasonic_Sensor_Node/Ultrasonic_XMC_1400_Dynamic/Dave/Generated/PIN_INTERRUPT\pin_interrupt.h ****  *            PIN_INTERRUPT_STATUS_FAILURE             : if initialization is failed
 215:C:/GitHub/MobRob_Rover_NEW/Ultrasonic_Sensor_Node/Ultrasonic_XMC_1400_Dynamic/Dave/Generated/PIN_INTERRUPT\pin_interrupt.h ****  *
 216:C:/GitHub/MobRob_Rover_NEW/Ultrasonic_Sensor_Node/Ultrasonic_XMC_1400_Dynamic/Dave/Generated/PIN_INTERRUPT\pin_interrupt.h ****  * \par<b>Description:</b><br>
 217:C:/GitHub/MobRob_Rover_NEW/Ultrasonic_Sensor_Node/Ultrasonic_XMC_1400_Dynamic/Dave/Generated/PIN_INTERRUPT\pin_interrupt.h ****  * PIN_INTERRUPT_Init API is called during initialization of DAVE APPS. This API Initializes input 
 218:C:/GitHub/MobRob_Rover_NEW/Ultrasonic_Sensor_Node/Ultrasonic_XMC_1400_Dynamic/Dave/Generated/PIN_INTERRUPT\pin_interrupt.h ****  * ERU and OGU hardware module initialization, Configures NVIC node and its priority in order to ge
 219:C:/GitHub/MobRob_Rover_NEW/Ultrasonic_Sensor_Node/Ultrasonic_XMC_1400_Dynamic/Dave/Generated/PIN_INTERRUPT\pin_interrupt.h ****  *
 220:C:/GitHub/MobRob_Rover_NEW/Ultrasonic_Sensor_Node/Ultrasonic_XMC_1400_Dynamic/Dave/Generated/PIN_INTERRUPT\pin_interrupt.h ****  * \par<b>Example Usage:</b><br>
 221:C:/GitHub/MobRob_Rover_NEW/Ultrasonic_Sensor_Node/Ultrasonic_XMC_1400_Dynamic/Dave/Generated/PIN_INTERRUPT\pin_interrupt.h ****  *
 222:C:/GitHub/MobRob_Rover_NEW/Ultrasonic_Sensor_Node/Ultrasonic_XMC_1400_Dynamic/Dave/Generated/PIN_INTERRUPT\pin_interrupt.h ****  * @code
 223:C:/GitHub/MobRob_Rover_NEW/Ultrasonic_Sensor_Node/Ultrasonic_XMC_1400_Dynamic/Dave/Generated/PIN_INTERRUPT\pin_interrupt.h ****  * #include "DAVE.h"
 224:C:/GitHub/MobRob_Rover_NEW/Ultrasonic_Sensor_Node/Ultrasonic_XMC_1400_Dynamic/Dave/Generated/PIN_INTERRUPT\pin_interrupt.h ****  *
 225:C:/GitHub/MobRob_Rover_NEW/Ultrasonic_Sensor_Node/Ultrasonic_XMC_1400_Dynamic/Dave/Generated/PIN_INTERRUPT\pin_interrupt.h ****  * int main(void)
 226:C:/GitHub/MobRob_Rover_NEW/Ultrasonic_Sensor_Node/Ultrasonic_XMC_1400_Dynamic/Dave/Generated/PIN_INTERRUPT\pin_interrupt.h ****  * {
 227:C:/GitHub/MobRob_Rover_NEW/Ultrasonic_Sensor_Node/Ultrasonic_XMC_1400_Dynamic/Dave/Generated/PIN_INTERRUPT\pin_interrupt.h ****  *   DAVE_STATUS_t status;
 228:C:/GitHub/MobRob_Rover_NEW/Ultrasonic_Sensor_Node/Ultrasonic_XMC_1400_Dynamic/Dave/Generated/PIN_INTERRUPT\pin_interrupt.h ****  *
 229:C:/GitHub/MobRob_Rover_NEW/Ultrasonic_Sensor_Node/Ultrasonic_XMC_1400_Dynamic/Dave/Generated/PIN_INTERRUPT\pin_interrupt.h ****  *   status = DAVE_Init();  //  PIN_INTERRUPT_Init API is called during initialization of DAVE APPS
 230:C:/GitHub/MobRob_Rover_NEW/Ultrasonic_Sensor_Node/Ultrasonic_XMC_1400_Dynamic/Dave/Generated/PIN_INTERRUPT\pin_interrupt.h ****  *   if (DAVE_STATUS_SUCCESS == status)
 231:C:/GitHub/MobRob_Rover_NEW/Ultrasonic_Sensor_Node/Ultrasonic_XMC_1400_Dynamic/Dave/Generated/PIN_INTERRUPT\pin_interrupt.h ****  *   {
 232:C:/GitHub/MobRob_Rover_NEW/Ultrasonic_Sensor_Node/Ultrasonic_XMC_1400_Dynamic/Dave/Generated/PIN_INTERRUPT\pin_interrupt.h ****  *     // user code
 233:C:/GitHub/MobRob_Rover_NEW/Ultrasonic_Sensor_Node/Ultrasonic_XMC_1400_Dynamic/Dave/Generated/PIN_INTERRUPT\pin_interrupt.h ****  *
 234:C:/GitHub/MobRob_Rover_NEW/Ultrasonic_Sensor_Node/Ultrasonic_XMC_1400_Dynamic/Dave/Generated/PIN_INTERRUPT\pin_interrupt.h ****  *     while(1)
 235:C:/GitHub/MobRob_Rover_NEW/Ultrasonic_Sensor_Node/Ultrasonic_XMC_1400_Dynamic/Dave/Generated/PIN_INTERRUPT\pin_interrupt.h ****  *     {
 236:C:/GitHub/MobRob_Rover_NEW/Ultrasonic_Sensor_Node/Ultrasonic_XMC_1400_Dynamic/Dave/Generated/PIN_INTERRUPT\pin_interrupt.h ****  *
 237:C:/GitHub/MobRob_Rover_NEW/Ultrasonic_Sensor_Node/Ultrasonic_XMC_1400_Dynamic/Dave/Generated/PIN_INTERRUPT\pin_interrupt.h ****  *     }
 238:C:/GitHub/MobRob_Rover_NEW/Ultrasonic_Sensor_Node/Ultrasonic_XMC_1400_Dynamic/Dave/Generated/PIN_INTERRUPT\pin_interrupt.h ****  *   }
 239:C:/GitHub/MobRob_Rover_NEW/Ultrasonic_Sensor_Node/Ultrasonic_XMC_1400_Dynamic/Dave/Generated/PIN_INTERRUPT\pin_interrupt.h ****  *   return (1);
 240:C:/GitHub/MobRob_Rover_NEW/Ultrasonic_Sensor_Node/Ultrasonic_XMC_1400_Dynamic/Dave/Generated/PIN_INTERRUPT\pin_interrupt.h ****  * }
 241:C:/GitHub/MobRob_Rover_NEW/Ultrasonic_Sensor_Node/Ultrasonic_XMC_1400_Dynamic/Dave/Generated/PIN_INTERRUPT\pin_interrupt.h ****  *
 242:C:/GitHub/MobRob_Rover_NEW/Ultrasonic_Sensor_Node/Ultrasonic_XMC_1400_Dynamic/Dave/Generated/PIN_INTERRUPT\pin_interrupt.h ****  * @endcode<BR>
 243:C:/GitHub/MobRob_Rover_NEW/Ultrasonic_Sensor_Node/Ultrasonic_XMC_1400_Dynamic/Dave/Generated/PIN_INTERRUPT\pin_interrupt.h ****  */
 244:C:/GitHub/MobRob_Rover_NEW/Ultrasonic_Sensor_Node/Ultrasonic_XMC_1400_Dynamic/Dave/Generated/PIN_INTERRUPT\pin_interrupt.h **** PIN_INTERRUPT_STATUS_t PIN_INTERRUPT_Init(const PIN_INTERRUPT_t *const handle);
 245:C:/GitHub/MobRob_Rover_NEW/Ultrasonic_Sensor_Node/Ultrasonic_XMC_1400_Dynamic/Dave/Generated/PIN_INTERRUPT\pin_interrupt.h **** 
 246:C:/GitHub/MobRob_Rover_NEW/Ultrasonic_Sensor_Node/Ultrasonic_XMC_1400_Dynamic/Dave/Generated/PIN_INTERRUPT\pin_interrupt.h **** /**
 247:C:/GitHub/MobRob_Rover_NEW/Ultrasonic_Sensor_Node/Ultrasonic_XMC_1400_Dynamic/Dave/Generated/PIN_INTERRUPT\pin_interrupt.h ****  * @brief Enables the IRQ.
 248:C:/GitHub/MobRob_Rover_NEW/Ultrasonic_Sensor_Node/Ultrasonic_XMC_1400_Dynamic/Dave/Generated/PIN_INTERRUPT\pin_interrupt.h ****  * @param handle Pointer pointing to APP data structure. Refer @ref PIN_INTERRUPT_t for details.
 249:C:/GitHub/MobRob_Rover_NEW/Ultrasonic_Sensor_Node/Ultrasonic_XMC_1400_Dynamic/Dave/Generated/PIN_INTERRUPT\pin_interrupt.h ****  * @return None
 250:C:/GitHub/MobRob_Rover_NEW/Ultrasonic_Sensor_Node/Ultrasonic_XMC_1400_Dynamic/Dave/Generated/PIN_INTERRUPT\pin_interrupt.h ****  * <BR><P ALIGN="LEFT"><B>Example:</B>
 251:C:/GitHub/MobRob_Rover_NEW/Ultrasonic_Sensor_Node/Ultrasonic_XMC_1400_Dynamic/Dave/Generated/PIN_INTERRUPT\pin_interrupt.h ****  *
 252:C:/GitHub/MobRob_Rover_NEW/Ultrasonic_Sensor_Node/Ultrasonic_XMC_1400_Dynamic/Dave/Generated/PIN_INTERRUPT\pin_interrupt.h ****  * @code
 253:C:/GitHub/MobRob_Rover_NEW/Ultrasonic_Sensor_Node/Ultrasonic_XMC_1400_Dynamic/Dave/Generated/PIN_INTERRUPT\pin_interrupt.h ****  *  #include "DAVE.h"
 254:C:/GitHub/MobRob_Rover_NEW/Ultrasonic_Sensor_Node/Ultrasonic_XMC_1400_Dynamic/Dave/Generated/PIN_INTERRUPT\pin_interrupt.h ****  *
 255:C:/GitHub/MobRob_Rover_NEW/Ultrasonic_Sensor_Node/Ultrasonic_XMC_1400_Dynamic/Dave/Generated/PIN_INTERRUPT\pin_interrupt.h ****  *  int main(void)
 256:C:/GitHub/MobRob_Rover_NEW/Ultrasonic_Sensor_Node/Ultrasonic_XMC_1400_Dynamic/Dave/Generated/PIN_INTERRUPT\pin_interrupt.h ****  *  {
 257:C:/GitHub/MobRob_Rover_NEW/Ultrasonic_Sensor_Node/Ultrasonic_XMC_1400_Dynamic/Dave/Generated/PIN_INTERRUPT\pin_interrupt.h ****  *    DAVE_STATUS_t status;
 258:C:/GitHub/MobRob_Rover_NEW/Ultrasonic_Sensor_Node/Ultrasonic_XMC_1400_Dynamic/Dave/Generated/PIN_INTERRUPT\pin_interrupt.h ****  *
 259:C:/GitHub/MobRob_Rover_NEW/Ultrasonic_Sensor_Node/Ultrasonic_XMC_1400_Dynamic/Dave/Generated/PIN_INTERRUPT\pin_interrupt.h ****  *    status = DAVE_Init();  //  PIN_INTERRUPT_Init API is called during initialization of DAVE APP
 260:C:/GitHub/MobRob_Rover_NEW/Ultrasonic_Sensor_Node/Ultrasonic_XMC_1400_Dynamic/Dave/Generated/PIN_INTERRUPT\pin_interrupt.h ****  *    if (DAVE_STATUS_SUCCESS == status)
 261:C:/GitHub/MobRob_Rover_NEW/Ultrasonic_Sensor_Node/Ultrasonic_XMC_1400_Dynamic/Dave/Generated/PIN_INTERRUPT\pin_interrupt.h ****  *    {
 262:C:/GitHub/MobRob_Rover_NEW/Ultrasonic_Sensor_Node/Ultrasonic_XMC_1400_Dynamic/Dave/Generated/PIN_INTERRUPT\pin_interrupt.h ****  *      // user code
 263:C:/GitHub/MobRob_Rover_NEW/Ultrasonic_Sensor_Node/Ultrasonic_XMC_1400_Dynamic/Dave/Generated/PIN_INTERRUPT\pin_interrupt.h ****  *
 264:C:/GitHub/MobRob_Rover_NEW/Ultrasonic_Sensor_Node/Ultrasonic_XMC_1400_Dynamic/Dave/Generated/PIN_INTERRUPT\pin_interrupt.h ****  *      PIN_INTERRUPT_Enable(&PIN_INTERRUPT_0);
 265:C:/GitHub/MobRob_Rover_NEW/Ultrasonic_Sensor_Node/Ultrasonic_XMC_1400_Dynamic/Dave/Generated/PIN_INTERRUPT\pin_interrupt.h ****  *      while(1)
 266:C:/GitHub/MobRob_Rover_NEW/Ultrasonic_Sensor_Node/Ultrasonic_XMC_1400_Dynamic/Dave/Generated/PIN_INTERRUPT\pin_interrupt.h ****  *      {}
 267:C:/GitHub/MobRob_Rover_NEW/Ultrasonic_Sensor_Node/Ultrasonic_XMC_1400_Dynamic/Dave/Generated/PIN_INTERRUPT\pin_interrupt.h ****  *    }
 268:C:/GitHub/MobRob_Rover_NEW/Ultrasonic_Sensor_Node/Ultrasonic_XMC_1400_Dynamic/Dave/Generated/PIN_INTERRUPT\pin_interrupt.h ****  *
 269:C:/GitHub/MobRob_Rover_NEW/Ultrasonic_Sensor_Node/Ultrasonic_XMC_1400_Dynamic/Dave/Generated/PIN_INTERRUPT\pin_interrupt.h ****  *    return (1);
 270:C:/GitHub/MobRob_Rover_NEW/Ultrasonic_Sensor_Node/Ultrasonic_XMC_1400_Dynamic/Dave/Generated/PIN_INTERRUPT\pin_interrupt.h ****  *  }
 271:C:/GitHub/MobRob_Rover_NEW/Ultrasonic_Sensor_Node/Ultrasonic_XMC_1400_Dynamic/Dave/Generated/PIN_INTERRUPT\pin_interrupt.h ****  * @endcode<BR> </p>
 272:C:/GitHub/MobRob_Rover_NEW/Ultrasonic_Sensor_Node/Ultrasonic_XMC_1400_Dynamic/Dave/Generated/PIN_INTERRUPT\pin_interrupt.h ****  */
 273:C:/GitHub/MobRob_Rover_NEW/Ultrasonic_Sensor_Node/Ultrasonic_XMC_1400_Dynamic/Dave/Generated/PIN_INTERRUPT\pin_interrupt.h **** __STATIC_INLINE void PIN_INTERRUPT_Enable(const PIN_INTERRUPT_t *const handle)
 274:C:/GitHub/MobRob_Rover_NEW/Ultrasonic_Sensor_Node/Ultrasonic_XMC_1400_Dynamic/Dave/Generated/PIN_INTERRUPT\pin_interrupt.h **** {
 275:C:/GitHub/MobRob_Rover_NEW/Ultrasonic_Sensor_Node/Ultrasonic_XMC_1400_Dynamic/Dave/Generated/PIN_INTERRUPT\pin_interrupt.h ****   XMC_ASSERT("PIN_INTERRUPT_Enable: Handler null pointer", handle != NULL);
 276:C:/GitHub/MobRob_Rover_NEW/Ultrasonic_Sensor_Node/Ultrasonic_XMC_1400_Dynamic/Dave/Generated/PIN_INTERRUPT\pin_interrupt.h ****   NVIC_EnableIRQ(handle->IRQn);
 277:C:/GitHub/MobRob_Rover_NEW/Ultrasonic_Sensor_Node/Ultrasonic_XMC_1400_Dynamic/Dave/Generated/PIN_INTERRUPT\pin_interrupt.h **** }
 278:C:/GitHub/MobRob_Rover_NEW/Ultrasonic_Sensor_Node/Ultrasonic_XMC_1400_Dynamic/Dave/Generated/PIN_INTERRUPT\pin_interrupt.h **** 
 279:C:/GitHub/MobRob_Rover_NEW/Ultrasonic_Sensor_Node/Ultrasonic_XMC_1400_Dynamic/Dave/Generated/PIN_INTERRUPT\pin_interrupt.h **** /**
 280:C:/GitHub/MobRob_Rover_NEW/Ultrasonic_Sensor_Node/Ultrasonic_XMC_1400_Dynamic/Dave/Generated/PIN_INTERRUPT\pin_interrupt.h ****  * @brief Disables the IRQ.
 281:C:/GitHub/MobRob_Rover_NEW/Ultrasonic_Sensor_Node/Ultrasonic_XMC_1400_Dynamic/Dave/Generated/PIN_INTERRUPT\pin_interrupt.h ****  * @param handle Pointer pointing to APP data structure. Refer @ref PIN_INTERRUPT_t for details.
 282:C:/GitHub/MobRob_Rover_NEW/Ultrasonic_Sensor_Node/Ultrasonic_XMC_1400_Dynamic/Dave/Generated/PIN_INTERRUPT\pin_interrupt.h ****  * @return None
 283:C:/GitHub/MobRob_Rover_NEW/Ultrasonic_Sensor_Node/Ultrasonic_XMC_1400_Dynamic/Dave/Generated/PIN_INTERRUPT\pin_interrupt.h ****  * <BR><P ALIGN="LEFT"><B>Example:</B>
 284:C:/GitHub/MobRob_Rover_NEW/Ultrasonic_Sensor_Node/Ultrasonic_XMC_1400_Dynamic/Dave/Generated/PIN_INTERRUPT\pin_interrupt.h ****  *
 285:C:/GitHub/MobRob_Rover_NEW/Ultrasonic_Sensor_Node/Ultrasonic_XMC_1400_Dynamic/Dave/Generated/PIN_INTERRUPT\pin_interrupt.h ****  * @code
 286:C:/GitHub/MobRob_Rover_NEW/Ultrasonic_Sensor_Node/Ultrasonic_XMC_1400_Dynamic/Dave/Generated/PIN_INTERRUPT\pin_interrupt.h ****  *  #include "DAVE.h"
 287:C:/GitHub/MobRob_Rover_NEW/Ultrasonic_Sensor_Node/Ultrasonic_XMC_1400_Dynamic/Dave/Generated/PIN_INTERRUPT\pin_interrupt.h ****  *
 288:C:/GitHub/MobRob_Rover_NEW/Ultrasonic_Sensor_Node/Ultrasonic_XMC_1400_Dynamic/Dave/Generated/PIN_INTERRUPT\pin_interrupt.h ****  *  int main(void)
 289:C:/GitHub/MobRob_Rover_NEW/Ultrasonic_Sensor_Node/Ultrasonic_XMC_1400_Dynamic/Dave/Generated/PIN_INTERRUPT\pin_interrupt.h ****  *  {
 290:C:/GitHub/MobRob_Rover_NEW/Ultrasonic_Sensor_Node/Ultrasonic_XMC_1400_Dynamic/Dave/Generated/PIN_INTERRUPT\pin_interrupt.h ****  *
 291:C:/GitHub/MobRob_Rover_NEW/Ultrasonic_Sensor_Node/Ultrasonic_XMC_1400_Dynamic/Dave/Generated/PIN_INTERRUPT\pin_interrupt.h ****  *    DAVE_STATUS_t status;
 292:C:/GitHub/MobRob_Rover_NEW/Ultrasonic_Sensor_Node/Ultrasonic_XMC_1400_Dynamic/Dave/Generated/PIN_INTERRUPT\pin_interrupt.h ****  *
 293:C:/GitHub/MobRob_Rover_NEW/Ultrasonic_Sensor_Node/Ultrasonic_XMC_1400_Dynamic/Dave/Generated/PIN_INTERRUPT\pin_interrupt.h ****  *    status = DAVE_Init();  //  PIN_INTERRUPT_Init API is called during initialization of DAVE APP
 294:C:/GitHub/MobRob_Rover_NEW/Ultrasonic_Sensor_Node/Ultrasonic_XMC_1400_Dynamic/Dave/Generated/PIN_INTERRUPT\pin_interrupt.h ****  *    if(DAVE_STATUS_SUCCESS == status)
 295:C:/GitHub/MobRob_Rover_NEW/Ultrasonic_Sensor_Node/Ultrasonic_XMC_1400_Dynamic/Dave/Generated/PIN_INTERRUPT\pin_interrupt.h ****  *    {
 296:C:/GitHub/MobRob_Rover_NEW/Ultrasonic_Sensor_Node/Ultrasonic_XMC_1400_Dynamic/Dave/Generated/PIN_INTERRUPT\pin_interrupt.h ****  *      // user code
 297:C:/GitHub/MobRob_Rover_NEW/Ultrasonic_Sensor_Node/Ultrasonic_XMC_1400_Dynamic/Dave/Generated/PIN_INTERRUPT\pin_interrupt.h ****  *
 298:C:/GitHub/MobRob_Rover_NEW/Ultrasonic_Sensor_Node/Ultrasonic_XMC_1400_Dynamic/Dave/Generated/PIN_INTERRUPT\pin_interrupt.h ****  *      PIN_INTERRUPT_Disable(&PIN_INTERRUPT_0);
 299:C:/GitHub/MobRob_Rover_NEW/Ultrasonic_Sensor_Node/Ultrasonic_XMC_1400_Dynamic/Dave/Generated/PIN_INTERRUPT\pin_interrupt.h ****  *      while(1)
 300:C:/GitHub/MobRob_Rover_NEW/Ultrasonic_Sensor_Node/Ultrasonic_XMC_1400_Dynamic/Dave/Generated/PIN_INTERRUPT\pin_interrupt.h ****  *      {}
 301:C:/GitHub/MobRob_Rover_NEW/Ultrasonic_Sensor_Node/Ultrasonic_XMC_1400_Dynamic/Dave/Generated/PIN_INTERRUPT\pin_interrupt.h ****  *    }
 302:C:/GitHub/MobRob_Rover_NEW/Ultrasonic_Sensor_Node/Ultrasonic_XMC_1400_Dynamic/Dave/Generated/PIN_INTERRUPT\pin_interrupt.h ****  *
 303:C:/GitHub/MobRob_Rover_NEW/Ultrasonic_Sensor_Node/Ultrasonic_XMC_1400_Dynamic/Dave/Generated/PIN_INTERRUPT\pin_interrupt.h ****  *    return (1);
 304:C:/GitHub/MobRob_Rover_NEW/Ultrasonic_Sensor_Node/Ultrasonic_XMC_1400_Dynamic/Dave/Generated/PIN_INTERRUPT\pin_interrupt.h ****  *
 305:C:/GitHub/MobRob_Rover_NEW/Ultrasonic_Sensor_Node/Ultrasonic_XMC_1400_Dynamic/Dave/Generated/PIN_INTERRUPT\pin_interrupt.h ****  *  }
 306:C:/GitHub/MobRob_Rover_NEW/Ultrasonic_Sensor_Node/Ultrasonic_XMC_1400_Dynamic/Dave/Generated/PIN_INTERRUPT\pin_interrupt.h ****  * @endcode<BR> </p>
 307:C:/GitHub/MobRob_Rover_NEW/Ultrasonic_Sensor_Node/Ultrasonic_XMC_1400_Dynamic/Dave/Generated/PIN_INTERRUPT\pin_interrupt.h ****  */
 308:C:/GitHub/MobRob_Rover_NEW/Ultrasonic_Sensor_Node/Ultrasonic_XMC_1400_Dynamic/Dave/Generated/PIN_INTERRUPT\pin_interrupt.h **** __STATIC_INLINE void PIN_INTERRUPT_Disable(const PIN_INTERRUPT_t *const handle)
 309:C:/GitHub/MobRob_Rover_NEW/Ultrasonic_Sensor_Node/Ultrasonic_XMC_1400_Dynamic/Dave/Generated/PIN_INTERRUPT\pin_interrupt.h **** {
 310:C:/GitHub/MobRob_Rover_NEW/Ultrasonic_Sensor_Node/Ultrasonic_XMC_1400_Dynamic/Dave/Generated/PIN_INTERRUPT\pin_interrupt.h ****   XMC_ASSERT("PIN_INTERRUPT_Disable: Handler null pointer", handle != NULL);
 311:C:/GitHub/MobRob_Rover_NEW/Ultrasonic_Sensor_Node/Ultrasonic_XMC_1400_Dynamic/Dave/Generated/PIN_INTERRUPT\pin_interrupt.h ****   NVIC_DisableIRQ(handle->IRQn);
 312:C:/GitHub/MobRob_Rover_NEW/Ultrasonic_Sensor_Node/Ultrasonic_XMC_1400_Dynamic/Dave/Generated/PIN_INTERRUPT\pin_interrupt.h **** }
 313:C:/GitHub/MobRob_Rover_NEW/Ultrasonic_Sensor_Node/Ultrasonic_XMC_1400_Dynamic/Dave/Generated/PIN_INTERRUPT\pin_interrupt.h **** 
 314:C:/GitHub/MobRob_Rover_NEW/Ultrasonic_Sensor_Node/Ultrasonic_XMC_1400_Dynamic/Dave/Generated/PIN_INTERRUPT\pin_interrupt.h **** /**
 315:C:/GitHub/MobRob_Rover_NEW/Ultrasonic_Sensor_Node/Ultrasonic_XMC_1400_Dynamic/Dave/Generated/PIN_INTERRUPT\pin_interrupt.h **** * @brief Read input level of port pin.
 316:C:/GitHub/MobRob_Rover_NEW/Ultrasonic_Sensor_Node/Ultrasonic_XMC_1400_Dynamic/Dave/Generated/PIN_INTERRUPT\pin_interrupt.h **** * @param handle Pointer pointing to APP data structure. Refer @ref PIN_INTERRUPT_t for details.
 317:C:/GitHub/MobRob_Rover_NEW/Ultrasonic_Sensor_Node/Ultrasonic_XMC_1400_Dynamic/Dave/Generated/PIN_INTERRUPT\pin_interrupt.h **** * @return uint32_t input logic level. Range:0-1
 318:C:/GitHub/MobRob_Rover_NEW/Ultrasonic_Sensor_Node/Ultrasonic_XMC_1400_Dynamic/Dave/Generated/PIN_INTERRUPT\pin_interrupt.h **** *
 319:C:/GitHub/MobRob_Rover_NEW/Ultrasonic_Sensor_Node/Ultrasonic_XMC_1400_Dynamic/Dave/Generated/PIN_INTERRUPT\pin_interrupt.h **** * \par<b>Description:</b><br>
 320:C:/GitHub/MobRob_Rover_NEW/Ultrasonic_Sensor_Node/Ultrasonic_XMC_1400_Dynamic/Dave/Generated/PIN_INTERRUPT\pin_interrupt.h **** * This function reads the Pn_IN register and returns the current logical value at the GPIO pin.
 321:C:/GitHub/MobRob_Rover_NEW/Ultrasonic_Sensor_Node/Ultrasonic_XMC_1400_Dynamic/Dave/Generated/PIN_INTERRUPT\pin_interrupt.h **** *
 322:C:/GitHub/MobRob_Rover_NEW/Ultrasonic_Sensor_Node/Ultrasonic_XMC_1400_Dynamic/Dave/Generated/PIN_INTERRUPT\pin_interrupt.h **** *
 323:C:/GitHub/MobRob_Rover_NEW/Ultrasonic_Sensor_Node/Ultrasonic_XMC_1400_Dynamic/Dave/Generated/PIN_INTERRUPT\pin_interrupt.h **** * Example Usage:
 324:C:/GitHub/MobRob_Rover_NEW/Ultrasonic_Sensor_Node/Ultrasonic_XMC_1400_Dynamic/Dave/Generated/PIN_INTERRUPT\pin_interrupt.h **** * @code
 325:C:/GitHub/MobRob_Rover_NEW/Ultrasonic_Sensor_Node/Ultrasonic_XMC_1400_Dynamic/Dave/Generated/PIN_INTERRUPT\pin_interrupt.h **** * #include "DAVE.h"//Declarations from DAVE Code Generation (includes SFR declaration)
 326:C:/GitHub/MobRob_Rover_NEW/Ultrasonic_Sensor_Node/Ultrasonic_XMC_1400_Dynamic/Dave/Generated/PIN_INTERRUPT\pin_interrupt.h **** *
 327:C:/GitHub/MobRob_Rover_NEW/Ultrasonic_Sensor_Node/Ultrasonic_XMC_1400_Dynamic/Dave/Generated/PIN_INTERRUPT\pin_interrupt.h **** * int main(void)
 328:C:/GitHub/MobRob_Rover_NEW/Ultrasonic_Sensor_Node/Ultrasonic_XMC_1400_Dynamic/Dave/Generated/PIN_INTERRUPT\pin_interrupt.h **** * {
 329:C:/GitHub/MobRob_Rover_NEW/Ultrasonic_Sensor_Node/Ultrasonic_XMC_1400_Dynamic/Dave/Generated/PIN_INTERRUPT\pin_interrupt.h **** *   DAVE_STATUS_t status;
 330:C:/GitHub/MobRob_Rover_NEW/Ultrasonic_Sensor_Node/Ultrasonic_XMC_1400_Dynamic/Dave/Generated/PIN_INTERRUPT\pin_interrupt.h **** *   uint32_t pin_status;
 331:C:/GitHub/MobRob_Rover_NEW/Ultrasonic_Sensor_Node/Ultrasonic_XMC_1400_Dynamic/Dave/Generated/PIN_INTERRUPT\pin_interrupt.h **** *   status = DAVE_Init();   // (DAVE_STATUS_t)PIN_INTERRUPT_Init(&PIN_INTERRUPT_0) is called within
 332:C:/GitHub/MobRob_Rover_NEW/Ultrasonic_Sensor_Node/Ultrasonic_XMC_1400_Dynamic/Dave/Generated/PIN_INTERRUPT\pin_interrupt.h **** *   
 333:C:/GitHub/MobRob_Rover_NEW/Ultrasonic_Sensor_Node/Ultrasonic_XMC_1400_Dynamic/Dave/Generated/PIN_INTERRUPT\pin_interrupt.h **** *   if (status == DAVE_STATUS_SUCCESS)
 334:C:/GitHub/MobRob_Rover_NEW/Ultrasonic_Sensor_Node/Ultrasonic_XMC_1400_Dynamic/Dave/Generated/PIN_INTERRUPT\pin_interrupt.h **** *   {
 335:C:/GitHub/MobRob_Rover_NEW/Ultrasonic_Sensor_Node/Ultrasonic_XMC_1400_Dynamic/Dave/Generated/PIN_INTERRUPT\pin_interrupt.h **** *     XMC_DEBUG("DAVE Apps initialization success\n");
 336:C:/GitHub/MobRob_Rover_NEW/Ultrasonic_Sensor_Node/Ultrasonic_XMC_1400_Dynamic/Dave/Generated/PIN_INTERRUPT\pin_interrupt.h **** *   }
 337:C:/GitHub/MobRob_Rover_NEW/Ultrasonic_Sensor_Node/Ultrasonic_XMC_1400_Dynamic/Dave/Generated/PIN_INTERRUPT\pin_interrupt.h **** *   else
 338:C:/GitHub/MobRob_Rover_NEW/Ultrasonic_Sensor_Node/Ultrasonic_XMC_1400_Dynamic/Dave/Generated/PIN_INTERRUPT\pin_interrupt.h **** *   {
 339:C:/GitHub/MobRob_Rover_NEW/Ultrasonic_Sensor_Node/Ultrasonic_XMC_1400_Dynamic/Dave/Generated/PIN_INTERRUPT\pin_interrupt.h **** *     XMC_DEBUG(("DAVE Apps initialization failed with status %d\n", status));
 340:C:/GitHub/MobRob_Rover_NEW/Ultrasonic_Sensor_Node/Ultrasonic_XMC_1400_Dynamic/Dave/Generated/PIN_INTERRUPT\pin_interrupt.h **** *     while(1U)
 341:C:/GitHub/MobRob_Rover_NEW/Ultrasonic_Sensor_Node/Ultrasonic_XMC_1400_Dynamic/Dave/Generated/PIN_INTERRUPT\pin_interrupt.h **** *     {
 342:C:/GitHub/MobRob_Rover_NEW/Ultrasonic_Sensor_Node/Ultrasonic_XMC_1400_Dynamic/Dave/Generated/PIN_INTERRUPT\pin_interrupt.h **** *     }
 343:C:/GitHub/MobRob_Rover_NEW/Ultrasonic_Sensor_Node/Ultrasonic_XMC_1400_Dynamic/Dave/Generated/PIN_INTERRUPT\pin_interrupt.h **** *   }
 344:C:/GitHub/MobRob_Rover_NEW/Ultrasonic_Sensor_Node/Ultrasonic_XMC_1400_Dynamic/Dave/Generated/PIN_INTERRUPT\pin_interrupt.h **** *   //Placeholder for user application code. The while loop below can be replaced with user applica
 345:C:/GitHub/MobRob_Rover_NEW/Ultrasonic_Sensor_Node/Ultrasonic_XMC_1400_Dynamic/Dave/Generated/PIN_INTERRUPT\pin_interrupt.h **** *   while(1U)
 346:C:/GitHub/MobRob_Rover_NEW/Ultrasonic_Sensor_Node/Ultrasonic_XMC_1400_Dynamic/Dave/Generated/PIN_INTERRUPT\pin_interrupt.h **** *   {
 347:C:/GitHub/MobRob_Rover_NEW/Ultrasonic_Sensor_Node/Ultrasonic_XMC_1400_Dynamic/Dave/Generated/PIN_INTERRUPT\pin_interrupt.h **** *     pin_status = PIN_INTERRUPT_GetPinValue(&PIN_INTERRUPT_0);
 348:C:/GitHub/MobRob_Rover_NEW/Ultrasonic_Sensor_Node/Ultrasonic_XMC_1400_Dynamic/Dave/Generated/PIN_INTERRUPT\pin_interrupt.h **** *     if (pin_status == 1)
 349:C:/GitHub/MobRob_Rover_NEW/Ultrasonic_Sensor_Node/Ultrasonic_XMC_1400_Dynamic/Dave/Generated/PIN_INTERRUPT\pin_interrupt.h **** *     {
 350:C:/GitHub/MobRob_Rover_NEW/Ultrasonic_Sensor_Node/Ultrasonic_XMC_1400_Dynamic/Dave/Generated/PIN_INTERRUPT\pin_interrupt.h **** *       // Add application code here
 351:C:/GitHub/MobRob_Rover_NEW/Ultrasonic_Sensor_Node/Ultrasonic_XMC_1400_Dynamic/Dave/Generated/PIN_INTERRUPT\pin_interrupt.h **** *     }
 352:C:/GitHub/MobRob_Rover_NEW/Ultrasonic_Sensor_Node/Ultrasonic_XMC_1400_Dynamic/Dave/Generated/PIN_INTERRUPT\pin_interrupt.h **** *     else
 353:C:/GitHub/MobRob_Rover_NEW/Ultrasonic_Sensor_Node/Ultrasonic_XMC_1400_Dynamic/Dave/Generated/PIN_INTERRUPT\pin_interrupt.h **** *     {
 354:C:/GitHub/MobRob_Rover_NEW/Ultrasonic_Sensor_Node/Ultrasonic_XMC_1400_Dynamic/Dave/Generated/PIN_INTERRUPT\pin_interrupt.h **** *       // Add application code here
 355:C:/GitHub/MobRob_Rover_NEW/Ultrasonic_Sensor_Node/Ultrasonic_XMC_1400_Dynamic/Dave/Generated/PIN_INTERRUPT\pin_interrupt.h **** *     }
 356:C:/GitHub/MobRob_Rover_NEW/Ultrasonic_Sensor_Node/Ultrasonic_XMC_1400_Dynamic/Dave/Generated/PIN_INTERRUPT\pin_interrupt.h **** *   }
 357:C:/GitHub/MobRob_Rover_NEW/Ultrasonic_Sensor_Node/Ultrasonic_XMC_1400_Dynamic/Dave/Generated/PIN_INTERRUPT\pin_interrupt.h **** *   return (1);
 358:C:/GitHub/MobRob_Rover_NEW/Ultrasonic_Sensor_Node/Ultrasonic_XMC_1400_Dynamic/Dave/Generated/PIN_INTERRUPT\pin_interrupt.h **** * }
 359:C:/GitHub/MobRob_Rover_NEW/Ultrasonic_Sensor_Node/Ultrasonic_XMC_1400_Dynamic/Dave/Generated/PIN_INTERRUPT\pin_interrupt.h **** *  @endcode
 360:C:/GitHub/MobRob_Rover_NEW/Ultrasonic_Sensor_Node/Ultrasonic_XMC_1400_Dynamic/Dave/Generated/PIN_INTERRUPT\pin_interrupt.h **** */
 361:C:/GitHub/MobRob_Rover_NEW/Ultrasonic_Sensor_Node/Ultrasonic_XMC_1400_Dynamic/Dave/Generated/PIN_INTERRUPT\pin_interrupt.h **** __STATIC_INLINE uint32_t PIN_INTERRUPT_GetPinValue(const PIN_INTERRUPT_t *const handle)
 362:C:/GitHub/MobRob_Rover_NEW/Ultrasonic_Sensor_Node/Ultrasonic_XMC_1400_Dynamic/Dave/Generated/PIN_INTERRUPT\pin_interrupt.h **** {
 147              	 .loc 2 362 0
 148              	 .cfi_startproc
 149 0000 80B5     	 push {r7,lr}
 150              	.LCFI9:
 151              	 .cfi_def_cfa_offset 8
 152              	 .cfi_offset 7,-8
 153              	 .cfi_offset 14,-4
 154 0002 82B0     	 sub sp,sp,#8
 155              	.LCFI10:
 156              	 .cfi_def_cfa_offset 16
 157 0004 00AF     	 add r7,sp,#0
 158              	.LCFI11:
 159              	 .cfi_def_cfa_register 7
 160 0006 7860     	 str r0,[r7,#4]
 363:C:/GitHub/MobRob_Rover_NEW/Ultrasonic_Sensor_Node/Ultrasonic_XMC_1400_Dynamic/Dave/Generated/PIN_INTERRUPT\pin_interrupt.h ****   XMC_ASSERT("PIN_INTERRUPT_GetPinValue: Handler null pointer", handle != NULL);
 364:C:/GitHub/MobRob_Rover_NEW/Ultrasonic_Sensor_Node/Ultrasonic_XMC_1400_Dynamic/Dave/Generated/PIN_INTERRUPT\pin_interrupt.h ****   return (XMC_GPIO_GetInput(handle->port, handle->pin));
 161              	 .loc 2 364 0
 162 0008 7B68     	 ldr r3,[r7,#4]
 163 000a 5A68     	 ldr r2,[r3,#4]
 164 000c 7B68     	 ldr r3,[r7,#4]
 165 000e 9B7F     	 ldrb r3,[r3,#30]
 166 0010 101C     	 mov r0,r2
 167 0012 191C     	 mov r1,r3
 168 0014 FFF7FEFF 	 bl XMC_GPIO_GetInput
 169 0018 031C     	 mov r3,r0
 365:C:/GitHub/MobRob_Rover_NEW/Ultrasonic_Sensor_Node/Ultrasonic_XMC_1400_Dynamic/Dave/Generated/PIN_INTERRUPT\pin_interrupt.h **** }
 170              	 .loc 2 365 0
 171 001a 181C     	 mov r0,r3
 172 001c BD46     	 mov sp,r7
 173 001e 02B0     	 add sp,sp,#8
 174              	 
 175 0020 80BD     	 pop {r7,pc}
 176              	 .cfi_endproc
 177              	.LFE136:
 179 0022 C046     	 .section .text.XMC_WDT_Start,"ax",%progbits
 180              	 .align 2
 181              	 .code 16
 182              	 .thumb_func
 184              	XMC_WDT_Start:
 185              	.LFB206:
 186              	 .file 3 "C:/GitHub/MobRob_Rover_NEW/Ultrasonic_Sensor_Node/Ultrasonic_XMC_1400_Dynamic/Libraries/XMCLib/inc/xmc_wdt.h"
   1:C:/GitHub/MobRob_Rover_NEW/Ultrasonic_Sensor_Node/Ultrasonic_XMC_1400_Dynamic/Libraries/XMCLib/inc\xmc_wdt.h **** /**
   2:C:/GitHub/MobRob_Rover_NEW/Ultrasonic_Sensor_Node/Ultrasonic_XMC_1400_Dynamic/Libraries/XMCLib/inc\xmc_wdt.h ****  * @file xmc_wdt.h
   3:C:/GitHub/MobRob_Rover_NEW/Ultrasonic_Sensor_Node/Ultrasonic_XMC_1400_Dynamic/Libraries/XMCLib/inc\xmc_wdt.h ****  * @date 2015-08-06
   4:C:/GitHub/MobRob_Rover_NEW/Ultrasonic_Sensor_Node/Ultrasonic_XMC_1400_Dynamic/Libraries/XMCLib/inc\xmc_wdt.h ****  *
   5:C:/GitHub/MobRob_Rover_NEW/Ultrasonic_Sensor_Node/Ultrasonic_XMC_1400_Dynamic/Libraries/XMCLib/inc\xmc_wdt.h ****  * @cond
   6:C:/GitHub/MobRob_Rover_NEW/Ultrasonic_Sensor_Node/Ultrasonic_XMC_1400_Dynamic/Libraries/XMCLib/inc\xmc_wdt.h ****  *****************************************************************************
   7:C:/GitHub/MobRob_Rover_NEW/Ultrasonic_Sensor_Node/Ultrasonic_XMC_1400_Dynamic/Libraries/XMCLib/inc\xmc_wdt.h ****  * XMClib v2.2.0 - XMC Peripheral Driver Library
   8:C:/GitHub/MobRob_Rover_NEW/Ultrasonic_Sensor_Node/Ultrasonic_XMC_1400_Dynamic/Libraries/XMCLib/inc\xmc_wdt.h ****  *
   9:C:/GitHub/MobRob_Rover_NEW/Ultrasonic_Sensor_Node/Ultrasonic_XMC_1400_Dynamic/Libraries/XMCLib/inc\xmc_wdt.h ****  * Copyright (c) 2015-2020, Infineon Technologies AG
  10:C:/GitHub/MobRob_Rover_NEW/Ultrasonic_Sensor_Node/Ultrasonic_XMC_1400_Dynamic/Libraries/XMCLib/inc\xmc_wdt.h ****  * All rights reserved.
  11:C:/GitHub/MobRob_Rover_NEW/Ultrasonic_Sensor_Node/Ultrasonic_XMC_1400_Dynamic/Libraries/XMCLib/inc\xmc_wdt.h ****  *
  12:C:/GitHub/MobRob_Rover_NEW/Ultrasonic_Sensor_Node/Ultrasonic_XMC_1400_Dynamic/Libraries/XMCLib/inc\xmc_wdt.h ****  * Boost Software License - Version 1.0 - August 17th, 2003
  13:C:/GitHub/MobRob_Rover_NEW/Ultrasonic_Sensor_Node/Ultrasonic_XMC_1400_Dynamic/Libraries/XMCLib/inc\xmc_wdt.h ****  *
  14:C:/GitHub/MobRob_Rover_NEW/Ultrasonic_Sensor_Node/Ultrasonic_XMC_1400_Dynamic/Libraries/XMCLib/inc\xmc_wdt.h ****  * Permission is hereby granted, free of charge, to any person or organization
  15:C:/GitHub/MobRob_Rover_NEW/Ultrasonic_Sensor_Node/Ultrasonic_XMC_1400_Dynamic/Libraries/XMCLib/inc\xmc_wdt.h ****  * obtaining a copy of the software and accompanying documentation covered by
  16:C:/GitHub/MobRob_Rover_NEW/Ultrasonic_Sensor_Node/Ultrasonic_XMC_1400_Dynamic/Libraries/XMCLib/inc\xmc_wdt.h ****  * this license (the "Software") to use, reproduce, display, distribute,
  17:C:/GitHub/MobRob_Rover_NEW/Ultrasonic_Sensor_Node/Ultrasonic_XMC_1400_Dynamic/Libraries/XMCLib/inc\xmc_wdt.h ****  * execute, and transmit the Software, and to prepare derivative works of the
  18:C:/GitHub/MobRob_Rover_NEW/Ultrasonic_Sensor_Node/Ultrasonic_XMC_1400_Dynamic/Libraries/XMCLib/inc\xmc_wdt.h ****  * Software, and to permit third-parties to whom the Software is furnished to
  19:C:/GitHub/MobRob_Rover_NEW/Ultrasonic_Sensor_Node/Ultrasonic_XMC_1400_Dynamic/Libraries/XMCLib/inc\xmc_wdt.h ****  * do so, all subject to the following:
  20:C:/GitHub/MobRob_Rover_NEW/Ultrasonic_Sensor_Node/Ultrasonic_XMC_1400_Dynamic/Libraries/XMCLib/inc\xmc_wdt.h ****  *
  21:C:/GitHub/MobRob_Rover_NEW/Ultrasonic_Sensor_Node/Ultrasonic_XMC_1400_Dynamic/Libraries/XMCLib/inc\xmc_wdt.h ****  * The copyright notices in the Software and this entire statement, including
  22:C:/GitHub/MobRob_Rover_NEW/Ultrasonic_Sensor_Node/Ultrasonic_XMC_1400_Dynamic/Libraries/XMCLib/inc\xmc_wdt.h ****  * the above license grant, this restriction and the following disclaimer,
  23:C:/GitHub/MobRob_Rover_NEW/Ultrasonic_Sensor_Node/Ultrasonic_XMC_1400_Dynamic/Libraries/XMCLib/inc\xmc_wdt.h ****  * must be included in all copies of the Software, in whole or in part, and
  24:C:/GitHub/MobRob_Rover_NEW/Ultrasonic_Sensor_Node/Ultrasonic_XMC_1400_Dynamic/Libraries/XMCLib/inc\xmc_wdt.h ****  * all derivative works of the Software, unless such copies or derivative
  25:C:/GitHub/MobRob_Rover_NEW/Ultrasonic_Sensor_Node/Ultrasonic_XMC_1400_Dynamic/Libraries/XMCLib/inc\xmc_wdt.h ****  * works are solely in the form of machine-executable object code generated by
  26:C:/GitHub/MobRob_Rover_NEW/Ultrasonic_Sensor_Node/Ultrasonic_XMC_1400_Dynamic/Libraries/XMCLib/inc\xmc_wdt.h ****  * a source language processor.
  27:C:/GitHub/MobRob_Rover_NEW/Ultrasonic_Sensor_Node/Ultrasonic_XMC_1400_Dynamic/Libraries/XMCLib/inc\xmc_wdt.h ****  *
  28:C:/GitHub/MobRob_Rover_NEW/Ultrasonic_Sensor_Node/Ultrasonic_XMC_1400_Dynamic/Libraries/XMCLib/inc\xmc_wdt.h ****  * THE SOFTWARE IS PROVIDED "AS IS", WITHOUT WARRANTY OF ANY KIND, EXPRESS OR
  29:C:/GitHub/MobRob_Rover_NEW/Ultrasonic_Sensor_Node/Ultrasonic_XMC_1400_Dynamic/Libraries/XMCLib/inc\xmc_wdt.h ****  * IMPLIED, INCLUDING BUT NOT LIMITED TO THE WARRANTIES OF MERCHANTABILITY,
  30:C:/GitHub/MobRob_Rover_NEW/Ultrasonic_Sensor_Node/Ultrasonic_XMC_1400_Dynamic/Libraries/XMCLib/inc\xmc_wdt.h ****  * FITNESS FOR A PARTICULAR PURPOSE, TITLE AND NON-INFRINGEMENT. IN NO EVENT
  31:C:/GitHub/MobRob_Rover_NEW/Ultrasonic_Sensor_Node/Ultrasonic_XMC_1400_Dynamic/Libraries/XMCLib/inc\xmc_wdt.h ****  * SHALL THE COPYRIGHT HOLDERS OR ANYONE DISTRIBUTING THE SOFTWARE BE LIABLE
  32:C:/GitHub/MobRob_Rover_NEW/Ultrasonic_Sensor_Node/Ultrasonic_XMC_1400_Dynamic/Libraries/XMCLib/inc\xmc_wdt.h ****  * FOR ANY DAMAGES OR OTHER LIABILITY, WHETHER IN CONTRACT, TORT OR OTHERWISE,
  33:C:/GitHub/MobRob_Rover_NEW/Ultrasonic_Sensor_Node/Ultrasonic_XMC_1400_Dynamic/Libraries/XMCLib/inc\xmc_wdt.h ****  * ARISING FROM, OUT OF OR IN CONNECTION WITH THE SOFTWARE OR THE USE OR OTHER
  34:C:/GitHub/MobRob_Rover_NEW/Ultrasonic_Sensor_Node/Ultrasonic_XMC_1400_Dynamic/Libraries/XMCLib/inc\xmc_wdt.h ****  * DEALINGS IN THE SOFTWARE.
  35:C:/GitHub/MobRob_Rover_NEW/Ultrasonic_Sensor_Node/Ultrasonic_XMC_1400_Dynamic/Libraries/XMCLib/inc\xmc_wdt.h ****  *
  36:C:/GitHub/MobRob_Rover_NEW/Ultrasonic_Sensor_Node/Ultrasonic_XMC_1400_Dynamic/Libraries/XMCLib/inc\xmc_wdt.h ****  * To improve the quality of the software, users are encouraged to share
  37:C:/GitHub/MobRob_Rover_NEW/Ultrasonic_Sensor_Node/Ultrasonic_XMC_1400_Dynamic/Libraries/XMCLib/inc\xmc_wdt.h ****  * modifications, enhancements or bug fixes with Infineon Technologies AG
  38:C:/GitHub/MobRob_Rover_NEW/Ultrasonic_Sensor_Node/Ultrasonic_XMC_1400_Dynamic/Libraries/XMCLib/inc\xmc_wdt.h ****  * at XMCSupport@infineon.com.
  39:C:/GitHub/MobRob_Rover_NEW/Ultrasonic_Sensor_Node/Ultrasonic_XMC_1400_Dynamic/Libraries/XMCLib/inc\xmc_wdt.h ****  *****************************************************************************
  40:C:/GitHub/MobRob_Rover_NEW/Ultrasonic_Sensor_Node/Ultrasonic_XMC_1400_Dynamic/Libraries/XMCLib/inc\xmc_wdt.h ****  *
  41:C:/GitHub/MobRob_Rover_NEW/Ultrasonic_Sensor_Node/Ultrasonic_XMC_1400_Dynamic/Libraries/XMCLib/inc\xmc_wdt.h ****  * Change History
  42:C:/GitHub/MobRob_Rover_NEW/Ultrasonic_Sensor_Node/Ultrasonic_XMC_1400_Dynamic/Libraries/XMCLib/inc\xmc_wdt.h ****  * --------------
  43:C:/GitHub/MobRob_Rover_NEW/Ultrasonic_Sensor_Node/Ultrasonic_XMC_1400_Dynamic/Libraries/XMCLib/inc\xmc_wdt.h ****  *
  44:C:/GitHub/MobRob_Rover_NEW/Ultrasonic_Sensor_Node/Ultrasonic_XMC_1400_Dynamic/Libraries/XMCLib/inc\xmc_wdt.h ****  * 2015-02-20:
  45:C:/GitHub/MobRob_Rover_NEW/Ultrasonic_Sensor_Node/Ultrasonic_XMC_1400_Dynamic/Libraries/XMCLib/inc\xmc_wdt.h ****  *     - Initial <br>
  46:C:/GitHub/MobRob_Rover_NEW/Ultrasonic_Sensor_Node/Ultrasonic_XMC_1400_Dynamic/Libraries/XMCLib/inc\xmc_wdt.h ****  *     - Documentation updates <br>
  47:C:/GitHub/MobRob_Rover_NEW/Ultrasonic_Sensor_Node/Ultrasonic_XMC_1400_Dynamic/Libraries/XMCLib/inc\xmc_wdt.h ****  *
  48:C:/GitHub/MobRob_Rover_NEW/Ultrasonic_Sensor_Node/Ultrasonic_XMC_1400_Dynamic/Libraries/XMCLib/inc\xmc_wdt.h ****  * 2015-06-20:
  49:C:/GitHub/MobRob_Rover_NEW/Ultrasonic_Sensor_Node/Ultrasonic_XMC_1400_Dynamic/Libraries/XMCLib/inc\xmc_wdt.h ****  *     - Removed version macros and declaration of GetDriverVersion API <br>
  50:C:/GitHub/MobRob_Rover_NEW/Ultrasonic_Sensor_Node/Ultrasonic_XMC_1400_Dynamic/Libraries/XMCLib/inc\xmc_wdt.h ****  *
  51:C:/GitHub/MobRob_Rover_NEW/Ultrasonic_Sensor_Node/Ultrasonic_XMC_1400_Dynamic/Libraries/XMCLib/inc\xmc_wdt.h ****  * 2015-08-06:
  52:C:/GitHub/MobRob_Rover_NEW/Ultrasonic_Sensor_Node/Ultrasonic_XMC_1400_Dynamic/Libraries/XMCLib/inc\xmc_wdt.h ****  *     - Bug fix in XMC_WDT_SetDebugMode() API, Wrong register is being configured.<br>
  53:C:/GitHub/MobRob_Rover_NEW/Ultrasonic_Sensor_Node/Ultrasonic_XMC_1400_Dynamic/Libraries/XMCLib/inc\xmc_wdt.h ****  * @endcond
  54:C:/GitHub/MobRob_Rover_NEW/Ultrasonic_Sensor_Node/Ultrasonic_XMC_1400_Dynamic/Libraries/XMCLib/inc\xmc_wdt.h ****  */
  55:C:/GitHub/MobRob_Rover_NEW/Ultrasonic_Sensor_Node/Ultrasonic_XMC_1400_Dynamic/Libraries/XMCLib/inc\xmc_wdt.h **** 
  56:C:/GitHub/MobRob_Rover_NEW/Ultrasonic_Sensor_Node/Ultrasonic_XMC_1400_Dynamic/Libraries/XMCLib/inc\xmc_wdt.h **** #ifndef XMC_WDT_H
  57:C:/GitHub/MobRob_Rover_NEW/Ultrasonic_Sensor_Node/Ultrasonic_XMC_1400_Dynamic/Libraries/XMCLib/inc\xmc_wdt.h **** #define XMC_WDT_H
  58:C:/GitHub/MobRob_Rover_NEW/Ultrasonic_Sensor_Node/Ultrasonic_XMC_1400_Dynamic/Libraries/XMCLib/inc\xmc_wdt.h **** 
  59:C:/GitHub/MobRob_Rover_NEW/Ultrasonic_Sensor_Node/Ultrasonic_XMC_1400_Dynamic/Libraries/XMCLib/inc\xmc_wdt.h **** /**************************************************************************************************
  60:C:/GitHub/MobRob_Rover_NEW/Ultrasonic_Sensor_Node/Ultrasonic_XMC_1400_Dynamic/Libraries/XMCLib/inc\xmc_wdt.h ****  * HEADER FILES
  61:C:/GitHub/MobRob_Rover_NEW/Ultrasonic_Sensor_Node/Ultrasonic_XMC_1400_Dynamic/Libraries/XMCLib/inc\xmc_wdt.h ****  **************************************************************************************************
  62:C:/GitHub/MobRob_Rover_NEW/Ultrasonic_Sensor_Node/Ultrasonic_XMC_1400_Dynamic/Libraries/XMCLib/inc\xmc_wdt.h **** 
  63:C:/GitHub/MobRob_Rover_NEW/Ultrasonic_Sensor_Node/Ultrasonic_XMC_1400_Dynamic/Libraries/XMCLib/inc\xmc_wdt.h **** #include "xmc_common.h"
  64:C:/GitHub/MobRob_Rover_NEW/Ultrasonic_Sensor_Node/Ultrasonic_XMC_1400_Dynamic/Libraries/XMCLib/inc\xmc_wdt.h **** #include "xmc_scu.h"
  65:C:/GitHub/MobRob_Rover_NEW/Ultrasonic_Sensor_Node/Ultrasonic_XMC_1400_Dynamic/Libraries/XMCLib/inc\xmc_wdt.h **** /**
  66:C:/GitHub/MobRob_Rover_NEW/Ultrasonic_Sensor_Node/Ultrasonic_XMC_1400_Dynamic/Libraries/XMCLib/inc\xmc_wdt.h ****  * @addtogroup XMClib XMC Peripheral Library
  67:C:/GitHub/MobRob_Rover_NEW/Ultrasonic_Sensor_Node/Ultrasonic_XMC_1400_Dynamic/Libraries/XMCLib/inc\xmc_wdt.h ****  * @{
  68:C:/GitHub/MobRob_Rover_NEW/Ultrasonic_Sensor_Node/Ultrasonic_XMC_1400_Dynamic/Libraries/XMCLib/inc\xmc_wdt.h ****  */
  69:C:/GitHub/MobRob_Rover_NEW/Ultrasonic_Sensor_Node/Ultrasonic_XMC_1400_Dynamic/Libraries/XMCLib/inc\xmc_wdt.h **** 
  70:C:/GitHub/MobRob_Rover_NEW/Ultrasonic_Sensor_Node/Ultrasonic_XMC_1400_Dynamic/Libraries/XMCLib/inc\xmc_wdt.h **** /**
  71:C:/GitHub/MobRob_Rover_NEW/Ultrasonic_Sensor_Node/Ultrasonic_XMC_1400_Dynamic/Libraries/XMCLib/inc\xmc_wdt.h ****  * @addtogroup WDT
  72:C:/GitHub/MobRob_Rover_NEW/Ultrasonic_Sensor_Node/Ultrasonic_XMC_1400_Dynamic/Libraries/XMCLib/inc\xmc_wdt.h ****  * @brief Watchdog driver for the XMC microcontroller family.
  73:C:/GitHub/MobRob_Rover_NEW/Ultrasonic_Sensor_Node/Ultrasonic_XMC_1400_Dynamic/Libraries/XMCLib/inc\xmc_wdt.h ****  *
  74:C:/GitHub/MobRob_Rover_NEW/Ultrasonic_Sensor_Node/Ultrasonic_XMC_1400_Dynamic/Libraries/XMCLib/inc\xmc_wdt.h ****  * The watchdog unit (WDT) improves the system integrity, by triggering the system reset request to
  75:C:/GitHub/MobRob_Rover_NEW/Ultrasonic_Sensor_Node/Ultrasonic_XMC_1400_Dynamic/Libraries/XMCLib/inc\xmc_wdt.h ****  * back from the unresponsive state to normal operation.
  76:C:/GitHub/MobRob_Rover_NEW/Ultrasonic_Sensor_Node/Ultrasonic_XMC_1400_Dynamic/Libraries/XMCLib/inc\xmc_wdt.h ****  *
  77:C:/GitHub/MobRob_Rover_NEW/Ultrasonic_Sensor_Node/Ultrasonic_XMC_1400_Dynamic/Libraries/XMCLib/inc\xmc_wdt.h ****  * This LLD provides the Configuration structure XMC_WDT_CONFIG_t and initialization function XMC_W
  78:C:/GitHub/MobRob_Rover_NEW/Ultrasonic_Sensor_Node/Ultrasonic_XMC_1400_Dynamic/Libraries/XMCLib/inc\xmc_wdt.h ****  * It can be used to:
  79:C:/GitHub/MobRob_Rover_NEW/Ultrasonic_Sensor_Node/Ultrasonic_XMC_1400_Dynamic/Libraries/XMCLib/inc\xmc_wdt.h ****  * -# Start or Stop the watchdog timer. (XMC_WDT_Start() and XMC_WDT_Stop())
  80:C:/GitHub/MobRob_Rover_NEW/Ultrasonic_Sensor_Node/Ultrasonic_XMC_1400_Dynamic/Libraries/XMCLib/inc\xmc_wdt.h ****  * -# Service the watchdog timer. (XMC_WDT_Service())
  81:C:/GitHub/MobRob_Rover_NEW/Ultrasonic_Sensor_Node/Ultrasonic_XMC_1400_Dynamic/Libraries/XMCLib/inc\xmc_wdt.h ****  * -# Configure the service window upper bound and lower bound timing values. (XMC_WDT_SetWindowBou
  82:C:/GitHub/MobRob_Rover_NEW/Ultrasonic_Sensor_Node/Ultrasonic_XMC_1400_Dynamic/Libraries/XMCLib/inc\xmc_wdt.h ****  * -# Enable the generation of the pre-warning event for the first overflow of the timer. (XMC_WDT_
  83:C:/GitHub/MobRob_Rover_NEW/Ultrasonic_Sensor_Node/Ultrasonic_XMC_1400_Dynamic/Libraries/XMCLib/inc\xmc_wdt.h ****  * -# Clear the pre-warning alarm event. It is mandatory to clear the flag during pre-warning alarm
  84:C:/GitHub/MobRob_Rover_NEW/Ultrasonic_Sensor_Node/Ultrasonic_XMC_1400_Dynamic/Libraries/XMCLib/inc\xmc_wdt.h ****       generating reset request for the second overflow of the timer. (XMC_WDT_ClearAlarm())
  85:C:/GitHub/MobRob_Rover_NEW/Ultrasonic_Sensor_Node/Ultrasonic_XMC_1400_Dynamic/Libraries/XMCLib/inc\xmc_wdt.h ****  * -# Suspend the watchdog timer during Debug HALT mode. (XMC_WDT_SetDebugMode())
  86:C:/GitHub/MobRob_Rover_NEW/Ultrasonic_Sensor_Node/Ultrasonic_XMC_1400_Dynamic/Libraries/XMCLib/inc\xmc_wdt.h ****  * -# Configure service indication pulse width.(XMC_WDT_SetServicePulseWidth())
  87:C:/GitHub/MobRob_Rover_NEW/Ultrasonic_Sensor_Node/Ultrasonic_XMC_1400_Dynamic/Libraries/XMCLib/inc\xmc_wdt.h ****  *
  88:C:/GitHub/MobRob_Rover_NEW/Ultrasonic_Sensor_Node/Ultrasonic_XMC_1400_Dynamic/Libraries/XMCLib/inc\xmc_wdt.h ****  * @{
  89:C:/GitHub/MobRob_Rover_NEW/Ultrasonic_Sensor_Node/Ultrasonic_XMC_1400_Dynamic/Libraries/XMCLib/inc\xmc_wdt.h ****  */
  90:C:/GitHub/MobRob_Rover_NEW/Ultrasonic_Sensor_Node/Ultrasonic_XMC_1400_Dynamic/Libraries/XMCLib/inc\xmc_wdt.h **** 
  91:C:/GitHub/MobRob_Rover_NEW/Ultrasonic_Sensor_Node/Ultrasonic_XMC_1400_Dynamic/Libraries/XMCLib/inc\xmc_wdt.h **** /**************************************************************************************************
  92:C:/GitHub/MobRob_Rover_NEW/Ultrasonic_Sensor_Node/Ultrasonic_XMC_1400_Dynamic/Libraries/XMCLib/inc\xmc_wdt.h ****  * MACROS
  93:C:/GitHub/MobRob_Rover_NEW/Ultrasonic_Sensor_Node/Ultrasonic_XMC_1400_Dynamic/Libraries/XMCLib/inc\xmc_wdt.h ****   *************************************************************************************************
  94:C:/GitHub/MobRob_Rover_NEW/Ultrasonic_Sensor_Node/Ultrasonic_XMC_1400_Dynamic/Libraries/XMCLib/inc\xmc_wdt.h **** 
  95:C:/GitHub/MobRob_Rover_NEW/Ultrasonic_Sensor_Node/Ultrasonic_XMC_1400_Dynamic/Libraries/XMCLib/inc\xmc_wdt.h **** #define XMC_WDT_MAGIC_WORD             (0xABADCAFEU) /* Magic word to be written in Service Registe
  96:C:/GitHub/MobRob_Rover_NEW/Ultrasonic_Sensor_Node/Ultrasonic_XMC_1400_Dynamic/Libraries/XMCLib/inc\xmc_wdt.h ****                                                           to service or feed the watchdog. */
  97:C:/GitHub/MobRob_Rover_NEW/Ultrasonic_Sensor_Node/Ultrasonic_XMC_1400_Dynamic/Libraries/XMCLib/inc\xmc_wdt.h **** 
  98:C:/GitHub/MobRob_Rover_NEW/Ultrasonic_Sensor_Node/Ultrasonic_XMC_1400_Dynamic/Libraries/XMCLib/inc\xmc_wdt.h **** /**************************************************************************************************
  99:C:/GitHub/MobRob_Rover_NEW/Ultrasonic_Sensor_Node/Ultrasonic_XMC_1400_Dynamic/Libraries/XMCLib/inc\xmc_wdt.h ****  * ENUMS
 100:C:/GitHub/MobRob_Rover_NEW/Ultrasonic_Sensor_Node/Ultrasonic_XMC_1400_Dynamic/Libraries/XMCLib/inc\xmc_wdt.h ****   *************************************************************************************************
 101:C:/GitHub/MobRob_Rover_NEW/Ultrasonic_Sensor_Node/Ultrasonic_XMC_1400_Dynamic/Libraries/XMCLib/inc\xmc_wdt.h **** 
 102:C:/GitHub/MobRob_Rover_NEW/Ultrasonic_Sensor_Node/Ultrasonic_XMC_1400_Dynamic/Libraries/XMCLib/inc\xmc_wdt.h **** /**
 103:C:/GitHub/MobRob_Rover_NEW/Ultrasonic_Sensor_Node/Ultrasonic_XMC_1400_Dynamic/Libraries/XMCLib/inc\xmc_wdt.h ****  *  Defines working modes for watchdog. Use type XMC_WDT_MODE_t for this enum.
 104:C:/GitHub/MobRob_Rover_NEW/Ultrasonic_Sensor_Node/Ultrasonic_XMC_1400_Dynamic/Libraries/XMCLib/inc\xmc_wdt.h ****  */
 105:C:/GitHub/MobRob_Rover_NEW/Ultrasonic_Sensor_Node/Ultrasonic_XMC_1400_Dynamic/Libraries/XMCLib/inc\xmc_wdt.h **** typedef enum XMC_WDT_MODE
 106:C:/GitHub/MobRob_Rover_NEW/Ultrasonic_Sensor_Node/Ultrasonic_XMC_1400_Dynamic/Libraries/XMCLib/inc\xmc_wdt.h **** {
 107:C:/GitHub/MobRob_Rover_NEW/Ultrasonic_Sensor_Node/Ultrasonic_XMC_1400_Dynamic/Libraries/XMCLib/inc\xmc_wdt.h ****   XMC_WDT_MODE_TIMEOUT    = (uint32_t)0x0 << WDT_CTR_PRE_Pos, /**< Generates reset request as soon 
 108:C:/GitHub/MobRob_Rover_NEW/Ultrasonic_Sensor_Node/Ultrasonic_XMC_1400_Dynamic/Libraries/XMCLib/inc\xmc_wdt.h ****                                                                    occurs. */
 109:C:/GitHub/MobRob_Rover_NEW/Ultrasonic_Sensor_Node/Ultrasonic_XMC_1400_Dynamic/Libraries/XMCLib/inc\xmc_wdt.h ****   XMC_WDT_MODE_PREWARNING = (uint32_t)0x1 << WDT_CTR_PRE_Pos  /**< Generates an alarm event for the
 110:C:/GitHub/MobRob_Rover_NEW/Ultrasonic_Sensor_Node/Ultrasonic_XMC_1400_Dynamic/Libraries/XMCLib/inc\xmc_wdt.h ****                                                                    reset request after subsequent o
 111:C:/GitHub/MobRob_Rover_NEW/Ultrasonic_Sensor_Node/Ultrasonic_XMC_1400_Dynamic/Libraries/XMCLib/inc\xmc_wdt.h ****                                                                    serviced after first overflow. *
 112:C:/GitHub/MobRob_Rover_NEW/Ultrasonic_Sensor_Node/Ultrasonic_XMC_1400_Dynamic/Libraries/XMCLib/inc\xmc_wdt.h **** } XMC_WDT_MODE_t;
 113:C:/GitHub/MobRob_Rover_NEW/Ultrasonic_Sensor_Node/Ultrasonic_XMC_1400_Dynamic/Libraries/XMCLib/inc\xmc_wdt.h **** 
 114:C:/GitHub/MobRob_Rover_NEW/Ultrasonic_Sensor_Node/Ultrasonic_XMC_1400_Dynamic/Libraries/XMCLib/inc\xmc_wdt.h **** /**
 115:C:/GitHub/MobRob_Rover_NEW/Ultrasonic_Sensor_Node/Ultrasonic_XMC_1400_Dynamic/Libraries/XMCLib/inc\xmc_wdt.h ****  *  Defines debug behaviour of watchdog when the CPU enters HALT mode. Use type XMC_WDT_DEBUG_MODE_
 116:C:/GitHub/MobRob_Rover_NEW/Ultrasonic_Sensor_Node/Ultrasonic_XMC_1400_Dynamic/Libraries/XMCLib/inc\xmc_wdt.h ****  */
 117:C:/GitHub/MobRob_Rover_NEW/Ultrasonic_Sensor_Node/Ultrasonic_XMC_1400_Dynamic/Libraries/XMCLib/inc\xmc_wdt.h **** typedef enum XMC_WDT_DEBUG_MODE
 118:C:/GitHub/MobRob_Rover_NEW/Ultrasonic_Sensor_Node/Ultrasonic_XMC_1400_Dynamic/Libraries/XMCLib/inc\xmc_wdt.h **** {
 119:C:/GitHub/MobRob_Rover_NEW/Ultrasonic_Sensor_Node/Ultrasonic_XMC_1400_Dynamic/Libraries/XMCLib/inc\xmc_wdt.h ****   XMC_WDT_DEBUG_MODE_STOP = (uint32_t)0x0 << WDT_CTR_DSP_Pos, /**< Watchdog counter is paused durin
 120:C:/GitHub/MobRob_Rover_NEW/Ultrasonic_Sensor_Node/Ultrasonic_XMC_1400_Dynamic/Libraries/XMCLib/inc\xmc_wdt.h ****   XMC_WDT_DEBUG_MODE_RUN  = (uint32_t)0x1 << WDT_CTR_DSP_Pos  /**< Watchdog counter is not paused d
 121:C:/GitHub/MobRob_Rover_NEW/Ultrasonic_Sensor_Node/Ultrasonic_XMC_1400_Dynamic/Libraries/XMCLib/inc\xmc_wdt.h **** } XMC_WDT_DEBUG_MODE_t;
 122:C:/GitHub/MobRob_Rover_NEW/Ultrasonic_Sensor_Node/Ultrasonic_XMC_1400_Dynamic/Libraries/XMCLib/inc\xmc_wdt.h **** 
 123:C:/GitHub/MobRob_Rover_NEW/Ultrasonic_Sensor_Node/Ultrasonic_XMC_1400_Dynamic/Libraries/XMCLib/inc\xmc_wdt.h **** /**************************************************************************************************
 124:C:/GitHub/MobRob_Rover_NEW/Ultrasonic_Sensor_Node/Ultrasonic_XMC_1400_Dynamic/Libraries/XMCLib/inc\xmc_wdt.h ****  * DATA STRUCTURES
 125:C:/GitHub/MobRob_Rover_NEW/Ultrasonic_Sensor_Node/Ultrasonic_XMC_1400_Dynamic/Libraries/XMCLib/inc\xmc_wdt.h ****   *************************************************************************************************
 126:C:/GitHub/MobRob_Rover_NEW/Ultrasonic_Sensor_Node/Ultrasonic_XMC_1400_Dynamic/Libraries/XMCLib/inc\xmc_wdt.h **** /* Anonymous structure/union guard start */
 127:C:/GitHub/MobRob_Rover_NEW/Ultrasonic_Sensor_Node/Ultrasonic_XMC_1400_Dynamic/Libraries/XMCLib/inc\xmc_wdt.h **** #if defined(__CC_ARM)
 128:C:/GitHub/MobRob_Rover_NEW/Ultrasonic_Sensor_Node/Ultrasonic_XMC_1400_Dynamic/Libraries/XMCLib/inc\xmc_wdt.h **** #pragma push
 129:C:/GitHub/MobRob_Rover_NEW/Ultrasonic_Sensor_Node/Ultrasonic_XMC_1400_Dynamic/Libraries/XMCLib/inc\xmc_wdt.h **** #pragma anon_unions
 130:C:/GitHub/MobRob_Rover_NEW/Ultrasonic_Sensor_Node/Ultrasonic_XMC_1400_Dynamic/Libraries/XMCLib/inc\xmc_wdt.h **** #elif defined(__TASKING__)
 131:C:/GitHub/MobRob_Rover_NEW/Ultrasonic_Sensor_Node/Ultrasonic_XMC_1400_Dynamic/Libraries/XMCLib/inc\xmc_wdt.h **** #pragma warning 586
 132:C:/GitHub/MobRob_Rover_NEW/Ultrasonic_Sensor_Node/Ultrasonic_XMC_1400_Dynamic/Libraries/XMCLib/inc\xmc_wdt.h **** #endif
 133:C:/GitHub/MobRob_Rover_NEW/Ultrasonic_Sensor_Node/Ultrasonic_XMC_1400_Dynamic/Libraries/XMCLib/inc\xmc_wdt.h **** 
 134:C:/GitHub/MobRob_Rover_NEW/Ultrasonic_Sensor_Node/Ultrasonic_XMC_1400_Dynamic/Libraries/XMCLib/inc\xmc_wdt.h **** /**
 135:C:/GitHub/MobRob_Rover_NEW/Ultrasonic_Sensor_Node/Ultrasonic_XMC_1400_Dynamic/Libraries/XMCLib/inc\xmc_wdt.h ****  * Structure for initializing watchdog timer. Use type XMC_WDT_CONFIG_t for this structure.
 136:C:/GitHub/MobRob_Rover_NEW/Ultrasonic_Sensor_Node/Ultrasonic_XMC_1400_Dynamic/Libraries/XMCLib/inc\xmc_wdt.h ****  */
 137:C:/GitHub/MobRob_Rover_NEW/Ultrasonic_Sensor_Node/Ultrasonic_XMC_1400_Dynamic/Libraries/XMCLib/inc\xmc_wdt.h **** typedef struct XMC_WDT_CONFIG
 138:C:/GitHub/MobRob_Rover_NEW/Ultrasonic_Sensor_Node/Ultrasonic_XMC_1400_Dynamic/Libraries/XMCLib/inc\xmc_wdt.h **** {
 139:C:/GitHub/MobRob_Rover_NEW/Ultrasonic_Sensor_Node/Ultrasonic_XMC_1400_Dynamic/Libraries/XMCLib/inc\xmc_wdt.h ****   uint32_t window_upper_bound; /**< Upper bound for service window (WUB). Reset request is generate
 140:C:/GitHub/MobRob_Rover_NEW/Ultrasonic_Sensor_Node/Ultrasonic_XMC_1400_Dynamic/Libraries/XMCLib/inc\xmc_wdt.h ****                                     timer. ALways upper bound value has to be more than lower bound
 141:C:/GitHub/MobRob_Rover_NEW/Ultrasonic_Sensor_Node/Ultrasonic_XMC_1400_Dynamic/Libraries/XMCLib/inc\xmc_wdt.h ****                                     lower than WLB, triggers a system reset after timer crossed upp
 142:C:/GitHub/MobRob_Rover_NEW/Ultrasonic_Sensor_Node/Ultrasonic_XMC_1400_Dynamic/Libraries/XMCLib/inc\xmc_wdt.h ****                                     Range: [0H to FFFFFFFFH] */
 143:C:/GitHub/MobRob_Rover_NEW/Ultrasonic_Sensor_Node/Ultrasonic_XMC_1400_Dynamic/Libraries/XMCLib/inc\xmc_wdt.h ****   uint32_t window_lower_bound; /**< Lower bound for servicing window (WLB). Setting the lower bound
 144:C:/GitHub/MobRob_Rover_NEW/Ultrasonic_Sensor_Node/Ultrasonic_XMC_1400_Dynamic/Libraries/XMCLib/inc\xmc_wdt.h ****                                     window mechanism.\n
 145:C:/GitHub/MobRob_Rover_NEW/Ultrasonic_Sensor_Node/Ultrasonic_XMC_1400_Dynamic/Libraries/XMCLib/inc\xmc_wdt.h ****                                     Range: [0H to FFFFFFFFH] */
 146:C:/GitHub/MobRob_Rover_NEW/Ultrasonic_Sensor_Node/Ultrasonic_XMC_1400_Dynamic/Libraries/XMCLib/inc\xmc_wdt.h ****   union
 147:C:/GitHub/MobRob_Rover_NEW/Ultrasonic_Sensor_Node/Ultrasonic_XMC_1400_Dynamic/Libraries/XMCLib/inc\xmc_wdt.h ****   {
 148:C:/GitHub/MobRob_Rover_NEW/Ultrasonic_Sensor_Node/Ultrasonic_XMC_1400_Dynamic/Libraries/XMCLib/inc\xmc_wdt.h ****     struct
 149:C:/GitHub/MobRob_Rover_NEW/Ultrasonic_Sensor_Node/Ultrasonic_XMC_1400_Dynamic/Libraries/XMCLib/inc\xmc_wdt.h ****     {
 150:C:/GitHub/MobRob_Rover_NEW/Ultrasonic_Sensor_Node/Ultrasonic_XMC_1400_Dynamic/Libraries/XMCLib/inc\xmc_wdt.h ****       uint32_t : 1;
 151:C:/GitHub/MobRob_Rover_NEW/Ultrasonic_Sensor_Node/Ultrasonic_XMC_1400_Dynamic/Libraries/XMCLib/inc\xmc_wdt.h ****       uint32_t prewarn_mode : 1;        /**< Pre-warning mode (PRE). This accepts boolean values as
 152:C:/GitHub/MobRob_Rover_NEW/Ultrasonic_Sensor_Node/Ultrasonic_XMC_1400_Dynamic/Libraries/XMCLib/inc\xmc_wdt.h ****       uint32_t : 2;
 153:C:/GitHub/MobRob_Rover_NEW/Ultrasonic_Sensor_Node/Ultrasonic_XMC_1400_Dynamic/Libraries/XMCLib/inc\xmc_wdt.h ****       uint32_t run_in_debug_mode : 1;   /**< Watchdog timer behaviour during debug (DSP). This acce
 154:C:/GitHub/MobRob_Rover_NEW/Ultrasonic_Sensor_Node/Ultrasonic_XMC_1400_Dynamic/Libraries/XMCLib/inc\xmc_wdt.h ****       uint32_t : 3;
 155:C:/GitHub/MobRob_Rover_NEW/Ultrasonic_Sensor_Node/Ultrasonic_XMC_1400_Dynamic/Libraries/XMCLib/inc\xmc_wdt.h ****       uint32_t service_pulse_width : 8; /**< Service Indication Pulse Width (SPW). Generated Pulse 
 156:C:/GitHub/MobRob_Rover_NEW/Ultrasonic_Sensor_Node/Ultrasonic_XMC_1400_Dynamic/Libraries/XMCLib/inc\xmc_wdt.h ****                                              in fwdt cycles.\n
 157:C:/GitHub/MobRob_Rover_NEW/Ultrasonic_Sensor_Node/Ultrasonic_XMC_1400_Dynamic/Libraries/XMCLib/inc\xmc_wdt.h ****                                              Range: [0H to FFH] */
 158:C:/GitHub/MobRob_Rover_NEW/Ultrasonic_Sensor_Node/Ultrasonic_XMC_1400_Dynamic/Libraries/XMCLib/inc\xmc_wdt.h ****       uint32_t : 16;
 159:C:/GitHub/MobRob_Rover_NEW/Ultrasonic_Sensor_Node/Ultrasonic_XMC_1400_Dynamic/Libraries/XMCLib/inc\xmc_wdt.h ****     };
 160:C:/GitHub/MobRob_Rover_NEW/Ultrasonic_Sensor_Node/Ultrasonic_XMC_1400_Dynamic/Libraries/XMCLib/inc\xmc_wdt.h ****     uint32_t wdt_ctr; /* Value of operation mode control register (CTR). Its bit fields are repr
 161:C:/GitHub/MobRob_Rover_NEW/Ultrasonic_Sensor_Node/Ultrasonic_XMC_1400_Dynamic/Libraries/XMCLib/inc\xmc_wdt.h ****                            union members. */
 162:C:/GitHub/MobRob_Rover_NEW/Ultrasonic_Sensor_Node/Ultrasonic_XMC_1400_Dynamic/Libraries/XMCLib/inc\xmc_wdt.h ****   };
 163:C:/GitHub/MobRob_Rover_NEW/Ultrasonic_Sensor_Node/Ultrasonic_XMC_1400_Dynamic/Libraries/XMCLib/inc\xmc_wdt.h **** } XMC_WDT_CONFIG_t;
 164:C:/GitHub/MobRob_Rover_NEW/Ultrasonic_Sensor_Node/Ultrasonic_XMC_1400_Dynamic/Libraries/XMCLib/inc\xmc_wdt.h **** /* Anonymous structure/union guard end */
 165:C:/GitHub/MobRob_Rover_NEW/Ultrasonic_Sensor_Node/Ultrasonic_XMC_1400_Dynamic/Libraries/XMCLib/inc\xmc_wdt.h **** #if defined(__CC_ARM)
 166:C:/GitHub/MobRob_Rover_NEW/Ultrasonic_Sensor_Node/Ultrasonic_XMC_1400_Dynamic/Libraries/XMCLib/inc\xmc_wdt.h **** #pragma pop
 167:C:/GitHub/MobRob_Rover_NEW/Ultrasonic_Sensor_Node/Ultrasonic_XMC_1400_Dynamic/Libraries/XMCLib/inc\xmc_wdt.h **** #elif defined(__TASKING__)
 168:C:/GitHub/MobRob_Rover_NEW/Ultrasonic_Sensor_Node/Ultrasonic_XMC_1400_Dynamic/Libraries/XMCLib/inc\xmc_wdt.h **** #pragma warning restore
 169:C:/GitHub/MobRob_Rover_NEW/Ultrasonic_Sensor_Node/Ultrasonic_XMC_1400_Dynamic/Libraries/XMCLib/inc\xmc_wdt.h **** #endif
 170:C:/GitHub/MobRob_Rover_NEW/Ultrasonic_Sensor_Node/Ultrasonic_XMC_1400_Dynamic/Libraries/XMCLib/inc\xmc_wdt.h **** /**************************************************************************************************
 171:C:/GitHub/MobRob_Rover_NEW/Ultrasonic_Sensor_Node/Ultrasonic_XMC_1400_Dynamic/Libraries/XMCLib/inc\xmc_wdt.h ****  * API PROTOTYPES
 172:C:/GitHub/MobRob_Rover_NEW/Ultrasonic_Sensor_Node/Ultrasonic_XMC_1400_Dynamic/Libraries/XMCLib/inc\xmc_wdt.h ****   *************************************************************************************************
 173:C:/GitHub/MobRob_Rover_NEW/Ultrasonic_Sensor_Node/Ultrasonic_XMC_1400_Dynamic/Libraries/XMCLib/inc\xmc_wdt.h **** 
 174:C:/GitHub/MobRob_Rover_NEW/Ultrasonic_Sensor_Node/Ultrasonic_XMC_1400_Dynamic/Libraries/XMCLib/inc\xmc_wdt.h **** #ifdef __cplusplus
 175:C:/GitHub/MobRob_Rover_NEW/Ultrasonic_Sensor_Node/Ultrasonic_XMC_1400_Dynamic/Libraries/XMCLib/inc\xmc_wdt.h **** extern "C" {
 176:C:/GitHub/MobRob_Rover_NEW/Ultrasonic_Sensor_Node/Ultrasonic_XMC_1400_Dynamic/Libraries/XMCLib/inc\xmc_wdt.h **** #endif
 177:C:/GitHub/MobRob_Rover_NEW/Ultrasonic_Sensor_Node/Ultrasonic_XMC_1400_Dynamic/Libraries/XMCLib/inc\xmc_wdt.h **** 
 178:C:/GitHub/MobRob_Rover_NEW/Ultrasonic_Sensor_Node/Ultrasonic_XMC_1400_Dynamic/Libraries/XMCLib/inc\xmc_wdt.h **** /**
 179:C:/GitHub/MobRob_Rover_NEW/Ultrasonic_Sensor_Node/Ultrasonic_XMC_1400_Dynamic/Libraries/XMCLib/inc\xmc_wdt.h ****  * @param None
 180:C:/GitHub/MobRob_Rover_NEW/Ultrasonic_Sensor_Node/Ultrasonic_XMC_1400_Dynamic/Libraries/XMCLib/inc\xmc_wdt.h ****  *
 181:C:/GitHub/MobRob_Rover_NEW/Ultrasonic_Sensor_Node/Ultrasonic_XMC_1400_Dynamic/Libraries/XMCLib/inc\xmc_wdt.h ****  * @return None
 182:C:/GitHub/MobRob_Rover_NEW/Ultrasonic_Sensor_Node/Ultrasonic_XMC_1400_Dynamic/Libraries/XMCLib/inc\xmc_wdt.h ****  *
 183:C:/GitHub/MobRob_Rover_NEW/Ultrasonic_Sensor_Node/Ultrasonic_XMC_1400_Dynamic/Libraries/XMCLib/inc\xmc_wdt.h ****  * \par<b>Description:</b><br>
 184:C:/GitHub/MobRob_Rover_NEW/Ultrasonic_Sensor_Node/Ultrasonic_XMC_1400_Dynamic/Libraries/XMCLib/inc\xmc_wdt.h ****  * \if XMC4
 185:C:/GitHub/MobRob_Rover_NEW/Ultrasonic_Sensor_Node/Ultrasonic_XMC_1400_Dynamic/Libraries/XMCLib/inc\xmc_wdt.h ****  * Enables watchdog clock and releases watchdog reset.\n
 186:C:/GitHub/MobRob_Rover_NEW/Ultrasonic_Sensor_Node/Ultrasonic_XMC_1400_Dynamic/Libraries/XMCLib/inc\xmc_wdt.h ****  * \endif
 187:C:/GitHub/MobRob_Rover_NEW/Ultrasonic_Sensor_Node/Ultrasonic_XMC_1400_Dynamic/Libraries/XMCLib/inc\xmc_wdt.h ****  * \if XMC1
 188:C:/GitHub/MobRob_Rover_NEW/Ultrasonic_Sensor_Node/Ultrasonic_XMC_1400_Dynamic/Libraries/XMCLib/inc\xmc_wdt.h ****  * Enables watchdog clock.\n
 189:C:/GitHub/MobRob_Rover_NEW/Ultrasonic_Sensor_Node/Ultrasonic_XMC_1400_Dynamic/Libraries/XMCLib/inc\xmc_wdt.h ****  * \endif
 190:C:/GitHub/MobRob_Rover_NEW/Ultrasonic_Sensor_Node/Ultrasonic_XMC_1400_Dynamic/Libraries/XMCLib/inc\xmc_wdt.h ****  * \par
 191:C:/GitHub/MobRob_Rover_NEW/Ultrasonic_Sensor_Node/Ultrasonic_XMC_1400_Dynamic/Libraries/XMCLib/inc\xmc_wdt.h ****  * This API is invoked by XMC_WDT_Init() and therefore no need to call it explicitly during watchdo
 192:C:/GitHub/MobRob_Rover_NEW/Ultrasonic_Sensor_Node/Ultrasonic_XMC_1400_Dynamic/Libraries/XMCLib/inc\xmc_wdt.h ****  * sequence. Invoke this API to enable watchdog once again if the watchdog is disabled by invoking 
 193:C:/GitHub/MobRob_Rover_NEW/Ultrasonic_Sensor_Node/Ultrasonic_XMC_1400_Dynamic/Libraries/XMCLib/inc\xmc_wdt.h ****  *
 194:C:/GitHub/MobRob_Rover_NEW/Ultrasonic_Sensor_Node/Ultrasonic_XMC_1400_Dynamic/Libraries/XMCLib/inc\xmc_wdt.h ****  * \par<b>Note:</b><br>
 195:C:/GitHub/MobRob_Rover_NEW/Ultrasonic_Sensor_Node/Ultrasonic_XMC_1400_Dynamic/Libraries/XMCLib/inc\xmc_wdt.h ****  * \if XMC4
 196:C:/GitHub/MobRob_Rover_NEW/Ultrasonic_Sensor_Node/Ultrasonic_XMC_1400_Dynamic/Libraries/XMCLib/inc\xmc_wdt.h ****  * 1. It is required to configure the watchdog, again after invoking XMC_WDT_Disable(). Since all t
 197:C:/GitHub/MobRob_Rover_NEW/Ultrasonic_Sensor_Node/Ultrasonic_XMC_1400_Dynamic/Libraries/XMCLib/inc\xmc_wdt.h ****  *    reset with default values.
 198:C:/GitHub/MobRob_Rover_NEW/Ultrasonic_Sensor_Node/Ultrasonic_XMC_1400_Dynamic/Libraries/XMCLib/inc\xmc_wdt.h ****  * \endif
 199:C:/GitHub/MobRob_Rover_NEW/Ultrasonic_Sensor_Node/Ultrasonic_XMC_1400_Dynamic/Libraries/XMCLib/inc\xmc_wdt.h ****  * \if XMC1
 200:C:/GitHub/MobRob_Rover_NEW/Ultrasonic_Sensor_Node/Ultrasonic_XMC_1400_Dynamic/Libraries/XMCLib/inc\xmc_wdt.h ****  * 1. Not required to configure the watchdog again after invoking XMC_WDT_Disable(). Since the regi
 201:C:/GitHub/MobRob_Rover_NEW/Ultrasonic_Sensor_Node/Ultrasonic_XMC_1400_Dynamic/Libraries/XMCLib/inc\xmc_wdt.h ****  *    the configured values.
 202:C:/GitHub/MobRob_Rover_NEW/Ultrasonic_Sensor_Node/Ultrasonic_XMC_1400_Dynamic/Libraries/XMCLib/inc\xmc_wdt.h ****  * \endif
 203:C:/GitHub/MobRob_Rover_NEW/Ultrasonic_Sensor_Node/Ultrasonic_XMC_1400_Dynamic/Libraries/XMCLib/inc\xmc_wdt.h ****  * \par<b>Related APIs:</b><BR>
 204:C:/GitHub/MobRob_Rover_NEW/Ultrasonic_Sensor_Node/Ultrasonic_XMC_1400_Dynamic/Libraries/XMCLib/inc\xmc_wdt.h ****  * XMC_WDT_Init(), XMC_WDT_Disable()
 205:C:/GitHub/MobRob_Rover_NEW/Ultrasonic_Sensor_Node/Ultrasonic_XMC_1400_Dynamic/Libraries/XMCLib/inc\xmc_wdt.h ****  */
 206:C:/GitHub/MobRob_Rover_NEW/Ultrasonic_Sensor_Node/Ultrasonic_XMC_1400_Dynamic/Libraries/XMCLib/inc\xmc_wdt.h **** void XMC_WDT_Enable(void);
 207:C:/GitHub/MobRob_Rover_NEW/Ultrasonic_Sensor_Node/Ultrasonic_XMC_1400_Dynamic/Libraries/XMCLib/inc\xmc_wdt.h **** 
 208:C:/GitHub/MobRob_Rover_NEW/Ultrasonic_Sensor_Node/Ultrasonic_XMC_1400_Dynamic/Libraries/XMCLib/inc\xmc_wdt.h **** /**
 209:C:/GitHub/MobRob_Rover_NEW/Ultrasonic_Sensor_Node/Ultrasonic_XMC_1400_Dynamic/Libraries/XMCLib/inc\xmc_wdt.h ****  * @param None
 210:C:/GitHub/MobRob_Rover_NEW/Ultrasonic_Sensor_Node/Ultrasonic_XMC_1400_Dynamic/Libraries/XMCLib/inc\xmc_wdt.h ****  *
 211:C:/GitHub/MobRob_Rover_NEW/Ultrasonic_Sensor_Node/Ultrasonic_XMC_1400_Dynamic/Libraries/XMCLib/inc\xmc_wdt.h ****  * @return None
 212:C:/GitHub/MobRob_Rover_NEW/Ultrasonic_Sensor_Node/Ultrasonic_XMC_1400_Dynamic/Libraries/XMCLib/inc\xmc_wdt.h ****  *
 213:C:/GitHub/MobRob_Rover_NEW/Ultrasonic_Sensor_Node/Ultrasonic_XMC_1400_Dynamic/Libraries/XMCLib/inc\xmc_wdt.h ****  * \par<b>Description:</b><br>
 214:C:/GitHub/MobRob_Rover_NEW/Ultrasonic_Sensor_Node/Ultrasonic_XMC_1400_Dynamic/Libraries/XMCLib/inc\xmc_wdt.h ****  * \if XMC4
 215:C:/GitHub/MobRob_Rover_NEW/Ultrasonic_Sensor_Node/Ultrasonic_XMC_1400_Dynamic/Libraries/XMCLib/inc\xmc_wdt.h ****  * Disables the clock and resets watchdog timer.\n
 216:C:/GitHub/MobRob_Rover_NEW/Ultrasonic_Sensor_Node/Ultrasonic_XMC_1400_Dynamic/Libraries/XMCLib/inc\xmc_wdt.h ****  * \endif
 217:C:/GitHub/MobRob_Rover_NEW/Ultrasonic_Sensor_Node/Ultrasonic_XMC_1400_Dynamic/Libraries/XMCLib/inc\xmc_wdt.h ****  * \if XMC1
 218:C:/GitHub/MobRob_Rover_NEW/Ultrasonic_Sensor_Node/Ultrasonic_XMC_1400_Dynamic/Libraries/XMCLib/inc\xmc_wdt.h ****  * Disables the clock to the watchdog timer.\n
 219:C:/GitHub/MobRob_Rover_NEW/Ultrasonic_Sensor_Node/Ultrasonic_XMC_1400_Dynamic/Libraries/XMCLib/inc\xmc_wdt.h ****  * \endif
 220:C:/GitHub/MobRob_Rover_NEW/Ultrasonic_Sensor_Node/Ultrasonic_XMC_1400_Dynamic/Libraries/XMCLib/inc\xmc_wdt.h ****  *
 221:C:/GitHub/MobRob_Rover_NEW/Ultrasonic_Sensor_Node/Ultrasonic_XMC_1400_Dynamic/Libraries/XMCLib/inc\xmc_wdt.h ****  * \par<b>Note:</b><br>
 222:C:/GitHub/MobRob_Rover_NEW/Ultrasonic_Sensor_Node/Ultrasonic_XMC_1400_Dynamic/Libraries/XMCLib/inc\xmc_wdt.h ****  * \if XMC4
 223:C:/GitHub/MobRob_Rover_NEW/Ultrasonic_Sensor_Node/Ultrasonic_XMC_1400_Dynamic/Libraries/XMCLib/inc\xmc_wdt.h ****  * 1. Resets the registers with default values. So XMC_WDT_Init() has to be invoked again to config
 224:C:/GitHub/MobRob_Rover_NEW/Ultrasonic_Sensor_Node/Ultrasonic_XMC_1400_Dynamic/Libraries/XMCLib/inc\xmc_wdt.h ****  * \endif
 225:C:/GitHub/MobRob_Rover_NEW/Ultrasonic_Sensor_Node/Ultrasonic_XMC_1400_Dynamic/Libraries/XMCLib/inc\xmc_wdt.h ****  * \if XMC1
 226:C:/GitHub/MobRob_Rover_NEW/Ultrasonic_Sensor_Node/Ultrasonic_XMC_1400_Dynamic/Libraries/XMCLib/inc\xmc_wdt.h ****  * 1. After invoking XMC_WDT_Disable(), all register values are displayed with 0F in debugger. Once
 227:C:/GitHub/MobRob_Rover_NEW/Ultrasonic_Sensor_Node/Ultrasonic_XMC_1400_Dynamic/Libraries/XMCLib/inc\xmc_wdt.h ****       calling XMC_WDT_Enable(), previous configured register values are displayed. No need to invok
 228:C:/GitHub/MobRob_Rover_NEW/Ultrasonic_Sensor_Node/Ultrasonic_XMC_1400_Dynamic/Libraries/XMCLib/inc\xmc_wdt.h ****       again.
 229:C:/GitHub/MobRob_Rover_NEW/Ultrasonic_Sensor_Node/Ultrasonic_XMC_1400_Dynamic/Libraries/XMCLib/inc\xmc_wdt.h ****  * \endif
 230:C:/GitHub/MobRob_Rover_NEW/Ultrasonic_Sensor_Node/Ultrasonic_XMC_1400_Dynamic/Libraries/XMCLib/inc\xmc_wdt.h ****  * \par<b>Related APIs:</b><BR>
 231:C:/GitHub/MobRob_Rover_NEW/Ultrasonic_Sensor_Node/Ultrasonic_XMC_1400_Dynamic/Libraries/XMCLib/inc\xmc_wdt.h ****  * XMC_WDT_Enable()
 232:C:/GitHub/MobRob_Rover_NEW/Ultrasonic_Sensor_Node/Ultrasonic_XMC_1400_Dynamic/Libraries/XMCLib/inc\xmc_wdt.h ****  */
 233:C:/GitHub/MobRob_Rover_NEW/Ultrasonic_Sensor_Node/Ultrasonic_XMC_1400_Dynamic/Libraries/XMCLib/inc\xmc_wdt.h **** void XMC_WDT_Disable(void);
 234:C:/GitHub/MobRob_Rover_NEW/Ultrasonic_Sensor_Node/Ultrasonic_XMC_1400_Dynamic/Libraries/XMCLib/inc\xmc_wdt.h **** 
 235:C:/GitHub/MobRob_Rover_NEW/Ultrasonic_Sensor_Node/Ultrasonic_XMC_1400_Dynamic/Libraries/XMCLib/inc\xmc_wdt.h **** /**
 236:C:/GitHub/MobRob_Rover_NEW/Ultrasonic_Sensor_Node/Ultrasonic_XMC_1400_Dynamic/Libraries/XMCLib/inc\xmc_wdt.h ****  * @param config pointer to a constant watchdog configuration data structure. Refer data structure 
 237:C:/GitHub/MobRob_Rover_NEW/Ultrasonic_Sensor_Node/Ultrasonic_XMC_1400_Dynamic/Libraries/XMCLib/inc\xmc_wdt.h ****  *               for detail.
 238:C:/GitHub/MobRob_Rover_NEW/Ultrasonic_Sensor_Node/Ultrasonic_XMC_1400_Dynamic/Libraries/XMCLib/inc\xmc_wdt.h ****  *
 239:C:/GitHub/MobRob_Rover_NEW/Ultrasonic_Sensor_Node/Ultrasonic_XMC_1400_Dynamic/Libraries/XMCLib/inc\xmc_wdt.h ****  * @return None
 240:C:/GitHub/MobRob_Rover_NEW/Ultrasonic_Sensor_Node/Ultrasonic_XMC_1400_Dynamic/Libraries/XMCLib/inc\xmc_wdt.h ****  *
 241:C:/GitHub/MobRob_Rover_NEW/Ultrasonic_Sensor_Node/Ultrasonic_XMC_1400_Dynamic/Libraries/XMCLib/inc\xmc_wdt.h ****  * \par<b>Description:</b><br>
 242:C:/GitHub/MobRob_Rover_NEW/Ultrasonic_Sensor_Node/Ultrasonic_XMC_1400_Dynamic/Libraries/XMCLib/inc\xmc_wdt.h ****  * Initializes and configures watchdog with configuration data pointed by \a config.\n
 243:C:/GitHub/MobRob_Rover_NEW/Ultrasonic_Sensor_Node/Ultrasonic_XMC_1400_Dynamic/Libraries/XMCLib/inc\xmc_wdt.h ****  * \par
 244:C:/GitHub/MobRob_Rover_NEW/Ultrasonic_Sensor_Node/Ultrasonic_XMC_1400_Dynamic/Libraries/XMCLib/inc\xmc_wdt.h ****  * It invokes XMC_WDT_Enable() to enable clock and release reset. Then configures the lower and upp
 245:C:/GitHub/MobRob_Rover_NEW/Ultrasonic_Sensor_Node/Ultrasonic_XMC_1400_Dynamic/Libraries/XMCLib/inc\xmc_wdt.h ****  * working mode (timeout/pre-warning), debug behaviour and service request indication pulse width.
 246:C:/GitHub/MobRob_Rover_NEW/Ultrasonic_Sensor_Node/Ultrasonic_XMC_1400_Dynamic/Libraries/XMCLib/inc\xmc_wdt.h ****  *
 247:C:/GitHub/MobRob_Rover_NEW/Ultrasonic_Sensor_Node/Ultrasonic_XMC_1400_Dynamic/Libraries/XMCLib/inc\xmc_wdt.h ****  * \par<b>Note:</b><br>
 248:C:/GitHub/MobRob_Rover_NEW/Ultrasonic_Sensor_Node/Ultrasonic_XMC_1400_Dynamic/Libraries/XMCLib/inc\xmc_wdt.h ****  * 1. With out invoking this XMC_WDT_Init() or XMC_WDT_Enable(), invocation of other APIs like XMC_
 249:C:/GitHub/MobRob_Rover_NEW/Ultrasonic_Sensor_Node/Ultrasonic_XMC_1400_Dynamic/Libraries/XMCLib/inc\xmc_wdt.h ****  *    XMC_WDT_SetMode(), XMC_WDT_SetServicePulseWidth(), XMC_WDT_SetDebugMode(), XMC_WDT_Start(), X
 250:C:/GitHub/MobRob_Rover_NEW/Ultrasonic_Sensor_Node/Ultrasonic_XMC_1400_Dynamic/Libraries/XMCLib/inc\xmc_wdt.h ****  *    XMC_WDT_Service(), XMC_WDT_ClearAlarm() has no affect.
 251:C:/GitHub/MobRob_Rover_NEW/Ultrasonic_Sensor_Node/Ultrasonic_XMC_1400_Dynamic/Libraries/XMCLib/inc\xmc_wdt.h ****  */
 252:C:/GitHub/MobRob_Rover_NEW/Ultrasonic_Sensor_Node/Ultrasonic_XMC_1400_Dynamic/Libraries/XMCLib/inc\xmc_wdt.h **** void XMC_WDT_Init(const XMC_WDT_CONFIG_t *const config);
 253:C:/GitHub/MobRob_Rover_NEW/Ultrasonic_Sensor_Node/Ultrasonic_XMC_1400_Dynamic/Libraries/XMCLib/inc\xmc_wdt.h **** 
 254:C:/GitHub/MobRob_Rover_NEW/Ultrasonic_Sensor_Node/Ultrasonic_XMC_1400_Dynamic/Libraries/XMCLib/inc\xmc_wdt.h **** /**
 255:C:/GitHub/MobRob_Rover_NEW/Ultrasonic_Sensor_Node/Ultrasonic_XMC_1400_Dynamic/Libraries/XMCLib/inc\xmc_wdt.h ****  * @param lower_bound specifies watchdog window lower bound in terms of watchdog clock (fWDT) cycle
 256:C:/GitHub/MobRob_Rover_NEW/Ultrasonic_Sensor_Node/Ultrasonic_XMC_1400_Dynamic/Libraries/XMCLib/inc\xmc_wdt.h ****  *                    Range: [0H to FFFFFFFFH].
 257:C:/GitHub/MobRob_Rover_NEW/Ultrasonic_Sensor_Node/Ultrasonic_XMC_1400_Dynamic/Libraries/XMCLib/inc\xmc_wdt.h ****  * @param upper_bound specifies watchdog window upper bound in terms of watchdog clock (fWDT) cycle
 258:C:/GitHub/MobRob_Rover_NEW/Ultrasonic_Sensor_Node/Ultrasonic_XMC_1400_Dynamic/Libraries/XMCLib/inc\xmc_wdt.h ****  *                    Range: [0H to FFFFFFFFH].
 259:C:/GitHub/MobRob_Rover_NEW/Ultrasonic_Sensor_Node/Ultrasonic_XMC_1400_Dynamic/Libraries/XMCLib/inc\xmc_wdt.h ****  *
 260:C:/GitHub/MobRob_Rover_NEW/Ultrasonic_Sensor_Node/Ultrasonic_XMC_1400_Dynamic/Libraries/XMCLib/inc\xmc_wdt.h ****  * @return None
 261:C:/GitHub/MobRob_Rover_NEW/Ultrasonic_Sensor_Node/Ultrasonic_XMC_1400_Dynamic/Libraries/XMCLib/inc\xmc_wdt.h ****  *
 262:C:/GitHub/MobRob_Rover_NEW/Ultrasonic_Sensor_Node/Ultrasonic_XMC_1400_Dynamic/Libraries/XMCLib/inc\xmc_wdt.h ****  * \par<b>Description:</b><br>
 263:C:/GitHub/MobRob_Rover_NEW/Ultrasonic_Sensor_Node/Ultrasonic_XMC_1400_Dynamic/Libraries/XMCLib/inc\xmc_wdt.h ****  * Sets watchdog window lower and upper bounds by updating WLB and WUB registers.\n
 264:C:/GitHub/MobRob_Rover_NEW/Ultrasonic_Sensor_Node/Ultrasonic_XMC_1400_Dynamic/Libraries/XMCLib/inc\xmc_wdt.h ****  * \par
 265:C:/GitHub/MobRob_Rover_NEW/Ultrasonic_Sensor_Node/Ultrasonic_XMC_1400_Dynamic/Libraries/XMCLib/inc\xmc_wdt.h ****  * Window lower and upper bounds are set during initialization in XMC_WDT_Init(). Invoke this API t
 266:C:/GitHub/MobRob_Rover_NEW/Ultrasonic_Sensor_Node/Ultrasonic_XMC_1400_Dynamic/Libraries/XMCLib/inc\xmc_wdt.h ****  * needed later in the program. This upper bound and lower bound can be calculated by using the bel
 267:C:/GitHub/MobRob_Rover_NEW/Ultrasonic_Sensor_Node/Ultrasonic_XMC_1400_Dynamic/Libraries/XMCLib/inc\xmc_wdt.h ****  *       upper_bound or lower_bound = desired_boundary_time(sec) * fwdt(hz)
 268:C:/GitHub/MobRob_Rover_NEW/Ultrasonic_Sensor_Node/Ultrasonic_XMC_1400_Dynamic/Libraries/XMCLib/inc\xmc_wdt.h ****  *
 269:C:/GitHub/MobRob_Rover_NEW/Ultrasonic_Sensor_Node/Ultrasonic_XMC_1400_Dynamic/Libraries/XMCLib/inc\xmc_wdt.h ****  * \par<b>Note:</b>
 270:C:/GitHub/MobRob_Rover_NEW/Ultrasonic_Sensor_Node/Ultrasonic_XMC_1400_Dynamic/Libraries/XMCLib/inc\xmc_wdt.h ****  * 1. Always ensure that upper_bound is greater than the lower_bound value. If not, whenever timer 
 271:C:/GitHub/MobRob_Rover_NEW/Ultrasonic_Sensor_Node/Ultrasonic_XMC_1400_Dynamic/Libraries/XMCLib/inc\xmc_wdt.h ****  *    upper_bound value it triggers the reset(wdt_rst_req) of the controller.
 272:C:/GitHub/MobRob_Rover_NEW/Ultrasonic_Sensor_Node/Ultrasonic_XMC_1400_Dynamic/Libraries/XMCLib/inc\xmc_wdt.h ****  */
 273:C:/GitHub/MobRob_Rover_NEW/Ultrasonic_Sensor_Node/Ultrasonic_XMC_1400_Dynamic/Libraries/XMCLib/inc\xmc_wdt.h **** __STATIC_INLINE void XMC_WDT_SetWindowBounds(uint32_t lower_bound, uint32_t upper_bound)
 274:C:/GitHub/MobRob_Rover_NEW/Ultrasonic_Sensor_Node/Ultrasonic_XMC_1400_Dynamic/Libraries/XMCLib/inc\xmc_wdt.h **** {
 275:C:/GitHub/MobRob_Rover_NEW/Ultrasonic_Sensor_Node/Ultrasonic_XMC_1400_Dynamic/Libraries/XMCLib/inc\xmc_wdt.h ****   WDT->WLB = lower_bound;
 276:C:/GitHub/MobRob_Rover_NEW/Ultrasonic_Sensor_Node/Ultrasonic_XMC_1400_Dynamic/Libraries/XMCLib/inc\xmc_wdt.h ****   WDT->WUB = upper_bound;
 277:C:/GitHub/MobRob_Rover_NEW/Ultrasonic_Sensor_Node/Ultrasonic_XMC_1400_Dynamic/Libraries/XMCLib/inc\xmc_wdt.h **** }
 278:C:/GitHub/MobRob_Rover_NEW/Ultrasonic_Sensor_Node/Ultrasonic_XMC_1400_Dynamic/Libraries/XMCLib/inc\xmc_wdt.h **** 
 279:C:/GitHub/MobRob_Rover_NEW/Ultrasonic_Sensor_Node/Ultrasonic_XMC_1400_Dynamic/Libraries/XMCLib/inc\xmc_wdt.h **** /**
 280:C:/GitHub/MobRob_Rover_NEW/Ultrasonic_Sensor_Node/Ultrasonic_XMC_1400_Dynamic/Libraries/XMCLib/inc\xmc_wdt.h ****  * @param mode is one of the working modes of the watchdog timer, i.e timeout or pre-warning. Refer
 281:C:/GitHub/MobRob_Rover_NEW/Ultrasonic_Sensor_Node/Ultrasonic_XMC_1400_Dynamic/Libraries/XMCLib/inc\xmc_wdt.h ****  *             for valid values.
 282:C:/GitHub/MobRob_Rover_NEW/Ultrasonic_Sensor_Node/Ultrasonic_XMC_1400_Dynamic/Libraries/XMCLib/inc\xmc_wdt.h ****  *
 283:C:/GitHub/MobRob_Rover_NEW/Ultrasonic_Sensor_Node/Ultrasonic_XMC_1400_Dynamic/Libraries/XMCLib/inc\xmc_wdt.h ****  * @return None
 284:C:/GitHub/MobRob_Rover_NEW/Ultrasonic_Sensor_Node/Ultrasonic_XMC_1400_Dynamic/Libraries/XMCLib/inc\xmc_wdt.h ****  *
 285:C:/GitHub/MobRob_Rover_NEW/Ultrasonic_Sensor_Node/Ultrasonic_XMC_1400_Dynamic/Libraries/XMCLib/inc\xmc_wdt.h ****  * \par<b>Description:</b><br>
 286:C:/GitHub/MobRob_Rover_NEW/Ultrasonic_Sensor_Node/Ultrasonic_XMC_1400_Dynamic/Libraries/XMCLib/inc\xmc_wdt.h ****  * Sets watchdog working mode (timeout or pre-warning) by updating PRE bit of CTR register.\n
 287:C:/GitHub/MobRob_Rover_NEW/Ultrasonic_Sensor_Node/Ultrasonic_XMC_1400_Dynamic/Libraries/XMCLib/inc\xmc_wdt.h ****  * \par
 288:C:/GitHub/MobRob_Rover_NEW/Ultrasonic_Sensor_Node/Ultrasonic_XMC_1400_Dynamic/Libraries/XMCLib/inc\xmc_wdt.h ****  * The working mode is set during initialization in XMC_WDT_Init(). Invoke this API to alter the mo
 289:C:/GitHub/MobRob_Rover_NEW/Ultrasonic_Sensor_Node/Ultrasonic_XMC_1400_Dynamic/Libraries/XMCLib/inc\xmc_wdt.h ****  * the program.
 290:C:/GitHub/MobRob_Rover_NEW/Ultrasonic_Sensor_Node/Ultrasonic_XMC_1400_Dynamic/Libraries/XMCLib/inc\xmc_wdt.h ****  */
 291:C:/GitHub/MobRob_Rover_NEW/Ultrasonic_Sensor_Node/Ultrasonic_XMC_1400_Dynamic/Libraries/XMCLib/inc\xmc_wdt.h **** __STATIC_INLINE void XMC_WDT_SetMode(XMC_WDT_MODE_t mode)
 292:C:/GitHub/MobRob_Rover_NEW/Ultrasonic_Sensor_Node/Ultrasonic_XMC_1400_Dynamic/Libraries/XMCLib/inc\xmc_wdt.h **** {
 293:C:/GitHub/MobRob_Rover_NEW/Ultrasonic_Sensor_Node/Ultrasonic_XMC_1400_Dynamic/Libraries/XMCLib/inc\xmc_wdt.h ****   WDT->CTR = (WDT->CTR & (uint32_t)~WDT_CTR_PRE_Msk) | (uint32_t)mode;
 294:C:/GitHub/MobRob_Rover_NEW/Ultrasonic_Sensor_Node/Ultrasonic_XMC_1400_Dynamic/Libraries/XMCLib/inc\xmc_wdt.h **** }
 295:C:/GitHub/MobRob_Rover_NEW/Ultrasonic_Sensor_Node/Ultrasonic_XMC_1400_Dynamic/Libraries/XMCLib/inc\xmc_wdt.h **** 
 296:C:/GitHub/MobRob_Rover_NEW/Ultrasonic_Sensor_Node/Ultrasonic_XMC_1400_Dynamic/Libraries/XMCLib/inc\xmc_wdt.h **** /**
 297:C:/GitHub/MobRob_Rover_NEW/Ultrasonic_Sensor_Node/Ultrasonic_XMC_1400_Dynamic/Libraries/XMCLib/inc\xmc_wdt.h ****  * @param service_pulse_width specifies Service indication pulse width in terms of fwdt.
 298:C:/GitHub/MobRob_Rover_NEW/Ultrasonic_Sensor_Node/Ultrasonic_XMC_1400_Dynamic/Libraries/XMCLib/inc\xmc_wdt.h ****  *                            Range: [0H  FFH].
 299:C:/GitHub/MobRob_Rover_NEW/Ultrasonic_Sensor_Node/Ultrasonic_XMC_1400_Dynamic/Libraries/XMCLib/inc\xmc_wdt.h ****  * @return None
 300:C:/GitHub/MobRob_Rover_NEW/Ultrasonic_Sensor_Node/Ultrasonic_XMC_1400_Dynamic/Libraries/XMCLib/inc\xmc_wdt.h ****  *
 301:C:/GitHub/MobRob_Rover_NEW/Ultrasonic_Sensor_Node/Ultrasonic_XMC_1400_Dynamic/Libraries/XMCLib/inc\xmc_wdt.h ****  * \par<b>Description:</b><br>
 302:C:/GitHub/MobRob_Rover_NEW/Ultrasonic_Sensor_Node/Ultrasonic_XMC_1400_Dynamic/Libraries/XMCLib/inc\xmc_wdt.h ****  * Sets service indication pulse width by updating SPW bit field of CTR register.\n
 303:C:/GitHub/MobRob_Rover_NEW/Ultrasonic_Sensor_Node/Ultrasonic_XMC_1400_Dynamic/Libraries/XMCLib/inc\xmc_wdt.h ****  * \par
 304:C:/GitHub/MobRob_Rover_NEW/Ultrasonic_Sensor_Node/Ultrasonic_XMC_1400_Dynamic/Libraries/XMCLib/inc\xmc_wdt.h ****  * The service indication pulse (with width service_pulse_width + 1 in fwdt cycles) is generated on
 305:C:/GitHub/MobRob_Rover_NEW/Ultrasonic_Sensor_Node/Ultrasonic_XMC_1400_Dynamic/Libraries/XMCLib/inc\xmc_wdt.h ****  * or feeding of watchdog. The pulse width is initially set during initialization in XMC_WDT_Init()
 306:C:/GitHub/MobRob_Rover_NEW/Ultrasonic_Sensor_Node/Ultrasonic_XMC_1400_Dynamic/Libraries/XMCLib/inc\xmc_wdt.h ****  * alter the width as needed later in the program.
 307:C:/GitHub/MobRob_Rover_NEW/Ultrasonic_Sensor_Node/Ultrasonic_XMC_1400_Dynamic/Libraries/XMCLib/inc\xmc_wdt.h ****  */
 308:C:/GitHub/MobRob_Rover_NEW/Ultrasonic_Sensor_Node/Ultrasonic_XMC_1400_Dynamic/Libraries/XMCLib/inc\xmc_wdt.h **** __STATIC_INLINE void XMC_WDT_SetServicePulseWidth(uint8_t service_pulse_width)
 309:C:/GitHub/MobRob_Rover_NEW/Ultrasonic_Sensor_Node/Ultrasonic_XMC_1400_Dynamic/Libraries/XMCLib/inc\xmc_wdt.h **** {
 310:C:/GitHub/MobRob_Rover_NEW/Ultrasonic_Sensor_Node/Ultrasonic_XMC_1400_Dynamic/Libraries/XMCLib/inc\xmc_wdt.h ****   WDT->CTR = (WDT->CTR & (uint32_t)~WDT_CTR_SPW_Msk) | ((uint32_t)service_pulse_width << WDT_CTR_SP
 311:C:/GitHub/MobRob_Rover_NEW/Ultrasonic_Sensor_Node/Ultrasonic_XMC_1400_Dynamic/Libraries/XMCLib/inc\xmc_wdt.h **** }
 312:C:/GitHub/MobRob_Rover_NEW/Ultrasonic_Sensor_Node/Ultrasonic_XMC_1400_Dynamic/Libraries/XMCLib/inc\xmc_wdt.h **** 
 313:C:/GitHub/MobRob_Rover_NEW/Ultrasonic_Sensor_Node/Ultrasonic_XMC_1400_Dynamic/Libraries/XMCLib/inc\xmc_wdt.h **** /**
 314:C:/GitHub/MobRob_Rover_NEW/Ultrasonic_Sensor_Node/Ultrasonic_XMC_1400_Dynamic/Libraries/XMCLib/inc\xmc_wdt.h ****  * @param debug_mode running state of watchdog during debug halt mode. Refer @ref XMC_WDT_DEBUG_MOD
 315:C:/GitHub/MobRob_Rover_NEW/Ultrasonic_Sensor_Node/Ultrasonic_XMC_1400_Dynamic/Libraries/XMCLib/inc\xmc_wdt.h ****  *                   valid values.
 316:C:/GitHub/MobRob_Rover_NEW/Ultrasonic_Sensor_Node/Ultrasonic_XMC_1400_Dynamic/Libraries/XMCLib/inc\xmc_wdt.h ****  *
 317:C:/GitHub/MobRob_Rover_NEW/Ultrasonic_Sensor_Node/Ultrasonic_XMC_1400_Dynamic/Libraries/XMCLib/inc\xmc_wdt.h ****  * @return None
 318:C:/GitHub/MobRob_Rover_NEW/Ultrasonic_Sensor_Node/Ultrasonic_XMC_1400_Dynamic/Libraries/XMCLib/inc\xmc_wdt.h ****  *
 319:C:/GitHub/MobRob_Rover_NEW/Ultrasonic_Sensor_Node/Ultrasonic_XMC_1400_Dynamic/Libraries/XMCLib/inc\xmc_wdt.h ****  * \par<b>Description:</b><br>
 320:C:/GitHub/MobRob_Rover_NEW/Ultrasonic_Sensor_Node/Ultrasonic_XMC_1400_Dynamic/Libraries/XMCLib/inc\xmc_wdt.h ****  * Sets debug behaviour of watchdog by modifying DSP bit of CTR register.\n
 321:C:/GitHub/MobRob_Rover_NEW/Ultrasonic_Sensor_Node/Ultrasonic_XMC_1400_Dynamic/Libraries/XMCLib/inc\xmc_wdt.h ****  * \par
 322:C:/GitHub/MobRob_Rover_NEW/Ultrasonic_Sensor_Node/Ultrasonic_XMC_1400_Dynamic/Libraries/XMCLib/inc\xmc_wdt.h ****  * Depending upon DSP bit, the watchdog timer stops when CPU is in HALT mode. The debug behaviour i
 323:C:/GitHub/MobRob_Rover_NEW/Ultrasonic_Sensor_Node/Ultrasonic_XMC_1400_Dynamic/Libraries/XMCLib/inc\xmc_wdt.h ****  * XMC_WDT_DEBUG_MODE_STOP during initialization in XMC_WDT_Init(). Invoke this API to change the d
 324:C:/GitHub/MobRob_Rover_NEW/Ultrasonic_Sensor_Node/Ultrasonic_XMC_1400_Dynamic/Libraries/XMCLib/inc\xmc_wdt.h ****  * needed later in the program.
 325:C:/GitHub/MobRob_Rover_NEW/Ultrasonic_Sensor_Node/Ultrasonic_XMC_1400_Dynamic/Libraries/XMCLib/inc\xmc_wdt.h ****  */
 326:C:/GitHub/MobRob_Rover_NEW/Ultrasonic_Sensor_Node/Ultrasonic_XMC_1400_Dynamic/Libraries/XMCLib/inc\xmc_wdt.h **** __STATIC_INLINE void XMC_WDT_SetDebugMode(const XMC_WDT_DEBUG_MODE_t debug_mode)
 327:C:/GitHub/MobRob_Rover_NEW/Ultrasonic_Sensor_Node/Ultrasonic_XMC_1400_Dynamic/Libraries/XMCLib/inc\xmc_wdt.h **** {
 328:C:/GitHub/MobRob_Rover_NEW/Ultrasonic_Sensor_Node/Ultrasonic_XMC_1400_Dynamic/Libraries/XMCLib/inc\xmc_wdt.h ****   WDT->CTR = (WDT->CTR & (uint32_t)~WDT_CTR_DSP_Msk) | (uint32_t)debug_mode;
 329:C:/GitHub/MobRob_Rover_NEW/Ultrasonic_Sensor_Node/Ultrasonic_XMC_1400_Dynamic/Libraries/XMCLib/inc\xmc_wdt.h **** }
 330:C:/GitHub/MobRob_Rover_NEW/Ultrasonic_Sensor_Node/Ultrasonic_XMC_1400_Dynamic/Libraries/XMCLib/inc\xmc_wdt.h **** 
 331:C:/GitHub/MobRob_Rover_NEW/Ultrasonic_Sensor_Node/Ultrasonic_XMC_1400_Dynamic/Libraries/XMCLib/inc\xmc_wdt.h **** /**
 332:C:/GitHub/MobRob_Rover_NEW/Ultrasonic_Sensor_Node/Ultrasonic_XMC_1400_Dynamic/Libraries/XMCLib/inc\xmc_wdt.h ****  * @param None
 333:C:/GitHub/MobRob_Rover_NEW/Ultrasonic_Sensor_Node/Ultrasonic_XMC_1400_Dynamic/Libraries/XMCLib/inc\xmc_wdt.h ****  *
 334:C:/GitHub/MobRob_Rover_NEW/Ultrasonic_Sensor_Node/Ultrasonic_XMC_1400_Dynamic/Libraries/XMCLib/inc\xmc_wdt.h ****  * @return None
 335:C:/GitHub/MobRob_Rover_NEW/Ultrasonic_Sensor_Node/Ultrasonic_XMC_1400_Dynamic/Libraries/XMCLib/inc\xmc_wdt.h ****  *
 336:C:/GitHub/MobRob_Rover_NEW/Ultrasonic_Sensor_Node/Ultrasonic_XMC_1400_Dynamic/Libraries/XMCLib/inc\xmc_wdt.h ****  * \par<b>Description:</b><br>
 337:C:/GitHub/MobRob_Rover_NEW/Ultrasonic_Sensor_Node/Ultrasonic_XMC_1400_Dynamic/Libraries/XMCLib/inc\xmc_wdt.h ****  * Start the watchdog timer by setting ENB bit of CTR register.\n
 338:C:/GitHub/MobRob_Rover_NEW/Ultrasonic_Sensor_Node/Ultrasonic_XMC_1400_Dynamic/Libraries/XMCLib/inc\xmc_wdt.h ****  * \par
 339:C:/GitHub/MobRob_Rover_NEW/Ultrasonic_Sensor_Node/Ultrasonic_XMC_1400_Dynamic/Libraries/XMCLib/inc\xmc_wdt.h ****  * Invoke this API to start the watchdog after initialization, or to resume the watchdog when
 340:C:/GitHub/MobRob_Rover_NEW/Ultrasonic_Sensor_Node/Ultrasonic_XMC_1400_Dynamic/Libraries/XMCLib/inc\xmc_wdt.h ****  * paused by invoking XMC_WDT_Stop().
 341:C:/GitHub/MobRob_Rover_NEW/Ultrasonic_Sensor_Node/Ultrasonic_XMC_1400_Dynamic/Libraries/XMCLib/inc\xmc_wdt.h ****  *
 342:C:/GitHub/MobRob_Rover_NEW/Ultrasonic_Sensor_Node/Ultrasonic_XMC_1400_Dynamic/Libraries/XMCLib/inc\xmc_wdt.h ****  * \par<b>Related APIs:</b><BR>
 343:C:/GitHub/MobRob_Rover_NEW/Ultrasonic_Sensor_Node/Ultrasonic_XMC_1400_Dynamic/Libraries/XMCLib/inc\xmc_wdt.h ****  * XMC_WDT_Init(), XMC_WDT_Stop()
 344:C:/GitHub/MobRob_Rover_NEW/Ultrasonic_Sensor_Node/Ultrasonic_XMC_1400_Dynamic/Libraries/XMCLib/inc\xmc_wdt.h ****  */
 345:C:/GitHub/MobRob_Rover_NEW/Ultrasonic_Sensor_Node/Ultrasonic_XMC_1400_Dynamic/Libraries/XMCLib/inc\xmc_wdt.h **** __STATIC_INLINE void XMC_WDT_Start(void)
 346:C:/GitHub/MobRob_Rover_NEW/Ultrasonic_Sensor_Node/Ultrasonic_XMC_1400_Dynamic/Libraries/XMCLib/inc\xmc_wdt.h **** {
 187              	 .loc 3 346 0
 188              	 .cfi_startproc
 189 0000 80B5     	 push {r7,lr}
 190              	.LCFI12:
 191              	 .cfi_def_cfa_offset 8
 192              	 .cfi_offset 7,-8
 193              	 .cfi_offset 14,-4
 194 0002 00AF     	 add r7,sp,#0
 195              	.LCFI13:
 196              	 .cfi_def_cfa_register 7
 347:C:/GitHub/MobRob_Rover_NEW/Ultrasonic_Sensor_Node/Ultrasonic_XMC_1400_Dynamic/Libraries/XMCLib/inc\xmc_wdt.h ****   WDT->CTR |= (uint32_t)WDT_CTR_ENB_Msk;
 197              	 .loc 3 347 0
 198 0004 034B     	 ldr r3,.L8
 199 0006 034A     	 ldr r2,.L8
 200 0008 5268     	 ldr r2,[r2,#4]
 201 000a 0121     	 mov r1,#1
 202 000c 0A43     	 orr r2,r1
 203 000e 5A60     	 str r2,[r3,#4]
 348:C:/GitHub/MobRob_Rover_NEW/Ultrasonic_Sensor_Node/Ultrasonic_XMC_1400_Dynamic/Libraries/XMCLib/inc\xmc_wdt.h **** }
 204              	 .loc 3 348 0
 205 0010 BD46     	 mov sp,r7
 206              	 
 207 0012 80BD     	 pop {r7,pc}
 208              	.L9:
 209              	 .align 2
 210              	.L8:
 211 0014 00000240 	 .word 1073872896
 212              	 .cfi_endproc
 213              	.LFE206:
 215              	 .section .text.XMC_WDT_Service,"ax",%progbits
 216              	 .align 2
 217              	 .code 16
 218              	 .thumb_func
 220              	XMC_WDT_Service:
 221              	.LFB209:
 349:C:/GitHub/MobRob_Rover_NEW/Ultrasonic_Sensor_Node/Ultrasonic_XMC_1400_Dynamic/Libraries/XMCLib/inc\xmc_wdt.h **** 
 350:C:/GitHub/MobRob_Rover_NEW/Ultrasonic_Sensor_Node/Ultrasonic_XMC_1400_Dynamic/Libraries/XMCLib/inc\xmc_wdt.h **** /**
 351:C:/GitHub/MobRob_Rover_NEW/Ultrasonic_Sensor_Node/Ultrasonic_XMC_1400_Dynamic/Libraries/XMCLib/inc\xmc_wdt.h ****  * @param None
 352:C:/GitHub/MobRob_Rover_NEW/Ultrasonic_Sensor_Node/Ultrasonic_XMC_1400_Dynamic/Libraries/XMCLib/inc\xmc_wdt.h ****  *
 353:C:/GitHub/MobRob_Rover_NEW/Ultrasonic_Sensor_Node/Ultrasonic_XMC_1400_Dynamic/Libraries/XMCLib/inc\xmc_wdt.h ****  * @return None
 354:C:/GitHub/MobRob_Rover_NEW/Ultrasonic_Sensor_Node/Ultrasonic_XMC_1400_Dynamic/Libraries/XMCLib/inc\xmc_wdt.h ****  *
 355:C:/GitHub/MobRob_Rover_NEW/Ultrasonic_Sensor_Node/Ultrasonic_XMC_1400_Dynamic/Libraries/XMCLib/inc\xmc_wdt.h ****  * \par<b>Description:</b><br>
 356:C:/GitHub/MobRob_Rover_NEW/Ultrasonic_Sensor_Node/Ultrasonic_XMC_1400_Dynamic/Libraries/XMCLib/inc\xmc_wdt.h ****  * Pauses watchdog timer by resetting ENB bit of CTR register.\n
 357:C:/GitHub/MobRob_Rover_NEW/Ultrasonic_Sensor_Node/Ultrasonic_XMC_1400_Dynamic/Libraries/XMCLib/inc\xmc_wdt.h ****  * \par
 358:C:/GitHub/MobRob_Rover_NEW/Ultrasonic_Sensor_Node/Ultrasonic_XMC_1400_Dynamic/Libraries/XMCLib/inc\xmc_wdt.h ****  * Invoke this API to pause the watchdog as needed in the program e.g. debugging through software c
 359:C:/GitHub/MobRob_Rover_NEW/Ultrasonic_Sensor_Node/Ultrasonic_XMC_1400_Dynamic/Libraries/XMCLib/inc\xmc_wdt.h ****  *
 360:C:/GitHub/MobRob_Rover_NEW/Ultrasonic_Sensor_Node/Ultrasonic_XMC_1400_Dynamic/Libraries/XMCLib/inc\xmc_wdt.h ****  * \par<b>Related APIs:</b><BR>
 361:C:/GitHub/MobRob_Rover_NEW/Ultrasonic_Sensor_Node/Ultrasonic_XMC_1400_Dynamic/Libraries/XMCLib/inc\xmc_wdt.h ****  * XMC_WDT_Init(), XMC_WDT_Stop()
 362:C:/GitHub/MobRob_Rover_NEW/Ultrasonic_Sensor_Node/Ultrasonic_XMC_1400_Dynamic/Libraries/XMCLib/inc\xmc_wdt.h ****  */
 363:C:/GitHub/MobRob_Rover_NEW/Ultrasonic_Sensor_Node/Ultrasonic_XMC_1400_Dynamic/Libraries/XMCLib/inc\xmc_wdt.h **** __STATIC_INLINE void XMC_WDT_Stop(void)
 364:C:/GitHub/MobRob_Rover_NEW/Ultrasonic_Sensor_Node/Ultrasonic_XMC_1400_Dynamic/Libraries/XMCLib/inc\xmc_wdt.h **** {
 365:C:/GitHub/MobRob_Rover_NEW/Ultrasonic_Sensor_Node/Ultrasonic_XMC_1400_Dynamic/Libraries/XMCLib/inc\xmc_wdt.h ****   WDT->CTR &= (uint32_t)~WDT_CTR_ENB_Msk;
 366:C:/GitHub/MobRob_Rover_NEW/Ultrasonic_Sensor_Node/Ultrasonic_XMC_1400_Dynamic/Libraries/XMCLib/inc\xmc_wdt.h **** }
 367:C:/GitHub/MobRob_Rover_NEW/Ultrasonic_Sensor_Node/Ultrasonic_XMC_1400_Dynamic/Libraries/XMCLib/inc\xmc_wdt.h **** 
 368:C:/GitHub/MobRob_Rover_NEW/Ultrasonic_Sensor_Node/Ultrasonic_XMC_1400_Dynamic/Libraries/XMCLib/inc\xmc_wdt.h **** /**
 369:C:/GitHub/MobRob_Rover_NEW/Ultrasonic_Sensor_Node/Ultrasonic_XMC_1400_Dynamic/Libraries/XMCLib/inc\xmc_wdt.h ****  * @param None
 370:C:/GitHub/MobRob_Rover_NEW/Ultrasonic_Sensor_Node/Ultrasonic_XMC_1400_Dynamic/Libraries/XMCLib/inc\xmc_wdt.h ****  *
 371:C:/GitHub/MobRob_Rover_NEW/Ultrasonic_Sensor_Node/Ultrasonic_XMC_1400_Dynamic/Libraries/XMCLib/inc\xmc_wdt.h ****  * @return uint32_t Current count value of watchdog timer register (TIM).
 372:C:/GitHub/MobRob_Rover_NEW/Ultrasonic_Sensor_Node/Ultrasonic_XMC_1400_Dynamic/Libraries/XMCLib/inc\xmc_wdt.h ****  *                  Range: [0H to FFFFFFFFH]
 373:C:/GitHub/MobRob_Rover_NEW/Ultrasonic_Sensor_Node/Ultrasonic_XMC_1400_Dynamic/Libraries/XMCLib/inc\xmc_wdt.h ****  *
 374:C:/GitHub/MobRob_Rover_NEW/Ultrasonic_Sensor_Node/Ultrasonic_XMC_1400_Dynamic/Libraries/XMCLib/inc\xmc_wdt.h ****  * \par<b>Description:</b><br>
 375:C:/GitHub/MobRob_Rover_NEW/Ultrasonic_Sensor_Node/Ultrasonic_XMC_1400_Dynamic/Libraries/XMCLib/inc\xmc_wdt.h ****  * Reads current count of timer register (TIM).\n
 376:C:/GitHub/MobRob_Rover_NEW/Ultrasonic_Sensor_Node/Ultrasonic_XMC_1400_Dynamic/Libraries/XMCLib/inc\xmc_wdt.h ****  * \par
 377:C:/GitHub/MobRob_Rover_NEW/Ultrasonic_Sensor_Node/Ultrasonic_XMC_1400_Dynamic/Libraries/XMCLib/inc\xmc_wdt.h ****  * Invoke this API before servicing or feeding the watchdog to check whether count is between lower
 378:C:/GitHub/MobRob_Rover_NEW/Ultrasonic_Sensor_Node/Ultrasonic_XMC_1400_Dynamic/Libraries/XMCLib/inc\xmc_wdt.h ****  * window bounds.
 379:C:/GitHub/MobRob_Rover_NEW/Ultrasonic_Sensor_Node/Ultrasonic_XMC_1400_Dynamic/Libraries/XMCLib/inc\xmc_wdt.h ****  *
 380:C:/GitHub/MobRob_Rover_NEW/Ultrasonic_Sensor_Node/Ultrasonic_XMC_1400_Dynamic/Libraries/XMCLib/inc\xmc_wdt.h ****  * \par<b>Related APIs:</b><BR>
 381:C:/GitHub/MobRob_Rover_NEW/Ultrasonic_Sensor_Node/Ultrasonic_XMC_1400_Dynamic/Libraries/XMCLib/inc\xmc_wdt.h ****  * XMC_WDT_Service()
 382:C:/GitHub/MobRob_Rover_NEW/Ultrasonic_Sensor_Node/Ultrasonic_XMC_1400_Dynamic/Libraries/XMCLib/inc\xmc_wdt.h ****  */
 383:C:/GitHub/MobRob_Rover_NEW/Ultrasonic_Sensor_Node/Ultrasonic_XMC_1400_Dynamic/Libraries/XMCLib/inc\xmc_wdt.h **** __STATIC_INLINE uint32_t XMC_WDT_GetCounter(void)
 384:C:/GitHub/MobRob_Rover_NEW/Ultrasonic_Sensor_Node/Ultrasonic_XMC_1400_Dynamic/Libraries/XMCLib/inc\xmc_wdt.h **** {
 385:C:/GitHub/MobRob_Rover_NEW/Ultrasonic_Sensor_Node/Ultrasonic_XMC_1400_Dynamic/Libraries/XMCLib/inc\xmc_wdt.h ****   return WDT->TIM;
 386:C:/GitHub/MobRob_Rover_NEW/Ultrasonic_Sensor_Node/Ultrasonic_XMC_1400_Dynamic/Libraries/XMCLib/inc\xmc_wdt.h **** }
 387:C:/GitHub/MobRob_Rover_NEW/Ultrasonic_Sensor_Node/Ultrasonic_XMC_1400_Dynamic/Libraries/XMCLib/inc\xmc_wdt.h **** 
 388:C:/GitHub/MobRob_Rover_NEW/Ultrasonic_Sensor_Node/Ultrasonic_XMC_1400_Dynamic/Libraries/XMCLib/inc\xmc_wdt.h **** /**
 389:C:/GitHub/MobRob_Rover_NEW/Ultrasonic_Sensor_Node/Ultrasonic_XMC_1400_Dynamic/Libraries/XMCLib/inc\xmc_wdt.h ****  * @param None
 390:C:/GitHub/MobRob_Rover_NEW/Ultrasonic_Sensor_Node/Ultrasonic_XMC_1400_Dynamic/Libraries/XMCLib/inc\xmc_wdt.h ****  *
 391:C:/GitHub/MobRob_Rover_NEW/Ultrasonic_Sensor_Node/Ultrasonic_XMC_1400_Dynamic/Libraries/XMCLib/inc\xmc_wdt.h ****  * @return None
 392:C:/GitHub/MobRob_Rover_NEW/Ultrasonic_Sensor_Node/Ultrasonic_XMC_1400_Dynamic/Libraries/XMCLib/inc\xmc_wdt.h ****  *
 393:C:/GitHub/MobRob_Rover_NEW/Ultrasonic_Sensor_Node/Ultrasonic_XMC_1400_Dynamic/Libraries/XMCLib/inc\xmc_wdt.h ****  * \par<b>Description:</b><br>
 394:C:/GitHub/MobRob_Rover_NEW/Ultrasonic_Sensor_Node/Ultrasonic_XMC_1400_Dynamic/Libraries/XMCLib/inc\xmc_wdt.h ****  * Services or feeds the watchdog by writing the Magic word in SRV register.\n
 395:C:/GitHub/MobRob_Rover_NEW/Ultrasonic_Sensor_Node/Ultrasonic_XMC_1400_Dynamic/Libraries/XMCLib/inc\xmc_wdt.h ****  * \par
 396:C:/GitHub/MobRob_Rover_NEW/Ultrasonic_Sensor_Node/Ultrasonic_XMC_1400_Dynamic/Libraries/XMCLib/inc\xmc_wdt.h ****  * Service watchdog when count value of watchdog timer is between lower and upper window bounds. Su
 397:C:/GitHub/MobRob_Rover_NEW/Ultrasonic_Sensor_Node/Ultrasonic_XMC_1400_Dynamic/Libraries/XMCLib/inc\xmc_wdt.h ****  * will reset watchdog timer (TIM register) to 0H and generate service indication pulse.
 398:C:/GitHub/MobRob_Rover_NEW/Ultrasonic_Sensor_Node/Ultrasonic_XMC_1400_Dynamic/Libraries/XMCLib/inc\xmc_wdt.h ****  *
 399:C:/GitHub/MobRob_Rover_NEW/Ultrasonic_Sensor_Node/Ultrasonic_XMC_1400_Dynamic/Libraries/XMCLib/inc\xmc_wdt.h ****  * \par<b>Note:</b><br>
 400:C:/GitHub/MobRob_Rover_NEW/Ultrasonic_Sensor_Node/Ultrasonic_XMC_1400_Dynamic/Libraries/XMCLib/inc\xmc_wdt.h ****  * 1. invoking this API when count value of watchdog timer is less than window lower bound results
 401:C:/GitHub/MobRob_Rover_NEW/Ultrasonic_Sensor_Node/Ultrasonic_XMC_1400_Dynamic/Libraries/XMCLib/inc\xmc_wdt.h ****  *    wrong servicing and immediately triggers reset request.
 402:C:/GitHub/MobRob_Rover_NEW/Ultrasonic_Sensor_Node/Ultrasonic_XMC_1400_Dynamic/Libraries/XMCLib/inc\xmc_wdt.h ****  *
 403:C:/GitHub/MobRob_Rover_NEW/Ultrasonic_Sensor_Node/Ultrasonic_XMC_1400_Dynamic/Libraries/XMCLib/inc\xmc_wdt.h ****  * \par<b>Related APIs:</b><BR>
 404:C:/GitHub/MobRob_Rover_NEW/Ultrasonic_Sensor_Node/Ultrasonic_XMC_1400_Dynamic/Libraries/XMCLib/inc\xmc_wdt.h ****  * XMC_WDT_GetCounter(), XMC_WDT_SetWindowBounds(), XMC_WDT_SetServicePulseWidth()
 405:C:/GitHub/MobRob_Rover_NEW/Ultrasonic_Sensor_Node/Ultrasonic_XMC_1400_Dynamic/Libraries/XMCLib/inc\xmc_wdt.h ****  */
 406:C:/GitHub/MobRob_Rover_NEW/Ultrasonic_Sensor_Node/Ultrasonic_XMC_1400_Dynamic/Libraries/XMCLib/inc\xmc_wdt.h **** __STATIC_INLINE void XMC_WDT_Service(void)
 407:C:/GitHub/MobRob_Rover_NEW/Ultrasonic_Sensor_Node/Ultrasonic_XMC_1400_Dynamic/Libraries/XMCLib/inc\xmc_wdt.h **** {
 222              	 .loc 3 407 0
 223              	 .cfi_startproc
 224 0000 80B5     	 push {r7,lr}
 225              	.LCFI14:
 226              	 .cfi_def_cfa_offset 8
 227              	 .cfi_offset 7,-8
 228              	 .cfi_offset 14,-4
 229 0002 00AF     	 add r7,sp,#0
 230              	.LCFI15:
 231              	 .cfi_def_cfa_register 7
 408:C:/GitHub/MobRob_Rover_NEW/Ultrasonic_Sensor_Node/Ultrasonic_XMC_1400_Dynamic/Libraries/XMCLib/inc\xmc_wdt.h ****   WDT->SRV = XMC_WDT_MAGIC_WORD;
 232              	 .loc 3 408 0
 233 0004 024B     	 ldr r3,.L11
 234 0006 034A     	 ldr r2,.L11+4
 235 0008 9A60     	 str r2,[r3,#8]
 409:C:/GitHub/MobRob_Rover_NEW/Ultrasonic_Sensor_Node/Ultrasonic_XMC_1400_Dynamic/Libraries/XMCLib/inc\xmc_wdt.h **** }
 236              	 .loc 3 409 0
 237 000a BD46     	 mov sp,r7
 238              	 
 239 000c 80BD     	 pop {r7,pc}
 240              	.L12:
 241 000e C046     	 .align 2
 242              	.L11:
 243 0010 00000240 	 .word 1073872896
 244 0014 FECAADAB 	 .word -1414673666
 245              	 .cfi_endproc
 246              	.LFE209:
 248              	 .section .text.XMC_WDT_ClearAlarm,"ax",%progbits
 249              	 .align 2
 250              	 .code 16
 251              	 .thumb_func
 253              	XMC_WDT_ClearAlarm:
 254              	.LFB210:
 410:C:/GitHub/MobRob_Rover_NEW/Ultrasonic_Sensor_Node/Ultrasonic_XMC_1400_Dynamic/Libraries/XMCLib/inc\xmc_wdt.h **** 
 411:C:/GitHub/MobRob_Rover_NEW/Ultrasonic_Sensor_Node/Ultrasonic_XMC_1400_Dynamic/Libraries/XMCLib/inc\xmc_wdt.h **** /**
 412:C:/GitHub/MobRob_Rover_NEW/Ultrasonic_Sensor_Node/Ultrasonic_XMC_1400_Dynamic/Libraries/XMCLib/inc\xmc_wdt.h ****  * @param None
 413:C:/GitHub/MobRob_Rover_NEW/Ultrasonic_Sensor_Node/Ultrasonic_XMC_1400_Dynamic/Libraries/XMCLib/inc\xmc_wdt.h ****  *
 414:C:/GitHub/MobRob_Rover_NEW/Ultrasonic_Sensor_Node/Ultrasonic_XMC_1400_Dynamic/Libraries/XMCLib/inc\xmc_wdt.h ****  * @return None
 415:C:/GitHub/MobRob_Rover_NEW/Ultrasonic_Sensor_Node/Ultrasonic_XMC_1400_Dynamic/Libraries/XMCLib/inc\xmc_wdt.h ****  *
 416:C:/GitHub/MobRob_Rover_NEW/Ultrasonic_Sensor_Node/Ultrasonic_XMC_1400_Dynamic/Libraries/XMCLib/inc\xmc_wdt.h ****  * \par<b>Description:</b><br>
 417:C:/GitHub/MobRob_Rover_NEW/Ultrasonic_Sensor_Node/Ultrasonic_XMC_1400_Dynamic/Libraries/XMCLib/inc\xmc_wdt.h ****  * Clears pre-warning alarm by setting ALMC bit in WDTCLR register.\n
 418:C:/GitHub/MobRob_Rover_NEW/Ultrasonic_Sensor_Node/Ultrasonic_XMC_1400_Dynamic/Libraries/XMCLib/inc\xmc_wdt.h ****  * \par
 419:C:/GitHub/MobRob_Rover_NEW/Ultrasonic_Sensor_Node/Ultrasonic_XMC_1400_Dynamic/Libraries/XMCLib/inc\xmc_wdt.h ****  * In pre-warning mode, first overflow of the timer upper window bound fires the pre-warning alarm.
 420:C:/GitHub/MobRob_Rover_NEW/Ultrasonic_Sensor_Node/Ultrasonic_XMC_1400_Dynamic/Libraries/XMCLib/inc\xmc_wdt.h ****  * must be invoked to clear the alarm alarm. After clearing of the alarm, watchdog timer must be se
 421:C:/GitHub/MobRob_Rover_NEW/Ultrasonic_Sensor_Node/Ultrasonic_XMC_1400_Dynamic/Libraries/XMCLib/inc\xmc_wdt.h ****  * time window. Otherwise watchdog timer triggers the reset request up on crossing the upper bound 
 422:C:/GitHub/MobRob_Rover_NEW/Ultrasonic_Sensor_Node/Ultrasonic_XMC_1400_Dynamic/Libraries/XMCLib/inc\xmc_wdt.h ****  * cycle.
 423:C:/GitHub/MobRob_Rover_NEW/Ultrasonic_Sensor_Node/Ultrasonic_XMC_1400_Dynamic/Libraries/XMCLib/inc\xmc_wdt.h ****  *
 424:C:/GitHub/MobRob_Rover_NEW/Ultrasonic_Sensor_Node/Ultrasonic_XMC_1400_Dynamic/Libraries/XMCLib/inc\xmc_wdt.h ****  * \par<b>Related APIs:</b><BR>
 425:C:/GitHub/MobRob_Rover_NEW/Ultrasonic_Sensor_Node/Ultrasonic_XMC_1400_Dynamic/Libraries/XMCLib/inc\xmc_wdt.h ****  * XMC_WDT_Service(), XMC_WDT_SetMode()
 426:C:/GitHub/MobRob_Rover_NEW/Ultrasonic_Sensor_Node/Ultrasonic_XMC_1400_Dynamic/Libraries/XMCLib/inc\xmc_wdt.h ****  */
 427:C:/GitHub/MobRob_Rover_NEW/Ultrasonic_Sensor_Node/Ultrasonic_XMC_1400_Dynamic/Libraries/XMCLib/inc\xmc_wdt.h **** __STATIC_INLINE void XMC_WDT_ClearAlarm(void)
 428:C:/GitHub/MobRob_Rover_NEW/Ultrasonic_Sensor_Node/Ultrasonic_XMC_1400_Dynamic/Libraries/XMCLib/inc\xmc_wdt.h **** {
 255              	 .loc 3 428 0
 256              	 .cfi_startproc
 257 0000 80B5     	 push {r7,lr}
 258              	.LCFI16:
 259              	 .cfi_def_cfa_offset 8
 260              	 .cfi_offset 7,-8
 261              	 .cfi_offset 14,-4
 262 0002 00AF     	 add r7,sp,#0
 263              	.LCFI17:
 264              	 .cfi_def_cfa_register 7
 429:C:/GitHub/MobRob_Rover_NEW/Ultrasonic_Sensor_Node/Ultrasonic_XMC_1400_Dynamic/Libraries/XMCLib/inc\xmc_wdt.h ****   WDT->WDTCLR = WDT_WDTCLR_ALMC_Msk;
 265              	 .loc 3 429 0
 266 0004 024B     	 ldr r3,.L14
 267 0006 0122     	 mov r2,#1
 268 0008 DA61     	 str r2,[r3,#28]
 430:C:/GitHub/MobRob_Rover_NEW/Ultrasonic_Sensor_Node/Ultrasonic_XMC_1400_Dynamic/Libraries/XMCLib/inc\xmc_wdt.h **** }
 269              	 .loc 3 430 0
 270 000a BD46     	 mov sp,r7
 271              	 
 272 000c 80BD     	 pop {r7,pc}
 273              	.L15:
 274 000e C046     	 .align 2
 275              	.L14:
 276 0010 00000240 	 .word 1073872896
 277              	 .cfi_endproc
 278              	.LFE210:
 280              	 .section .text.WATCHDOG_Start,"ax",%progbits
 281              	 .align 2
 282              	 .code 16
 283              	 .thumb_func
 285              	WATCHDOG_Start:
 286              	.LFB211:
 287              	 .file 4 "C:/GitHub/MobRob_Rover_NEW/Ultrasonic_Sensor_Node/Ultrasonic_XMC_1400_Dynamic/Dave/Generated/WATCHDOG/watchdog.h"
   1:C:/GitHub/MobRob_Rover_NEW/Ultrasonic_Sensor_Node/Ultrasonic_XMC_1400_Dynamic/Dave/Generated/WATCHDOG\watchdog.h **** /**
   2:C:/GitHub/MobRob_Rover_NEW/Ultrasonic_Sensor_Node/Ultrasonic_XMC_1400_Dynamic/Dave/Generated/WATCHDOG\watchdog.h ****  * @file watchdog.h
   3:C:/GitHub/MobRob_Rover_NEW/Ultrasonic_Sensor_Node/Ultrasonic_XMC_1400_Dynamic/Dave/Generated/WATCHDOG\watchdog.h ****  * @date 2016-02-09
   4:C:/GitHub/MobRob_Rover_NEW/Ultrasonic_Sensor_Node/Ultrasonic_XMC_1400_Dynamic/Dave/Generated/WATCHDOG\watchdog.h ****  *
   5:C:/GitHub/MobRob_Rover_NEW/Ultrasonic_Sensor_Node/Ultrasonic_XMC_1400_Dynamic/Dave/Generated/WATCHDOG\watchdog.h ****  * NOTE:
   6:C:/GitHub/MobRob_Rover_NEW/Ultrasonic_Sensor_Node/Ultrasonic_XMC_1400_Dynamic/Dave/Generated/WATCHDOG\watchdog.h ****  * This file is generated by DAVE. Any manual modification done to this file will be lost when the 
   7:C:/GitHub/MobRob_Rover_NEW/Ultrasonic_Sensor_Node/Ultrasonic_XMC_1400_Dynamic/Dave/Generated/WATCHDOG\watchdog.h ****  *
   8:C:/GitHub/MobRob_Rover_NEW/Ultrasonic_Sensor_Node/Ultrasonic_XMC_1400_Dynamic/Dave/Generated/WATCHDOG\watchdog.h ****  * @cond
   9:C:/GitHub/MobRob_Rover_NEW/Ultrasonic_Sensor_Node/Ultrasonic_XMC_1400_Dynamic/Dave/Generated/WATCHDOG\watchdog.h ****  **************************************************************************************************
  10:C:/GitHub/MobRob_Rover_NEW/Ultrasonic_Sensor_Node/Ultrasonic_XMC_1400_Dynamic/Dave/Generated/WATCHDOG\watchdog.h ****  * WATCHDOG v4.0.16 - Configures the watchdog peripheral instance.
  11:C:/GitHub/MobRob_Rover_NEW/Ultrasonic_Sensor_Node/Ultrasonic_XMC_1400_Dynamic/Dave/Generated/WATCHDOG\watchdog.h ****  *
  12:C:/GitHub/MobRob_Rover_NEW/Ultrasonic_Sensor_Node/Ultrasonic_XMC_1400_Dynamic/Dave/Generated/WATCHDOG\watchdog.h ****  * Copyright (c) 2016-2020, Infineon Technologies AG
  13:C:/GitHub/MobRob_Rover_NEW/Ultrasonic_Sensor_Node/Ultrasonic_XMC_1400_Dynamic/Dave/Generated/WATCHDOG\watchdog.h ****  * All rights reserved.
  14:C:/GitHub/MobRob_Rover_NEW/Ultrasonic_Sensor_Node/Ultrasonic_XMC_1400_Dynamic/Dave/Generated/WATCHDOG\watchdog.h ****  *
  15:C:/GitHub/MobRob_Rover_NEW/Ultrasonic_Sensor_Node/Ultrasonic_XMC_1400_Dynamic/Dave/Generated/WATCHDOG\watchdog.h ****  * Redistribution and use in source and binary forms, with or without modification,are permitted pr
  16:C:/GitHub/MobRob_Rover_NEW/Ultrasonic_Sensor_Node/Ultrasonic_XMC_1400_Dynamic/Dave/Generated/WATCHDOG\watchdog.h ****  * following conditions are met:
  17:C:/GitHub/MobRob_Rover_NEW/Ultrasonic_Sensor_Node/Ultrasonic_XMC_1400_Dynamic/Dave/Generated/WATCHDOG\watchdog.h ****  *
  18:C:/GitHub/MobRob_Rover_NEW/Ultrasonic_Sensor_Node/Ultrasonic_XMC_1400_Dynamic/Dave/Generated/WATCHDOG\watchdog.h ****  *   Redistributions of source code must retain the above copyright notice, this list of conditions
  19:C:/GitHub/MobRob_Rover_NEW/Ultrasonic_Sensor_Node/Ultrasonic_XMC_1400_Dynamic/Dave/Generated/WATCHDOG\watchdog.h ****  *   disclaimer.
  20:C:/GitHub/MobRob_Rover_NEW/Ultrasonic_Sensor_Node/Ultrasonic_XMC_1400_Dynamic/Dave/Generated/WATCHDOG\watchdog.h ****  *
  21:C:/GitHub/MobRob_Rover_NEW/Ultrasonic_Sensor_Node/Ultrasonic_XMC_1400_Dynamic/Dave/Generated/WATCHDOG\watchdog.h ****  *   Redistributions in binary form must reproduce the above copyright notice, this list of conditi
  22:C:/GitHub/MobRob_Rover_NEW/Ultrasonic_Sensor_Node/Ultrasonic_XMC_1400_Dynamic/Dave/Generated/WATCHDOG\watchdog.h ****  *   following disclaimer in the documentation and/or other materials provided with the distributio
  23:C:/GitHub/MobRob_Rover_NEW/Ultrasonic_Sensor_Node/Ultrasonic_XMC_1400_Dynamic/Dave/Generated/WATCHDOG\watchdog.h ****  *
  24:C:/GitHub/MobRob_Rover_NEW/Ultrasonic_Sensor_Node/Ultrasonic_XMC_1400_Dynamic/Dave/Generated/WATCHDOG\watchdog.h ****  *   Neither the name of the copyright holders nor the names of its contributors may be used to end
  25:C:/GitHub/MobRob_Rover_NEW/Ultrasonic_Sensor_Node/Ultrasonic_XMC_1400_Dynamic/Dave/Generated/WATCHDOG\watchdog.h ****  *   products derived from this software without specific prior written permission.
  26:C:/GitHub/MobRob_Rover_NEW/Ultrasonic_Sensor_Node/Ultrasonic_XMC_1400_Dynamic/Dave/Generated/WATCHDOG\watchdog.h ****  *
  27:C:/GitHub/MobRob_Rover_NEW/Ultrasonic_Sensor_Node/Ultrasonic_XMC_1400_Dynamic/Dave/Generated/WATCHDOG\watchdog.h ****  * THIS SOFTWARE IS PROVIDED BY THE COPYRIGHT HOLDERS AND CONTRIBUTORS "AS IS" AND ANY EXPRESS OR I
  28:C:/GitHub/MobRob_Rover_NEW/Ultrasonic_Sensor_Node/Ultrasonic_XMC_1400_Dynamic/Dave/Generated/WATCHDOG\watchdog.h ****  * INCLUDING, BUT NOT LIMITED TO, THE IMPLIED WARRANTIES OF MERCHANTABILITY AND FITNESS FOR A PARTI
  29:C:/GitHub/MobRob_Rover_NEW/Ultrasonic_Sensor_Node/Ultrasonic_XMC_1400_Dynamic/Dave/Generated/WATCHDOG\watchdog.h ****  * DISCLAIMED. IN NO EVENT SHALL THE COPYRIGHT HOLDER OR CONTRIBUTORS BE LIABLE  FOR ANY DIRECT, IN
  30:C:/GitHub/MobRob_Rover_NEW/Ultrasonic_Sensor_Node/Ultrasonic_XMC_1400_Dynamic/Dave/Generated/WATCHDOG\watchdog.h ****  * SPECIAL, EXEMPLARY, OR CONSEQUENTIAL DAMAGES (INCLUDING, BUT NOT LIMITED TO, PROCUREMENT OF SUBS
  31:C:/GitHub/MobRob_Rover_NEW/Ultrasonic_Sensor_Node/Ultrasonic_XMC_1400_Dynamic/Dave/Generated/WATCHDOG\watchdog.h ****  * SERVICES; LOSS OF USE, DATA, OR PROFITS; OR BUSINESS INTERRUPTION) HOWEVER CAUSED AND ON ANY THE
  32:C:/GitHub/MobRob_Rover_NEW/Ultrasonic_Sensor_Node/Ultrasonic_XMC_1400_Dynamic/Dave/Generated/WATCHDOG\watchdog.h ****  * WHETHER IN CONTRACT, STRICT LIABILITY,OR TORT (INCLUDING NEGLIGENCE OR OTHERWISE) ARISING IN ANY
  33:C:/GitHub/MobRob_Rover_NEW/Ultrasonic_Sensor_Node/Ultrasonic_XMC_1400_Dynamic/Dave/Generated/WATCHDOG\watchdog.h ****  * USE OF THIS SOFTWARE, EVEN IF ADVISED OF THE POSSIBILITY OF SUCH DAMAGE.
  34:C:/GitHub/MobRob_Rover_NEW/Ultrasonic_Sensor_Node/Ultrasonic_XMC_1400_Dynamic/Dave/Generated/WATCHDOG\watchdog.h ****  *
  35:C:/GitHub/MobRob_Rover_NEW/Ultrasonic_Sensor_Node/Ultrasonic_XMC_1400_Dynamic/Dave/Generated/WATCHDOG\watchdog.h ****  * To improve the quality of the software, users are encouraged to share modifications, enhancement
  36:C:/GitHub/MobRob_Rover_NEW/Ultrasonic_Sensor_Node/Ultrasonic_XMC_1400_Dynamic/Dave/Generated/WATCHDOG\watchdog.h ****  * with Infineon Technologies AG (dave@infineon.com).
  37:C:/GitHub/MobRob_Rover_NEW/Ultrasonic_Sensor_Node/Ultrasonic_XMC_1400_Dynamic/Dave/Generated/WATCHDOG\watchdog.h ****  **************************************************************************************************
  38:C:/GitHub/MobRob_Rover_NEW/Ultrasonic_Sensor_Node/Ultrasonic_XMC_1400_Dynamic/Dave/Generated/WATCHDOG\watchdog.h ****  *
  39:C:/GitHub/MobRob_Rover_NEW/Ultrasonic_Sensor_Node/Ultrasonic_XMC_1400_Dynamic/Dave/Generated/WATCHDOG\watchdog.h ****  * Change History
  40:C:/GitHub/MobRob_Rover_NEW/Ultrasonic_Sensor_Node/Ultrasonic_XMC_1400_Dynamic/Dave/Generated/WATCHDOG\watchdog.h ****  * --------------
  41:C:/GitHub/MobRob_Rover_NEW/Ultrasonic_Sensor_Node/Ultrasonic_XMC_1400_Dynamic/Dave/Generated/WATCHDOG\watchdog.h ****  *
  42:C:/GitHub/MobRob_Rover_NEW/Ultrasonic_Sensor_Node/Ultrasonic_XMC_1400_Dynamic/Dave/Generated/WATCHDOG\watchdog.h ****  * 2015-02-16:
  43:C:/GitHub/MobRob_Rover_NEW/Ultrasonic_Sensor_Node/Ultrasonic_XMC_1400_Dynamic/Dave/Generated/WATCHDOG\watchdog.h ****  *     - Initial version<br>
  44:C:/GitHub/MobRob_Rover_NEW/Ultrasonic_Sensor_Node/Ultrasonic_XMC_1400_Dynamic/Dave/Generated/WATCHDOG\watchdog.h ****  *
  45:C:/GitHub/MobRob_Rover_NEW/Ultrasonic_Sensor_Node/Ultrasonic_XMC_1400_Dynamic/Dave/Generated/WATCHDOG\watchdog.h ****  * 2015-05-08:
  46:C:/GitHub/MobRob_Rover_NEW/Ultrasonic_Sensor_Node/Ultrasonic_XMC_1400_Dynamic/Dave/Generated/WATCHDOG\watchdog.h ****  *     - C++ guard applied to only API section<br>
  47:C:/GitHub/MobRob_Rover_NEW/Ultrasonic_Sensor_Node/Ultrasonic_XMC_1400_Dynamic/Dave/Generated/WATCHDOG\watchdog.h ****  *     - File guard updated according to the guidelines<br>
  48:C:/GitHub/MobRob_Rover_NEW/Ultrasonic_Sensor_Node/Ultrasonic_XMC_1400_Dynamic/Dave/Generated/WATCHDOG\watchdog.h ****  *     - Enum items of "WATCHDOG_EVENT_MODE" are changed to follow coding guidelines<br>
  49:C:/GitHub/MobRob_Rover_NEW/Ultrasonic_Sensor_Node/Ultrasonic_XMC_1400_Dynamic/Dave/Generated/WATCHDOG\watchdog.h ****  *
  50:C:/GitHub/MobRob_Rover_NEW/Ultrasonic_Sensor_Node/Ultrasonic_XMC_1400_Dynamic/Dave/Generated/WATCHDOG\watchdog.h ****  * 2015-06-20:
  51:C:/GitHub/MobRob_Rover_NEW/Ultrasonic_Sensor_Node/Ultrasonic_XMC_1400_Dynamic/Dave/Generated/WATCHDOG\watchdog.h ****  *     - "callback_func_ptr" in APP config structure is updated according to the GLOBAL_SCU APP.
  52:C:/GitHub/MobRob_Rover_NEW/Ultrasonic_Sensor_Node/Ultrasonic_XMC_1400_Dynamic/Dave/Generated/WATCHDOG\watchdog.h ****  *
  53:C:/GitHub/MobRob_Rover_NEW/Ultrasonic_Sensor_Node/Ultrasonic_XMC_1400_Dynamic/Dave/Generated/WATCHDOG\watchdog.h ****  * 2015-06-20:
  54:C:/GitHub/MobRob_Rover_NEW/Ultrasonic_Sensor_Node/Ultrasonic_XMC_1400_Dynamic/Dave/Generated/WATCHDOG\watchdog.h ****  *     - macro WATCHDOG_EVENT_CONFIGURATION is replaced with WATCHDOG_EVENT_VIA_SCU.
  55:C:/GitHub/MobRob_Rover_NEW/Ultrasonic_Sensor_Node/Ultrasonic_XMC_1400_Dynamic/Dave/Generated/WATCHDOG\watchdog.h ****  *
  56:C:/GitHub/MobRob_Rover_NEW/Ultrasonic_Sensor_Node/Ultrasonic_XMC_1400_Dynamic/Dave/Generated/WATCHDOG\watchdog.h ****  * 2016-02-09:
  57:C:/GitHub/MobRob_Rover_NEW/Ultrasonic_Sensor_Node/Ultrasonic_XMC_1400_Dynamic/Dave/Generated/WATCHDOG\watchdog.h ****  *     - Added a check for XMC4 devices, to verify that WATCHDOG clock is enabled or not in CLOCK_X
  58:C:/GitHub/MobRob_Rover_NEW/Ultrasonic_Sensor_Node/Ultrasonic_XMC_1400_Dynamic/Dave/Generated/WATCHDOG\watchdog.h ****  *
  59:C:/GitHub/MobRob_Rover_NEW/Ultrasonic_Sensor_Node/Ultrasonic_XMC_1400_Dynamic/Dave/Generated/WATCHDOG\watchdog.h ****  * @endcond
  60:C:/GitHub/MobRob_Rover_NEW/Ultrasonic_Sensor_Node/Ultrasonic_XMC_1400_Dynamic/Dave/Generated/WATCHDOG\watchdog.h ****  *
  61:C:/GitHub/MobRob_Rover_NEW/Ultrasonic_Sensor_Node/Ultrasonic_XMC_1400_Dynamic/Dave/Generated/WATCHDOG\watchdog.h ****  */
  62:C:/GitHub/MobRob_Rover_NEW/Ultrasonic_Sensor_Node/Ultrasonic_XMC_1400_Dynamic/Dave/Generated/WATCHDOG\watchdog.h **** 
  63:C:/GitHub/MobRob_Rover_NEW/Ultrasonic_Sensor_Node/Ultrasonic_XMC_1400_Dynamic/Dave/Generated/WATCHDOG\watchdog.h **** #ifndef WATCHDOG_H
  64:C:/GitHub/MobRob_Rover_NEW/Ultrasonic_Sensor_Node/Ultrasonic_XMC_1400_Dynamic/Dave/Generated/WATCHDOG\watchdog.h **** #define WATCHDOG_H
  65:C:/GitHub/MobRob_Rover_NEW/Ultrasonic_Sensor_Node/Ultrasonic_XMC_1400_Dynamic/Dave/Generated/WATCHDOG\watchdog.h **** /**************************************************************************************************
  66:C:/GitHub/MobRob_Rover_NEW/Ultrasonic_Sensor_Node/Ultrasonic_XMC_1400_Dynamic/Dave/Generated/WATCHDOG\watchdog.h ****  * HEADER FILES
  67:C:/GitHub/MobRob_Rover_NEW/Ultrasonic_Sensor_Node/Ultrasonic_XMC_1400_Dynamic/Dave/Generated/WATCHDOG\watchdog.h ****  **************************************************************************************************
  68:C:/GitHub/MobRob_Rover_NEW/Ultrasonic_Sensor_Node/Ultrasonic_XMC_1400_Dynamic/Dave/Generated/WATCHDOG\watchdog.h **** #include "xmc_wdt.h"
  69:C:/GitHub/MobRob_Rover_NEW/Ultrasonic_Sensor_Node/Ultrasonic_XMC_1400_Dynamic/Dave/Generated/WATCHDOG\watchdog.h **** #if(UC_FAMILY == XMC4)
  70:C:/GitHub/MobRob_Rover_NEW/Ultrasonic_Sensor_Node/Ultrasonic_XMC_1400_Dynamic/Dave/Generated/WATCHDOG\watchdog.h **** #include "CLOCK_XMC4/clock_xmc4.h"
  71:C:/GitHub/MobRob_Rover_NEW/Ultrasonic_Sensor_Node/Ultrasonic_XMC_1400_Dynamic/Dave/Generated/WATCHDOG\watchdog.h **** #else
  72:C:/GitHub/MobRob_Rover_NEW/Ultrasonic_Sensor_Node/Ultrasonic_XMC_1400_Dynamic/Dave/Generated/WATCHDOG\watchdog.h **** #include "CLOCK_XMC1/clock_xmc1.h"
  73:C:/GitHub/MobRob_Rover_NEW/Ultrasonic_Sensor_Node/Ultrasonic_XMC_1400_Dynamic/Dave/Generated/WATCHDOG\watchdog.h **** #endif
  74:C:/GitHub/MobRob_Rover_NEW/Ultrasonic_Sensor_Node/Ultrasonic_XMC_1400_Dynamic/Dave/Generated/WATCHDOG\watchdog.h **** #include "watchdog_conf.h"
  75:C:/GitHub/MobRob_Rover_NEW/Ultrasonic_Sensor_Node/Ultrasonic_XMC_1400_Dynamic/Dave/Generated/WATCHDOG\watchdog.h **** #include "DAVE_Common.h"
  76:C:/GitHub/MobRob_Rover_NEW/Ultrasonic_Sensor_Node/Ultrasonic_XMC_1400_Dynamic/Dave/Generated/WATCHDOG\watchdog.h **** 
  77:C:/GitHub/MobRob_Rover_NEW/Ultrasonic_Sensor_Node/Ultrasonic_XMC_1400_Dynamic/Dave/Generated/WATCHDOG\watchdog.h **** /**************************************************************************************************
  78:C:/GitHub/MobRob_Rover_NEW/Ultrasonic_Sensor_Node/Ultrasonic_XMC_1400_Dynamic/Dave/Generated/WATCHDOG\watchdog.h ****  * MACROS
  79:C:/GitHub/MobRob_Rover_NEW/Ultrasonic_Sensor_Node/Ultrasonic_XMC_1400_Dynamic/Dave/Generated/WATCHDOG\watchdog.h ****  **************************************************************************************************
  80:C:/GitHub/MobRob_Rover_NEW/Ultrasonic_Sensor_Node/Ultrasonic_XMC_1400_Dynamic/Dave/Generated/WATCHDOG\watchdog.h **** #define WATCHDOG_XMC_LIB_MAJOR_VERSION 2
  81:C:/GitHub/MobRob_Rover_NEW/Ultrasonic_Sensor_Node/Ultrasonic_XMC_1400_Dynamic/Dave/Generated/WATCHDOG\watchdog.h **** #define WATCHDOG_XMC_LIB_MINOR_VERSION 0
  82:C:/GitHub/MobRob_Rover_NEW/Ultrasonic_Sensor_Node/Ultrasonic_XMC_1400_Dynamic/Dave/Generated/WATCHDOG\watchdog.h **** #define WATCHDOG_XMC_LIB_PATCH_VERSION 0
  83:C:/GitHub/MobRob_Rover_NEW/Ultrasonic_Sensor_Node/Ultrasonic_XMC_1400_Dynamic/Dave/Generated/WATCHDOG\watchdog.h **** 
  84:C:/GitHub/MobRob_Rover_NEW/Ultrasonic_Sensor_Node/Ultrasonic_XMC_1400_Dynamic/Dave/Generated/WATCHDOG\watchdog.h **** #if !((XMC_LIB_MAJOR_VERSION > WATCHDOG_XMC_LIB_MAJOR_VERSION) ||\
  85:C:/GitHub/MobRob_Rover_NEW/Ultrasonic_Sensor_Node/Ultrasonic_XMC_1400_Dynamic/Dave/Generated/WATCHDOG\watchdog.h ****       ((XMC_LIB_MAJOR_VERSION == WATCHDOG_XMC_LIB_MAJOR_VERSION) && (XMC_LIB_MINOR_VERSION > WATCHD
  86:C:/GitHub/MobRob_Rover_NEW/Ultrasonic_Sensor_Node/Ultrasonic_XMC_1400_Dynamic/Dave/Generated/WATCHDOG\watchdog.h ****       ((XMC_LIB_MAJOR_VERSION == WATCHDOG_XMC_LIB_MAJOR_VERSION) && (XMC_LIB_MINOR_VERSION == WATCH
  87:C:/GitHub/MobRob_Rover_NEW/Ultrasonic_Sensor_Node/Ultrasonic_XMC_1400_Dynamic/Dave/Generated/WATCHDOG\watchdog.h **** #error "WATCHDOG requires XMC Peripheral Library v2.0.0 or higher"
  88:C:/GitHub/MobRob_Rover_NEW/Ultrasonic_Sensor_Node/Ultrasonic_XMC_1400_Dynamic/Dave/Generated/WATCHDOG\watchdog.h **** #endif
  89:C:/GitHub/MobRob_Rover_NEW/Ultrasonic_Sensor_Node/Ultrasonic_XMC_1400_Dynamic/Dave/Generated/WATCHDOG\watchdog.h **** 
  90:C:/GitHub/MobRob_Rover_NEW/Ultrasonic_Sensor_Node/Ultrasonic_XMC_1400_Dynamic/Dave/Generated/WATCHDOG\watchdog.h **** /**************************************************************************************************
  91:C:/GitHub/MobRob_Rover_NEW/Ultrasonic_Sensor_Node/Ultrasonic_XMC_1400_Dynamic/Dave/Generated/WATCHDOG\watchdog.h ****  * ENUMS
  92:C:/GitHub/MobRob_Rover_NEW/Ultrasonic_Sensor_Node/Ultrasonic_XMC_1400_Dynamic/Dave/Generated/WATCHDOG\watchdog.h ****  **************************************************************************************************
  93:C:/GitHub/MobRob_Rover_NEW/Ultrasonic_Sensor_Node/Ultrasonic_XMC_1400_Dynamic/Dave/Generated/WATCHDOG\watchdog.h **** /**
  94:C:/GitHub/MobRob_Rover_NEW/Ultrasonic_Sensor_Node/Ultrasonic_XMC_1400_Dynamic/Dave/Generated/WATCHDOG\watchdog.h ****  * @ingroup WATCHDOG_enumerations
  95:C:/GitHub/MobRob_Rover_NEW/Ultrasonic_Sensor_Node/Ultrasonic_XMC_1400_Dynamic/Dave/Generated/WATCHDOG\watchdog.h ****  * @{
  96:C:/GitHub/MobRob_Rover_NEW/Ultrasonic_Sensor_Node/Ultrasonic_XMC_1400_Dynamic/Dave/Generated/WATCHDOG\watchdog.h ****  */
  97:C:/GitHub/MobRob_Rover_NEW/Ultrasonic_Sensor_Node/Ultrasonic_XMC_1400_Dynamic/Dave/Generated/WATCHDOG\watchdog.h **** 
  98:C:/GitHub/MobRob_Rover_NEW/Ultrasonic_Sensor_Node/Ultrasonic_XMC_1400_Dynamic/Dave/Generated/WATCHDOG\watchdog.h **** /**
  99:C:/GitHub/MobRob_Rover_NEW/Ultrasonic_Sensor_Node/Ultrasonic_XMC_1400_Dynamic/Dave/Generated/WATCHDOG\watchdog.h ****  *  @brief In case of XMC4000 devices, WatchDog event can be generated as  Regular Interrupt or can
 100:C:/GitHub/MobRob_Rover_NEW/Ultrasonic_Sensor_Node/Ultrasonic_XMC_1400_Dynamic/Dave/Generated/WATCHDOG\watchdog.h ****  *         NMI Request. Where as in case of XMC1000 device, it can be generated as Regular Interrup
 101:C:/GitHub/MobRob_Rover_NEW/Ultrasonic_Sensor_Node/Ultrasonic_XMC_1400_Dynamic/Dave/Generated/WATCHDOG\watchdog.h ****  */
 102:C:/GitHub/MobRob_Rover_NEW/Ultrasonic_Sensor_Node/Ultrasonic_XMC_1400_Dynamic/Dave/Generated/WATCHDOG\watchdog.h **** typedef enum WATCHDOG_EVENT_MODE
 103:C:/GitHub/MobRob_Rover_NEW/Ultrasonic_Sensor_Node/Ultrasonic_XMC_1400_Dynamic/Dave/Generated/WATCHDOG\watchdog.h **** {
 104:C:/GitHub/MobRob_Rover_NEW/Ultrasonic_Sensor_Node/Ultrasonic_XMC_1400_Dynamic/Dave/Generated/WATCHDOG\watchdog.h ****     WATCHDOG_EVENT_MODE_INTERRUPT   = 0U, /**< Regular Interrupt */
 105:C:/GitHub/MobRob_Rover_NEW/Ultrasonic_Sensor_Node/Ultrasonic_XMC_1400_Dynamic/Dave/Generated/WATCHDOG\watchdog.h ****     WATCHDOG_EVENT_MODE_NMI_REQUEST = 1U /**< Promoted to NMI */
 106:C:/GitHub/MobRob_Rover_NEW/Ultrasonic_Sensor_Node/Ultrasonic_XMC_1400_Dynamic/Dave/Generated/WATCHDOG\watchdog.h **** } WATCHDOG_EVENT_MODE_t;
 107:C:/GitHub/MobRob_Rover_NEW/Ultrasonic_Sensor_Node/Ultrasonic_XMC_1400_Dynamic/Dave/Generated/WATCHDOG\watchdog.h **** 
 108:C:/GitHub/MobRob_Rover_NEW/Ultrasonic_Sensor_Node/Ultrasonic_XMC_1400_Dynamic/Dave/Generated/WATCHDOG\watchdog.h **** /**
 109:C:/GitHub/MobRob_Rover_NEW/Ultrasonic_Sensor_Node/Ultrasonic_XMC_1400_Dynamic/Dave/Generated/WATCHDOG\watchdog.h ****  *  @brief Initialization status.
 110:C:/GitHub/MobRob_Rover_NEW/Ultrasonic_Sensor_Node/Ultrasonic_XMC_1400_Dynamic/Dave/Generated/WATCHDOG\watchdog.h ****  */
 111:C:/GitHub/MobRob_Rover_NEW/Ultrasonic_Sensor_Node/Ultrasonic_XMC_1400_Dynamic/Dave/Generated/WATCHDOG\watchdog.h **** typedef enum WATCHDOG_STATUS
 112:C:/GitHub/MobRob_Rover_NEW/Ultrasonic_Sensor_Node/Ultrasonic_XMC_1400_Dynamic/Dave/Generated/WATCHDOG\watchdog.h **** {
 113:C:/GitHub/MobRob_Rover_NEW/Ultrasonic_Sensor_Node/Ultrasonic_XMC_1400_Dynamic/Dave/Generated/WATCHDOG\watchdog.h ****   WATCHDOG_STATUS_SUCCESS = 0U, /**< Status success */
 114:C:/GitHub/MobRob_Rover_NEW/Ultrasonic_Sensor_Node/Ultrasonic_XMC_1400_Dynamic/Dave/Generated/WATCHDOG\watchdog.h ****   WATCHDOG_STATUS_FAILURE, /**< Status failure */
 115:C:/GitHub/MobRob_Rover_NEW/Ultrasonic_Sensor_Node/Ultrasonic_XMC_1400_Dynamic/Dave/Generated/WATCHDOG\watchdog.h **** } WATCHDOG_STATUS_t;
 116:C:/GitHub/MobRob_Rover_NEW/Ultrasonic_Sensor_Node/Ultrasonic_XMC_1400_Dynamic/Dave/Generated/WATCHDOG\watchdog.h **** /**
 117:C:/GitHub/MobRob_Rover_NEW/Ultrasonic_Sensor_Node/Ultrasonic_XMC_1400_Dynamic/Dave/Generated/WATCHDOG\watchdog.h **** * @}
 118:C:/GitHub/MobRob_Rover_NEW/Ultrasonic_Sensor_Node/Ultrasonic_XMC_1400_Dynamic/Dave/Generated/WATCHDOG\watchdog.h **** */
 119:C:/GitHub/MobRob_Rover_NEW/Ultrasonic_Sensor_Node/Ultrasonic_XMC_1400_Dynamic/Dave/Generated/WATCHDOG\watchdog.h **** 
 120:C:/GitHub/MobRob_Rover_NEW/Ultrasonic_Sensor_Node/Ultrasonic_XMC_1400_Dynamic/Dave/Generated/WATCHDOG\watchdog.h **** /**************************************************************************************************
 121:C:/GitHub/MobRob_Rover_NEW/Ultrasonic_Sensor_Node/Ultrasonic_XMC_1400_Dynamic/Dave/Generated/WATCHDOG\watchdog.h **** * DATA STRUCTURES
 122:C:/GitHub/MobRob_Rover_NEW/Ultrasonic_Sensor_Node/Ultrasonic_XMC_1400_Dynamic/Dave/Generated/WATCHDOG\watchdog.h **** ***************************************************************************************************
 123:C:/GitHub/MobRob_Rover_NEW/Ultrasonic_Sensor_Node/Ultrasonic_XMC_1400_Dynamic/Dave/Generated/WATCHDOG\watchdog.h **** /**
 124:C:/GitHub/MobRob_Rover_NEW/Ultrasonic_Sensor_Node/Ultrasonic_XMC_1400_Dynamic/Dave/Generated/WATCHDOG\watchdog.h ****  * @ingroup WATCHDOG_datastructures
 125:C:/GitHub/MobRob_Rover_NEW/Ultrasonic_Sensor_Node/Ultrasonic_XMC_1400_Dynamic/Dave/Generated/WATCHDOG\watchdog.h ****  * @{
 126:C:/GitHub/MobRob_Rover_NEW/Ultrasonic_Sensor_Node/Ultrasonic_XMC_1400_Dynamic/Dave/Generated/WATCHDOG\watchdog.h ****  */
 127:C:/GitHub/MobRob_Rover_NEW/Ultrasonic_Sensor_Node/Ultrasonic_XMC_1400_Dynamic/Dave/Generated/WATCHDOG\watchdog.h **** 
 128:C:/GitHub/MobRob_Rover_NEW/Ultrasonic_Sensor_Node/Ultrasonic_XMC_1400_Dynamic/Dave/Generated/WATCHDOG\watchdog.h **** /**
 129:C:/GitHub/MobRob_Rover_NEW/Ultrasonic_Sensor_Node/Ultrasonic_XMC_1400_Dynamic/Dave/Generated/WATCHDOG\watchdog.h ****  * @brief WATCHDOG_HandleType is  data structure for storing the GUI configured values of a WATCHDO
 130:C:/GitHub/MobRob_Rover_NEW/Ultrasonic_Sensor_Node/Ultrasonic_XMC_1400_Dynamic/Dave/Generated/WATCHDOG\watchdog.h ****  */
 131:C:/GitHub/MobRob_Rover_NEW/Ultrasonic_Sensor_Node/Ultrasonic_XMC_1400_Dynamic/Dave/Generated/WATCHDOG\watchdog.h **** typedef struct WATCHDOG
 132:C:/GitHub/MobRob_Rover_NEW/Ultrasonic_Sensor_Node/Ultrasonic_XMC_1400_Dynamic/Dave/Generated/WATCHDOG\watchdog.h **** {
 133:C:/GitHub/MobRob_Rover_NEW/Ultrasonic_Sensor_Node/Ultrasonic_XMC_1400_Dynamic/Dave/Generated/WATCHDOG\watchdog.h ****   const XMC_WDT_CONFIG_t* const config; /**< Configuration of WDT */
 134:C:/GitHub/MobRob_Rover_NEW/Ultrasonic_Sensor_Node/Ultrasonic_XMC_1400_Dynamic/Dave/Generated/WATCHDOG\watchdog.h ****   #if ((WATCHDOG_PREWARNING_CHECK == 1U) && (WATCHDOG_EVENT_VIA_SCU == 1U))
 135:C:/GitHub/MobRob_Rover_NEW/Ultrasonic_Sensor_Node/Ultrasonic_XMC_1400_Dynamic/Dave/Generated/WATCHDOG\watchdog.h ****   #if(UC_FAMILY == XMC4)
 136:C:/GitHub/MobRob_Rover_NEW/Ultrasonic_Sensor_Node/Ultrasonic_XMC_1400_Dynamic/Dave/Generated/WATCHDOG\watchdog.h ****   GLOBAL_SCU_XMC4_t* const scu_global_handler; /**< pointer to SCU_GLOBAL APP instance*/
 137:C:/GitHub/MobRob_Rover_NEW/Ultrasonic_Sensor_Node/Ultrasonic_XMC_1400_Dynamic/Dave/Generated/WATCHDOG\watchdog.h ****   GLOBAL_SCU_XMC4_EVENT_HANDLER_t callback_func_ptr; /**< Callback function pointer */
 138:C:/GitHub/MobRob_Rover_NEW/Ultrasonic_Sensor_Node/Ultrasonic_XMC_1400_Dynamic/Dave/Generated/WATCHDOG\watchdog.h ****   #else
 139:C:/GitHub/MobRob_Rover_NEW/Ultrasonic_Sensor_Node/Ultrasonic_XMC_1400_Dynamic/Dave/Generated/WATCHDOG\watchdog.h ****   GLOBAL_SCU_XMC1_t* const scu_global_handler; /**< pointer to SCU_GLOBAL APP instance*/
 140:C:/GitHub/MobRob_Rover_NEW/Ultrasonic_Sensor_Node/Ultrasonic_XMC_1400_Dynamic/Dave/Generated/WATCHDOG\watchdog.h ****   GLOBAL_SCU_XMC1_EVENT_HANDLER_t callback_func_ptr; /**< Callback function pointer */
 141:C:/GitHub/MobRob_Rover_NEW/Ultrasonic_Sensor_Node/Ultrasonic_XMC_1400_Dynamic/Dave/Generated/WATCHDOG\watchdog.h ****   #endif
 142:C:/GitHub/MobRob_Rover_NEW/Ultrasonic_Sensor_Node/Ultrasonic_XMC_1400_Dynamic/Dave/Generated/WATCHDOG\watchdog.h ****   #endif
 143:C:/GitHub/MobRob_Rover_NEW/Ultrasonic_Sensor_Node/Ultrasonic_XMC_1400_Dynamic/Dave/Generated/WATCHDOG\watchdog.h ****   bool  initialized; /**< Holds the initialization status */
 144:C:/GitHub/MobRob_Rover_NEW/Ultrasonic_Sensor_Node/Ultrasonic_XMC_1400_Dynamic/Dave/Generated/WATCHDOG\watchdog.h **** } WATCHDOG_t;
 145:C:/GitHub/MobRob_Rover_NEW/Ultrasonic_Sensor_Node/Ultrasonic_XMC_1400_Dynamic/Dave/Generated/WATCHDOG\watchdog.h **** 
 146:C:/GitHub/MobRob_Rover_NEW/Ultrasonic_Sensor_Node/Ultrasonic_XMC_1400_Dynamic/Dave/Generated/WATCHDOG\watchdog.h **** /**
 147:C:/GitHub/MobRob_Rover_NEW/Ultrasonic_Sensor_Node/Ultrasonic_XMC_1400_Dynamic/Dave/Generated/WATCHDOG\watchdog.h **** * @}
 148:C:/GitHub/MobRob_Rover_NEW/Ultrasonic_Sensor_Node/Ultrasonic_XMC_1400_Dynamic/Dave/Generated/WATCHDOG\watchdog.h **** */
 149:C:/GitHub/MobRob_Rover_NEW/Ultrasonic_Sensor_Node/Ultrasonic_XMC_1400_Dynamic/Dave/Generated/WATCHDOG\watchdog.h **** /**************************************************************************************************
 150:C:/GitHub/MobRob_Rover_NEW/Ultrasonic_Sensor_Node/Ultrasonic_XMC_1400_Dynamic/Dave/Generated/WATCHDOG\watchdog.h **** * API Prototypes
 151:C:/GitHub/MobRob_Rover_NEW/Ultrasonic_Sensor_Node/Ultrasonic_XMC_1400_Dynamic/Dave/Generated/WATCHDOG\watchdog.h **** ***************************************************************************************************
 152:C:/GitHub/MobRob_Rover_NEW/Ultrasonic_Sensor_Node/Ultrasonic_XMC_1400_Dynamic/Dave/Generated/WATCHDOG\watchdog.h **** #ifdef __cplusplus
 153:C:/GitHub/MobRob_Rover_NEW/Ultrasonic_Sensor_Node/Ultrasonic_XMC_1400_Dynamic/Dave/Generated/WATCHDOG\watchdog.h **** extern "C" {
 154:C:/GitHub/MobRob_Rover_NEW/Ultrasonic_Sensor_Node/Ultrasonic_XMC_1400_Dynamic/Dave/Generated/WATCHDOG\watchdog.h **** #endif
 155:C:/GitHub/MobRob_Rover_NEW/Ultrasonic_Sensor_Node/Ultrasonic_XMC_1400_Dynamic/Dave/Generated/WATCHDOG\watchdog.h **** /**
 156:C:/GitHub/MobRob_Rover_NEW/Ultrasonic_Sensor_Node/Ultrasonic_XMC_1400_Dynamic/Dave/Generated/WATCHDOG\watchdog.h ****  * @brief Get WATCHDOG APP version
 157:C:/GitHub/MobRob_Rover_NEW/Ultrasonic_Sensor_Node/Ultrasonic_XMC_1400_Dynamic/Dave/Generated/WATCHDOG\watchdog.h ****  * @return DAVE_APP_VERSION_t APP version information (major, minor and patch number)
 158:C:/GitHub/MobRob_Rover_NEW/Ultrasonic_Sensor_Node/Ultrasonic_XMC_1400_Dynamic/Dave/Generated/WATCHDOG\watchdog.h ****  * <BR>
 159:C:/GitHub/MobRob_Rover_NEW/Ultrasonic_Sensor_Node/Ultrasonic_XMC_1400_Dynamic/Dave/Generated/WATCHDOG\watchdog.h ****  * \par<b>Description:</b><br>
 160:C:/GitHub/MobRob_Rover_NEW/Ultrasonic_Sensor_Node/Ultrasonic_XMC_1400_Dynamic/Dave/Generated/WATCHDOG\watchdog.h ****  * The function can be used to check application software compatibility with a
 161:C:/GitHub/MobRob_Rover_NEW/Ultrasonic_Sensor_Node/Ultrasonic_XMC_1400_Dynamic/Dave/Generated/WATCHDOG\watchdog.h ****  * specific version of the APP.
 162:C:/GitHub/MobRob_Rover_NEW/Ultrasonic_Sensor_Node/Ultrasonic_XMC_1400_Dynamic/Dave/Generated/WATCHDOG\watchdog.h ****  *
 163:C:/GitHub/MobRob_Rover_NEW/Ultrasonic_Sensor_Node/Ultrasonic_XMC_1400_Dynamic/Dave/Generated/WATCHDOG\watchdog.h ****  * Example Usage:
 164:C:/GitHub/MobRob_Rover_NEW/Ultrasonic_Sensor_Node/Ultrasonic_XMC_1400_Dynamic/Dave/Generated/WATCHDOG\watchdog.h ****  *
 165:C:/GitHub/MobRob_Rover_NEW/Ultrasonic_Sensor_Node/Ultrasonic_XMC_1400_Dynamic/Dave/Generated/WATCHDOG\watchdog.h ****  * @code
 166:C:/GitHub/MobRob_Rover_NEW/Ultrasonic_Sensor_Node/Ultrasonic_XMC_1400_Dynamic/Dave/Generated/WATCHDOG\watchdog.h ****  * #include "DAVE.h"
 167:C:/GitHub/MobRob_Rover_NEW/Ultrasonic_Sensor_Node/Ultrasonic_XMC_1400_Dynamic/Dave/Generated/WATCHDOG\watchdog.h ****  * int main(void)
 168:C:/GitHub/MobRob_Rover_NEW/Ultrasonic_Sensor_Node/Ultrasonic_XMC_1400_Dynamic/Dave/Generated/WATCHDOG\watchdog.h ****  * {
 169:C:/GitHub/MobRob_Rover_NEW/Ultrasonic_Sensor_Node/Ultrasonic_XMC_1400_Dynamic/Dave/Generated/WATCHDOG\watchdog.h ****  *   DAVE_STATUS_t status;
 170:C:/GitHub/MobRob_Rover_NEW/Ultrasonic_Sensor_Node/Ultrasonic_XMC_1400_Dynamic/Dave/Generated/WATCHDOG\watchdog.h ****  *   DAVE_APP_VERSION_t app_version;
 171:C:/GitHub/MobRob_Rover_NEW/Ultrasonic_Sensor_Node/Ultrasonic_XMC_1400_Dynamic/Dave/Generated/WATCHDOG\watchdog.h ****  *
 172:C:/GitHub/MobRob_Rover_NEW/Ultrasonic_Sensor_Node/Ultrasonic_XMC_1400_Dynamic/Dave/Generated/WATCHDOG\watchdog.h ****  *   status = DAVE_Init();    // WATCHDOG_Init() is called from DAVE_Init()
 173:C:/GitHub/MobRob_Rover_NEW/Ultrasonic_Sensor_Node/Ultrasonic_XMC_1400_Dynamic/Dave/Generated/WATCHDOG\watchdog.h ****  *
 174:C:/GitHub/MobRob_Rover_NEW/Ultrasonic_Sensor_Node/Ultrasonic_XMC_1400_Dynamic/Dave/Generated/WATCHDOG\watchdog.h ****  *   app_version = WATCHDOG_GetAppVersion();
 175:C:/GitHub/MobRob_Rover_NEW/Ultrasonic_Sensor_Node/Ultrasonic_XMC_1400_Dynamic/Dave/Generated/WATCHDOG\watchdog.h ****  *
 176:C:/GitHub/MobRob_Rover_NEW/Ultrasonic_Sensor_Node/Ultrasonic_XMC_1400_Dynamic/Dave/Generated/WATCHDOG\watchdog.h ****  *   if (app_version.major != 4U)
 177:C:/GitHub/MobRob_Rover_NEW/Ultrasonic_Sensor_Node/Ultrasonic_XMC_1400_Dynamic/Dave/Generated/WATCHDOG\watchdog.h ****  *   {
 178:C:/GitHub/MobRob_Rover_NEW/Ultrasonic_Sensor_Node/Ultrasonic_XMC_1400_Dynamic/Dave/Generated/WATCHDOG\watchdog.h ****  *     // Probably, not the right version.
 179:C:/GitHub/MobRob_Rover_NEW/Ultrasonic_Sensor_Node/Ultrasonic_XMC_1400_Dynamic/Dave/Generated/WATCHDOG\watchdog.h ****  *   }
 180:C:/GitHub/MobRob_Rover_NEW/Ultrasonic_Sensor_Node/Ultrasonic_XMC_1400_Dynamic/Dave/Generated/WATCHDOG\watchdog.h ****  *
 181:C:/GitHub/MobRob_Rover_NEW/Ultrasonic_Sensor_Node/Ultrasonic_XMC_1400_Dynamic/Dave/Generated/WATCHDOG\watchdog.h ****  *   while(1U)
 182:C:/GitHub/MobRob_Rover_NEW/Ultrasonic_Sensor_Node/Ultrasonic_XMC_1400_Dynamic/Dave/Generated/WATCHDOG\watchdog.h ****  *   {
 183:C:/GitHub/MobRob_Rover_NEW/Ultrasonic_Sensor_Node/Ultrasonic_XMC_1400_Dynamic/Dave/Generated/WATCHDOG\watchdog.h ****  *   }
 184:C:/GitHub/MobRob_Rover_NEW/Ultrasonic_Sensor_Node/Ultrasonic_XMC_1400_Dynamic/Dave/Generated/WATCHDOG\watchdog.h ****  *   return 1;
 185:C:/GitHub/MobRob_Rover_NEW/Ultrasonic_Sensor_Node/Ultrasonic_XMC_1400_Dynamic/Dave/Generated/WATCHDOG\watchdog.h ****  * }
 186:C:/GitHub/MobRob_Rover_NEW/Ultrasonic_Sensor_Node/Ultrasonic_XMC_1400_Dynamic/Dave/Generated/WATCHDOG\watchdog.h ****  * @endcode<BR>
 187:C:/GitHub/MobRob_Rover_NEW/Ultrasonic_Sensor_Node/Ultrasonic_XMC_1400_Dynamic/Dave/Generated/WATCHDOG\watchdog.h ****  */
 188:C:/GitHub/MobRob_Rover_NEW/Ultrasonic_Sensor_Node/Ultrasonic_XMC_1400_Dynamic/Dave/Generated/WATCHDOG\watchdog.h **** 
 189:C:/GitHub/MobRob_Rover_NEW/Ultrasonic_Sensor_Node/Ultrasonic_XMC_1400_Dynamic/Dave/Generated/WATCHDOG\watchdog.h **** DAVE_APP_VERSION_t WATCHDOG_GetAppVersion(void);
 190:C:/GitHub/MobRob_Rover_NEW/Ultrasonic_Sensor_Node/Ultrasonic_XMC_1400_Dynamic/Dave/Generated/WATCHDOG\watchdog.h **** 
 191:C:/GitHub/MobRob_Rover_NEW/Ultrasonic_Sensor_Node/Ultrasonic_XMC_1400_Dynamic/Dave/Generated/WATCHDOG\watchdog.h **** /**
 192:C:/GitHub/MobRob_Rover_NEW/Ultrasonic_Sensor_Node/Ultrasonic_XMC_1400_Dynamic/Dave/Generated/WATCHDOG\watchdog.h ****  * @ingroup WATCHDOG_apidoc
 193:C:/GitHub/MobRob_Rover_NEW/Ultrasonic_Sensor_Node/Ultrasonic_XMC_1400_Dynamic/Dave/Generated/WATCHDOG\watchdog.h ****  * @{
 194:C:/GitHub/MobRob_Rover_NEW/Ultrasonic_Sensor_Node/Ultrasonic_XMC_1400_Dynamic/Dave/Generated/WATCHDOG\watchdog.h ****  */
 195:C:/GitHub/MobRob_Rover_NEW/Ultrasonic_Sensor_Node/Ultrasonic_XMC_1400_Dynamic/Dave/Generated/WATCHDOG\watchdog.h **** 
 196:C:/GitHub/MobRob_Rover_NEW/Ultrasonic_Sensor_Node/Ultrasonic_XMC_1400_Dynamic/Dave/Generated/WATCHDOG\watchdog.h **** /**
 197:C:/GitHub/MobRob_Rover_NEW/Ultrasonic_Sensor_Node/Ultrasonic_XMC_1400_Dynamic/Dave/Generated/WATCHDOG\watchdog.h ****  * @brief Initializes a WATCHDOG with generated configuration.
 198:C:/GitHub/MobRob_Rover_NEW/Ultrasonic_Sensor_Node/Ultrasonic_XMC_1400_Dynamic/Dave/Generated/WATCHDOG\watchdog.h ****  *
 199:C:/GitHub/MobRob_Rover_NEW/Ultrasonic_Sensor_Node/Ultrasonic_XMC_1400_Dynamic/Dave/Generated/WATCHDOG\watchdog.h ****  * @param handle pointer to the WATCHDOG APP handle structure.
 200:C:/GitHub/MobRob_Rover_NEW/Ultrasonic_Sensor_Node/Ultrasonic_XMC_1400_Dynamic/Dave/Generated/WATCHDOG\watchdog.h ****  * @return WATCHDOG_STATUS_t\n
 201:C:/GitHub/MobRob_Rover_NEW/Ultrasonic_Sensor_Node/Ultrasonic_XMC_1400_Dynamic/Dave/Generated/WATCHDOG\watchdog.h ****  *         WATCHDOG_STATUS_SUCCESS : if initialization is successful\n
 202:C:/GitHub/MobRob_Rover_NEW/Ultrasonic_Sensor_Node/Ultrasonic_XMC_1400_Dynamic/Dave/Generated/WATCHDOG\watchdog.h ****  *         WATCHDOG_STATUS_FAILURE : if initialization is failed
 203:C:/GitHub/MobRob_Rover_NEW/Ultrasonic_Sensor_Node/Ultrasonic_XMC_1400_Dynamic/Dave/Generated/WATCHDOG\watchdog.h ****  * <BR>
 204:C:/GitHub/MobRob_Rover_NEW/Ultrasonic_Sensor_Node/Ultrasonic_XMC_1400_Dynamic/Dave/Generated/WATCHDOG\watchdog.h ****  * \par<b>Description:</b><br>
 205:C:/GitHub/MobRob_Rover_NEW/Ultrasonic_Sensor_Node/Ultrasonic_XMC_1400_Dynamic/Dave/Generated/WATCHDOG\watchdog.h ****  * <ul>
 206:C:/GitHub/MobRob_Rover_NEW/Ultrasonic_Sensor_Node/Ultrasonic_XMC_1400_Dynamic/Dave/Generated/WATCHDOG\watchdog.h ****  * <li>Enable the WDT module.</li>
 207:C:/GitHub/MobRob_Rover_NEW/Ultrasonic_Sensor_Node/Ultrasonic_XMC_1400_Dynamic/Dave/Generated/WATCHDOG\watchdog.h ****  * <li>Configure the service upper and lower bound settings</li>
 208:C:/GitHub/MobRob_Rover_NEW/Ultrasonic_Sensor_Node/Ultrasonic_XMC_1400_Dynamic/Dave/Generated/WATCHDOG\watchdog.h ****  * <li>Configure the Pre-warning alarm event, if enabled</li>
 209:C:/GitHub/MobRob_Rover_NEW/Ultrasonic_Sensor_Node/Ultrasonic_XMC_1400_Dynamic/Dave/Generated/WATCHDOG\watchdog.h ****  * </ul>
 210:C:/GitHub/MobRob_Rover_NEW/Ultrasonic_Sensor_Node/Ultrasonic_XMC_1400_Dynamic/Dave/Generated/WATCHDOG\watchdog.h ****  *
 211:C:/GitHub/MobRob_Rover_NEW/Ultrasonic_Sensor_Node/Ultrasonic_XMC_1400_Dynamic/Dave/Generated/WATCHDOG\watchdog.h ****  * Example Usage:
 212:C:/GitHub/MobRob_Rover_NEW/Ultrasonic_Sensor_Node/Ultrasonic_XMC_1400_Dynamic/Dave/Generated/WATCHDOG\watchdog.h ****  *
 213:C:/GitHub/MobRob_Rover_NEW/Ultrasonic_Sensor_Node/Ultrasonic_XMC_1400_Dynamic/Dave/Generated/WATCHDOG\watchdog.h ****  * @code
 214:C:/GitHub/MobRob_Rover_NEW/Ultrasonic_Sensor_Node/Ultrasonic_XMC_1400_Dynamic/Dave/Generated/WATCHDOG\watchdog.h ****  * #include "DAVE.h"
 215:C:/GitHub/MobRob_Rover_NEW/Ultrasonic_Sensor_Node/Ultrasonic_XMC_1400_Dynamic/Dave/Generated/WATCHDOG\watchdog.h ****  * int main(void)
 216:C:/GitHub/MobRob_Rover_NEW/Ultrasonic_Sensor_Node/Ultrasonic_XMC_1400_Dynamic/Dave/Generated/WATCHDOG\watchdog.h ****  * {
 217:C:/GitHub/MobRob_Rover_NEW/Ultrasonic_Sensor_Node/Ultrasonic_XMC_1400_Dynamic/Dave/Generated/WATCHDOG\watchdog.h ****  *   // ... Initializes Apps configurations ...
 218:C:/GitHub/MobRob_Rover_NEW/Ultrasonic_Sensor_Node/Ultrasonic_XMC_1400_Dynamic/Dave/Generated/WATCHDOG\watchdog.h ****  *   DAVE_Init(); // WATCHDOG_Init(&WATCHDOG_0) will be called from DAVE_Init()
 219:C:/GitHub/MobRob_Rover_NEW/Ultrasonic_Sensor_Node/Ultrasonic_XMC_1400_Dynamic/Dave/Generated/WATCHDOG\watchdog.h ****  *
 220:C:/GitHub/MobRob_Rover_NEW/Ultrasonic_Sensor_Node/Ultrasonic_XMC_1400_Dynamic/Dave/Generated/WATCHDOG\watchdog.h ****  *   while(1U)
 221:C:/GitHub/MobRob_Rover_NEW/Ultrasonic_Sensor_Node/Ultrasonic_XMC_1400_Dynamic/Dave/Generated/WATCHDOG\watchdog.h ****  *   {
 222:C:/GitHub/MobRob_Rover_NEW/Ultrasonic_Sensor_Node/Ultrasonic_XMC_1400_Dynamic/Dave/Generated/WATCHDOG\watchdog.h ****  *   }
 223:C:/GitHub/MobRob_Rover_NEW/Ultrasonic_Sensor_Node/Ultrasonic_XMC_1400_Dynamic/Dave/Generated/WATCHDOG\watchdog.h ****  *
 224:C:/GitHub/MobRob_Rover_NEW/Ultrasonic_Sensor_Node/Ultrasonic_XMC_1400_Dynamic/Dave/Generated/WATCHDOG\watchdog.h ****  *   return 1;
 225:C:/GitHub/MobRob_Rover_NEW/Ultrasonic_Sensor_Node/Ultrasonic_XMC_1400_Dynamic/Dave/Generated/WATCHDOG\watchdog.h ****  * }
 226:C:/GitHub/MobRob_Rover_NEW/Ultrasonic_Sensor_Node/Ultrasonic_XMC_1400_Dynamic/Dave/Generated/WATCHDOG\watchdog.h ****  *
 227:C:/GitHub/MobRob_Rover_NEW/Ultrasonic_Sensor_Node/Ultrasonic_XMC_1400_Dynamic/Dave/Generated/WATCHDOG\watchdog.h ****  * @endcode<BR> </p>
 228:C:/GitHub/MobRob_Rover_NEW/Ultrasonic_Sensor_Node/Ultrasonic_XMC_1400_Dynamic/Dave/Generated/WATCHDOG\watchdog.h ****  */
 229:C:/GitHub/MobRob_Rover_NEW/Ultrasonic_Sensor_Node/Ultrasonic_XMC_1400_Dynamic/Dave/Generated/WATCHDOG\watchdog.h **** WATCHDOG_STATUS_t WATCHDOG_Init(WATCHDOG_t *handle);
 230:C:/GitHub/MobRob_Rover_NEW/Ultrasonic_Sensor_Node/Ultrasonic_XMC_1400_Dynamic/Dave/Generated/WATCHDOG\watchdog.h **** 
 231:C:/GitHub/MobRob_Rover_NEW/Ultrasonic_Sensor_Node/Ultrasonic_XMC_1400_Dynamic/Dave/Generated/WATCHDOG\watchdog.h **** /**
 232:C:/GitHub/MobRob_Rover_NEW/Ultrasonic_Sensor_Node/Ultrasonic_XMC_1400_Dynamic/Dave/Generated/WATCHDOG\watchdog.h ****  * @brief Starts the WATCHDOG timer.
 233:C:/GitHub/MobRob_Rover_NEW/Ultrasonic_Sensor_Node/Ultrasonic_XMC_1400_Dynamic/Dave/Generated/WATCHDOG\watchdog.h ****  *
 234:C:/GitHub/MobRob_Rover_NEW/Ultrasonic_Sensor_Node/Ultrasonic_XMC_1400_Dynamic/Dave/Generated/WATCHDOG\watchdog.h ****  * @return None
 235:C:/GitHub/MobRob_Rover_NEW/Ultrasonic_Sensor_Node/Ultrasonic_XMC_1400_Dynamic/Dave/Generated/WATCHDOG\watchdog.h ****  * <BR>
 236:C:/GitHub/MobRob_Rover_NEW/Ultrasonic_Sensor_Node/Ultrasonic_XMC_1400_Dynamic/Dave/Generated/WATCHDOG\watchdog.h ****  * 
 237:C:/GitHub/MobRob_Rover_NEW/Ultrasonic_Sensor_Node/Ultrasonic_XMC_1400_Dynamic/Dave/Generated/WATCHDOG\watchdog.h ****  * \par<b>Description:</b><br>
 238:C:/GitHub/MobRob_Rover_NEW/Ultrasonic_Sensor_Node/Ultrasonic_XMC_1400_Dynamic/Dave/Generated/WATCHDOG\watchdog.h ****  * After starting, WDT has to be serviced with in the specified service window boundary.
 239:C:/GitHub/MobRob_Rover_NEW/Ultrasonic_Sensor_Node/Ultrasonic_XMC_1400_Dynamic/Dave/Generated/WATCHDOG\watchdog.h ****  * This can done by invoking WATCHDOG_Service(). If failed service, leads to system reset.
 240:C:/GitHub/MobRob_Rover_NEW/Ultrasonic_Sensor_Node/Ultrasonic_XMC_1400_Dynamic/Dave/Generated/WATCHDOG\watchdog.h ****  *
 241:C:/GitHub/MobRob_Rover_NEW/Ultrasonic_Sensor_Node/Ultrasonic_XMC_1400_Dynamic/Dave/Generated/WATCHDOG\watchdog.h ****  * Example Usage:
 242:C:/GitHub/MobRob_Rover_NEW/Ultrasonic_Sensor_Node/Ultrasonic_XMC_1400_Dynamic/Dave/Generated/WATCHDOG\watchdog.h ****  *
 243:C:/GitHub/MobRob_Rover_NEW/Ultrasonic_Sensor_Node/Ultrasonic_XMC_1400_Dynamic/Dave/Generated/WATCHDOG\watchdog.h ****  * @code
 244:C:/GitHub/MobRob_Rover_NEW/Ultrasonic_Sensor_Node/Ultrasonic_XMC_1400_Dynamic/Dave/Generated/WATCHDOG\watchdog.h ****  * #include "DAVE.h"
 245:C:/GitHub/MobRob_Rover_NEW/Ultrasonic_Sensor_Node/Ultrasonic_XMC_1400_Dynamic/Dave/Generated/WATCHDOG\watchdog.h ****  * int main(void)
 246:C:/GitHub/MobRob_Rover_NEW/Ultrasonic_Sensor_Node/Ultrasonic_XMC_1400_Dynamic/Dave/Generated/WATCHDOG\watchdog.h ****  * {
 247:C:/GitHub/MobRob_Rover_NEW/Ultrasonic_Sensor_Node/Ultrasonic_XMC_1400_Dynamic/Dave/Generated/WATCHDOG\watchdog.h ****  *   DAVE_STATUS_t status;
 248:C:/GitHub/MobRob_Rover_NEW/Ultrasonic_Sensor_Node/Ultrasonic_XMC_1400_Dynamic/Dave/Generated/WATCHDOG\watchdog.h ****  *
 249:C:/GitHub/MobRob_Rover_NEW/Ultrasonic_Sensor_Node/Ultrasonic_XMC_1400_Dynamic/Dave/Generated/WATCHDOG\watchdog.h ****  *   status = DAVE_Init();        // Initialization of DAVE Apps
 250:C:/GitHub/MobRob_Rover_NEW/Ultrasonic_Sensor_Node/Ultrasonic_XMC_1400_Dynamic/Dave/Generated/WATCHDOG\watchdog.h ****  *
 251:C:/GitHub/MobRob_Rover_NEW/Ultrasonic_Sensor_Node/Ultrasonic_XMC_1400_Dynamic/Dave/Generated/WATCHDOG\watchdog.h ****  *   if(status == DAVE_STATUS_SUCCESS)
 252:C:/GitHub/MobRob_Rover_NEW/Ultrasonic_Sensor_Node/Ultrasonic_XMC_1400_Dynamic/Dave/Generated/WATCHDOG\watchdog.h ****  *   {
 253:C:/GitHub/MobRob_Rover_NEW/Ultrasonic_Sensor_Node/Ultrasonic_XMC_1400_Dynamic/Dave/Generated/WATCHDOG\watchdog.h ****  *     WATCHDOG_Start(); // Start the watchdog timer
 254:C:/GitHub/MobRob_Rover_NEW/Ultrasonic_Sensor_Node/Ultrasonic_XMC_1400_Dynamic/Dave/Generated/WATCHDOG\watchdog.h ****  *   }
 255:C:/GitHub/MobRob_Rover_NEW/Ultrasonic_Sensor_Node/Ultrasonic_XMC_1400_Dynamic/Dave/Generated/WATCHDOG\watchdog.h ****  *
 256:C:/GitHub/MobRob_Rover_NEW/Ultrasonic_Sensor_Node/Ultrasonic_XMC_1400_Dynamic/Dave/Generated/WATCHDOG\watchdog.h ****  *   while(1U)
 257:C:/GitHub/MobRob_Rover_NEW/Ultrasonic_Sensor_Node/Ultrasonic_XMC_1400_Dynamic/Dave/Generated/WATCHDOG\watchdog.h ****  *   {
 258:C:/GitHub/MobRob_Rover_NEW/Ultrasonic_Sensor_Node/Ultrasonic_XMC_1400_Dynamic/Dave/Generated/WATCHDOG\watchdog.h ****  *   }
 259:C:/GitHub/MobRob_Rover_NEW/Ultrasonic_Sensor_Node/Ultrasonic_XMC_1400_Dynamic/Dave/Generated/WATCHDOG\watchdog.h ****  *
 260:C:/GitHub/MobRob_Rover_NEW/Ultrasonic_Sensor_Node/Ultrasonic_XMC_1400_Dynamic/Dave/Generated/WATCHDOG\watchdog.h ****  *   return 1;
 261:C:/GitHub/MobRob_Rover_NEW/Ultrasonic_Sensor_Node/Ultrasonic_XMC_1400_Dynamic/Dave/Generated/WATCHDOG\watchdog.h ****  * }
 262:C:/GitHub/MobRob_Rover_NEW/Ultrasonic_Sensor_Node/Ultrasonic_XMC_1400_Dynamic/Dave/Generated/WATCHDOG\watchdog.h ****  *
 263:C:/GitHub/MobRob_Rover_NEW/Ultrasonic_Sensor_Node/Ultrasonic_XMC_1400_Dynamic/Dave/Generated/WATCHDOG\watchdog.h ****  * void Watchdog_Handler(void)
 264:C:/GitHub/MobRob_Rover_NEW/Ultrasonic_Sensor_Node/Ultrasonic_XMC_1400_Dynamic/Dave/Generated/WATCHDOG\watchdog.h ****  * {
 265:C:/GitHub/MobRob_Rover_NEW/Ultrasonic_Sensor_Node/Ultrasonic_XMC_1400_Dynamic/Dave/Generated/WATCHDOG\watchdog.h ****  *   WATCHDOG_Service(); //service the watchdog timer.
 266:C:/GitHub/MobRob_Rover_NEW/Ultrasonic_Sensor_Node/Ultrasonic_XMC_1400_Dynamic/Dave/Generated/WATCHDOG\watchdog.h ****  *   WATCHDOG_Stop();
 267:C:/GitHub/MobRob_Rover_NEW/Ultrasonic_Sensor_Node/Ultrasonic_XMC_1400_Dynamic/Dave/Generated/WATCHDOG\watchdog.h ****  * }
 268:C:/GitHub/MobRob_Rover_NEW/Ultrasonic_Sensor_Node/Ultrasonic_XMC_1400_Dynamic/Dave/Generated/WATCHDOG\watchdog.h ****  *
 269:C:/GitHub/MobRob_Rover_NEW/Ultrasonic_Sensor_Node/Ultrasonic_XMC_1400_Dynamic/Dave/Generated/WATCHDOG\watchdog.h ****  * @endcode<BR> </p>
 270:C:/GitHub/MobRob_Rover_NEW/Ultrasonic_Sensor_Node/Ultrasonic_XMC_1400_Dynamic/Dave/Generated/WATCHDOG\watchdog.h ****  */
 271:C:/GitHub/MobRob_Rover_NEW/Ultrasonic_Sensor_Node/Ultrasonic_XMC_1400_Dynamic/Dave/Generated/WATCHDOG\watchdog.h **** __STATIC_INLINE void WATCHDOG_Start(void)
 272:C:/GitHub/MobRob_Rover_NEW/Ultrasonic_Sensor_Node/Ultrasonic_XMC_1400_Dynamic/Dave/Generated/WATCHDOG\watchdog.h **** {
 288              	 .loc 4 272 0
 289              	 .cfi_startproc
 290 0000 80B5     	 push {r7,lr}
 291              	.LCFI18:
 292              	 .cfi_def_cfa_offset 8
 293              	 .cfi_offset 7,-8
 294              	 .cfi_offset 14,-4
 295 0002 00AF     	 add r7,sp,#0
 296              	.LCFI19:
 297              	 .cfi_def_cfa_register 7
 273:C:/GitHub/MobRob_Rover_NEW/Ultrasonic_Sensor_Node/Ultrasonic_XMC_1400_Dynamic/Dave/Generated/WATCHDOG\watchdog.h ****   XMC_WDT_Start();
 298              	 .loc 4 273 0
 299 0004 FFF7FEFF 	 bl XMC_WDT_Start
 274:C:/GitHub/MobRob_Rover_NEW/Ultrasonic_Sensor_Node/Ultrasonic_XMC_1400_Dynamic/Dave/Generated/WATCHDOG\watchdog.h **** }
 300              	 .loc 4 274 0
 301 0008 BD46     	 mov sp,r7
 302              	 
 303 000a 80BD     	 pop {r7,pc}
 304              	 .cfi_endproc
 305              	.LFE211:
 307              	 .section .text.WATCHDOG_Service,"ax",%progbits
 308              	 .align 2
 309              	 .code 16
 310              	 .thumb_func
 312              	WATCHDOG_Service:
 313              	.LFB213:
 275:C:/GitHub/MobRob_Rover_NEW/Ultrasonic_Sensor_Node/Ultrasonic_XMC_1400_Dynamic/Dave/Generated/WATCHDOG\watchdog.h **** 
 276:C:/GitHub/MobRob_Rover_NEW/Ultrasonic_Sensor_Node/Ultrasonic_XMC_1400_Dynamic/Dave/Generated/WATCHDOG\watchdog.h **** /**
 277:C:/GitHub/MobRob_Rover_NEW/Ultrasonic_Sensor_Node/Ultrasonic_XMC_1400_Dynamic/Dave/Generated/WATCHDOG\watchdog.h ****  * @brief Stops the WATCHDOG timer.
 278:C:/GitHub/MobRob_Rover_NEW/Ultrasonic_Sensor_Node/Ultrasonic_XMC_1400_Dynamic/Dave/Generated/WATCHDOG\watchdog.h ****  *
 279:C:/GitHub/MobRob_Rover_NEW/Ultrasonic_Sensor_Node/Ultrasonic_XMC_1400_Dynamic/Dave/Generated/WATCHDOG\watchdog.h ****  * @return None
 280:C:/GitHub/MobRob_Rover_NEW/Ultrasonic_Sensor_Node/Ultrasonic_XMC_1400_Dynamic/Dave/Generated/WATCHDOG\watchdog.h ****  *            <BR>
 281:C:/GitHub/MobRob_Rover_NEW/Ultrasonic_Sensor_Node/Ultrasonic_XMC_1400_Dynamic/Dave/Generated/WATCHDOG\watchdog.h ****  *
 282:C:/GitHub/MobRob_Rover_NEW/Ultrasonic_Sensor_Node/Ultrasonic_XMC_1400_Dynamic/Dave/Generated/WATCHDOG\watchdog.h ****  * \par<b>Description:</b><br>
 283:C:/GitHub/MobRob_Rover_NEW/Ultrasonic_Sensor_Node/Ultrasonic_XMC_1400_Dynamic/Dave/Generated/WATCHDOG\watchdog.h ****  * WATCHDOG_Stop() can be used to pause the watchog timer as needed. To resume invoke WATCHDOG_Star
 284:C:/GitHub/MobRob_Rover_NEW/Ultrasonic_Sensor_Node/Ultrasonic_XMC_1400_Dynamic/Dave/Generated/WATCHDOG\watchdog.h ****  * 
 285:C:/GitHub/MobRob_Rover_NEW/Ultrasonic_Sensor_Node/Ultrasonic_XMC_1400_Dynamic/Dave/Generated/WATCHDOG\watchdog.h ****  * Example Usage:
 286:C:/GitHub/MobRob_Rover_NEW/Ultrasonic_Sensor_Node/Ultrasonic_XMC_1400_Dynamic/Dave/Generated/WATCHDOG\watchdog.h ****  *
 287:C:/GitHub/MobRob_Rover_NEW/Ultrasonic_Sensor_Node/Ultrasonic_XMC_1400_Dynamic/Dave/Generated/WATCHDOG\watchdog.h ****  * @code
 288:C:/GitHub/MobRob_Rover_NEW/Ultrasonic_Sensor_Node/Ultrasonic_XMC_1400_Dynamic/Dave/Generated/WATCHDOG\watchdog.h ****  * #include "DAVE.h"
 289:C:/GitHub/MobRob_Rover_NEW/Ultrasonic_Sensor_Node/Ultrasonic_XMC_1400_Dynamic/Dave/Generated/WATCHDOG\watchdog.h ****  * int main(void)
 290:C:/GitHub/MobRob_Rover_NEW/Ultrasonic_Sensor_Node/Ultrasonic_XMC_1400_Dynamic/Dave/Generated/WATCHDOG\watchdog.h ****  * {
 291:C:/GitHub/MobRob_Rover_NEW/Ultrasonic_Sensor_Node/Ultrasonic_XMC_1400_Dynamic/Dave/Generated/WATCHDOG\watchdog.h ****  *   DAVE_STATUS_t status;
 292:C:/GitHub/MobRob_Rover_NEW/Ultrasonic_Sensor_Node/Ultrasonic_XMC_1400_Dynamic/Dave/Generated/WATCHDOG\watchdog.h ****  *
 293:C:/GitHub/MobRob_Rover_NEW/Ultrasonic_Sensor_Node/Ultrasonic_XMC_1400_Dynamic/Dave/Generated/WATCHDOG\watchdog.h ****  *   status = DAVE_Init();        // Initialization of DAVE Apps
 294:C:/GitHub/MobRob_Rover_NEW/Ultrasonic_Sensor_Node/Ultrasonic_XMC_1400_Dynamic/Dave/Generated/WATCHDOG\watchdog.h ****  *
 295:C:/GitHub/MobRob_Rover_NEW/Ultrasonic_Sensor_Node/Ultrasonic_XMC_1400_Dynamic/Dave/Generated/WATCHDOG\watchdog.h ****  *   if(status == DAVE_STATUS_SUCCESS)
 296:C:/GitHub/MobRob_Rover_NEW/Ultrasonic_Sensor_Node/Ultrasonic_XMC_1400_Dynamic/Dave/Generated/WATCHDOG\watchdog.h ****  *   {
 297:C:/GitHub/MobRob_Rover_NEW/Ultrasonic_Sensor_Node/Ultrasonic_XMC_1400_Dynamic/Dave/Generated/WATCHDOG\watchdog.h ****  *     WATCHDOG_Start(); // Start the watchdog timer
 298:C:/GitHub/MobRob_Rover_NEW/Ultrasonic_Sensor_Node/Ultrasonic_XMC_1400_Dynamic/Dave/Generated/WATCHDOG\watchdog.h ****  *   }
 299:C:/GitHub/MobRob_Rover_NEW/Ultrasonic_Sensor_Node/Ultrasonic_XMC_1400_Dynamic/Dave/Generated/WATCHDOG\watchdog.h ****  *
 300:C:/GitHub/MobRob_Rover_NEW/Ultrasonic_Sensor_Node/Ultrasonic_XMC_1400_Dynamic/Dave/Generated/WATCHDOG\watchdog.h ****  *   while(1U)
 301:C:/GitHub/MobRob_Rover_NEW/Ultrasonic_Sensor_Node/Ultrasonic_XMC_1400_Dynamic/Dave/Generated/WATCHDOG\watchdog.h ****  *   {
 302:C:/GitHub/MobRob_Rover_NEW/Ultrasonic_Sensor_Node/Ultrasonic_XMC_1400_Dynamic/Dave/Generated/WATCHDOG\watchdog.h ****  *   }
 303:C:/GitHub/MobRob_Rover_NEW/Ultrasonic_Sensor_Node/Ultrasonic_XMC_1400_Dynamic/Dave/Generated/WATCHDOG\watchdog.h ****  *
 304:C:/GitHub/MobRob_Rover_NEW/Ultrasonic_Sensor_Node/Ultrasonic_XMC_1400_Dynamic/Dave/Generated/WATCHDOG\watchdog.h ****  *   return 1;
 305:C:/GitHub/MobRob_Rover_NEW/Ultrasonic_Sensor_Node/Ultrasonic_XMC_1400_Dynamic/Dave/Generated/WATCHDOG\watchdog.h ****  * }
 306:C:/GitHub/MobRob_Rover_NEW/Ultrasonic_Sensor_Node/Ultrasonic_XMC_1400_Dynamic/Dave/Generated/WATCHDOG\watchdog.h ****  *
 307:C:/GitHub/MobRob_Rover_NEW/Ultrasonic_Sensor_Node/Ultrasonic_XMC_1400_Dynamic/Dave/Generated/WATCHDOG\watchdog.h ****  * void Watchdog_Handler(void)
 308:C:/GitHub/MobRob_Rover_NEW/Ultrasonic_Sensor_Node/Ultrasonic_XMC_1400_Dynamic/Dave/Generated/WATCHDOG\watchdog.h ****  * {
 309:C:/GitHub/MobRob_Rover_NEW/Ultrasonic_Sensor_Node/Ultrasonic_XMC_1400_Dynamic/Dave/Generated/WATCHDOG\watchdog.h ****  *   WATCHDOG_ClearAlarm(); //clears the alarm flag
 310:C:/GitHub/MobRob_Rover_NEW/Ultrasonic_Sensor_Node/Ultrasonic_XMC_1400_Dynamic/Dave/Generated/WATCHDOG\watchdog.h ****  *   WATCHDOG_Service(); //service the watchdog timer.
 311:C:/GitHub/MobRob_Rover_NEW/Ultrasonic_Sensor_Node/Ultrasonic_XMC_1400_Dynamic/Dave/Generated/WATCHDOG\watchdog.h ****  *   WATCHDOG_Stop(); //Stop the watchdog timer
 312:C:/GitHub/MobRob_Rover_NEW/Ultrasonic_Sensor_Node/Ultrasonic_XMC_1400_Dynamic/Dave/Generated/WATCHDOG\watchdog.h ****  * }
 313:C:/GitHub/MobRob_Rover_NEW/Ultrasonic_Sensor_Node/Ultrasonic_XMC_1400_Dynamic/Dave/Generated/WATCHDOG\watchdog.h ****  *
 314:C:/GitHub/MobRob_Rover_NEW/Ultrasonic_Sensor_Node/Ultrasonic_XMC_1400_Dynamic/Dave/Generated/WATCHDOG\watchdog.h ****  * @endcode<BR> </p>
 315:C:/GitHub/MobRob_Rover_NEW/Ultrasonic_Sensor_Node/Ultrasonic_XMC_1400_Dynamic/Dave/Generated/WATCHDOG\watchdog.h ****  */
 316:C:/GitHub/MobRob_Rover_NEW/Ultrasonic_Sensor_Node/Ultrasonic_XMC_1400_Dynamic/Dave/Generated/WATCHDOG\watchdog.h **** __STATIC_INLINE void WATCHDOG_Stop(void)
 317:C:/GitHub/MobRob_Rover_NEW/Ultrasonic_Sensor_Node/Ultrasonic_XMC_1400_Dynamic/Dave/Generated/WATCHDOG\watchdog.h **** {
 318:C:/GitHub/MobRob_Rover_NEW/Ultrasonic_Sensor_Node/Ultrasonic_XMC_1400_Dynamic/Dave/Generated/WATCHDOG\watchdog.h ****   XMC_WDT_Stop();
 319:C:/GitHub/MobRob_Rover_NEW/Ultrasonic_Sensor_Node/Ultrasonic_XMC_1400_Dynamic/Dave/Generated/WATCHDOG\watchdog.h **** }
 320:C:/GitHub/MobRob_Rover_NEW/Ultrasonic_Sensor_Node/Ultrasonic_XMC_1400_Dynamic/Dave/Generated/WATCHDOG\watchdog.h **** 
 321:C:/GitHub/MobRob_Rover_NEW/Ultrasonic_Sensor_Node/Ultrasonic_XMC_1400_Dynamic/Dave/Generated/WATCHDOG\watchdog.h **** /**
 322:C:/GitHub/MobRob_Rover_NEW/Ultrasonic_Sensor_Node/Ultrasonic_XMC_1400_Dynamic/Dave/Generated/WATCHDOG\watchdog.h ****  * @brief Service the WATCHDOG timer.
 323:C:/GitHub/MobRob_Rover_NEW/Ultrasonic_Sensor_Node/Ultrasonic_XMC_1400_Dynamic/Dave/Generated/WATCHDOG\watchdog.h ****  *
 324:C:/GitHub/MobRob_Rover_NEW/Ultrasonic_Sensor_Node/Ultrasonic_XMC_1400_Dynamic/Dave/Generated/WATCHDOG\watchdog.h ****  * @return    None                           
 325:C:/GitHub/MobRob_Rover_NEW/Ultrasonic_Sensor_Node/Ultrasonic_XMC_1400_Dynamic/Dave/Generated/WATCHDOG\watchdog.h ****  *            <BR>
 326:C:/GitHub/MobRob_Rover_NEW/Ultrasonic_Sensor_Node/Ultrasonic_XMC_1400_Dynamic/Dave/Generated/WATCHDOG\watchdog.h ****  *
 327:C:/GitHub/MobRob_Rover_NEW/Ultrasonic_Sensor_Node/Ultrasonic_XMC_1400_Dynamic/Dave/Generated/WATCHDOG\watchdog.h ****  * \par<b>Description:</b><br>
 328:C:/GitHub/MobRob_Rover_NEW/Ultrasonic_Sensor_Node/Ultrasonic_XMC_1400_Dynamic/Dave/Generated/WATCHDOG\watchdog.h ****  * WATCHDOG_Service() will reset the watchdog timer.
 329:C:/GitHub/MobRob_Rover_NEW/Ultrasonic_Sensor_Node/Ultrasonic_XMC_1400_Dynamic/Dave/Generated/WATCHDOG\watchdog.h ****  *
 330:C:/GitHub/MobRob_Rover_NEW/Ultrasonic_Sensor_Node/Ultrasonic_XMC_1400_Dynamic/Dave/Generated/WATCHDOG\watchdog.h ****  * Example Usage:
 331:C:/GitHub/MobRob_Rover_NEW/Ultrasonic_Sensor_Node/Ultrasonic_XMC_1400_Dynamic/Dave/Generated/WATCHDOG\watchdog.h ****  * 
 332:C:/GitHub/MobRob_Rover_NEW/Ultrasonic_Sensor_Node/Ultrasonic_XMC_1400_Dynamic/Dave/Generated/WATCHDOG\watchdog.h ****  * @code
 333:C:/GitHub/MobRob_Rover_NEW/Ultrasonic_Sensor_Node/Ultrasonic_XMC_1400_Dynamic/Dave/Generated/WATCHDOG\watchdog.h ****  * #include "DAVE.h"
 334:C:/GitHub/MobRob_Rover_NEW/Ultrasonic_Sensor_Node/Ultrasonic_XMC_1400_Dynamic/Dave/Generated/WATCHDOG\watchdog.h ****  * int main(void)
 335:C:/GitHub/MobRob_Rover_NEW/Ultrasonic_Sensor_Node/Ultrasonic_XMC_1400_Dynamic/Dave/Generated/WATCHDOG\watchdog.h ****  * {
 336:C:/GitHub/MobRob_Rover_NEW/Ultrasonic_Sensor_Node/Ultrasonic_XMC_1400_Dynamic/Dave/Generated/WATCHDOG\watchdog.h ****  *   DAVE_STATUS_t status;
 337:C:/GitHub/MobRob_Rover_NEW/Ultrasonic_Sensor_Node/Ultrasonic_XMC_1400_Dynamic/Dave/Generated/WATCHDOG\watchdog.h ****  *
 338:C:/GitHub/MobRob_Rover_NEW/Ultrasonic_Sensor_Node/Ultrasonic_XMC_1400_Dynamic/Dave/Generated/WATCHDOG\watchdog.h ****  *   status = DAVE_Init();        // Initialization of DAVE Apps
 339:C:/GitHub/MobRob_Rover_NEW/Ultrasonic_Sensor_Node/Ultrasonic_XMC_1400_Dynamic/Dave/Generated/WATCHDOG\watchdog.h ****  *
 340:C:/GitHub/MobRob_Rover_NEW/Ultrasonic_Sensor_Node/Ultrasonic_XMC_1400_Dynamic/Dave/Generated/WATCHDOG\watchdog.h ****  *   if(status == DAVE_STATUS_SUCCESS)
 341:C:/GitHub/MobRob_Rover_NEW/Ultrasonic_Sensor_Node/Ultrasonic_XMC_1400_Dynamic/Dave/Generated/WATCHDOG\watchdog.h ****  *   {
 342:C:/GitHub/MobRob_Rover_NEW/Ultrasonic_Sensor_Node/Ultrasonic_XMC_1400_Dynamic/Dave/Generated/WATCHDOG\watchdog.h ****  *     WATCHDOG_Start(); // Start the watchdog timer
 343:C:/GitHub/MobRob_Rover_NEW/Ultrasonic_Sensor_Node/Ultrasonic_XMC_1400_Dynamic/Dave/Generated/WATCHDOG\watchdog.h ****  *   }
 344:C:/GitHub/MobRob_Rover_NEW/Ultrasonic_Sensor_Node/Ultrasonic_XMC_1400_Dynamic/Dave/Generated/WATCHDOG\watchdog.h ****  *
 345:C:/GitHub/MobRob_Rover_NEW/Ultrasonic_Sensor_Node/Ultrasonic_XMC_1400_Dynamic/Dave/Generated/WATCHDOG\watchdog.h ****  *   while(1U)
 346:C:/GitHub/MobRob_Rover_NEW/Ultrasonic_Sensor_Node/Ultrasonic_XMC_1400_Dynamic/Dave/Generated/WATCHDOG\watchdog.h ****  *   {
 347:C:/GitHub/MobRob_Rover_NEW/Ultrasonic_Sensor_Node/Ultrasonic_XMC_1400_Dynamic/Dave/Generated/WATCHDOG\watchdog.h ****  *   }
 348:C:/GitHub/MobRob_Rover_NEW/Ultrasonic_Sensor_Node/Ultrasonic_XMC_1400_Dynamic/Dave/Generated/WATCHDOG\watchdog.h ****  *
 349:C:/GitHub/MobRob_Rover_NEW/Ultrasonic_Sensor_Node/Ultrasonic_XMC_1400_Dynamic/Dave/Generated/WATCHDOG\watchdog.h ****  *   return 1;
 350:C:/GitHub/MobRob_Rover_NEW/Ultrasonic_Sensor_Node/Ultrasonic_XMC_1400_Dynamic/Dave/Generated/WATCHDOG\watchdog.h ****  * }
 351:C:/GitHub/MobRob_Rover_NEW/Ultrasonic_Sensor_Node/Ultrasonic_XMC_1400_Dynamic/Dave/Generated/WATCHDOG\watchdog.h ****  *
 352:C:/GitHub/MobRob_Rover_NEW/Ultrasonic_Sensor_Node/Ultrasonic_XMC_1400_Dynamic/Dave/Generated/WATCHDOG\watchdog.h ****  * void Watchdog_Handler(void)
 353:C:/GitHub/MobRob_Rover_NEW/Ultrasonic_Sensor_Node/Ultrasonic_XMC_1400_Dynamic/Dave/Generated/WATCHDOG\watchdog.h ****  * {
 354:C:/GitHub/MobRob_Rover_NEW/Ultrasonic_Sensor_Node/Ultrasonic_XMC_1400_Dynamic/Dave/Generated/WATCHDOG\watchdog.h ****  *   WATCHDOG_ClearAlarm(); //clears the alarm flag
 355:C:/GitHub/MobRob_Rover_NEW/Ultrasonic_Sensor_Node/Ultrasonic_XMC_1400_Dynamic/Dave/Generated/WATCHDOG\watchdog.h ****  *   WATCHDOG_Service(); //service the watchdog timer.
 356:C:/GitHub/MobRob_Rover_NEW/Ultrasonic_Sensor_Node/Ultrasonic_XMC_1400_Dynamic/Dave/Generated/WATCHDOG\watchdog.h ****  *   WATCHDOG_Stop();
 357:C:/GitHub/MobRob_Rover_NEW/Ultrasonic_Sensor_Node/Ultrasonic_XMC_1400_Dynamic/Dave/Generated/WATCHDOG\watchdog.h ****  * }
 358:C:/GitHub/MobRob_Rover_NEW/Ultrasonic_Sensor_Node/Ultrasonic_XMC_1400_Dynamic/Dave/Generated/WATCHDOG\watchdog.h ****  *
 359:C:/GitHub/MobRob_Rover_NEW/Ultrasonic_Sensor_Node/Ultrasonic_XMC_1400_Dynamic/Dave/Generated/WATCHDOG\watchdog.h ****  * @endcode<BR> </p>
 360:C:/GitHub/MobRob_Rover_NEW/Ultrasonic_Sensor_Node/Ultrasonic_XMC_1400_Dynamic/Dave/Generated/WATCHDOG\watchdog.h ****  */
 361:C:/GitHub/MobRob_Rover_NEW/Ultrasonic_Sensor_Node/Ultrasonic_XMC_1400_Dynamic/Dave/Generated/WATCHDOG\watchdog.h **** __STATIC_INLINE void WATCHDOG_Service(void)
 362:C:/GitHub/MobRob_Rover_NEW/Ultrasonic_Sensor_Node/Ultrasonic_XMC_1400_Dynamic/Dave/Generated/WATCHDOG\watchdog.h **** {
 314              	 .loc 4 362 0
 315              	 .cfi_startproc
 316 0000 80B5     	 push {r7,lr}
 317              	.LCFI20:
 318              	 .cfi_def_cfa_offset 8
 319              	 .cfi_offset 7,-8
 320              	 .cfi_offset 14,-4
 321 0002 00AF     	 add r7,sp,#0
 322              	.LCFI21:
 323              	 .cfi_def_cfa_register 7
 363:C:/GitHub/MobRob_Rover_NEW/Ultrasonic_Sensor_Node/Ultrasonic_XMC_1400_Dynamic/Dave/Generated/WATCHDOG\watchdog.h ****   XMC_WDT_Service();
 324              	 .loc 4 363 0
 325 0004 FFF7FEFF 	 bl XMC_WDT_Service
 364:C:/GitHub/MobRob_Rover_NEW/Ultrasonic_Sensor_Node/Ultrasonic_XMC_1400_Dynamic/Dave/Generated/WATCHDOG\watchdog.h **** }
 326              	 .loc 4 364 0
 327 0008 BD46     	 mov sp,r7
 328              	 
 329 000a 80BD     	 pop {r7,pc}
 330              	 .cfi_endproc
 331              	.LFE213:
 333              	 .section .text.WATCHDOG_ClearAlarm,"ax",%progbits
 334              	 .align 2
 335              	 .code 16
 336              	 .thumb_func
 338              	WATCHDOG_ClearAlarm:
 339              	.LFB214:
 365:C:/GitHub/MobRob_Rover_NEW/Ultrasonic_Sensor_Node/Ultrasonic_XMC_1400_Dynamic/Dave/Generated/WATCHDOG\watchdog.h **** 
 366:C:/GitHub/MobRob_Rover_NEW/Ultrasonic_Sensor_Node/Ultrasonic_XMC_1400_Dynamic/Dave/Generated/WATCHDOG\watchdog.h **** /**
 367:C:/GitHub/MobRob_Rover_NEW/Ultrasonic_Sensor_Node/Ultrasonic_XMC_1400_Dynamic/Dave/Generated/WATCHDOG\watchdog.h ****  * @brief Clears the alarm flag.
 368:C:/GitHub/MobRob_Rover_NEW/Ultrasonic_Sensor_Node/Ultrasonic_XMC_1400_Dynamic/Dave/Generated/WATCHDOG\watchdog.h ****  *
 369:C:/GitHub/MobRob_Rover_NEW/Ultrasonic_Sensor_Node/Ultrasonic_XMC_1400_Dynamic/Dave/Generated/WATCHDOG\watchdog.h ****  * @return None
 370:C:/GitHub/MobRob_Rover_NEW/Ultrasonic_Sensor_Node/Ultrasonic_XMC_1400_Dynamic/Dave/Generated/WATCHDOG\watchdog.h ****  * <BR>
 371:C:/GitHub/MobRob_Rover_NEW/Ultrasonic_Sensor_Node/Ultrasonic_XMC_1400_Dynamic/Dave/Generated/WATCHDOG\watchdog.h ****  * \par<b>Description:</b><br>
 372:C:/GitHub/MobRob_Rover_NEW/Ultrasonic_Sensor_Node/Ultrasonic_XMC_1400_Dynamic/Dave/Generated/WATCHDOG\watchdog.h ****  * After occurrence of Pre-warning alarm event, the timer has to be serviced with in second over fl
 373:C:/GitHub/MobRob_Rover_NEW/Ultrasonic_Sensor_Node/Ultrasonic_XMC_1400_Dynamic/Dave/Generated/WATCHDOG\watchdog.h ****  * clearing the alarm flag. Otherwise it will lead to system reset.
 374:C:/GitHub/MobRob_Rover_NEW/Ultrasonic_Sensor_Node/Ultrasonic_XMC_1400_Dynamic/Dave/Generated/WATCHDOG\watchdog.h ****  *
 375:C:/GitHub/MobRob_Rover_NEW/Ultrasonic_Sensor_Node/Ultrasonic_XMC_1400_Dynamic/Dave/Generated/WATCHDOG\watchdog.h ****  * Example Usage:
 376:C:/GitHub/MobRob_Rover_NEW/Ultrasonic_Sensor_Node/Ultrasonic_XMC_1400_Dynamic/Dave/Generated/WATCHDOG\watchdog.h ****  *
 377:C:/GitHub/MobRob_Rover_NEW/Ultrasonic_Sensor_Node/Ultrasonic_XMC_1400_Dynamic/Dave/Generated/WATCHDOG\watchdog.h ****  * @code
 378:C:/GitHub/MobRob_Rover_NEW/Ultrasonic_Sensor_Node/Ultrasonic_XMC_1400_Dynamic/Dave/Generated/WATCHDOG\watchdog.h ****  * #include "DAVE.h"
 379:C:/GitHub/MobRob_Rover_NEW/Ultrasonic_Sensor_Node/Ultrasonic_XMC_1400_Dynamic/Dave/Generated/WATCHDOG\watchdog.h ****  * int main(void)
 380:C:/GitHub/MobRob_Rover_NEW/Ultrasonic_Sensor_Node/Ultrasonic_XMC_1400_Dynamic/Dave/Generated/WATCHDOG\watchdog.h ****  * {
 381:C:/GitHub/MobRob_Rover_NEW/Ultrasonic_Sensor_Node/Ultrasonic_XMC_1400_Dynamic/Dave/Generated/WATCHDOG\watchdog.h ****  *   DAVE_STATUS_t status;
 382:C:/GitHub/MobRob_Rover_NEW/Ultrasonic_Sensor_Node/Ultrasonic_XMC_1400_Dynamic/Dave/Generated/WATCHDOG\watchdog.h ****  *
 383:C:/GitHub/MobRob_Rover_NEW/Ultrasonic_Sensor_Node/Ultrasonic_XMC_1400_Dynamic/Dave/Generated/WATCHDOG\watchdog.h ****  *   status = DAVE_Init();        // Initialization of DAVE Apps
 384:C:/GitHub/MobRob_Rover_NEW/Ultrasonic_Sensor_Node/Ultrasonic_XMC_1400_Dynamic/Dave/Generated/WATCHDOG\watchdog.h ****  *
 385:C:/GitHub/MobRob_Rover_NEW/Ultrasonic_Sensor_Node/Ultrasonic_XMC_1400_Dynamic/Dave/Generated/WATCHDOG\watchdog.h ****  *   if(status == DAVE_STATUS_SUCCESS)
 386:C:/GitHub/MobRob_Rover_NEW/Ultrasonic_Sensor_Node/Ultrasonic_XMC_1400_Dynamic/Dave/Generated/WATCHDOG\watchdog.h ****  *   {
 387:C:/GitHub/MobRob_Rover_NEW/Ultrasonic_Sensor_Node/Ultrasonic_XMC_1400_Dynamic/Dave/Generated/WATCHDOG\watchdog.h ****  *     WATCHDOG_Start(); // Start the watchdog timer
 388:C:/GitHub/MobRob_Rover_NEW/Ultrasonic_Sensor_Node/Ultrasonic_XMC_1400_Dynamic/Dave/Generated/WATCHDOG\watchdog.h ****  *   }
